; Listing generated by Microsoft (R) Optimizing Compiler Version 19.40.33811.0 

include listing.inc

INCLUDELIB OLDNAMES

PUBLIC	??_C@_0BC@EOODALEL@Unknown?5exception@		; `string'
PUBLIC	??_C@_0BF@KINCDENJ@bad?5array?5new?5length@	; `string'
PUBLIC	??_C@_0BA@JFNIOLAK@string?5too?5long@		; `string'
PUBLIC	??_R4exception@std@@6B@				; std::exception::`RTTI Complete Object Locator'
PUBLIC	??_R2bad_array_new_length@std@@8		; std::bad_array_new_length::`RTTI Base Class Array'
PUBLIC	??_R0?AVbad_alloc@std@@@8			; std::bad_alloc `RTTI Type Descriptor'
PUBLIC	??_R2bad_alloc@std@@8				; std::bad_alloc::`RTTI Base Class Array'
PUBLIC	_CTA3?AVbad_array_new_length@std@@
PUBLIC	??_7bad_array_new_length@std@@6B@		; std::bad_array_new_length::`vftable'
PUBLIC	??_R1A@?0A@EA@exception@std@@8			; std::exception::`RTTI Base Class Descriptor at (0,-1,0,64)'
PUBLIC	??_R1A@?0A@EA@bad_alloc@std@@8			; std::bad_alloc::`RTTI Base Class Descriptor at (0,-1,0,64)'
PUBLIC	??_7bad_alloc@std@@6B@				; std::bad_alloc::`vftable'
PUBLIC	??_R2exception@std@@8				; std::exception::`RTTI Base Class Array'
PUBLIC	??_7exception@std@@6B@				; std::exception::`vftable'
PUBLIC	??_R3exception@std@@8				; std::exception::`RTTI Class Hierarchy Descriptor'
PUBLIC	_CT??_R0?AVbad_array_new_length@std@@@8??0bad_array_new_length@std@@QEAA@AEBV01@@Z24
PUBLIC	?_Fake_alloc@std@@3U_Fake_allocator@1@B		; std::_Fake_alloc
PUBLIC	??_R4bad_alloc@std@@6B@				; std::bad_alloc::`RTTI Complete Object Locator'
PUBLIC	??_R3bad_array_new_length@std@@8		; std::bad_array_new_length::`RTTI Class Hierarchy Descriptor'
PUBLIC	_CT??_R0?AVbad_alloc@std@@@8??0bad_alloc@std@@QEAA@AEBV01@@Z24
PUBLIC	??_R3bad_alloc@std@@8				; std::bad_alloc::`RTTI Class Hierarchy Descriptor'
PUBLIC	??_R4bad_array_new_length@std@@6B@		; std::bad_array_new_length::`RTTI Complete Object Locator'
PUBLIC	??_R1A@?0A@EA@bad_array_new_length@std@@8	; std::bad_array_new_length::`RTTI Base Class Descriptor at (0,-1,0,64)'
PUBLIC	_CT??_R0?AVexception@std@@@8??0exception@std@@QEAA@AEBV01@@Z24
PUBLIC	_TI3?AVbad_array_new_length@std@@
PUBLIC	??_R0?AVexception@std@@@8			; std::exception `RTTI Type Descriptor'
PUBLIC	??_R0?AVbad_array_new_length@std@@@8		; std::bad_array_new_length `RTTI Type Descriptor'
EXTRN	__tlregdtor:PROC
EXTRN	_invalid_parameter_noinfo_noreturn:PROC
EXTRN	??_7type_info@@6B@:BYTE				; type_info::`vftable'
EXTRN	__std_terminate:PROC
EXTRN	??_U@YAPEAX_K@Z:PROC				; operator new[]
EXTRN	??3@YAXPEAX_K@Z:PROC				; operator delete
EXTRN	??3@YAXPEAX@Z:PROC				; operator delete
EXTRN	atexit:PROC
EXTRN	__std_exception_copy:PROC
EXTRN	?_Xlength_error@std@@YAXPEBD@Z:PROC		; std::_Xlength_error
EXTRN	??2@YAPEAX_K@Z:PROC				; operator new
EXTRN	??_V@YAXPEAX@Z:PROC				; operator delete[]
EXTRN	__std_exception_destroy:PROC
EXTRN	__security_check_cookie:PROC
EXTRN	__CxxFrameHandler4:PROC
;	COMDAT ??_R0?AVbad_array_new_length@std@@@8
data$r	SEGMENT
??_R0?AVbad_array_new_length@std@@@8 DQ FLAT:??_7type_info@@6B@ ; std::bad_array_new_length `RTTI Type Descriptor'
	DQ	0000000000000000H
	DB	'.?AVbad_array_new_length@std@@', 00H
data$r	ENDS
;	COMDAT ??_R0?AVexception@std@@@8
data$r	SEGMENT
??_R0?AVexception@std@@@8 DQ FLAT:??_7type_info@@6B@	; std::exception `RTTI Type Descriptor'
	DQ	0000000000000000H
	DB	'.?AVexception@std@@', 00H
data$r	ENDS
;	COMDAT _TI3?AVbad_array_new_length@std@@
xdata$x	SEGMENT
_TI3?AVbad_array_new_length@std@@ DD 00H
	DD	imagerel ??1bad_array_new_length@std@@UEAA@XZ
	DD	00H
	DD	imagerel _CTA3?AVbad_array_new_length@std@@
xdata$x	ENDS
;	COMDAT _CT??_R0?AVexception@std@@@8??0exception@std@@QEAA@AEBV01@@Z24
xdata$x	SEGMENT
_CT??_R0?AVexception@std@@@8??0exception@std@@QEAA@AEBV01@@Z24 DD 00H
	DD	imagerel ??_R0?AVexception@std@@@8
	DD	00H
	DD	0ffffffffH
	ORG $+4
	DD	018H
	DD	imagerel ??0exception@std@@QEAA@AEBV01@@Z
xdata$x	ENDS
;	COMDAT ??_R1A@?0A@EA@bad_array_new_length@std@@8
rdata$r	SEGMENT
??_R1A@?0A@EA@bad_array_new_length@std@@8 DD imagerel ??_R0?AVbad_array_new_length@std@@@8 ; std::bad_array_new_length::`RTTI Base Class Descriptor at (0,-1,0,64)'
	DD	02H
	DD	00H
	DD	0ffffffffH
	DD	00H
	DD	040H
	DD	imagerel ??_R3bad_array_new_length@std@@8
rdata$r	ENDS
;	COMDAT ??_R4bad_array_new_length@std@@6B@
rdata$r	SEGMENT
??_R4bad_array_new_length@std@@6B@ DD 01H		; std::bad_array_new_length::`RTTI Complete Object Locator'
	DD	00H
	DD	00H
	DD	imagerel ??_R0?AVbad_array_new_length@std@@@8
	DD	imagerel ??_R3bad_array_new_length@std@@8
	DD	imagerel ??_R4bad_array_new_length@std@@6B@
rdata$r	ENDS
;	COMDAT ??_R3bad_alloc@std@@8
rdata$r	SEGMENT
??_R3bad_alloc@std@@8 DD 00H				; std::bad_alloc::`RTTI Class Hierarchy Descriptor'
	DD	00H
	DD	02H
	DD	imagerel ??_R2bad_alloc@std@@8
rdata$r	ENDS
;	COMDAT _CT??_R0?AVbad_alloc@std@@@8??0bad_alloc@std@@QEAA@AEBV01@@Z24
xdata$x	SEGMENT
_CT??_R0?AVbad_alloc@std@@@8??0bad_alloc@std@@QEAA@AEBV01@@Z24 DD 010H
	DD	imagerel ??_R0?AVbad_alloc@std@@@8
	DD	00H
	DD	0ffffffffH
	ORG $+4
	DD	018H
	DD	imagerel ??0bad_alloc@std@@QEAA@AEBV01@@Z
xdata$x	ENDS
;	COMDAT ??_R3bad_array_new_length@std@@8
rdata$r	SEGMENT
??_R3bad_array_new_length@std@@8 DD 00H			; std::bad_array_new_length::`RTTI Class Hierarchy Descriptor'
	DD	00H
	DD	03H
	DD	imagerel ??_R2bad_array_new_length@std@@8
rdata$r	ENDS
;	COMDAT ??_R4bad_alloc@std@@6B@
rdata$r	SEGMENT
??_R4bad_alloc@std@@6B@ DD 01H				; std::bad_alloc::`RTTI Complete Object Locator'
	DD	00H
	DD	00H
	DD	imagerel ??_R0?AVbad_alloc@std@@@8
	DD	imagerel ??_R3bad_alloc@std@@8
	DD	imagerel ??_R4bad_alloc@std@@6B@
rdata$r	ENDS
;	COMDAT ?_Fake_alloc@std@@3U_Fake_allocator@1@B
CONST	SEGMENT
?_Fake_alloc@std@@3U_Fake_allocator@1@B	ORG $+1		; std::_Fake_alloc
CONST	ENDS
;	COMDAT _CT??_R0?AVbad_array_new_length@std@@@8??0bad_array_new_length@std@@QEAA@AEBV01@@Z24
xdata$x	SEGMENT
_CT??_R0?AVbad_array_new_length@std@@@8??0bad_array_new_length@std@@QEAA@AEBV01@@Z24 DD 00H
	DD	imagerel ??_R0?AVbad_array_new_length@std@@@8
	DD	00H
	DD	0ffffffffH
	ORG $+4
	DD	018H
	DD	imagerel ??0bad_array_new_length@std@@QEAA@AEBV01@@Z
xdata$x	ENDS
;	COMDAT ??_R3exception@std@@8
rdata$r	SEGMENT
??_R3exception@std@@8 DD 00H				; std::exception::`RTTI Class Hierarchy Descriptor'
	DD	00H
	DD	01H
	DD	imagerel ??_R2exception@std@@8
rdata$r	ENDS
;	COMDAT ??_7exception@std@@6B@
CONST	SEGMENT
??_7exception@std@@6B@ DQ FLAT:??_R4exception@std@@6B@	; std::exception::`vftable'
	DQ	FLAT:??_Eexception@std@@UEAAPEAXI@Z
	DQ	FLAT:?what@exception@std@@UEBAPEBDXZ
CONST	ENDS
;	COMDAT ??_R2exception@std@@8
rdata$r	SEGMENT
??_R2exception@std@@8 DD imagerel ??_R1A@?0A@EA@exception@std@@8 ; std::exception::`RTTI Base Class Array'
	ORG $+3
rdata$r	ENDS
;	COMDAT ??_7bad_alloc@std@@6B@
CONST	SEGMENT
??_7bad_alloc@std@@6B@ DQ FLAT:??_R4bad_alloc@std@@6B@	; std::bad_alloc::`vftable'
	DQ	FLAT:??_Ebad_alloc@std@@UEAAPEAXI@Z
	DQ	FLAT:?what@exception@std@@UEBAPEBDXZ
CONST	ENDS
;	COMDAT ??_R1A@?0A@EA@bad_alloc@std@@8
rdata$r	SEGMENT
??_R1A@?0A@EA@bad_alloc@std@@8 DD imagerel ??_R0?AVbad_alloc@std@@@8 ; std::bad_alloc::`RTTI Base Class Descriptor at (0,-1,0,64)'
	DD	01H
	DD	00H
	DD	0ffffffffH
	DD	00H
	DD	040H
	DD	imagerel ??_R3bad_alloc@std@@8
rdata$r	ENDS
;	COMDAT ??_R1A@?0A@EA@exception@std@@8
rdata$r	SEGMENT
??_R1A@?0A@EA@exception@std@@8 DD imagerel ??_R0?AVexception@std@@@8 ; std::exception::`RTTI Base Class Descriptor at (0,-1,0,64)'
	DD	00H
	DD	00H
	DD	0ffffffffH
	DD	00H
	DD	040H
	DD	imagerel ??_R3exception@std@@8
rdata$r	ENDS
;	COMDAT ??_7bad_array_new_length@std@@6B@
CONST	SEGMENT
??_7bad_array_new_length@std@@6B@ DQ FLAT:??_R4bad_array_new_length@std@@6B@ ; std::bad_array_new_length::`vftable'
	DQ	FLAT:??_Ebad_array_new_length@std@@UEAAPEAXI@Z
	DQ	FLAT:?what@exception@std@@UEBAPEBDXZ
CONST	ENDS
;	COMDAT _CTA3?AVbad_array_new_length@std@@
xdata$x	SEGMENT
_CTA3?AVbad_array_new_length@std@@ DD 03H
	DD	imagerel _CT??_R0?AVbad_array_new_length@std@@@8??0bad_array_new_length@std@@QEAA@AEBV01@@Z24
	DD	imagerel _CT??_R0?AVbad_alloc@std@@@8??0bad_alloc@std@@QEAA@AEBV01@@Z24
	DD	imagerel _CT??_R0?AVexception@std@@@8??0exception@std@@QEAA@AEBV01@@Z24
xdata$x	ENDS
;	COMDAT ??_R2bad_alloc@std@@8
rdata$r	SEGMENT
??_R2bad_alloc@std@@8 DD imagerel ??_R1A@?0A@EA@bad_alloc@std@@8 ; std::bad_alloc::`RTTI Base Class Array'
	DD	imagerel ??_R1A@?0A@EA@exception@std@@8
	ORG $+3
rdata$r	ENDS
;	COMDAT ??_R0?AVbad_alloc@std@@@8
data$r	SEGMENT
??_R0?AVbad_alloc@std@@@8 DQ FLAT:??_7type_info@@6B@	; std::bad_alloc `RTTI Type Descriptor'
	DQ	0000000000000000H
	DB	'.?AVbad_alloc@std@@', 00H
data$r	ENDS
;	COMDAT ??_R2bad_array_new_length@std@@8
rdata$r	SEGMENT
??_R2bad_array_new_length@std@@8 DD imagerel ??_R1A@?0A@EA@bad_array_new_length@std@@8 ; std::bad_array_new_length::`RTTI Base Class Array'
	DD	imagerel ??_R1A@?0A@EA@bad_alloc@std@@8
	DD	imagerel ??_R1A@?0A@EA@exception@std@@8
	ORG $+3
rdata$r	ENDS
;	COMDAT ??_R4exception@std@@6B@
rdata$r	SEGMENT
??_R4exception@std@@6B@ DD 01H				; std::exception::`RTTI Complete Object Locator'
	DD	00H
	DD	00H
	DD	imagerel ??_R0?AVexception@std@@@8
	DD	imagerel ??_R3exception@std@@8
	DD	imagerel ??_R4exception@std@@6B@
rdata$r	ENDS
;	COMDAT ??_C@_0BA@JFNIOLAK@string?5too?5long@
CONST	SEGMENT
??_C@_0BA@JFNIOLAK@string?5too?5long@ DB 'string too long', 00H ; `string'
CONST	ENDS
;	COMDAT ??_C@_0BF@KINCDENJ@bad?5array?5new?5length@
CONST	SEGMENT
??_C@_0BF@KINCDENJ@bad?5array?5new?5length@ DB 'bad array new length', 00H ; `string'
CONST	ENDS
;	COMDAT ??_C@_0BC@EOODALEL@Unknown?5exception@
CONST	SEGMENT
??_C@_0BC@EOODALEL@Unknown?5exception@ DB 'Unknown exception', 00H ; `string'
CONST	ENDS
PUBLIC	??$_Allocate_manually_vector_aligned@U_Default_allocate_traits@std@@@std@@YAPEAX_K@Z ; std::_Allocate_manually_vector_aligned<std::_Default_allocate_traits>
PUBLIC	??$_Get_size_of_n@$00@std@@YA_K_K@Z		; std::_Get_size_of_n<1>
PUBLIC	??$_Allocate@$0BA@U_Default_allocate_traits@std@@@std@@YAPEAX_K@Z ; std::_Allocate<16,std::_Default_allocate_traits>
PUBLIC	?allocate@?$allocator@D@std@@QEAAPEAD_K@Z	; std::allocator<char>::allocate
PUBLIC	??$construct_at@PEADAEBQEAD$0A@@std@@YAPEAPEADQEAPEADAEBQEAD@Z ; std::construct_at<char *,char * const &,0>
PUBLIC	??$forward@AEBQEAD@std@@YAAEBQEADAEBQEAD@Z	; std::forward<char * const &>
PUBLIC	??$construct_at@D$$V$0A@@std@@YAPEADQEAD@Z	; std::construct_at<char,0>
PUBLIC	??$_Allocate_at_least_helper@V?$allocator@D@std@@@std@@YAPEADAEAV?$allocator@D@0@AEA_K@Z ; std::_Allocate_at_least_helper<std::allocator<char> >
PUBLIC	??$?0AEAPEAD@?$_Compressed_pair@U?$default_delete@$$BY0A@D@std@@PEAD$00@std@@QEAA@U_Zero_then_variadic_args_t@1@AEAPEAD@Z ; std::_Compressed_pair<std::default_delete<char [0]>,char *,1>::_Compressed_pair<std::default_delete<char [0]>,char *,1><char * &>
PUBLIC	??$min@_K@std@@YAAEB_KAEB_K0@Z			; std::min<unsigned __int64>
PUBLIC	??$forward@AEAPEAD@std@@YAAEAPEADAEAPEAD@Z	; std::forward<char * &>
PUBLIC	??$addressof@PEAD@std@@YAPEAPEADAEAPEAD@Z	; std::addressof<char *>
PUBLIC	??$_Construct_in_place@PEADAEBQEAD@std@@YAXAEAPEADAEBQEAD@Z ; std::_Construct_in_place<char *,char * const &>
PUBLIC	??$_Allocate_for_capacity@$0A@@?$basic_string@DU?$char_traits@D@std@@V?$allocator@D@2@@std@@CAPEADAEAV?$allocator@D@1@AEA_K@Z ; std::basic_string<char,std::char_traits<char>,std::allocator<char> >::_Allocate_for_capacity<0>
PUBLIC	??$forward@V?$allocator@D@std@@@std@@YA$$QEAV?$allocator@D@0@AEAV10@@Z ; std::forward<std::allocator<char> >
PUBLIC	??$?0PEADU?$default_delete@$$BY0A@D@std@@$0A@$0A@@?$unique_ptr@$$BY0A@DU?$default_delete@$$BY0A@D@std@@@std@@QEAA@PEAD@Z ; std::unique_ptr<char [0],std::default_delete<char [0]> >::unique_ptr<char [0],std::default_delete<char [0]> ><char *,std::default_delete<char [0]>,0,0>
PUBLIC	??$forward@AEBD@std@@YAAEBDAEBD@Z		; std::forward<char const &>
PUBLIC	?max_size@?$_Default_allocator_traits@V?$allocator@D@std@@@std@@SA_KAEBV?$allocator@D@2@@Z ; std::_Default_allocator_traits<std::allocator<char> >::max_size
PUBLIC	??0_Bxty@?$_String_val@U?$_Simple_types@D@std@@@std@@QEAA@XZ ; std::_String_val<std::_Simple_types<char> >::_Bxty::_Bxty
PUBLIC	??0?$allocator@D@std@@QEAA@XZ			; std::allocator<char>::allocator<char>
PUBLIC	??0?$_String_val@U?$_Simple_types@D@std@@@std@@QEAA@XZ ; std::_String_val<std::_Simple_types<char> >::_String_val<std::_Simple_types<char> >
PUBLIC	?max_size@?$basic_string@DU?$char_traits@D@std@@V?$allocator@D@2@@std@@QEBA_KXZ ; std::basic_string<char,std::char_traits<char>,std::allocator<char> >::max_size
PUBLIC	?_Calculate_growth@?$basic_string@DU?$char_traits@D@std@@V?$allocator@D@2@@std@@CA_K_K00@Z ; std::basic_string<char,std::char_traits<char>,std::allocator<char> >::_Calculate_growth
PUBLIC	??$construct_at@DAEBD$0A@@std@@YAPEADQEADAEBD@Z	; std::construct_at<char,char const &,0>
PUBLIC	??$addressof@D@std@@YAPEADAEAD@Z		; std::addressof<char>
PUBLIC	??$_Destroy_in_place@PEAD@std@@YAXAEAPEAD@Z	; std::_Destroy_in_place<char *>
PUBLIC	??$_Deallocate@$0BA@@std@@YAXPEAX_K@Z		; std::_Deallocate<16>
PUBLIC	??$_Unfancy@D@std@@YAPEADPEAD@Z			; std::_Unfancy<char>
PUBLIC	??$_Construct@$01PEBD@?$basic_string@DU?$char_traits@D@std@@V?$allocator@D@2@@std@@AEAAXQEBD_K@Z ; std::basic_string<char,std::char_traits<char>,std::allocator<char> >::_Construct<2,char const *>
PUBLIC	??$_Construct@$00PEBD@?$basic_string@DU?$char_traits@D@std@@V?$allocator@D@2@@std@@AEAAXQEBD_K@Z ; std::basic_string<char,std::char_traits<char>,std::allocator<char> >::_Construct<1,char const *>
PUBLIC	??$_Convert_size@_K_K@std@@YA_K_K@Z		; std::_Convert_size<unsigned __int64,unsigned __int64>
PUBLIC	??$?0$$V@?$_Compressed_pair@V?$allocator@D@std@@V?$_String_val@U?$_Simple_types@D@std@@@2@$00@std@@QEAA@U_Zero_then_variadic_args_t@1@@Z ; std::_Compressed_pair<std::allocator<char>,std::_String_val<std::_Simple_types<char> >,1>::_Compressed_pair<std::allocator<char>,std::_String_val<std::_Simple_types<char> >,1><>
PUBLIC	??$?0V?$allocator@D@std@@$$V@?$_Compressed_pair@V?$allocator@D@std@@V?$_String_val@U?$_Simple_types@D@std@@@2@$00@std@@QEAA@U_One_then_variadic_args_t@1@$$QEAV?$allocator@D@1@@Z ; std::_Compressed_pair<std::allocator<char>,std::_String_val<std::_Simple_types<char> >,1>::_Compressed_pair<std::allocator<char>,std::_String_val<std::_Simple_types<char> >,1><std::allocator<char> >
PUBLIC	??$?RD$0A@@?$default_delete@$$BY0A@D@std@@QEBAXPEAD@Z ; std::default_delete<char [0]>::operator()<char,0>
PUBLIC	??$make_unique@$$BY0A@D$0A@@std@@YA?AV?$unique_ptr@$$BY0A@DU?$default_delete@$$BY0A@D@std@@@0@_K@Z ; std::make_unique<char [0],0>
PUBLIC	??$GetFunctionAddress@P6AHXZ@ProcessUtilities@@YAP6AHXZPEAUHINSTANCE__@@V?$basic_string@DU?$char_traits@D@std@@V?$allocator@D@2@@std@@@Z ; ProcessUtilities::GetFunctionAddress<int (__cdecl*)(void)>
PUBLIC	??$GetFunctionAddress@P6AH_KPEBDHH@Z@ProcessUtilities@@YAP6AH_KPEBDHH@ZPEAUHINSTANCE__@@V?$basic_string@DU?$char_traits@D@std@@V?$allocator@D@2@@std@@@Z ; ProcessUtilities::GetFunctionAddress<int (__cdecl*)(unsigned __int64,char const *,int,int)>
PUBLIC	??$GetFunctionAddress@P6AH_KPEADHHPEAUsockaddr@@PEAH@Z@ProcessUtilities@@YAP6AH_KPEADHHPEAUsockaddr@@PEAH@ZPEAUHINSTANCE__@@V?$basic_string@DU?$char_traits@D@std@@V?$allocator@D@2@@std@@@Z ; ProcessUtilities::GetFunctionAddress<int (__cdecl*)(unsigned __int64,char *,int,int,sockaddr *,int *)>
PUBLIC	??$GetFunctionAddress@P6AH_KPEBDHHPEBUsockaddr@@H@Z@ProcessUtilities@@YAP6AH_KPEBDHHPEBUsockaddr@@H@ZPEAUHINSTANCE__@@V?$basic_string@DU?$char_traits@D@std@@V?$allocator@D@2@@std@@@Z ; ProcessUtilities::GetFunctionAddress<int (__cdecl*)(unsigned __int64,char const *,int,int,sockaddr const *,int)>
PUBLIC	??$GetFunctionAddress@P6AH_KPEADHH@Z@ProcessUtilities@@YAP6AH_KPEADHH@ZPEAUHINSTANCE__@@V?$basic_string@DU?$char_traits@D@std@@V?$allocator@D@2@@std@@@Z ; ProcessUtilities::GetFunctionAddress<int (__cdecl*)(unsigned __int64,char *,int,int)>
PUBLIC	??$GetFunctionAddress@P6A_KHHH@Z@ProcessUtilities@@YAP6A_KHHH@ZPEAUHINSTANCE__@@V?$basic_string@DU?$char_traits@D@std@@V?$allocator@D@2@@std@@@Z ; ProcessUtilities::GetFunctionAddress<unsigned __int64 (__cdecl*)(int,int,int)>
PUBLIC	??$GetFunctionAddress@P6AH_K@Z@ProcessUtilities@@YAP6AH_K@ZPEAUHINSTANCE__@@V?$basic_string@DU?$char_traits@D@std@@V?$allocator@D@2@@std@@@Z ; ProcessUtilities::GetFunctionAddress<int (__cdecl*)(unsigned __int64)>
PUBLIC	??$GetFunctionAddress@P6AH_KPEBUsockaddr@@H@Z@ProcessUtilities@@YAP6AH_KPEBUsockaddr@@H@ZPEAUHINSTANCE__@@V?$basic_string@DU?$char_traits@D@std@@V?$allocator@D@2@@std@@@Z ; ProcessUtilities::GetFunctionAddress<int (__cdecl*)(unsigned __int64,sockaddr const *,int)>
PUBLIC	??$GetFunctionAddress@P6AHGPEAUWSAData@@@Z@ProcessUtilities@@YAP6AHGPEAUWSAData@@@ZPEAUHINSTANCE__@@V?$basic_string@DU?$char_traits@D@std@@V?$allocator@D@2@@std@@@Z ; ProcessUtilities::GetFunctionAddress<int (__cdecl*)(unsigned short,WSAData *)>
PUBLIC	?assign@?$_Char_traits@DH@std@@SAXAEADAEBD@Z	; std::_Char_traits<char,int>::assign
PUBLIC	?deallocate@?$allocator@D@std@@QEAAXQEAD_K@Z	; std::allocator<char>::deallocate
PUBLIC	?copy@?$_Char_traits@DH@std@@SAPEADQEADQEBD_K@Z	; std::_Char_traits<char,int>::copy
PUBLIC	?assign@?$_Narrow_char_traits@DH@std@@SAXAEADAEBD@Z ; std::_Narrow_char_traits<char,int>::assign
PUBLIC	?_Large_mode_engaged@?$_String_val@U?$_Simple_types@D@std@@@std@@QEBA_NXZ ; std::_String_val<std::_Simple_types<char> >::_Large_mode_engaged
PUBLIC	?_Activate_SSO_buffer@?$_String_val@U?$_Simple_types@D@std@@@std@@QEAAXXZ ; std::_String_val<std::_Simple_types<char> >::_Activate_SSO_buffer
PUBLIC	?_Switch_to_buf@_Bxty@?$_String_val@U?$_Simple_types@D@std@@@std@@QEAAXXZ ; std::_String_val<std::_Simple_types<char> >::_Bxty::_Switch_to_buf
PUBLIC	?_Deallocate_for_capacity@?$basic_string@DU?$char_traits@D@std@@V?$allocator@D@2@@std@@CAXAEAV?$allocator@D@2@QEAD_K@Z ; std::basic_string<char,std::char_traits<char>,std::allocator<char> >::_Deallocate_for_capacity
PUBLIC	?_Get_first@?$_Compressed_pair@V?$allocator@D@std@@V?$_String_val@U?$_Simple_types@D@std@@@2@$00@std@@QEAAAEAV?$allocator@D@2@XZ ; std::_Compressed_pair<std::allocator<char>,std::_String_val<std::_Simple_types<char> >,1>::_Get_first
PUBLIC	?_Get_first@?$_Compressed_pair@V?$allocator@D@std@@V?$_String_val@U?$_Simple_types@D@std@@@2@$00@std@@QEBAAEBV?$allocator@D@2@XZ ; std::_Compressed_pair<std::allocator<char>,std::_String_val<std::_Simple_types<char> >,1>::_Get_first
PUBLIC	??$max@_K@std@@YAAEB_KAEB_K0@Z			; std::max<unsigned __int64>
PUBLIC	?length@?$_Narrow_char_traits@DH@std@@SA_KQEBD@Z ; std::_Narrow_char_traits<char,int>::length
PUBLIC	?select_on_container_copy_construction@?$_Default_allocator_traits@V?$allocator@D@std@@@std@@SA?AV?$allocator@D@2@AEBV32@@Z ; std::_Default_allocator_traits<std::allocator<char> >::select_on_container_copy_construction
PUBLIC	?_Myptr@?$_String_val@U?$_Simple_types@D@std@@@std@@QEBAPEBDXZ ; std::_String_val<std::_Simple_types<char> >::_Myptr
PUBLIC	??1_Bxty@?$_String_val@U?$_Simple_types@D@std@@@std@@QEAA@XZ ; std::_String_val<std::_Simple_types<char> >::_Bxty::~_Bxty
PUBLIC	?_Construct_empty@?$basic_string@DU?$char_traits@D@std@@V?$allocator@D@2@@std@@AEAAXXZ ; std::basic_string<char,std::char_traits<char>,std::allocator<char> >::_Construct_empty
PUBLIC	?_Tidy_deallocate@?$basic_string@DU?$char_traits@D@std@@V?$allocator@D@2@@std@@AEAAXXZ ; std::basic_string<char,std::char_traits<char>,std::allocator<char> >::_Tidy_deallocate
PUBLIC	?_Getal@?$basic_string@DU?$char_traits@D@std@@V?$allocator@D@2@@std@@AEAAAEAV?$allocator@D@2@XZ ; std::basic_string<char,std::char_traits<char>,std::allocator<char> >::_Getal
PUBLIC	?_Getal@?$basic_string@DU?$char_traits@D@std@@V?$allocator@D@2@@std@@AEBAAEBV?$allocator@D@2@XZ ; std::basic_string<char,std::char_traits<char>,std::allocator<char> >::_Getal
PUBLIC	?data@?$obfuscator@$0N@$0?DCOKHGPAOABAGAID@D@ay@@QEBAPEBDXZ ; ay::obfuscator<13,-3668875623370088579,char>::data
PUBLIC	?decrypt@?$obfuscated_data@$0N@$0?DCOKHGPAOABAGAID@D@ay@@QEAAXXZ ; ay::obfuscated_data<13,-3668875623370088579,char>::decrypt
PUBLIC	?data@?$obfuscator@$09$0GPFFMNJFHLKDFJAP@D@ay@@QEBAPEBDXZ ; ay::obfuscator<10,8022544353138530575,char>::data
PUBLIC	?decrypt@?$obfuscated_data@$09$0GPFFMNJFHLKDFJAP@D@ay@@QEAAXXZ ; ay::obfuscated_data<10,8022544353138530575,char>::decrypt
PUBLIC	?data@?$obfuscator@$0N@$0?BMGONCACNKPGIEIF@D@ay@@QEBAPEBDXZ ; ay::obfuscator<13,-2048805790205510789,char>::data
PUBLIC	?decrypt@?$obfuscated_data@$0N@$0?BMGONCACNKPGIEIF@D@ay@@QEAAXXZ ; ay::obfuscated_data<13,-2048805790205510789,char>::decrypt
PUBLIC	?data@?$obfuscator@$0L@$0?GIOGLOCGPCIABIMJ@D@ay@@QEBAPEBDXZ ; ay::obfuscator<11,-7558938099074472137,char>::data
PUBLIC	?decrypt@?$obfuscated_data@$0L@$0?GIOGLOCGPCIABIMJ@D@ay@@QEAAXXZ ; ay::obfuscated_data<11,-7558938099074472137,char>::decrypt
PUBLIC	?data@?$obfuscator@$0L@$0?DOJGCMFOPGMELMMP@D@ay@@QEBAPEBDXZ ; ay::obfuscator<11,-4509840863236766927,char>::data
PUBLIC	?decrypt@?$obfuscated_data@$0L@$0?DOJGCMFOPGMELMMP@D@ay@@QEAAXXZ ; ay::obfuscated_data<11,-4509840863236766927,char>::decrypt
PUBLIC	?data@?$obfuscator@$0L@$0GPFFMNJFHLKDFJAP@D@ay@@QEBAPEBDXZ ; ay::obfuscator<11,8022544353138530575,char>::data
PUBLIC	?decrypt@?$obfuscated_data@$0L@$0GPFFMNJFHLKDFJAP@D@ay@@QEAAXXZ ; ay::obfuscated_data<11,8022544353138530575,char>::decrypt
PUBLIC	?data@?$obfuscator@$04$0?BMGONCACNKPGIEIF@D@ay@@QEBAPEBDXZ ; ay::obfuscator<5,-2048805790205510789,char>::data
PUBLIC	?decrypt@?$obfuscated_data@$04$0?BMGONCACNKPGIEIF@D@ay@@QEAAXXZ ; ay::obfuscated_data<5,-2048805790205510789,char>::decrypt
PUBLIC	?data@?$obfuscator@$0M@$0FHPLCBONHLGFABKJ@D@ay@@QEBAPEBDXZ ; ay::obfuscator<12,6339698204315287977,char>::data
PUBLIC	?decrypt@?$obfuscated_data@$0M@$0FHPLCBONHLGFABKJ@D@ay@@QEAAXXZ ; ay::obfuscated_data<12,6339698204315287977,char>::decrypt
PUBLIC	?data@?$obfuscator@$06$0?CEJMCMFKCANAFKKD@D@ay@@QEBAPEBDXZ ; ay::obfuscator<7,-2638032247341472419,char>::data
PUBLIC	?decrypt@?$obfuscated_data@$06$0?CEJMCMFKCANAFKKD@D@ay@@QEAAXXZ ; ay::obfuscated_data<7,-2638032247341472419,char>::decrypt
PUBLIC	?data@?$obfuscator@$04$0FFNFMNJBKPLPEDOJ@D@ay@@QEBAPEBDXZ ; ay::obfuscator<5,6185075688865743849,char>::data
PUBLIC	?decrypt@?$obfuscated_data@$04$0FFNFMNJBKPLPEDOJ@D@ay@@QEAAXXZ ; ay::obfuscated_data<5,6185075688865743849,char>::decrypt
PUBLIC	?data@?$obfuscator@$06$0?OLMMGBCGKAANADB@D@ay@@QEBAPEBDXZ ; ay::obfuscator<7,-1061941394542743601,char>::data
PUBLIC	?decrypt@?$obfuscated_data@$06$0?OLMMGBCGKAANADB@D@ay@@QEAAXXZ ; ay::obfuscated_data<7,-1061941394542743601,char>::decrypt
PUBLIC	?data@?$obfuscator@$08$0BLAHMNIPHFJJOFGN@D@ay@@QEBAPEBDXZ ; ay::obfuscator<9,1947751379898066285,char>::data
PUBLIC	?decrypt@?$obfuscated_data@$08$0BLAHMNIPHFJJOFGN@D@ay@@QEAAXXZ ; ay::obfuscated_data<9,1947751379898066285,char>::decrypt
PUBLIC	?data@?$obfuscator@$04$0CJGHDDDHAHNPJJPJ@D@ay@@QEBAPEBDXZ ; ay::obfuscator<5,2983409589604555257,char>::data
PUBLIC	?decrypt@?$obfuscated_data@$04$0CJGHDDDHAHNPJJPJ@D@ay@@QEAAXXZ ; ay::obfuscated_data<5,2983409589604555257,char>::decrypt
PUBLIC	?data@?$obfuscator@$0L@$0?CLAAOECFMICOACN@D@ay@@QEBAPEBDXZ ; ay::obfuscator<11,-193670462159642669,char>::data
PUBLIC	?decrypt@?$obfuscated_data@$0L@$0?CLAAOECFMICOACN@D@ay@@QEAAXXZ ; ay::obfuscated_data<11,-193670462159642669,char>::decrypt
PUBLIC	?data@?$obfuscator@$07$0?HOPGIGJOHALMKGDD@D@ay@@QEBAPEBDXZ ; ay::obfuscator<8,-9148647708104107571,char>::data
PUBLIC	?decrypt@?$obfuscated_data@$07$0?HOPGIGJOHALMKGDD@D@ay@@QEAAXXZ ; ay::obfuscated_data<8,-9148647708104107571,char>::decrypt
PUBLIC	?_Get_first@?$_Compressed_pair@U?$default_delete@$$BY0A@D@std@@PEAD$00@std@@QEAAAEAU?$default_delete@$$BY0A@D@2@XZ ; std::_Compressed_pair<std::default_delete<char [0]>,char *,1>::_Get_first
PUBLIC	??0?$basic_string@DU?$char_traits@D@std@@V?$allocator@D@2@@std@@QEAA@XZ ; std::basic_string<char,std::char_traits<char>,std::allocator<char> >::basic_string<char,std::char_traits<char>,std::allocator<char> >
PUBLIC	??0?$basic_string@DU?$char_traits@D@std@@V?$allocator@D@2@@std@@QEAA@AEBV01@@Z ; std::basic_string<char,std::char_traits<char>,std::allocator<char> >::basic_string<char,std::char_traits<char>,std::allocator<char> >
PUBLIC	??0?$basic_string@DU?$char_traits@D@std@@V?$allocator@D@2@@std@@QEAA@QEBD@Z ; std::basic_string<char,std::char_traits<char>,std::allocator<char> >::basic_string<char,std::char_traits<char>,std::allocator<char> >
PUBLIC	??1?$_String_val@U?$_Simple_types@D@std@@@std@@QEAA@XZ ; std::_String_val<std::_Simple_types<char> >::~_String_val<std::_Simple_types<char> >
PUBLIC	??1?$_Compressed_pair@V?$allocator@D@std@@V?$_String_val@U?$_Simple_types@D@std@@@2@$00@std@@QEAA@XZ ; std::_Compressed_pair<std::allocator<char>,std::_String_val<std::_Simple_types<char> >,1>::~_Compressed_pair<std::allocator<char>,std::_String_val<std::_Simple_types<char> >,1>
PUBLIC	??1?$basic_string@DU?$char_traits@D@std@@V?$allocator@D@2@@std@@QEAA@XZ ; std::basic_string<char,std::char_traits<char>,std::allocator<char> >::~basic_string<char,std::char_traits<char>,std::allocator<char> >
PUBLIC	??0?$obfuscated_data@$0N@$0?DCOKHGPAOABAGAID@D@ay@@QEAA@AEBV?$obfuscator@$0N@$0?DCOKHGPAOABAGAID@D@1@@Z ; ay::obfuscated_data<13,-3668875623370088579,char>::obfuscated_data<13,-3668875623370088579,char>
PUBLIC	??1?$obfuscated_data@$0N@$0?DCOKHGPAOABAGAID@D@ay@@QEAA@XZ ; ay::obfuscated_data<13,-3668875623370088579,char>::~obfuscated_data<13,-3668875623370088579,char>
PUBLIC	??B?$obfuscated_data@$0N@$0?DCOKHGPAOABAGAID@D@ay@@QEAAPEADXZ ; ay::obfuscated_data<13,-3668875623370088579,char>::operator char *
PUBLIC	??0?$obfuscated_data@$09$0GPFFMNJFHLKDFJAP@D@ay@@QEAA@AEBV?$obfuscator@$09$0GPFFMNJFHLKDFJAP@D@1@@Z ; ay::obfuscated_data<10,8022544353138530575,char>::obfuscated_data<10,8022544353138530575,char>
PUBLIC	??1?$obfuscated_data@$09$0GPFFMNJFHLKDFJAP@D@ay@@QEAA@XZ ; ay::obfuscated_data<10,8022544353138530575,char>::~obfuscated_data<10,8022544353138530575,char>
PUBLIC	??B?$obfuscated_data@$09$0GPFFMNJFHLKDFJAP@D@ay@@QEAAPEADXZ ; ay::obfuscated_data<10,8022544353138530575,char>::operator char *
PUBLIC	??0?$obfuscated_data@$0N@$0?BMGONCACNKPGIEIF@D@ay@@QEAA@AEBV?$obfuscator@$0N@$0?BMGONCACNKPGIEIF@D@1@@Z ; ay::obfuscated_data<13,-2048805790205510789,char>::obfuscated_data<13,-2048805790205510789,char>
PUBLIC	??1?$obfuscated_data@$0N@$0?BMGONCACNKPGIEIF@D@ay@@QEAA@XZ ; ay::obfuscated_data<13,-2048805790205510789,char>::~obfuscated_data<13,-2048805790205510789,char>
PUBLIC	??B?$obfuscated_data@$0N@$0?BMGONCACNKPGIEIF@D@ay@@QEAAPEADXZ ; ay::obfuscated_data<13,-2048805790205510789,char>::operator char *
PUBLIC	??0?$obfuscated_data@$0L@$0?GIOGLOCGPCIABIMJ@D@ay@@QEAA@AEBV?$obfuscator@$0L@$0?GIOGLOCGPCIABIMJ@D@1@@Z ; ay::obfuscated_data<11,-7558938099074472137,char>::obfuscated_data<11,-7558938099074472137,char>
PUBLIC	??1?$obfuscated_data@$0L@$0?GIOGLOCGPCIABIMJ@D@ay@@QEAA@XZ ; ay::obfuscated_data<11,-7558938099074472137,char>::~obfuscated_data<11,-7558938099074472137,char>
PUBLIC	??B?$obfuscated_data@$0L@$0?GIOGLOCGPCIABIMJ@D@ay@@QEAAPEADXZ ; ay::obfuscated_data<11,-7558938099074472137,char>::operator char *
PUBLIC	??0?$obfuscated_data@$0L@$0?DOJGCMFOPGMELMMP@D@ay@@QEAA@AEBV?$obfuscator@$0L@$0?DOJGCMFOPGMELMMP@D@1@@Z ; ay::obfuscated_data<11,-4509840863236766927,char>::obfuscated_data<11,-4509840863236766927,char>
PUBLIC	??1?$obfuscated_data@$0L@$0?DOJGCMFOPGMELMMP@D@ay@@QEAA@XZ ; ay::obfuscated_data<11,-4509840863236766927,char>::~obfuscated_data<11,-4509840863236766927,char>
PUBLIC	??B?$obfuscated_data@$0L@$0?DOJGCMFOPGMELMMP@D@ay@@QEAAPEADXZ ; ay::obfuscated_data<11,-4509840863236766927,char>::operator char *
PUBLIC	??0?$obfuscated_data@$0L@$0GPFFMNJFHLKDFJAP@D@ay@@QEAA@AEBV?$obfuscator@$0L@$0GPFFMNJFHLKDFJAP@D@1@@Z ; ay::obfuscated_data<11,8022544353138530575,char>::obfuscated_data<11,8022544353138530575,char>
PUBLIC	??1?$obfuscated_data@$0L@$0GPFFMNJFHLKDFJAP@D@ay@@QEAA@XZ ; ay::obfuscated_data<11,8022544353138530575,char>::~obfuscated_data<11,8022544353138530575,char>
PUBLIC	??B?$obfuscated_data@$0L@$0GPFFMNJFHLKDFJAP@D@ay@@QEAAPEADXZ ; ay::obfuscated_data<11,8022544353138530575,char>::operator char *
PUBLIC	??0?$obfuscated_data@$04$0?BMGONCACNKPGIEIF@D@ay@@QEAA@AEBV?$obfuscator@$04$0?BMGONCACNKPGIEIF@D@1@@Z ; ay::obfuscated_data<5,-2048805790205510789,char>::obfuscated_data<5,-2048805790205510789,char>
PUBLIC	??1?$obfuscated_data@$04$0?BMGONCACNKPGIEIF@D@ay@@QEAA@XZ ; ay::obfuscated_data<5,-2048805790205510789,char>::~obfuscated_data<5,-2048805790205510789,char>
PUBLIC	??B?$obfuscated_data@$04$0?BMGONCACNKPGIEIF@D@ay@@QEAAPEADXZ ; ay::obfuscated_data<5,-2048805790205510789,char>::operator char *
PUBLIC	??0?$obfuscated_data@$0M@$0FHPLCBONHLGFABKJ@D@ay@@QEAA@AEBV?$obfuscator@$0M@$0FHPLCBONHLGFABKJ@D@1@@Z ; ay::obfuscated_data<12,6339698204315287977,char>::obfuscated_data<12,6339698204315287977,char>
PUBLIC	??1?$obfuscated_data@$0M@$0FHPLCBONHLGFABKJ@D@ay@@QEAA@XZ ; ay::obfuscated_data<12,6339698204315287977,char>::~obfuscated_data<12,6339698204315287977,char>
PUBLIC	??B?$obfuscated_data@$0M@$0FHPLCBONHLGFABKJ@D@ay@@QEAAPEADXZ ; ay::obfuscated_data<12,6339698204315287977,char>::operator char *
PUBLIC	??0?$obfuscated_data@$06$0?CEJMCMFKCANAFKKD@D@ay@@QEAA@AEBV?$obfuscator@$06$0?CEJMCMFKCANAFKKD@D@1@@Z ; ay::obfuscated_data<7,-2638032247341472419,char>::obfuscated_data<7,-2638032247341472419,char>
PUBLIC	??1?$obfuscated_data@$06$0?CEJMCMFKCANAFKKD@D@ay@@QEAA@XZ ; ay::obfuscated_data<7,-2638032247341472419,char>::~obfuscated_data<7,-2638032247341472419,char>
PUBLIC	??B?$obfuscated_data@$06$0?CEJMCMFKCANAFKKD@D@ay@@QEAAPEADXZ ; ay::obfuscated_data<7,-2638032247341472419,char>::operator char *
PUBLIC	??0?$obfuscated_data@$04$0FFNFMNJBKPLPEDOJ@D@ay@@QEAA@AEBV?$obfuscator@$04$0FFNFMNJBKPLPEDOJ@D@1@@Z ; ay::obfuscated_data<5,6185075688865743849,char>::obfuscated_data<5,6185075688865743849,char>
PUBLIC	??1?$obfuscated_data@$04$0FFNFMNJBKPLPEDOJ@D@ay@@QEAA@XZ ; ay::obfuscated_data<5,6185075688865743849,char>::~obfuscated_data<5,6185075688865743849,char>
PUBLIC	??B?$obfuscated_data@$04$0FFNFMNJBKPLPEDOJ@D@ay@@QEAAPEADXZ ; ay::obfuscated_data<5,6185075688865743849,char>::operator char *
PUBLIC	??0?$obfuscated_data@$06$0?OLMMGBCGKAANADB@D@ay@@QEAA@AEBV?$obfuscator@$06$0?OLMMGBCGKAANADB@D@1@@Z ; ay::obfuscated_data<7,-1061941394542743601,char>::obfuscated_data<7,-1061941394542743601,char>
PUBLIC	??1?$obfuscated_data@$06$0?OLMMGBCGKAANADB@D@ay@@QEAA@XZ ; ay::obfuscated_data<7,-1061941394542743601,char>::~obfuscated_data<7,-1061941394542743601,char>
PUBLIC	??B?$obfuscated_data@$06$0?OLMMGBCGKAANADB@D@ay@@QEAAPEADXZ ; ay::obfuscated_data<7,-1061941394542743601,char>::operator char *
PUBLIC	??0?$obfuscated_data@$08$0BLAHMNIPHFJJOFGN@D@ay@@QEAA@AEBV?$obfuscator@$08$0BLAHMNIPHFJJOFGN@D@1@@Z ; ay::obfuscated_data<9,1947751379898066285,char>::obfuscated_data<9,1947751379898066285,char>
PUBLIC	??1?$obfuscated_data@$08$0BLAHMNIPHFJJOFGN@D@ay@@QEAA@XZ ; ay::obfuscated_data<9,1947751379898066285,char>::~obfuscated_data<9,1947751379898066285,char>
PUBLIC	??B?$obfuscated_data@$08$0BLAHMNIPHFJJOFGN@D@ay@@QEAAPEADXZ ; ay::obfuscated_data<9,1947751379898066285,char>::operator char *
PUBLIC	??0?$obfuscated_data@$04$0CJGHDDDHAHNPJJPJ@D@ay@@QEAA@AEBV?$obfuscator@$04$0CJGHDDDHAHNPJJPJ@D@1@@Z ; ay::obfuscated_data<5,2983409589604555257,char>::obfuscated_data<5,2983409589604555257,char>
PUBLIC	??1?$obfuscated_data@$04$0CJGHDDDHAHNPJJPJ@D@ay@@QEAA@XZ ; ay::obfuscated_data<5,2983409589604555257,char>::~obfuscated_data<5,2983409589604555257,char>
PUBLIC	??B?$obfuscated_data@$04$0CJGHDDDHAHNPJJPJ@D@ay@@QEAAPEADXZ ; ay::obfuscated_data<5,2983409589604555257,char>::operator char *
PUBLIC	??0?$obfuscated_data@$0L@$0?CLAAOECFMICOACN@D@ay@@QEAA@AEBV?$obfuscator@$0L@$0?CLAAOECFMICOACN@D@1@@Z ; ay::obfuscated_data<11,-193670462159642669,char>::obfuscated_data<11,-193670462159642669,char>
PUBLIC	??1?$obfuscated_data@$0L@$0?CLAAOECFMICOACN@D@ay@@QEAA@XZ ; ay::obfuscated_data<11,-193670462159642669,char>::~obfuscated_data<11,-193670462159642669,char>
PUBLIC	??B?$obfuscated_data@$0L@$0?CLAAOECFMICOACN@D@ay@@QEAAPEADXZ ; ay::obfuscated_data<11,-193670462159642669,char>::operator char *
PUBLIC	??0?$obfuscated_data@$07$0?HOPGIGJOHALMKGDD@D@ay@@QEAA@AEBV?$obfuscator@$07$0?HOPGIGJOHALMKGDD@D@1@@Z ; ay::obfuscated_data<8,-9148647708104107571,char>::obfuscated_data<8,-9148647708104107571,char>
PUBLIC	??1?$obfuscated_data@$07$0?HOPGIGJOHALMKGDD@D@ay@@QEAA@XZ ; ay::obfuscated_data<8,-9148647708104107571,char>::~obfuscated_data<8,-9148647708104107571,char>
PUBLIC	??B?$obfuscated_data@$07$0?HOPGIGJOHALMKGDD@D@ay@@QEAAPEADXZ ; ay::obfuscated_data<8,-9148647708104107571,char>::operator char *
PUBLIC	??1?$unique_ptr@$$BY0A@DU?$default_delete@$$BY0A@D@std@@@std@@QEAA@XZ ; std::unique_ptr<char [0],std::default_delete<char [0]> >::~unique_ptr<char [0],std::default_delete<char [0]> >
PUBLIC	?get@?$unique_ptr@$$BY0A@DU?$default_delete@$$BY0A@D@std@@@std@@QEBAPEADXZ ; std::unique_ptr<char [0],std::default_delete<char [0]> >::get
PUBLIC	?Disconnect@Client@@QEAAHXZ			; Client::Disconnect
PUBLIC	?MakeServerRequest@Client@@QEAAHUClientRequest@@H@Z ; Client::MakeServerRequest
PUBLIC	?TCPSendMessageToServer@Client@@IEAAHUClientRequest@@@Z ; Client::TCPSendMessageToServer
PUBLIC	?__autoclassinit2@?$unique_ptr@$$BY0A@DU?$default_delete@$$BY0A@D@std@@@std@@QEAAX_K@Z ; std::unique_ptr<char [0],std::default_delete<char [0]> >::__autoclassinit2
PUBLIC	?UDPSendMessageToServer@Client@@IEAAHUClientRequest@@@Z ; Client::UDPSendMessageToServer
PUBLIC	?SocketReady@Client@@IEBAHW4SocketTypes@@@Z	; Client::SocketReady
PUBLIC	?Connect@Client@@QEAAHXZ			; Client::Connect
PUBLIC	??__Fobfuscated_data@?1???R<lambda_1>@?1??LoadWSAFunctions@Client@@IEAAXXZ@QEBAAEAV?$obfuscated_data@$0L@$0?DOJGCMFOPGMELMMP@D@ay@@XZ@YAXXZ ; ``Client::LoadWSAFunctions'::`2'::<lambda_1>::operator()'::`2'::`dynamic atexit destructor for 'obfuscated_data''
PUBLIC	??__Fobfuscated_data@?1???R<lambda_2>@?1??LoadWSAFunctions@Client@@IEAAXXZ@QEBAAEAV?$obfuscated_data@$0L@$0GPFFMNJFHLKDFJAP@D@ay@@XZ@YAXXZ ; ``Client::LoadWSAFunctions'::`2'::<lambda_2>::operator()'::`2'::`dynamic atexit destructor for 'obfuscated_data''
PUBLIC	??__Fobfuscated_data@?1???R<lambda_3>@?1??LoadWSAFunctions@Client@@IEAAXXZ@QEBAAEAV?$obfuscated_data@$04$0?BMGONCACNKPGIEIF@D@ay@@XZ@YAXXZ ; ``Client::LoadWSAFunctions'::`2'::<lambda_3>::operator()'::`2'::`dynamic atexit destructor for 'obfuscated_data''
PUBLIC	??__Fobfuscated_data@?1???R<lambda_4>@?1??LoadWSAFunctions@Client@@IEAAXXZ@QEBAAEAV?$obfuscated_data@$0M@$0FHPLCBONHLGFABKJ@D@ay@@XZ@YAXXZ ; ``Client::LoadWSAFunctions'::`2'::<lambda_4>::operator()'::`2'::`dynamic atexit destructor for 'obfuscated_data''
PUBLIC	??__Fobfuscated_data@?1???R<lambda_5>@?1??LoadWSAFunctions@Client@@IEAAXXZ@QEBAAEAV?$obfuscated_data@$06$0?CEJMCMFKCANAFKKD@D@ay@@XZ@YAXXZ ; ``Client::LoadWSAFunctions'::`2'::<lambda_5>::operator()'::`2'::`dynamic atexit destructor for 'obfuscated_data''
PUBLIC	??__Fobfuscated_data@?1???R<lambda_6>@?1??LoadWSAFunctions@Client@@IEAAXXZ@QEBAAEAV?$obfuscated_data@$04$0FFNFMNJBKPLPEDOJ@D@ay@@XZ@YAXXZ ; ``Client::LoadWSAFunctions'::`2'::<lambda_6>::operator()'::`2'::`dynamic atexit destructor for 'obfuscated_data''
PUBLIC	??__Fobfuscated_data@?1???R<lambda_7>@?1??LoadWSAFunctions@Client@@IEAAXXZ@QEBAAEAV?$obfuscated_data@$06$0?OLMMGBCGKAANADB@D@ay@@XZ@YAXXZ ; ``Client::LoadWSAFunctions'::`2'::<lambda_7>::operator()'::`2'::`dynamic atexit destructor for 'obfuscated_data''
PUBLIC	??__Fobfuscated_data@?1???R<lambda_8>@?1??LoadWSAFunctions@Client@@IEAAXXZ@QEBAAEAV?$obfuscated_data@$08$0BLAHMNIPHFJJOFGN@D@ay@@XZ@YAXXZ ; ``Client::LoadWSAFunctions'::`2'::<lambda_8>::operator()'::`2'::`dynamic atexit destructor for 'obfuscated_data''
PUBLIC	??__Fobfuscated_data@?1???R<lambda_9>@?1??LoadWSAFunctions@Client@@IEAAXXZ@QEBAAEAV?$obfuscated_data@$04$0CJGHDDDHAHNPJJPJ@D@ay@@XZ@YAXXZ ; ``Client::LoadWSAFunctions'::`2'::<lambda_9>::operator()'::`2'::`dynamic atexit destructor for 'obfuscated_data''
PUBLIC	??__Fobfuscated_data@?1???R<lambda_10>@?1??LoadWSAFunctions@Client@@IEAAXXZ@QEBAAEAV?$obfuscated_data@$0L@$0?CLAAOECFMICOACN@D@ay@@XZ@YAXXZ ; ``Client::LoadWSAFunctions'::`2'::<lambda_10>::operator()'::`2'::`dynamic atexit destructor for 'obfuscated_data''
PUBLIC	??__Fobfuscated_data@?1???R<lambda_11>@?1??LoadWSAFunctions@Client@@IEAAXXZ@QEBAAEAV?$obfuscated_data@$07$0?HOPGIGJOHALMKGDD@D@ay@@XZ@YAXXZ ; ``Client::LoadWSAFunctions'::`2'::<lambda_11>::operator()'::`2'::`dynamic atexit destructor for 'obfuscated_data''
PUBLIC	?LoadWSAFunctions@Client@@IEAAXXZ		; Client::LoadWSAFunctions
PUBLIC	??__Fobfuscated_data@?1???R<lambda_1>@?1???1Client@@QEAA@XZ@QEBAAEAV?$obfuscated_data@$0L@$0?GIOGLOCGPCIABIMJ@D@ay@@XZ@YAXXZ ; ``Client::~Client'::`2'::<lambda_1>::operator()'::`2'::`dynamic atexit destructor for 'obfuscated_data''
PUBLIC	??1Client@@QEAA@XZ				; Client::~Client
PUBLIC	??0Client@@QEAA@XZ				; Client::Client
PUBLIC	??$cipher@D@ay@@YAXPEAD_K1@Z			; ay::cipher<char>
PUBLIC	?_Xlen_string@std@@YAXXZ			; std::_Xlen_string
PUBLIC	?_Release@_Fake_proxy_ptr_impl@std@@QEAAXXZ	; std::_Fake_proxy_ptr_impl::_Release
PUBLIC	??0_Fake_proxy_ptr_impl@std@@QEAA@AEBU_Fake_allocator@1@AEBU_Container_base0@1@@Z ; std::_Fake_proxy_ptr_impl::_Fake_proxy_ptr_impl
PUBLIC	?_Alloc_proxy@_Container_base0@std@@QEAAXAEBU_Fake_allocator@2@@Z ; std::_Container_base0::_Alloc_proxy
PUBLIC	?_Orphan_all@_Container_base0@std@@QEAAXXZ	; std::_Container_base0::_Orphan_all
PUBLIC	?_Adjust_manually_vector_aligned@std@@YAXAEAPEAXAEA_K@Z ; std::_Adjust_manually_vector_aligned
PUBLIC	?_Allocate@_Default_allocate_traits@std@@SAPEAX_K@Z ; std::_Default_allocate_traits::_Allocate
PUBLIC	??0bad_alloc@std@@QEAA@AEBV01@@Z		; std::bad_alloc::bad_alloc
PUBLIC	??0bad_array_new_length@std@@QEAA@AEBV01@@Z	; std::bad_array_new_length::bad_array_new_length
PUBLIC	?_Throw_bad_array_new_length@std@@YAXXZ		; std::_Throw_bad_array_new_length
PUBLIC	??1bad_array_new_length@std@@UEAA@XZ		; std::bad_array_new_length::~bad_array_new_length
PUBLIC	??_Gbad_array_new_length@std@@UEAAPEAXI@Z	; std::bad_array_new_length::`scalar deleting destructor'
PUBLIC	??0bad_array_new_length@std@@QEAA@XZ		; std::bad_array_new_length::bad_array_new_length
PUBLIC	??1bad_alloc@std@@UEAA@XZ			; std::bad_alloc::~bad_alloc
PUBLIC	??_Gbad_alloc@std@@UEAAPEAXI@Z			; std::bad_alloc::`scalar deleting destructor'
PUBLIC	??0bad_alloc@std@@AEAA@QEBD@Z			; std::bad_alloc::bad_alloc
PUBLIC	??_Gexception@std@@UEAAPEAXI@Z			; std::exception::`scalar deleting destructor'
PUBLIC	?what@exception@std@@UEBAPEBDXZ			; std::exception::what
PUBLIC	??1exception@std@@UEAA@XZ			; std::exception::~exception
PUBLIC	??0exception@std@@QEAA@AEBV01@@Z		; std::exception::exception
PUBLIC	??0exception@std@@QEAA@QEBDH@Z			; std::exception::exception
PUBLIC	?max@?$numeric_limits@_J@std@@SA_JXZ		; std::numeric_limits<__int64>::max
PUBLIC	??2@YAPEAX_KPEAX@Z				; operator new
PUBLIC	?is_constant_evaluated@std@@YA_NXZ		; std::is_constant_evaluated
PUBLIC	__isa_available_default
PUBLIC	__real@5f000000
PUBLIC	__xmm@00000000000000010000000000000000
PUBLIC	__xmm@00000000000000030000000000000002
PUBLIC	__xmm@00000000000000050000000000000004
PUBLIC	__xmm@00000000000000070000000000000006
PUBLIC	__xmm@00000000000000070000000000000007
PUBLIC	__xmm@000000000000000f0000000000000000
PUBLIC	__xmm@00000000000008000000000000000800
PUBLIC	__xmm@01f3b16f0d3d333d01f3b16f0d3d333d
PUBLIC	__xmm@1b75bd1119a31f5d1b75bd1119a31f5d
PUBLIC	__xmm@23f641f88890a04725f266d29f96bc60
PUBLIC	__xmm@27cf676ff1953f9d27cf676ff1953f9d
PUBLIC	__xmm@434c2d63eef5f7881e2b387beaf8e9a4
PUBLIC	__xmm@579735abedf3c931579735abedf3c931
PUBLIC	__xmm@57fb21ed7b6501a957fb21ed7b6501a9
PUBLIC	__xmm@6f55cd957ba3590f6f55cd957ba3590f
PUBLIC	__xmm@717f5d0f8b9d9be7717f5d0f8b9d9be7
PUBLIC	__xmm@7d21cb4597bfa7d17d21cb4597bfa7d1
PUBLIC	__xmm@810979618f4359cd810979618f4359cd
PUBLIC	__xmm@8300095be457589db8010043f65659a7
PUBLIC	__xmm@8548e83236e44a0c8371da3524e45b20
PUBLIC	__xmm@96b046b2cf9ec9ac9db852afe68bd084
PUBLIC	__xmm@99c9b36339a1399199c9b36339a13991
PUBLIC	__xmm@ad7941110d6b2541ad7941110d6b2541
PUBLIC	__xmm@b4e9824d098f09bfaefb82435ecf50e1
PUBLIC	__xmm@bba969eff327f753bba969eff327f753
PUBLIC	__xmm@c80d32685e375636c21d2f785a371f02
PUBLIC	__xmm@cd15890f1fef9f7dcd15890f1fef9f7d
PUBLIC	__xmm@da590a3e2d0e5d24831d2c725159162c
PUBLIC	__xmm@e3912dfd25097b7be3912dfd25097b7b
PUBLIC	__xmm@e528cb6c095e11a3d60ccc7a185825c1
PUBLIC	__xmm@e57fbf1f7b375791e57fbf1f7b375791
PUBLIC	__xmm@ebe1417985296fdfebe1417985296fdf
PUBLIC	__xmm@f121bf4145812963f121bf4145812963
PUBLIC	__xmm@f165653785232bf3f165653785232bf3
PUBLIC	__xmm@f3d721dd83fbbdcdf3d721dd83fbbdcd
EXTRN	??_Eexception@std@@UEAAPEAXI@Z:PROC		; std::exception::`vector deleting destructor'
EXTRN	??_Ebad_alloc@std@@UEAAPEAXI@Z:PROC		; std::bad_alloc::`vector deleting destructor'
EXTRN	??_Ebad_array_new_length@std@@UEAAPEAXI@Z:PROC	; std::bad_array_new_length::`vector deleting destructor'
EXTRN	_CxxThrowException:PROC
EXTRN	__GSHandlerCheck:PROC
EXTRN	__GSHandlerCheck_EH4:PROC
EXTRN	ceilf:PROC
EXTRN	memchr:PROC
EXTRN	memcmp:PROC
EXTRN	memcpy:PROC
EXTRN	memmove:PROC
EXTRN	memset:PROC
EXTRN	__isa_available:DWORD
EXTRN	__security_cookie:QWORD
EXTRN	_fltused:DWORD
EXTRN	_tls_index:DWORD
;	COMDAT ?obfuscated_data@?1???R<lambda_3>@?1??LoadWSAFunctions@Client@@IEAAXXZ@QEBAAEAV?$obfuscated_data@$04$0?BMGONCACNKPGIEIF@D@ay@@XZ@4V45@A
_TLS	SEGMENT
?obfuscated_data@?1???R<lambda_3>@?1??LoadWSAFunctions@Client@@IEAAXXZ@QEBAAEAV?$obfuscated_data@$04$0?BMGONCACNKPGIEIF@D@ay@@XZ@4V45@A DB 06H DUP (?) ; ``Client::LoadWSAFunctions'::`2'::<lambda_3>::operator()'::`2'::obfuscated_data
_TLS	ENDS
;	COMDAT ??__J?1???R<lambda_3>@?1??LoadWSAFunctions@Client@@IEAAXXZ@QEBAAEAV?$obfuscated_data@$04$0?BMGONCACNKPGIEIF@D@ay@@XZ@51
_TLS	SEGMENT
??__J?1???R<lambda_3>@?1??LoadWSAFunctions@Client@@IEAAXXZ@QEBAAEAV?$obfuscated_data@$04$0?BMGONCACNKPGIEIF@D@ay@@XZ@51 DD 01H DUP (?) ; ``Client::LoadWSAFunctions'::`2'::<lambda_3>::operator()'::`2'::`local static thread guard'
_TLS	ENDS
;	COMDAT ?obfuscated_data@?1???R<lambda_6>@?1??LoadWSAFunctions@Client@@IEAAXXZ@QEBAAEAV?$obfuscated_data@$04$0FFNFMNJBKPLPEDOJ@D@ay@@XZ@4V45@A
_TLS	SEGMENT
?obfuscated_data@?1???R<lambda_6>@?1??LoadWSAFunctions@Client@@IEAAXXZ@QEBAAEAV?$obfuscated_data@$04$0FFNFMNJBKPLPEDOJ@D@ay@@XZ@4V45@A DB 06H DUP (?) ; ``Client::LoadWSAFunctions'::`2'::<lambda_6>::operator()'::`2'::obfuscated_data
_TLS	ENDS
;	COMDAT ?obfuscated_data@?1???R<lambda_9>@?1??LoadWSAFunctions@Client@@IEAAXXZ@QEBAAEAV?$obfuscated_data@$04$0CJGHDDDHAHNPJJPJ@D@ay@@XZ@4V45@A
_TLS	SEGMENT
?obfuscated_data@?1???R<lambda_9>@?1??LoadWSAFunctions@Client@@IEAAXXZ@QEBAAEAV?$obfuscated_data@$04$0CJGHDDDHAHNPJJPJ@D@ay@@XZ@4V45@A DB 06H DUP (?) ; ``Client::LoadWSAFunctions'::`2'::<lambda_9>::operator()'::`2'::obfuscated_data
_TLS	ENDS
;	COMDAT ??__J?1???R<lambda_9>@?1??LoadWSAFunctions@Client@@IEAAXXZ@QEBAAEAV?$obfuscated_data@$04$0CJGHDDDHAHNPJJPJ@D@ay@@XZ@51
_TLS	SEGMENT
??__J?1???R<lambda_9>@?1??LoadWSAFunctions@Client@@IEAAXXZ@QEBAAEAV?$obfuscated_data@$04$0CJGHDDDHAHNPJJPJ@D@ay@@XZ@51 DD 01H DUP (?) ; ``Client::LoadWSAFunctions'::`2'::<lambda_9>::operator()'::`2'::`local static thread guard'
_TLS	ENDS
;	COMDAT ?obfuscated_data@?1???R<lambda_2>@?1??LoadWSAFunctions@Client@@IEAAXXZ@QEBAAEAV?$obfuscated_data@$0L@$0GPFFMNJFHLKDFJAP@D@ay@@XZ@4V45@A
_TLS	SEGMENT
?obfuscated_data@?1???R<lambda_2>@?1??LoadWSAFunctions@Client@@IEAAXXZ@QEBAAEAV?$obfuscated_data@$0L@$0GPFFMNJFHLKDFJAP@D@ay@@XZ@4V45@A DB 0cH DUP (?) ; ``Client::LoadWSAFunctions'::`2'::<lambda_2>::operator()'::`2'::obfuscated_data
_TLS	ENDS
;	COMDAT ??__J?1???R<lambda_4>@?1??LoadWSAFunctions@Client@@IEAAXXZ@QEBAAEAV?$obfuscated_data@$0M@$0FHPLCBONHLGFABKJ@D@ay@@XZ@51
_TLS	SEGMENT
??__J?1???R<lambda_4>@?1??LoadWSAFunctions@Client@@IEAAXXZ@QEBAAEAV?$obfuscated_data@$0M@$0FHPLCBONHLGFABKJ@D@ay@@XZ@51 DD 01H DUP (?) ; ``Client::LoadWSAFunctions'::`2'::<lambda_4>::operator()'::`2'::`local static thread guard'
_TLS	ENDS
;	COMDAT ??__J?1???R<lambda_1>@freqDLLS@ProcessUtilities@@QEBAAEAV?$obfuscated_data@$0N@$0?DCOKHGPAOABAGAID@D@ay@@XZ@51
_TLS	SEGMENT
??__J?1???R<lambda_1>@freqDLLS@ProcessUtilities@@QEBAAEAV?$obfuscated_data@$0N@$0?DCOKHGPAOABAGAID@D@ay@@XZ@51 DD 01H DUP (?) ; `ProcessUtilities::freqDLLS::<lambda_1>::operator()'::`2'::`local static thread guard'
_TLS	ENDS
;	COMDAT ?obfuscated_data@?1???R<lambda_3>@freqDLLS@ProcessUtilities@@QEBAAEAV?$obfuscated_data@$0N@$0?BMGONCACNKPGIEIF@D@ay@@XZ@4V45@A
_TLS	SEGMENT
?obfuscated_data@?1???R<lambda_3>@freqDLLS@ProcessUtilities@@QEBAAEAV?$obfuscated_data@$0N@$0?BMGONCACNKPGIEIF@D@ay@@XZ@4V45@A DB 0eH DUP (?) ; `ProcessUtilities::freqDLLS::<lambda_3>::operator()'::`2'::obfuscated_data
_TLS	ENDS
;	COMDAT ?obfuscated_data@?1???R<lambda_5>@?1??LoadWSAFunctions@Client@@IEAAXXZ@QEBAAEAV?$obfuscated_data@$06$0?CEJMCMFKCANAFKKD@D@ay@@XZ@4V45@A
_TLS	SEGMENT
?obfuscated_data@?1???R<lambda_5>@?1??LoadWSAFunctions@Client@@IEAAXXZ@QEBAAEAV?$obfuscated_data@$06$0?CEJMCMFKCANAFKKD@D@ay@@XZ@4V45@A DQ 01H DUP (?) ; ``Client::LoadWSAFunctions'::`2'::<lambda_5>::operator()'::`2'::obfuscated_data
_TLS	ENDS
;	COMDAT ??__J?1???R<lambda_3>@freqDLLS@ProcessUtilities@@QEBAAEAV?$obfuscated_data@$0N@$0?BMGONCACNKPGIEIF@D@ay@@XZ@51
_TLS	SEGMENT
??__J?1???R<lambda_3>@freqDLLS@ProcessUtilities@@QEBAAEAV?$obfuscated_data@$0N@$0?BMGONCACNKPGIEIF@D@ay@@XZ@51 DD 01H DUP (?) ; `ProcessUtilities::freqDLLS::<lambda_3>::operator()'::`2'::`local static thread guard'
_TLS	ENDS
;	COMDAT ??__J?1???R<lambda_7>@?1??LoadWSAFunctions@Client@@IEAAXXZ@QEBAAEAV?$obfuscated_data@$06$0?OLMMGBCGKAANADB@D@ay@@XZ@51
_TLS	SEGMENT
??__J?1???R<lambda_7>@?1??LoadWSAFunctions@Client@@IEAAXXZ@QEBAAEAV?$obfuscated_data@$06$0?OLMMGBCGKAANADB@D@ay@@XZ@51 DD 01H DUP (?) ; ``Client::LoadWSAFunctions'::`2'::<lambda_7>::operator()'::`2'::`local static thread guard'
_TLS	ENDS
;	COMDAT ??__J?1???R<lambda_5>@?1??LoadWSAFunctions@Client@@IEAAXXZ@QEBAAEAV?$obfuscated_data@$06$0?CEJMCMFKCANAFKKD@D@ay@@XZ@51
_TLS	SEGMENT
??__J?1???R<lambda_5>@?1??LoadWSAFunctions@Client@@IEAAXXZ@QEBAAEAV?$obfuscated_data@$06$0?CEJMCMFKCANAFKKD@D@ay@@XZ@51 DD 01H DUP (?) ; ``Client::LoadWSAFunctions'::`2'::<lambda_5>::operator()'::`2'::`local static thread guard'
_TLS	ENDS
;	COMDAT ?obfuscated_data@?1???R<lambda_7>@?1??LoadWSAFunctions@Client@@IEAAXXZ@QEBAAEAV?$obfuscated_data@$06$0?OLMMGBCGKAANADB@D@ay@@XZ@4V45@A
_TLS	SEGMENT
?obfuscated_data@?1???R<lambda_7>@?1??LoadWSAFunctions@Client@@IEAAXXZ@QEBAAEAV?$obfuscated_data@$06$0?OLMMGBCGKAANADB@D@ay@@XZ@4V45@A DQ 01H DUP (?) ; ``Client::LoadWSAFunctions'::`2'::<lambda_7>::operator()'::`2'::obfuscated_data
_TLS	ENDS
;	COMDAT ?obfuscated_data@?1???R<lambda_10>@?1??LoadWSAFunctions@Client@@IEAAXXZ@QEBAAEAV?$obfuscated_data@$0L@$0?CLAAOECFMICOACN@D@ay@@XZ@4V45@A
_TLS	SEGMENT
?obfuscated_data@?1???R<lambda_10>@?1??LoadWSAFunctions@Client@@IEAAXXZ@QEBAAEAV?$obfuscated_data@$0L@$0?CLAAOECFMICOACN@D@ay@@XZ@4V45@A DB 0cH DUP (?) ; ``Client::LoadWSAFunctions'::`2'::<lambda_10>::operator()'::`2'::obfuscated_data
_TLS	ENDS
;	COMDAT ??__J?1???R<lambda_2>@freqDLLS@ProcessUtilities@@QEBAAEAV?$obfuscated_data@$09$0GPFFMNJFHLKDFJAP@D@ay@@XZ@51
_TLS	SEGMENT
??__J?1???R<lambda_2>@freqDLLS@ProcessUtilities@@QEBAAEAV?$obfuscated_data@$09$0GPFFMNJFHLKDFJAP@D@ay@@XZ@51 DD 01H DUP (?) ; `ProcessUtilities::freqDLLS::<lambda_2>::operator()'::`2'::`local static thread guard'
_TLS	ENDS
;	COMDAT ??__J?1???R<lambda_1>@?1??LoadWSAFunctions@Client@@IEAAXXZ@QEBAAEAV?$obfuscated_data@$0L@$0?DOJGCMFOPGMELMMP@D@ay@@XZ@51
_TLS	SEGMENT
??__J?1???R<lambda_1>@?1??LoadWSAFunctions@Client@@IEAAXXZ@QEBAAEAV?$obfuscated_data@$0L@$0?DOJGCMFOPGMELMMP@D@ay@@XZ@51 DD 01H DUP (?) ; ``Client::LoadWSAFunctions'::`2'::<lambda_1>::operator()'::`2'::`local static thread guard'
_TLS	ENDS
;	COMDAT ??__J?1???R<lambda_8>@?1??LoadWSAFunctions@Client@@IEAAXXZ@QEBAAEAV?$obfuscated_data@$08$0BLAHMNIPHFJJOFGN@D@ay@@XZ@51
_TLS	SEGMENT
??__J?1???R<lambda_8>@?1??LoadWSAFunctions@Client@@IEAAXXZ@QEBAAEAV?$obfuscated_data@$08$0BLAHMNIPHFJJOFGN@D@ay@@XZ@51 DD 01H DUP (?) ; ``Client::LoadWSAFunctions'::`2'::<lambda_8>::operator()'::`2'::`local static thread guard'
_TLS	ENDS
;	COMDAT ?obfuscated_data@?1???R<lambda_1>@?1???1Client@@QEAA@XZ@QEBAAEAV?$obfuscated_data@$0L@$0?GIOGLOCGPCIABIMJ@D@ay@@XZ@4V34@A
_TLS	SEGMENT
?obfuscated_data@?1???R<lambda_1>@?1???1Client@@QEAA@XZ@QEBAAEAV?$obfuscated_data@$0L@$0?GIOGLOCGPCIABIMJ@D@ay@@XZ@4V34@A DB 0cH DUP (?) ; ``Client::~Client'::`2'::<lambda_1>::operator()'::`2'::obfuscated_data
_TLS	ENDS
;	COMDAT ??__J?1???R<lambda_2>@?1??LoadWSAFunctions@Client@@IEAAXXZ@QEBAAEAV?$obfuscated_data@$0L@$0GPFFMNJFHLKDFJAP@D@ay@@XZ@51
_TLS	SEGMENT
??__J?1???R<lambda_2>@?1??LoadWSAFunctions@Client@@IEAAXXZ@QEBAAEAV?$obfuscated_data@$0L@$0GPFFMNJFHLKDFJAP@D@ay@@XZ@51 DD 01H DUP (?) ; ``Client::LoadWSAFunctions'::`2'::<lambda_2>::operator()'::`2'::`local static thread guard'
_TLS	ENDS
;	COMDAT ?obfuscated_data@?1???R<lambda_4>@?1??LoadWSAFunctions@Client@@IEAAXXZ@QEBAAEAV?$obfuscated_data@$0M@$0FHPLCBONHLGFABKJ@D@ay@@XZ@4V45@A
_TLS	SEGMENT
?obfuscated_data@?1???R<lambda_4>@?1??LoadWSAFunctions@Client@@IEAAXXZ@QEBAAEAV?$obfuscated_data@$0M@$0FHPLCBONHLGFABKJ@D@ay@@XZ@4V45@A DB 0dH DUP (?) ; ``Client::LoadWSAFunctions'::`2'::<lambda_4>::operator()'::`2'::obfuscated_data
_TLS	ENDS
;	COMDAT ??__J?1???R<lambda_6>@?1??LoadWSAFunctions@Client@@IEAAXXZ@QEBAAEAV?$obfuscated_data@$04$0FFNFMNJBKPLPEDOJ@D@ay@@XZ@51
_TLS	SEGMENT
??__J?1???R<lambda_6>@?1??LoadWSAFunctions@Client@@IEAAXXZ@QEBAAEAV?$obfuscated_data@$04$0FFNFMNJBKPLPEDOJ@D@ay@@XZ@51 DD 01H DUP (?) ; ``Client::LoadWSAFunctions'::`2'::<lambda_6>::operator()'::`2'::`local static thread guard'
_TLS	ENDS
;	COMDAT ?obfuscated_data@?1???R<lambda_8>@?1??LoadWSAFunctions@Client@@IEAAXXZ@QEBAAEAV?$obfuscated_data@$08$0BLAHMNIPHFJJOFGN@D@ay@@XZ@4V45@A
_TLS	SEGMENT
?obfuscated_data@?1???R<lambda_8>@?1??LoadWSAFunctions@Client@@IEAAXXZ@QEBAAEAV?$obfuscated_data@$08$0BLAHMNIPHFJJOFGN@D@ay@@XZ@4V45@A DB 0aH DUP (?) ; ``Client::LoadWSAFunctions'::`2'::<lambda_8>::operator()'::`2'::obfuscated_data
_TLS	ENDS
;	COMDAT ??__J?1???R<lambda_1>@?1???1Client@@QEAA@XZ@QEBAAEAV?$obfuscated_data@$0L@$0?GIOGLOCGPCIABIMJ@D@ay@@XZ@51
_TLS	SEGMENT
??__J?1???R<lambda_1>@?1???1Client@@QEAA@XZ@QEBAAEAV?$obfuscated_data@$0L@$0?GIOGLOCGPCIABIMJ@D@ay@@XZ@51 DD 01H DUP (?) ; ``Client::~Client'::`2'::<lambda_1>::operator()'::`2'::`local static thread guard'
_TLS	ENDS
;	COMDAT ??__J?1???R<lambda_11>@?1??LoadWSAFunctions@Client@@IEAAXXZ@QEBAAEAV?$obfuscated_data@$07$0?HOPGIGJOHALMKGDD@D@ay@@XZ@51
_TLS	SEGMENT
??__J?1???R<lambda_11>@?1??LoadWSAFunctions@Client@@IEAAXXZ@QEBAAEAV?$obfuscated_data@$07$0?HOPGIGJOHALMKGDD@D@ay@@XZ@51 DD 01H DUP (?) ; ``Client::LoadWSAFunctions'::`2'::<lambda_11>::operator()'::`2'::`local static thread guard'
_TLS	ENDS
;	COMDAT ?obfuscated_data@?1???R<lambda_1>@freqDLLS@ProcessUtilities@@QEBAAEAV?$obfuscated_data@$0N@$0?DCOKHGPAOABAGAID@D@ay@@XZ@4V45@A
_TLS	SEGMENT
?obfuscated_data@?1???R<lambda_1>@freqDLLS@ProcessUtilities@@QEBAAEAV?$obfuscated_data@$0N@$0?DCOKHGPAOABAGAID@D@ay@@XZ@4V45@A DB 0eH DUP (?) ; `ProcessUtilities::freqDLLS::<lambda_1>::operator()'::`2'::obfuscated_data
_TLS	ENDS
;	COMDAT ?obfuscated_data@?1???R<lambda_2>@freqDLLS@ProcessUtilities@@QEBAAEAV?$obfuscated_data@$09$0GPFFMNJFHLKDFJAP@D@ay@@XZ@4V45@A
_TLS	SEGMENT
?obfuscated_data@?1???R<lambda_2>@freqDLLS@ProcessUtilities@@QEBAAEAV?$obfuscated_data@$09$0GPFFMNJFHLKDFJAP@D@ay@@XZ@4V45@A DB 0bH DUP (?) ; `ProcessUtilities::freqDLLS::<lambda_2>::operator()'::`2'::obfuscated_data
_TLS	ENDS
;	COMDAT ??__J?1???R<lambda_10>@?1??LoadWSAFunctions@Client@@IEAAXXZ@QEBAAEAV?$obfuscated_data@$0L@$0?CLAAOECFMICOACN@D@ay@@XZ@51
_TLS	SEGMENT
??__J?1???R<lambda_10>@?1??LoadWSAFunctions@Client@@IEAAXXZ@QEBAAEAV?$obfuscated_data@$0L@$0?CLAAOECFMICOACN@D@ay@@XZ@51 DD 01H DUP (?) ; ``Client::LoadWSAFunctions'::`2'::<lambda_10>::operator()'::`2'::`local static thread guard'
_TLS	ENDS
;	COMDAT ?obfuscated_data@?1???R<lambda_11>@?1??LoadWSAFunctions@Client@@IEAAXXZ@QEBAAEAV?$obfuscated_data@$07$0?HOPGIGJOHALMKGDD@D@ay@@XZ@4V45@A
_TLS	SEGMENT
?obfuscated_data@?1???R<lambda_11>@?1??LoadWSAFunctions@Client@@IEAAXXZ@QEBAAEAV?$obfuscated_data@$07$0?HOPGIGJOHALMKGDD@D@ay@@XZ@4V45@A DB 09H DUP (?) ; ``Client::LoadWSAFunctions'::`2'::<lambda_11>::operator()'::`2'::obfuscated_data
?kernel32@freqDLLS@ProcessUtilities@@3V?$basic_string@DU?$char_traits@D@std@@V?$allocator@D@2@@std@@B DB 020H DUP (?) ; ProcessUtilities::freqDLLS::kernel32
?ntdll@freqDLLS@ProcessUtilities@@3V?$basic_string@DU?$char_traits@D@std@@V?$allocator@D@2@@std@@B DB 020H DUP (?) ; ProcessUtilities::freqDLLS::ntdll
?advapi32@freqDLLS@ProcessUtilities@@3V?$basic_string@DU?$char_traits@D@std@@V?$allocator@D@2@@std@@B DB 020H DUP (?) ; ProcessUtilities::freqDLLS::advapi32
_BSS	ENDS
;	COMDAT ?obfuscated_data@?1???R<lambda_1>@?1??LoadWSAFunctions@Client@@IEAAXXZ@QEBAAEAV?$obfuscated_data@$0L@$0?DOJGCMFOPGMELMMP@D@ay@@XZ@4V45@A
_TLS	SEGMENT
?obfuscated_data@?1???R<lambda_1>@?1??LoadWSAFunctions@Client@@IEAAXXZ@QEBAAEAV?$obfuscated_data@$0L@$0?DOJGCMFOPGMELMMP@D@ay@@XZ@4V45@A DB 0cH DUP (?) ; ``Client::LoadWSAFunctions'::`2'::<lambda_1>::operator()'::`2'::obfuscated_data
_TLS	ENDS
;	COMDAT __isa_available_default
_BSS	SEGMENT
__isa_available_default DD 01H DUP (?)
_BSS	ENDS
;	COMDAT pdata
pdata	SEGMENT
$pdata$??$_Allocate_manually_vector_aligned@U_Default_allocate_traits@std@@@std@@YAPEAX_K@Z DD imagerel $LN17
	DD	imagerel $LN17+58
	DD	imagerel $unwind$??$_Allocate_manually_vector_aligned@U_Default_allocate_traits@std@@@std@@YAPEAX_K@Z
pdata	ENDS
;	COMDAT pdata
pdata	SEGMENT
$pdata$??$_Allocate@$0BA@U_Default_allocate_traits@std@@@std@@YAPEAX_K@Z DD imagerel $LN27
	DD	imagerel $LN27+88
	DD	imagerel $unwind$??$_Allocate@$0BA@U_Default_allocate_traits@std@@@std@@YAPEAX_K@Z
pdata	ENDS
;	COMDAT pdata
pdata	SEGMENT
$pdata$?allocate@?$allocator@D@std@@QEAAPEAD_K@Z DD imagerel $LN30
	DD	imagerel $LN30+88
	DD	imagerel $unwind$?allocate@?$allocator@D@std@@QEAAPEAD_K@Z
pdata	ENDS
;	COMDAT pdata
pdata	SEGMENT
$pdata$??$_Allocate_at_least_helper@V?$allocator@D@std@@@std@@YAPEADAEAV?$allocator@D@0@AEA_K@Z DD imagerel $LN33
	DD	imagerel $LN33+91
	DD	imagerel $unwind$??$_Allocate_at_least_helper@V?$allocator@D@std@@@std@@YAPEADAEAV?$allocator@D@0@AEA_K@Z
pdata	ENDS
;	COMDAT pdata
pdata	SEGMENT
$pdata$??$_Allocate_for_capacity@$0A@@?$basic_string@DU?$char_traits@D@std@@V?$allocator@D@2@@std@@CAPEADAEAV?$allocator@D@1@AEA_K@Z DD imagerel $LN52
	DD	imagerel $LN52+110
	DD	imagerel $unwind$??$_Allocate_for_capacity@$0A@@?$basic_string@DU?$char_traits@D@std@@V?$allocator@D@2@@std@@CAPEADAEAV?$allocator@D@1@AEA_K@Z
pdata	ENDS
;	COMDAT pdata
pdata	SEGMENT
$pdata$??$_Deallocate@$0BA@@std@@YAXPEAX_K@Z DD imagerel $LN20
	DD	imagerel $LN20+52
	DD	imagerel $unwind$??$_Deallocate@$0BA@@std@@YAXPEAX_K@Z
pdata	ENDS
;	COMDAT pdata
pdata	SEGMENT
$pdata$??$_Construct@$01PEBD@?$basic_string@DU?$char_traits@D@std@@V?$allocator@D@2@@std@@AEAAXQEBD_K@Z DD imagerel $LN99
	DD	imagerel $LN99+242
	DD	imagerel $unwind$??$_Construct@$01PEBD@?$basic_string@DU?$char_traits@D@std@@V?$allocator@D@2@@std@@AEAAXQEBD_K@Z
pdata	ENDS
;	COMDAT pdata
pdata	SEGMENT
$pdata$??$_Construct@$00PEBD@?$basic_string@DU?$char_traits@D@std@@V?$allocator@D@2@@std@@AEAAXQEBD_K@Z DD imagerel $LN97
	DD	imagerel $LN97+78
	DD	imagerel $unwind$??$_Construct@$00PEBD@?$basic_string@DU?$char_traits@D@std@@V?$allocator@D@2@@std@@AEAAXQEBD_K@Z
pdata	ENDS
;	COMDAT pdata
pdata	SEGMENT
$pdata$0$??$_Construct@$00PEBD@?$basic_string@DU?$char_traits@D@std@@V?$allocator@D@2@@std@@AEAAXQEBD_K@Z DD imagerel $LN97+78
	DD	imagerel $LN97+233
	DD	imagerel $chain$0$??$_Construct@$00PEBD@?$basic_string@DU?$char_traits@D@std@@V?$allocator@D@2@@std@@AEAAXQEBD_K@Z
pdata	ENDS
;	COMDAT pdata
pdata	SEGMENT
$pdata$2$??$_Construct@$00PEBD@?$basic_string@DU?$char_traits@D@std@@V?$allocator@D@2@@std@@AEAAXQEBD_K@Z DD imagerel $LN97+233
	DD	imagerel $LN97+245
	DD	imagerel $chain$2$??$_Construct@$00PEBD@?$basic_string@DU?$char_traits@D@std@@V?$allocator@D@2@@std@@AEAAXQEBD_K@Z
pdata	ENDS
;	COMDAT pdata
pdata	SEGMENT
$pdata$3$??$_Construct@$00PEBD@?$basic_string@DU?$char_traits@D@std@@V?$allocator@D@2@@std@@AEAAXQEBD_K@Z DD imagerel $LN97+245
	DD	imagerel $LN97+251
	DD	imagerel $chain$3$??$_Construct@$00PEBD@?$basic_string@DU?$char_traits@D@std@@V?$allocator@D@2@@std@@AEAAXQEBD_K@Z
pdata	ENDS
;	COMDAT pdata
pdata	SEGMENT
$pdata$??$make_unique@$$BY0A@D$0A@@std@@YA?AV?$unique_ptr@$$BY0A@DU?$default_delete@$$BY0A@D@std@@@0@_K@Z DD imagerel $LN15
	DD	imagerel $LN15+52
	DD	imagerel $unwind$??$make_unique@$$BY0A@D$0A@@std@@YA?AV?$unique_ptr@$$BY0A@DU?$default_delete@$$BY0A@D@std@@@0@_K@Z
pdata	ENDS
;	COMDAT pdata
pdata	SEGMENT
$pdata$??$GetFunctionAddress@P6AHXZ@ProcessUtilities@@YAP6AHXZPEAUHINSTANCE__@@V?$basic_string@DU?$char_traits@D@std@@V?$allocator@D@2@@std@@@Z DD imagerel $LN46
	DD	imagerel $LN46+169
	DD	imagerel $unwind$??$GetFunctionAddress@P6AHXZ@ProcessUtilities@@YAP6AHXZPEAUHINSTANCE__@@V?$basic_string@DU?$char_traits@D@std@@V?$allocator@D@2@@std@@@Z
pdata	ENDS
;	COMDAT pdata
pdata	SEGMENT
$pdata$??$GetFunctionAddress@P6AH_KPEBDHH@Z@ProcessUtilities@@YAP6AH_KPEBDHH@ZPEAUHINSTANCE__@@V?$basic_string@DU?$char_traits@D@std@@V?$allocator@D@2@@std@@@Z DD imagerel $LN46
	DD	imagerel $LN46+169
	DD	imagerel $unwind$??$GetFunctionAddress@P6AH_KPEBDHH@Z@ProcessUtilities@@YAP6AH_KPEBDHH@ZPEAUHINSTANCE__@@V?$basic_string@DU?$char_traits@D@std@@V?$allocator@D@2@@std@@@Z
pdata	ENDS
;	COMDAT pdata
pdata	SEGMENT
$pdata$??$GetFunctionAddress@P6AH_KPEADHHPEAUsockaddr@@PEAH@Z@ProcessUtilities@@YAP6AH_KPEADHHPEAUsockaddr@@PEAH@ZPEAUHINSTANCE__@@V?$basic_string@DU?$char_traits@D@std@@V?$allocator@D@2@@std@@@Z DD imagerel $LN46
	DD	imagerel $LN46+169
	DD	imagerel $unwind$??$GetFunctionAddress@P6AH_KPEADHHPEAUsockaddr@@PEAH@Z@ProcessUtilities@@YAP6AH_KPEADHHPEAUsockaddr@@PEAH@ZPEAUHINSTANCE__@@V?$basic_string@DU?$char_traits@D@std@@V?$allocator@D@2@@std@@@Z
pdata	ENDS
;	COMDAT pdata
pdata	SEGMENT
$pdata$??$GetFunctionAddress@P6AH_KPEBDHHPEBUsockaddr@@H@Z@ProcessUtilities@@YAP6AH_KPEBDHHPEBUsockaddr@@H@ZPEAUHINSTANCE__@@V?$basic_string@DU?$char_traits@D@std@@V?$allocator@D@2@@std@@@Z DD imagerel $LN46
	DD	imagerel $LN46+169
	DD	imagerel $unwind$??$GetFunctionAddress@P6AH_KPEBDHHPEBUsockaddr@@H@Z@ProcessUtilities@@YAP6AH_KPEBDHHPEBUsockaddr@@H@ZPEAUHINSTANCE__@@V?$basic_string@DU?$char_traits@D@std@@V?$allocator@D@2@@std@@@Z
pdata	ENDS
;	COMDAT pdata
pdata	SEGMENT
$pdata$??$GetFunctionAddress@P6AH_KPEADHH@Z@ProcessUtilities@@YAP6AH_KPEADHH@ZPEAUHINSTANCE__@@V?$basic_string@DU?$char_traits@D@std@@V?$allocator@D@2@@std@@@Z DD imagerel $LN46
	DD	imagerel $LN46+169
	DD	imagerel $unwind$??$GetFunctionAddress@P6AH_KPEADHH@Z@ProcessUtilities@@YAP6AH_KPEADHH@ZPEAUHINSTANCE__@@V?$basic_string@DU?$char_traits@D@std@@V?$allocator@D@2@@std@@@Z
pdata	ENDS
;	COMDAT pdata
pdata	SEGMENT
$pdata$??$GetFunctionAddress@P6A_KHHH@Z@ProcessUtilities@@YAP6A_KHHH@ZPEAUHINSTANCE__@@V?$basic_string@DU?$char_traits@D@std@@V?$allocator@D@2@@std@@@Z DD imagerel $LN46
	DD	imagerel $LN46+169
	DD	imagerel $unwind$??$GetFunctionAddress@P6A_KHHH@Z@ProcessUtilities@@YAP6A_KHHH@ZPEAUHINSTANCE__@@V?$basic_string@DU?$char_traits@D@std@@V?$allocator@D@2@@std@@@Z
pdata	ENDS
;	COMDAT pdata
pdata	SEGMENT
$pdata$??$GetFunctionAddress@P6AH_K@Z@ProcessUtilities@@YAP6AH_K@ZPEAUHINSTANCE__@@V?$basic_string@DU?$char_traits@D@std@@V?$allocator@D@2@@std@@@Z DD imagerel $LN46
	DD	imagerel $LN46+169
	DD	imagerel $unwind$??$GetFunctionAddress@P6AH_K@Z@ProcessUtilities@@YAP6AH_K@ZPEAUHINSTANCE__@@V?$basic_string@DU?$char_traits@D@std@@V?$allocator@D@2@@std@@@Z
pdata	ENDS
;	COMDAT pdata
pdata	SEGMENT
$pdata$??$GetFunctionAddress@P6AH_KPEBUsockaddr@@H@Z@ProcessUtilities@@YAP6AH_KPEBUsockaddr@@H@ZPEAUHINSTANCE__@@V?$basic_string@DU?$char_traits@D@std@@V?$allocator@D@2@@std@@@Z DD imagerel $LN46
	DD	imagerel $LN46+169
	DD	imagerel $unwind$??$GetFunctionAddress@P6AH_KPEBUsockaddr@@H@Z@ProcessUtilities@@YAP6AH_KPEBUsockaddr@@H@ZPEAUHINSTANCE__@@V?$basic_string@DU?$char_traits@D@std@@V?$allocator@D@2@@std@@@Z
pdata	ENDS
;	COMDAT pdata
pdata	SEGMENT
$pdata$??$GetFunctionAddress@P6AHGPEAUWSAData@@@Z@ProcessUtilities@@YAP6AHGPEAUWSAData@@@ZPEAUHINSTANCE__@@V?$basic_string@DU?$char_traits@D@std@@V?$allocator@D@2@@std@@@Z DD imagerel $LN46
	DD	imagerel $LN46+169
	DD	imagerel $unwind$??$GetFunctionAddress@P6AHGPEAUWSAData@@@Z@ProcessUtilities@@YAP6AHGPEAUWSAData@@@ZPEAUHINSTANCE__@@V?$basic_string@DU?$char_traits@D@std@@V?$allocator@D@2@@std@@@Z
pdata	ENDS
;	COMDAT pdata
pdata	SEGMENT
$pdata$?deallocate@?$allocator@D@std@@QEAAXQEAD_K@Z DD imagerel $LN23
	DD	imagerel $LN23+61
	DD	imagerel $unwind$?deallocate@?$allocator@D@std@@QEAAXQEAD_K@Z
pdata	ENDS
;	COMDAT pdata
pdata	SEGMENT
$pdata$?copy@?$_Char_traits@DH@std@@SAPEADQEADQEBD_K@Z DD imagerel $LN16
	DD	imagerel $LN16+23
	DD	imagerel $unwind$?copy@?$_Char_traits@DH@std@@SAPEADQEADQEBD_K@Z
pdata	ENDS
;	COMDAT pdata
pdata	SEGMENT
$pdata$?_Deallocate_for_capacity@?$basic_string@DU?$char_traits@D@std@@V?$allocator@D@2@@std@@CAXAEAV?$allocator@D@2@QEAD_K@Z DD imagerel $LN27
	DD	imagerel $LN27+62
	DD	imagerel $unwind$?_Deallocate_for_capacity@?$basic_string@DU?$char_traits@D@std@@V?$allocator@D@2@@std@@CAXAEAV?$allocator@D@2@QEAD_K@Z
pdata	ENDS
;	COMDAT pdata
pdata	SEGMENT
$pdata$?_Tidy_deallocate@?$basic_string@DU?$char_traits@D@std@@V?$allocator@D@2@@std@@AEAAXXZ DD imagerel $LN38
	DD	imagerel $LN38+94
	DD	imagerel $unwind$?_Tidy_deallocate@?$basic_string@DU?$char_traits@D@std@@V?$allocator@D@2@@std@@AEAAXXZ
pdata	ENDS
;	COMDAT pdata
pdata	SEGMENT
$pdata$??0?$basic_string@DU?$char_traits@D@std@@V?$allocator@D@2@@std@@QEAA@AEBV01@@Z DD imagerel $LN123
	DD	imagerel $LN123+276
	DD	imagerel $unwind$??0?$basic_string@DU?$char_traits@D@std@@V?$allocator@D@2@@std@@QEAA@AEBV01@@Z
pdata	ENDS
;	COMDAT pdata
pdata	SEGMENT
$pdata$??0?$basic_string@DU?$char_traits@D@std@@V?$allocator@D@2@@std@@QEAA@QEBD@Z DD imagerel $LN117
	DD	imagerel $LN117+285
	DD	imagerel $unwind$??0?$basic_string@DU?$char_traits@D@std@@V?$allocator@D@2@@std@@QEAA@QEBD@Z
pdata	ENDS
;	COMDAT pdata
pdata	SEGMENT
$pdata$??1?$basic_string@DU?$char_traits@D@std@@V?$allocator@D@2@@std@@QEAA@XZ DD imagerel $LN42
	DD	imagerel $LN42+94
	DD	imagerel $unwind$??1?$basic_string@DU?$char_traits@D@std@@V?$allocator@D@2@@std@@QEAA@XZ
pdata	ENDS
;	COMDAT pdata
pdata	SEGMENT
$pdata$?Disconnect@Client@@QEAAHXZ DD imagerel $LN16
	DD	imagerel $LN16+51
	DD	imagerel $unwind$?Disconnect@Client@@QEAAHXZ
pdata	ENDS
;	COMDAT pdata
pdata	SEGMENT
$pdata$?MakeServerRequest@Client@@QEAAHUClientRequest@@H@Z DD imagerel $LN19
	DD	imagerel $LN19+100
	DD	imagerel $unwind$?MakeServerRequest@Client@@QEAAHUClientRequest@@H@Z
pdata	ENDS
;	COMDAT pdata
pdata	SEGMENT
$pdata$?TCPSendMessageToServer@Client@@IEAAHUClientRequest@@@Z DD imagerel $LN16
	DD	imagerel $LN16+60
	DD	imagerel $unwind$?TCPSendMessageToServer@Client@@IEAAHUClientRequest@@@Z
pdata	ENDS
;	COMDAT pdata
pdata	SEGMENT
$pdata$?UDPSendMessageToServer@Client@@IEAAHUClientRequest@@@Z DD imagerel $LN54
	DD	imagerel $LN54+234
	DD	imagerel $unwind$?UDPSendMessageToServer@Client@@IEAAHUClientRequest@@@Z
pdata	ENDS
;	COMDAT pdata
pdata	SEGMENT
$pdata$?Connect@Client@@QEAAHXZ DD imagerel $LN16
	DD	imagerel $LN16+177
	DD	imagerel $unwind$?Connect@Client@@QEAAHXZ
pdata	ENDS
;	COMDAT pdata
pdata	SEGMENT
$pdata$??R<lambda_11>@?1??LoadWSAFunctions@Client@@IEAAXXZ@QEBAAEAV?$obfuscated_data@$07$0?HOPGIGJOHALMKGDD@D@ay@@XZ DD imagerel ??R<lambda_11>@?1??LoadWSAFunctions@Client@@IEAAXXZ@QEBAAEAV?$obfuscated_data@$07$0?HOPGIGJOHALMKGDD@D@ay@@XZ
	DD	imagerel ??R<lambda_11>@?1??LoadWSAFunctions@Client@@IEAAXXZ@QEBAAEAV?$obfuscated_data@$07$0?HOPGIGJOHALMKGDD@D@ay@@XZ+107
	DD	imagerel $unwind$??R<lambda_11>@?1??LoadWSAFunctions@Client@@IEAAXXZ@QEBAAEAV?$obfuscated_data@$07$0?HOPGIGJOHALMKGDD@D@ay@@XZ
pdata	ENDS
;	COMDAT pdata
pdata	SEGMENT
$pdata$?dtor$0@?0???R<lambda_11>@?1??LoadWSAFunctions@Client@@IEAAXXZ@QEBAAEAV?$obfuscated_data@$07$0?HOPGIGJOHALMKGDD@D@ay@@XZ@4HA DD imagerel ?dtor$0@?0???R<lambda_11>@?1??LoadWSAFunctions@Client@@IEAAXXZ@QEBAAEAV?$obfuscated_data@$07$0?HOPGIGJOHALMKGDD@D@ay@@XZ@4HA
	DD	imagerel ?dtor$0@?0???R<lambda_11>@?1??LoadWSAFunctions@Client@@IEAAXXZ@QEBAAEAV?$obfuscated_data@$07$0?HOPGIGJOHALMKGDD@D@ay@@XZ@4HA+87
	DD	imagerel $unwind$?dtor$0@?0???R<lambda_11>@?1??LoadWSAFunctions@Client@@IEAAXXZ@QEBAAEAV?$obfuscated_data@$07$0?HOPGIGJOHALMKGDD@D@ay@@XZ@4HA
pdata	ENDS
;	COMDAT pdata
pdata	SEGMENT
$pdata$??R<lambda_10>@?1??LoadWSAFunctions@Client@@IEAAXXZ@QEBAAEAV?$obfuscated_data@$0L@$0?CLAAOECFMICOACN@D@ay@@XZ DD imagerel ??R<lambda_10>@?1??LoadWSAFunctions@Client@@IEAAXXZ@QEBAAEAV?$obfuscated_data@$0L@$0?CLAAOECFMICOACN@D@ay@@XZ
	DD	imagerel ??R<lambda_10>@?1??LoadWSAFunctions@Client@@IEAAXXZ@QEBAAEAV?$obfuscated_data@$0L@$0?CLAAOECFMICOACN@D@ay@@XZ+105
	DD	imagerel $unwind$??R<lambda_10>@?1??LoadWSAFunctions@Client@@IEAAXXZ@QEBAAEAV?$obfuscated_data@$0L@$0?CLAAOECFMICOACN@D@ay@@XZ
pdata	ENDS
;	COMDAT pdata
pdata	SEGMENT
$pdata$?dtor$0@?0???R<lambda_10>@?1??LoadWSAFunctions@Client@@IEAAXXZ@QEBAAEAV?$obfuscated_data@$0L@$0?CLAAOECFMICOACN@D@ay@@XZ@4HA DD imagerel ?dtor$0@?0???R<lambda_10>@?1??LoadWSAFunctions@Client@@IEAAXXZ@QEBAAEAV?$obfuscated_data@$0L@$0?CLAAOECFMICOACN@D@ay@@XZ@4HA
	DD	imagerel ?dtor$0@?0???R<lambda_10>@?1??LoadWSAFunctions@Client@@IEAAXXZ@QEBAAEAV?$obfuscated_data@$0L@$0?CLAAOECFMICOACN@D@ay@@XZ@4HA+87
	DD	imagerel $unwind$?dtor$0@?0???R<lambda_10>@?1??LoadWSAFunctions@Client@@IEAAXXZ@QEBAAEAV?$obfuscated_data@$0L@$0?CLAAOECFMICOACN@D@ay@@XZ@4HA
pdata	ENDS
;	COMDAT pdata
pdata	SEGMENT
$pdata$??R<lambda_9>@?1??LoadWSAFunctions@Client@@IEAAXXZ@QEBAAEAV?$obfuscated_data@$04$0CJGHDDDHAHNPJJPJ@D@ay@@XZ DD imagerel ??R<lambda_9>@?1??LoadWSAFunctions@Client@@IEAAXXZ@QEBAAEAV?$obfuscated_data@$04$0CJGHDDDHAHNPJJPJ@D@ay@@XZ
	DD	imagerel ??R<lambda_9>@?1??LoadWSAFunctions@Client@@IEAAXXZ@QEBAAEAV?$obfuscated_data@$04$0CJGHDDDHAHNPJJPJ@D@ay@@XZ+97
	DD	imagerel $unwind$??R<lambda_9>@?1??LoadWSAFunctions@Client@@IEAAXXZ@QEBAAEAV?$obfuscated_data@$04$0CJGHDDDHAHNPJJPJ@D@ay@@XZ
pdata	ENDS
;	COMDAT pdata
pdata	SEGMENT
$pdata$?dtor$0@?0???R<lambda_9>@?1??LoadWSAFunctions@Client@@IEAAXXZ@QEBAAEAV?$obfuscated_data@$04$0CJGHDDDHAHNPJJPJ@D@ay@@XZ@4HA DD imagerel ?dtor$0@?0???R<lambda_9>@?1??LoadWSAFunctions@Client@@IEAAXXZ@QEBAAEAV?$obfuscated_data@$04$0CJGHDDDHAHNPJJPJ@D@ay@@XZ@4HA
	DD	imagerel ?dtor$0@?0???R<lambda_9>@?1??LoadWSAFunctions@Client@@IEAAXXZ@QEBAAEAV?$obfuscated_data@$04$0CJGHDDDHAHNPJJPJ@D@ay@@XZ@4HA+87
	DD	imagerel $unwind$?dtor$0@?0???R<lambda_9>@?1??LoadWSAFunctions@Client@@IEAAXXZ@QEBAAEAV?$obfuscated_data@$04$0CJGHDDDHAHNPJJPJ@D@ay@@XZ@4HA
pdata	ENDS
;	COMDAT pdata
pdata	SEGMENT
$pdata$??R<lambda_8>@?1??LoadWSAFunctions@Client@@IEAAXXZ@QEBAAEAV?$obfuscated_data@$08$0BLAHMNIPHFJJOFGN@D@ay@@XZ DD imagerel ??R<lambda_8>@?1??LoadWSAFunctions@Client@@IEAAXXZ@QEBAAEAV?$obfuscated_data@$08$0BLAHMNIPHFJJOFGN@D@ay@@XZ
	DD	imagerel ??R<lambda_8>@?1??LoadWSAFunctions@Client@@IEAAXXZ@QEBAAEAV?$obfuscated_data@$08$0BLAHMNIPHFJJOFGN@D@ay@@XZ+104
	DD	imagerel $unwind$??R<lambda_8>@?1??LoadWSAFunctions@Client@@IEAAXXZ@QEBAAEAV?$obfuscated_data@$08$0BLAHMNIPHFJJOFGN@D@ay@@XZ
pdata	ENDS
;	COMDAT pdata
pdata	SEGMENT
$pdata$?dtor$0@?0???R<lambda_8>@?1??LoadWSAFunctions@Client@@IEAAXXZ@QEBAAEAV?$obfuscated_data@$08$0BLAHMNIPHFJJOFGN@D@ay@@XZ@4HA DD imagerel ?dtor$0@?0???R<lambda_8>@?1??LoadWSAFunctions@Client@@IEAAXXZ@QEBAAEAV?$obfuscated_data@$08$0BLAHMNIPHFJJOFGN@D@ay@@XZ@4HA
	DD	imagerel ?dtor$0@?0???R<lambda_8>@?1??LoadWSAFunctions@Client@@IEAAXXZ@QEBAAEAV?$obfuscated_data@$08$0BLAHMNIPHFJJOFGN@D@ay@@XZ@4HA+87
	DD	imagerel $unwind$?dtor$0@?0???R<lambda_8>@?1??LoadWSAFunctions@Client@@IEAAXXZ@QEBAAEAV?$obfuscated_data@$08$0BLAHMNIPHFJJOFGN@D@ay@@XZ@4HA
pdata	ENDS
;	COMDAT pdata
pdata	SEGMENT
$pdata$??R<lambda_7>@?1??LoadWSAFunctions@Client@@IEAAXXZ@QEBAAEAV?$obfuscated_data@$06$0?OLMMGBCGKAANADB@D@ay@@XZ DD imagerel ??R<lambda_7>@?1??LoadWSAFunctions@Client@@IEAAXXZ@QEBAAEAV?$obfuscated_data@$06$0?OLMMGBCGKAANADB@D@ay@@XZ
	DD	imagerel ??R<lambda_7>@?1??LoadWSAFunctions@Client@@IEAAXXZ@QEBAAEAV?$obfuscated_data@$06$0?OLMMGBCGKAANADB@D@ay@@XZ+98
	DD	imagerel $unwind$??R<lambda_7>@?1??LoadWSAFunctions@Client@@IEAAXXZ@QEBAAEAV?$obfuscated_data@$06$0?OLMMGBCGKAANADB@D@ay@@XZ
pdata	ENDS
;	COMDAT pdata
pdata	SEGMENT
$pdata$?dtor$0@?0???R<lambda_7>@?1??LoadWSAFunctions@Client@@IEAAXXZ@QEBAAEAV?$obfuscated_data@$06$0?OLMMGBCGKAANADB@D@ay@@XZ@4HA DD imagerel ?dtor$0@?0???R<lambda_7>@?1??LoadWSAFunctions@Client@@IEAAXXZ@QEBAAEAV?$obfuscated_data@$06$0?OLMMGBCGKAANADB@D@ay@@XZ@4HA
	DD	imagerel ?dtor$0@?0???R<lambda_7>@?1??LoadWSAFunctions@Client@@IEAAXXZ@QEBAAEAV?$obfuscated_data@$06$0?OLMMGBCGKAANADB@D@ay@@XZ@4HA+87
	DD	imagerel $unwind$?dtor$0@?0???R<lambda_7>@?1??LoadWSAFunctions@Client@@IEAAXXZ@QEBAAEAV?$obfuscated_data@$06$0?OLMMGBCGKAANADB@D@ay@@XZ@4HA
pdata	ENDS
;	COMDAT pdata
pdata	SEGMENT
$pdata$??R<lambda_6>@?1??LoadWSAFunctions@Client@@IEAAXXZ@QEBAAEAV?$obfuscated_data@$04$0FFNFMNJBKPLPEDOJ@D@ay@@XZ DD imagerel ??R<lambda_6>@?1??LoadWSAFunctions@Client@@IEAAXXZ@QEBAAEAV?$obfuscated_data@$04$0FFNFMNJBKPLPEDOJ@D@ay@@XZ
	DD	imagerel ??R<lambda_6>@?1??LoadWSAFunctions@Client@@IEAAXXZ@QEBAAEAV?$obfuscated_data@$04$0FFNFMNJBKPLPEDOJ@D@ay@@XZ+97
	DD	imagerel $unwind$??R<lambda_6>@?1??LoadWSAFunctions@Client@@IEAAXXZ@QEBAAEAV?$obfuscated_data@$04$0FFNFMNJBKPLPEDOJ@D@ay@@XZ
pdata	ENDS
;	COMDAT pdata
pdata	SEGMENT
$pdata$?dtor$0@?0???R<lambda_6>@?1??LoadWSAFunctions@Client@@IEAAXXZ@QEBAAEAV?$obfuscated_data@$04$0FFNFMNJBKPLPEDOJ@D@ay@@XZ@4HA DD imagerel ?dtor$0@?0???R<lambda_6>@?1??LoadWSAFunctions@Client@@IEAAXXZ@QEBAAEAV?$obfuscated_data@$04$0FFNFMNJBKPLPEDOJ@D@ay@@XZ@4HA
	DD	imagerel ?dtor$0@?0???R<lambda_6>@?1??LoadWSAFunctions@Client@@IEAAXXZ@QEBAAEAV?$obfuscated_data@$04$0FFNFMNJBKPLPEDOJ@D@ay@@XZ@4HA+87
	DD	imagerel $unwind$?dtor$0@?0???R<lambda_6>@?1??LoadWSAFunctions@Client@@IEAAXXZ@QEBAAEAV?$obfuscated_data@$04$0FFNFMNJBKPLPEDOJ@D@ay@@XZ@4HA
pdata	ENDS
;	COMDAT pdata
pdata	SEGMENT
$pdata$??R<lambda_5>@?1??LoadWSAFunctions@Client@@IEAAXXZ@QEBAAEAV?$obfuscated_data@$06$0?CEJMCMFKCANAFKKD@D@ay@@XZ DD imagerel ??R<lambda_5>@?1??LoadWSAFunctions@Client@@IEAAXXZ@QEBAAEAV?$obfuscated_data@$06$0?CEJMCMFKCANAFKKD@D@ay@@XZ
	DD	imagerel ??R<lambda_5>@?1??LoadWSAFunctions@Client@@IEAAXXZ@QEBAAEAV?$obfuscated_data@$06$0?CEJMCMFKCANAFKKD@D@ay@@XZ+98
	DD	imagerel $unwind$??R<lambda_5>@?1??LoadWSAFunctions@Client@@IEAAXXZ@QEBAAEAV?$obfuscated_data@$06$0?CEJMCMFKCANAFKKD@D@ay@@XZ
pdata	ENDS
;	COMDAT pdata
pdata	SEGMENT
$pdata$?dtor$0@?0???R<lambda_5>@?1??LoadWSAFunctions@Client@@IEAAXXZ@QEBAAEAV?$obfuscated_data@$06$0?CEJMCMFKCANAFKKD@D@ay@@XZ@4HA DD imagerel ?dtor$0@?0???R<lambda_5>@?1??LoadWSAFunctions@Client@@IEAAXXZ@QEBAAEAV?$obfuscated_data@$06$0?CEJMCMFKCANAFKKD@D@ay@@XZ@4HA
	DD	imagerel ?dtor$0@?0???R<lambda_5>@?1??LoadWSAFunctions@Client@@IEAAXXZ@QEBAAEAV?$obfuscated_data@$06$0?CEJMCMFKCANAFKKD@D@ay@@XZ@4HA+87
	DD	imagerel $unwind$?dtor$0@?0???R<lambda_5>@?1??LoadWSAFunctions@Client@@IEAAXXZ@QEBAAEAV?$obfuscated_data@$06$0?CEJMCMFKCANAFKKD@D@ay@@XZ@4HA
pdata	ENDS
;	COMDAT pdata
pdata	SEGMENT
$pdata$??R<lambda_4>@?1??LoadWSAFunctions@Client@@IEAAXXZ@QEBAAEAV?$obfuscated_data@$0M@$0FHPLCBONHLGFABKJ@D@ay@@XZ DD imagerel ??R<lambda_4>@?1??LoadWSAFunctions@Client@@IEAAXXZ@QEBAAEAV?$obfuscated_data@$0M@$0FHPLCBONHLGFABKJ@D@ay@@XZ
	DD	imagerel ??R<lambda_4>@?1??LoadWSAFunctions@Client@@IEAAXXZ@QEBAAEAV?$obfuscated_data@$0M@$0FHPLCBONHLGFABKJ@D@ay@@XZ+114
	DD	imagerel $unwind$??R<lambda_4>@?1??LoadWSAFunctions@Client@@IEAAXXZ@QEBAAEAV?$obfuscated_data@$0M@$0FHPLCBONHLGFABKJ@D@ay@@XZ
pdata	ENDS
;	COMDAT pdata
pdata	SEGMENT
$pdata$?dtor$0@?0???R<lambda_4>@?1??LoadWSAFunctions@Client@@IEAAXXZ@QEBAAEAV?$obfuscated_data@$0M@$0FHPLCBONHLGFABKJ@D@ay@@XZ@4HA DD imagerel ?dtor$0@?0???R<lambda_4>@?1??LoadWSAFunctions@Client@@IEAAXXZ@QEBAAEAV?$obfuscated_data@$0M@$0FHPLCBONHLGFABKJ@D@ay@@XZ@4HA
	DD	imagerel ?dtor$0@?0???R<lambda_4>@?1??LoadWSAFunctions@Client@@IEAAXXZ@QEBAAEAV?$obfuscated_data@$0M@$0FHPLCBONHLGFABKJ@D@ay@@XZ@4HA+87
	DD	imagerel $unwind$?dtor$0@?0???R<lambda_4>@?1??LoadWSAFunctions@Client@@IEAAXXZ@QEBAAEAV?$obfuscated_data@$0M@$0FHPLCBONHLGFABKJ@D@ay@@XZ@4HA
pdata	ENDS
;	COMDAT pdata
pdata	SEGMENT
$pdata$??R<lambda_3>@?1??LoadWSAFunctions@Client@@IEAAXXZ@QEBAAEAV?$obfuscated_data@$04$0?BMGONCACNKPGIEIF@D@ay@@XZ DD imagerel ??R<lambda_3>@?1??LoadWSAFunctions@Client@@IEAAXXZ@QEBAAEAV?$obfuscated_data@$04$0?BMGONCACNKPGIEIF@D@ay@@XZ
	DD	imagerel ??R<lambda_3>@?1??LoadWSAFunctions@Client@@IEAAXXZ@QEBAAEAV?$obfuscated_data@$04$0?BMGONCACNKPGIEIF@D@ay@@XZ+97
	DD	imagerel $unwind$??R<lambda_3>@?1??LoadWSAFunctions@Client@@IEAAXXZ@QEBAAEAV?$obfuscated_data@$04$0?BMGONCACNKPGIEIF@D@ay@@XZ
pdata	ENDS
;	COMDAT pdata
pdata	SEGMENT
$pdata$?dtor$0@?0???R<lambda_3>@?1??LoadWSAFunctions@Client@@IEAAXXZ@QEBAAEAV?$obfuscated_data@$04$0?BMGONCACNKPGIEIF@D@ay@@XZ@4HA DD imagerel ?dtor$0@?0???R<lambda_3>@?1??LoadWSAFunctions@Client@@IEAAXXZ@QEBAAEAV?$obfuscated_data@$04$0?BMGONCACNKPGIEIF@D@ay@@XZ@4HA
	DD	imagerel ?dtor$0@?0???R<lambda_3>@?1??LoadWSAFunctions@Client@@IEAAXXZ@QEBAAEAV?$obfuscated_data@$04$0?BMGONCACNKPGIEIF@D@ay@@XZ@4HA+87
	DD	imagerel $unwind$?dtor$0@?0???R<lambda_3>@?1??LoadWSAFunctions@Client@@IEAAXXZ@QEBAAEAV?$obfuscated_data@$04$0?BMGONCACNKPGIEIF@D@ay@@XZ@4HA
pdata	ENDS
;	COMDAT pdata
pdata	SEGMENT
$pdata$??R<lambda_2>@?1??LoadWSAFunctions@Client@@IEAAXXZ@QEBAAEAV?$obfuscated_data@$0L@$0GPFFMNJFHLKDFJAP@D@ay@@XZ DD imagerel ??R<lambda_2>@?1??LoadWSAFunctions@Client@@IEAAXXZ@QEBAAEAV?$obfuscated_data@$0L@$0GPFFMNJFHLKDFJAP@D@ay@@XZ
	DD	imagerel ??R<lambda_2>@?1??LoadWSAFunctions@Client@@IEAAXXZ@QEBAAEAV?$obfuscated_data@$0L@$0GPFFMNJFHLKDFJAP@D@ay@@XZ+105
	DD	imagerel $unwind$??R<lambda_2>@?1??LoadWSAFunctions@Client@@IEAAXXZ@QEBAAEAV?$obfuscated_data@$0L@$0GPFFMNJFHLKDFJAP@D@ay@@XZ
pdata	ENDS
;	COMDAT pdata
pdata	SEGMENT
$pdata$?dtor$0@?0???R<lambda_2>@?1??LoadWSAFunctions@Client@@IEAAXXZ@QEBAAEAV?$obfuscated_data@$0L@$0GPFFMNJFHLKDFJAP@D@ay@@XZ@4HA DD imagerel ?dtor$0@?0???R<lambda_2>@?1??LoadWSAFunctions@Client@@IEAAXXZ@QEBAAEAV?$obfuscated_data@$0L@$0GPFFMNJFHLKDFJAP@D@ay@@XZ@4HA
	DD	imagerel ?dtor$0@?0???R<lambda_2>@?1??LoadWSAFunctions@Client@@IEAAXXZ@QEBAAEAV?$obfuscated_data@$0L@$0GPFFMNJFHLKDFJAP@D@ay@@XZ@4HA+87
	DD	imagerel $unwind$?dtor$0@?0???R<lambda_2>@?1??LoadWSAFunctions@Client@@IEAAXXZ@QEBAAEAV?$obfuscated_data@$0L@$0GPFFMNJFHLKDFJAP@D@ay@@XZ@4HA
pdata	ENDS
;	COMDAT pdata
pdata	SEGMENT
$pdata$??R<lambda_1>@?1??LoadWSAFunctions@Client@@IEAAXXZ@QEBAAEAV?$obfuscated_data@$0L@$0?DOJGCMFOPGMELMMP@D@ay@@XZ DD imagerel ??R<lambda_1>@?1??LoadWSAFunctions@Client@@IEAAXXZ@QEBAAEAV?$obfuscated_data@$0L@$0?DOJGCMFOPGMELMMP@D@ay@@XZ
	DD	imagerel ??R<lambda_1>@?1??LoadWSAFunctions@Client@@IEAAXXZ@QEBAAEAV?$obfuscated_data@$0L@$0?DOJGCMFOPGMELMMP@D@ay@@XZ+105
	DD	imagerel $unwind$??R<lambda_1>@?1??LoadWSAFunctions@Client@@IEAAXXZ@QEBAAEAV?$obfuscated_data@$0L@$0?DOJGCMFOPGMELMMP@D@ay@@XZ
pdata	ENDS
;	COMDAT pdata
pdata	SEGMENT
$pdata$?dtor$0@?0???R<lambda_1>@?1??LoadWSAFunctions@Client@@IEAAXXZ@QEBAAEAV?$obfuscated_data@$0L@$0?DOJGCMFOPGMELMMP@D@ay@@XZ@4HA DD imagerel ?dtor$0@?0???R<lambda_1>@?1??LoadWSAFunctions@Client@@IEAAXXZ@QEBAAEAV?$obfuscated_data@$0L@$0?DOJGCMFOPGMELMMP@D@ay@@XZ@4HA
	DD	imagerel ?dtor$0@?0???R<lambda_1>@?1??LoadWSAFunctions@Client@@IEAAXXZ@QEBAAEAV?$obfuscated_data@$0L@$0?DOJGCMFOPGMELMMP@D@ay@@XZ@4HA+87
	DD	imagerel $unwind$?dtor$0@?0???R<lambda_1>@?1??LoadWSAFunctions@Client@@IEAAXXZ@QEBAAEAV?$obfuscated_data@$0L@$0?DOJGCMFOPGMELMMP@D@ay@@XZ@4HA
pdata	ENDS
;	COMDAT pdata
pdata	SEGMENT
$pdata$?LoadWSAFunctions@Client@@IEAAXXZ DD imagerel $LN805
	DD	imagerel $LN805+2770
	DD	imagerel $unwind$?LoadWSAFunctions@Client@@IEAAXXZ
pdata	ENDS
;	COMDAT pdata
pdata	SEGMENT
$pdata$?dtor$11@?0??LoadWSAFunctions@Client@@IEAAXXZ@4HA DD imagerel ?dtor$11@?0??LoadWSAFunctions@Client@@IEAAXXZ@4HA
	DD	imagerel ?dtor$11@?0??LoadWSAFunctions@Client@@IEAAXXZ@4HA+87
	DD	imagerel $unwind$?dtor$11@?0??LoadWSAFunctions@Client@@IEAAXXZ@4HA
pdata	ENDS
;	COMDAT pdata
pdata	SEGMENT
$pdata$?dtor$12@?0??LoadWSAFunctions@Client@@IEAAXXZ@4HA DD imagerel ?dtor$12@?0??LoadWSAFunctions@Client@@IEAAXXZ@4HA
	DD	imagerel ?dtor$12@?0??LoadWSAFunctions@Client@@IEAAXXZ@4HA+87
	DD	imagerel $unwind$?dtor$12@?0??LoadWSAFunctions@Client@@IEAAXXZ@4HA
pdata	ENDS
;	COMDAT pdata
pdata	SEGMENT
$pdata$?dtor$16@?0??LoadWSAFunctions@Client@@IEAAXXZ@4HA DD imagerel ?dtor$16@?0??LoadWSAFunctions@Client@@IEAAXXZ@4HA
	DD	imagerel ?dtor$16@?0??LoadWSAFunctions@Client@@IEAAXXZ@4HA+87
	DD	imagerel $unwind$?dtor$16@?0??LoadWSAFunctions@Client@@IEAAXXZ@4HA
pdata	ENDS
;	COMDAT pdata
pdata	SEGMENT
$pdata$?dtor$17@?0??LoadWSAFunctions@Client@@IEAAXXZ@4HA DD imagerel ?dtor$17@?0??LoadWSAFunctions@Client@@IEAAXXZ@4HA
	DD	imagerel ?dtor$17@?0??LoadWSAFunctions@Client@@IEAAXXZ@4HA+87
	DD	imagerel $unwind$?dtor$17@?0??LoadWSAFunctions@Client@@IEAAXXZ@4HA
pdata	ENDS
;	COMDAT pdata
pdata	SEGMENT
$pdata$?dtor$21@?0??LoadWSAFunctions@Client@@IEAAXXZ@4HA DD imagerel ?dtor$21@?0??LoadWSAFunctions@Client@@IEAAXXZ@4HA
	DD	imagerel ?dtor$21@?0??LoadWSAFunctions@Client@@IEAAXXZ@4HA+87
	DD	imagerel $unwind$?dtor$21@?0??LoadWSAFunctions@Client@@IEAAXXZ@4HA
pdata	ENDS
;	COMDAT pdata
pdata	SEGMENT
$pdata$?dtor$25@?0??LoadWSAFunctions@Client@@IEAAXXZ@4HA DD imagerel ?dtor$25@?0??LoadWSAFunctions@Client@@IEAAXXZ@4HA
	DD	imagerel ?dtor$25@?0??LoadWSAFunctions@Client@@IEAAXXZ@4HA+87
	DD	imagerel $unwind$?dtor$25@?0??LoadWSAFunctions@Client@@IEAAXXZ@4HA
pdata	ENDS
;	COMDAT pdata
pdata	SEGMENT
$pdata$?dtor$29@?0??LoadWSAFunctions@Client@@IEAAXXZ@4HA DD imagerel ?dtor$29@?0??LoadWSAFunctions@Client@@IEAAXXZ@4HA
	DD	imagerel ?dtor$29@?0??LoadWSAFunctions@Client@@IEAAXXZ@4HA+87
	DD	imagerel $unwind$?dtor$29@?0??LoadWSAFunctions@Client@@IEAAXXZ@4HA
pdata	ENDS
;	COMDAT pdata
pdata	SEGMENT
$pdata$?dtor$33@?0??LoadWSAFunctions@Client@@IEAAXXZ@4HA DD imagerel ?dtor$33@?0??LoadWSAFunctions@Client@@IEAAXXZ@4HA
	DD	imagerel ?dtor$33@?0??LoadWSAFunctions@Client@@IEAAXXZ@4HA+87
	DD	imagerel $unwind$?dtor$33@?0??LoadWSAFunctions@Client@@IEAAXXZ@4HA
pdata	ENDS
;	COMDAT pdata
pdata	SEGMENT
$pdata$?dtor$37@?0??LoadWSAFunctions@Client@@IEAAXXZ@4HA DD imagerel ?dtor$37@?0??LoadWSAFunctions@Client@@IEAAXXZ@4HA
	DD	imagerel ?dtor$37@?0??LoadWSAFunctions@Client@@IEAAXXZ@4HA+87
	DD	imagerel $unwind$?dtor$37@?0??LoadWSAFunctions@Client@@IEAAXXZ@4HA
pdata	ENDS
;	COMDAT pdata
pdata	SEGMENT
$pdata$?dtor$41@?0??LoadWSAFunctions@Client@@IEAAXXZ@4HA DD imagerel ?dtor$41@?0??LoadWSAFunctions@Client@@IEAAXXZ@4HA
	DD	imagerel ?dtor$41@?0??LoadWSAFunctions@Client@@IEAAXXZ@4HA+87
	DD	imagerel $unwind$?dtor$41@?0??LoadWSAFunctions@Client@@IEAAXXZ@4HA
pdata	ENDS
;	COMDAT pdata
pdata	SEGMENT
$pdata$?dtor$45@?0??LoadWSAFunctions@Client@@IEAAXXZ@4HA DD imagerel ?dtor$45@?0??LoadWSAFunctions@Client@@IEAAXXZ@4HA
	DD	imagerel ?dtor$45@?0??LoadWSAFunctions@Client@@IEAAXXZ@4HA+87
	DD	imagerel $unwind$?dtor$45@?0??LoadWSAFunctions@Client@@IEAAXXZ@4HA
pdata	ENDS
;	COMDAT pdata
pdata	SEGMENT
$pdata$??R<lambda_1>@?1???1Client@@QEAA@XZ@QEBAAEAV?$obfuscated_data@$0L@$0?GIOGLOCGPCIABIMJ@D@ay@@XZ DD imagerel ??R<lambda_1>@?1???1Client@@QEAA@XZ@QEBAAEAV?$obfuscated_data@$0L@$0?GIOGLOCGPCIABIMJ@D@ay@@XZ
	DD	imagerel ??R<lambda_1>@?1???1Client@@QEAA@XZ@QEBAAEAV?$obfuscated_data@$0L@$0?GIOGLOCGPCIABIMJ@D@ay@@XZ+105
	DD	imagerel $unwind$??R<lambda_1>@?1???1Client@@QEAA@XZ@QEBAAEAV?$obfuscated_data@$0L@$0?GIOGLOCGPCIABIMJ@D@ay@@XZ
pdata	ENDS
;	COMDAT pdata
pdata	SEGMENT
$pdata$?dtor$0@?0???R<lambda_1>@?1???1Client@@QEAA@XZ@QEBAAEAV?$obfuscated_data@$0L@$0?GIOGLOCGPCIABIMJ@D@ay@@XZ@4HA DD imagerel ?dtor$0@?0???R<lambda_1>@?1???1Client@@QEAA@XZ@QEBAAEAV?$obfuscated_data@$0L@$0?GIOGLOCGPCIABIMJ@D@ay@@XZ@4HA
	DD	imagerel ?dtor$0@?0???R<lambda_1>@?1???1Client@@QEAA@XZ@QEBAAEAV?$obfuscated_data@$0L@$0?GIOGLOCGPCIABIMJ@D@ay@@XZ@4HA+87
	DD	imagerel $unwind$?dtor$0@?0???R<lambda_1>@?1???1Client@@QEAA@XZ@QEBAAEAV?$obfuscated_data@$0L@$0?GIOGLOCGPCIABIMJ@D@ay@@XZ@4HA
pdata	ENDS
;	COMDAT pdata
pdata	SEGMENT
$pdata$??1Client@@QEAA@XZ DD imagerel $LN102
	DD	imagerel $LN102+293
	DD	imagerel $unwind$??1Client@@QEAA@XZ
pdata	ENDS
;	COMDAT pdata
pdata	SEGMENT
$pdata$??0Client@@QEAA@XZ DD imagerel $LN28
	DD	imagerel $LN28+237
	DD	imagerel $unwind$??0Client@@QEAA@XZ
pdata	ENDS
;	COMDAT pdata
pdata	SEGMENT
$pdata$??__Fadvapi32@freqDLLS@ProcessUtilities@@YAXXZ DD imagerel ??__Fadvapi32@freqDLLS@ProcessUtilities@@YAXXZ
	DD	imagerel ??__Fadvapi32@freqDLLS@ProcessUtilities@@YAXXZ+99
	DD	imagerel $unwind$??__Fadvapi32@freqDLLS@ProcessUtilities@@YAXXZ
pdata	ENDS
;	COMDAT pdata
pdata	SEGMENT
$pdata$??__Eadvapi32@freqDLLS@ProcessUtilities@@YAXXZ DD imagerel ??__Eadvapi32@freqDLLS@ProcessUtilities@@YAXXZ
	DD	imagerel ??__Eadvapi32@freqDLLS@ProcessUtilities@@YAXXZ+385
	DD	imagerel $unwind$??__Eadvapi32@freqDLLS@ProcessUtilities@@YAXXZ
pdata	ENDS
;	COMDAT pdata
pdata	SEGMENT
$pdata$?dtor$0@?0???__Eadvapi32@freqDLLS@ProcessUtilities@@YAXXZ@4HA DD imagerel ?dtor$0@?0???__Eadvapi32@freqDLLS@ProcessUtilities@@YAXXZ@4HA
	DD	imagerel ?dtor$0@?0???__Eadvapi32@freqDLLS@ProcessUtilities@@YAXXZ@4HA+87
	DD	imagerel $unwind$?dtor$0@?0???__Eadvapi32@freqDLLS@ProcessUtilities@@YAXXZ@4HA
pdata	ENDS
;	COMDAT pdata
pdata	SEGMENT
$pdata$??R<lambda_3>@freqDLLS@ProcessUtilities@@QEBAAEAV?$obfuscated_data@$0N@$0?BMGONCACNKPGIEIF@D@ay@@XZ DD imagerel ??R<lambda_3>@freqDLLS@ProcessUtilities@@QEBAAEAV?$obfuscated_data@$0N@$0?BMGONCACNKPGIEIF@D@ay@@XZ
	DD	imagerel ??R<lambda_3>@freqDLLS@ProcessUtilities@@QEBAAEAV?$obfuscated_data@$0N@$0?BMGONCACNKPGIEIF@D@ay@@XZ+111
	DD	imagerel $unwind$??R<lambda_3>@freqDLLS@ProcessUtilities@@QEBAAEAV?$obfuscated_data@$0N@$0?BMGONCACNKPGIEIF@D@ay@@XZ
pdata	ENDS
;	COMDAT pdata
pdata	SEGMENT
$pdata$?dtor$0@?0???R<lambda_3>@freqDLLS@ProcessUtilities@@QEBAAEAV?$obfuscated_data@$0N@$0?BMGONCACNKPGIEIF@D@ay@@XZ@4HA DD imagerel ?dtor$0@?0???R<lambda_3>@freqDLLS@ProcessUtilities@@QEBAAEAV?$obfuscated_data@$0N@$0?BMGONCACNKPGIEIF@D@ay@@XZ@4HA
	DD	imagerel ?dtor$0@?0???R<lambda_3>@freqDLLS@ProcessUtilities@@QEBAAEAV?$obfuscated_data@$0N@$0?BMGONCACNKPGIEIF@D@ay@@XZ@4HA+87
	DD	imagerel $unwind$?dtor$0@?0???R<lambda_3>@freqDLLS@ProcessUtilities@@QEBAAEAV?$obfuscated_data@$0N@$0?BMGONCACNKPGIEIF@D@ay@@XZ@4HA
pdata	ENDS
;	COMDAT pdata
pdata	SEGMENT
$pdata$??__Fntdll@freqDLLS@ProcessUtilities@@YAXXZ DD imagerel ??__Fntdll@freqDLLS@ProcessUtilities@@YAXXZ
	DD	imagerel ??__Fntdll@freqDLLS@ProcessUtilities@@YAXXZ+99
	DD	imagerel $unwind$??__Fntdll@freqDLLS@ProcessUtilities@@YAXXZ
pdata	ENDS
;	COMDAT pdata
pdata	SEGMENT
$pdata$??__Entdll@freqDLLS@ProcessUtilities@@YAXXZ DD imagerel ??__Entdll@freqDLLS@ProcessUtilities@@YAXXZ
	DD	imagerel ??__Entdll@freqDLLS@ProcessUtilities@@YAXXZ+385
	DD	imagerel $unwind$??__Entdll@freqDLLS@ProcessUtilities@@YAXXZ
pdata	ENDS
;	COMDAT pdata
pdata	SEGMENT
$pdata$?dtor$0@?0???__Entdll@freqDLLS@ProcessUtilities@@YAXXZ@4HA DD imagerel ?dtor$0@?0???__Entdll@freqDLLS@ProcessUtilities@@YAXXZ@4HA
	DD	imagerel ?dtor$0@?0???__Entdll@freqDLLS@ProcessUtilities@@YAXXZ@4HA+87
	DD	imagerel $unwind$?dtor$0@?0???__Entdll@freqDLLS@ProcessUtilities@@YAXXZ@4HA
pdata	ENDS
;	COMDAT pdata
pdata	SEGMENT
$pdata$??R<lambda_2>@freqDLLS@ProcessUtilities@@QEBAAEAV?$obfuscated_data@$09$0GPFFMNJFHLKDFJAP@D@ay@@XZ DD imagerel ??R<lambda_2>@freqDLLS@ProcessUtilities@@QEBAAEAV?$obfuscated_data@$09$0GPFFMNJFHLKDFJAP@D@ay@@XZ
	DD	imagerel ??R<lambda_2>@freqDLLS@ProcessUtilities@@QEBAAEAV?$obfuscated_data@$09$0GPFFMNJFHLKDFJAP@D@ay@@XZ+108
	DD	imagerel $unwind$??R<lambda_2>@freqDLLS@ProcessUtilities@@QEBAAEAV?$obfuscated_data@$09$0GPFFMNJFHLKDFJAP@D@ay@@XZ
pdata	ENDS
;	COMDAT pdata
pdata	SEGMENT
$pdata$?dtor$0@?0???R<lambda_2>@freqDLLS@ProcessUtilities@@QEBAAEAV?$obfuscated_data@$09$0GPFFMNJFHLKDFJAP@D@ay@@XZ@4HA DD imagerel ?dtor$0@?0???R<lambda_2>@freqDLLS@ProcessUtilities@@QEBAAEAV?$obfuscated_data@$09$0GPFFMNJFHLKDFJAP@D@ay@@XZ@4HA
	DD	imagerel ?dtor$0@?0???R<lambda_2>@freqDLLS@ProcessUtilities@@QEBAAEAV?$obfuscated_data@$09$0GPFFMNJFHLKDFJAP@D@ay@@XZ@4HA+87
	DD	imagerel $unwind$?dtor$0@?0???R<lambda_2>@freqDLLS@ProcessUtilities@@QEBAAEAV?$obfuscated_data@$09$0GPFFMNJFHLKDFJAP@D@ay@@XZ@4HA
pdata	ENDS
;	COMDAT pdata
pdata	SEGMENT
$pdata$??__Fkernel32@freqDLLS@ProcessUtilities@@YAXXZ DD imagerel ??__Fkernel32@freqDLLS@ProcessUtilities@@YAXXZ
	DD	imagerel ??__Fkernel32@freqDLLS@ProcessUtilities@@YAXXZ+99
	DD	imagerel $unwind$??__Fkernel32@freqDLLS@ProcessUtilities@@YAXXZ
pdata	ENDS
;	COMDAT pdata
pdata	SEGMENT
$pdata$??__Ekernel32@freqDLLS@ProcessUtilities@@YAXXZ DD imagerel ??__Ekernel32@freqDLLS@ProcessUtilities@@YAXXZ
	DD	imagerel ??__Ekernel32@freqDLLS@ProcessUtilities@@YAXXZ+385
	DD	imagerel $unwind$??__Ekernel32@freqDLLS@ProcessUtilities@@YAXXZ
pdata	ENDS
;	COMDAT pdata
pdata	SEGMENT
$pdata$?dtor$0@?0???__Ekernel32@freqDLLS@ProcessUtilities@@YAXXZ@4HA DD imagerel ?dtor$0@?0???__Ekernel32@freqDLLS@ProcessUtilities@@YAXXZ@4HA
	DD	imagerel ?dtor$0@?0???__Ekernel32@freqDLLS@ProcessUtilities@@YAXXZ@4HA+87
	DD	imagerel $unwind$?dtor$0@?0???__Ekernel32@freqDLLS@ProcessUtilities@@YAXXZ@4HA
pdata	ENDS
;	COMDAT pdata
pdata	SEGMENT
$pdata$??R<lambda_1>@freqDLLS@ProcessUtilities@@QEBAAEAV?$obfuscated_data@$0N@$0?DCOKHGPAOABAGAID@D@ay@@XZ DD imagerel ??R<lambda_1>@freqDLLS@ProcessUtilities@@QEBAAEAV?$obfuscated_data@$0N@$0?DCOKHGPAOABAGAID@D@ay@@XZ
	DD	imagerel ??R<lambda_1>@freqDLLS@ProcessUtilities@@QEBAAEAV?$obfuscated_data@$0N@$0?DCOKHGPAOABAGAID@D@ay@@XZ+111
	DD	imagerel $unwind$??R<lambda_1>@freqDLLS@ProcessUtilities@@QEBAAEAV?$obfuscated_data@$0N@$0?DCOKHGPAOABAGAID@D@ay@@XZ
pdata	ENDS
;	COMDAT pdata
pdata	SEGMENT
$pdata$?dtor$0@?0???R<lambda_1>@freqDLLS@ProcessUtilities@@QEBAAEAV?$obfuscated_data@$0N@$0?DCOKHGPAOABAGAID@D@ay@@XZ@4HA DD imagerel ?dtor$0@?0???R<lambda_1>@freqDLLS@ProcessUtilities@@QEBAAEAV?$obfuscated_data@$0N@$0?DCOKHGPAOABAGAID@D@ay@@XZ@4HA
	DD	imagerel ?dtor$0@?0???R<lambda_1>@freqDLLS@ProcessUtilities@@QEBAAEAV?$obfuscated_data@$0N@$0?DCOKHGPAOABAGAID@D@ay@@XZ@4HA+87
	DD	imagerel $unwind$?dtor$0@?0???R<lambda_1>@freqDLLS@ProcessUtilities@@QEBAAEAV?$obfuscated_data@$0N@$0?DCOKHGPAOABAGAID@D@ay@@XZ@4HA
pdata	ENDS
;	COMDAT pdata
pdata	SEGMENT
$pdata$??$cipher@D@ay@@YAXPEAD_K1@Z DD imagerel $LN29
	DD	imagerel $LN29+88
	DD	imagerel $unwind$??$cipher@D@ay@@YAXPEAD_K1@Z
pdata	ENDS
;	COMDAT pdata
pdata	SEGMENT
$pdata$1$??$cipher@D@ay@@YAXPEAD_K1@Z DD imagerel $LN29+88
	DD	imagerel $LN29+368
	DD	imagerel $chain$1$??$cipher@D@ay@@YAXPEAD_K1@Z
pdata	ENDS
;	COMDAT pdata
pdata	SEGMENT
$pdata$2$??$cipher@D@ay@@YAXPEAD_K1@Z DD imagerel $LN29+368
	DD	imagerel $LN29+400
	DD	imagerel $chain$2$??$cipher@D@ay@@YAXPEAD_K1@Z
pdata	ENDS
;	COMDAT pdata
pdata	SEGMENT
$pdata$?_Xlen_string@std@@YAXXZ DD imagerel $LN4
	DD	imagerel $LN4+17
	DD	imagerel $unwind$?_Xlen_string@std@@YAXXZ
pdata	ENDS
;	COMDAT pdata
pdata	SEGMENT
$pdata$?_Adjust_manually_vector_aligned@std@@YAXAEAPEAXAEA_K@Z DD imagerel $LN13
	DD	imagerel $LN13+42
	DD	imagerel $unwind$?_Adjust_manually_vector_aligned@std@@YAXAEAPEAXAEA_K@Z
pdata	ENDS
;	COMDAT pdata
pdata	SEGMENT
$pdata$??0bad_alloc@std@@QEAA@AEBV01@@Z DD imagerel $LN9
	DD	imagerel $LN9+60
	DD	imagerel $unwind$??0bad_alloc@std@@QEAA@AEBV01@@Z
pdata	ENDS
;	COMDAT pdata
pdata	SEGMENT
$pdata$??0bad_array_new_length@std@@QEAA@AEBV01@@Z DD imagerel $LN14
	DD	imagerel $LN14+60
	DD	imagerel $unwind$??0bad_array_new_length@std@@QEAA@AEBV01@@Z
pdata	ENDS
;	COMDAT pdata
pdata	SEGMENT
$pdata$?_Throw_bad_array_new_length@std@@YAXXZ DD imagerel $LN4
	DD	imagerel $LN4+32
	DD	imagerel $unwind$?_Throw_bad_array_new_length@std@@YAXXZ
pdata	ENDS
;	COMDAT pdata
pdata	SEGMENT
$pdata$??_Gbad_array_new_length@std@@UEAAPEAXI@Z DD imagerel $LN22
	DD	imagerel $LN22+66
	DD	imagerel $unwind$??_Gbad_array_new_length@std@@UEAAPEAXI@Z
pdata	ENDS
;	COMDAT pdata
pdata	SEGMENT
$pdata$??_Gbad_alloc@std@@UEAAPEAXI@Z DD imagerel $LN17
	DD	imagerel $LN17+66
	DD	imagerel $unwind$??_Gbad_alloc@std@@UEAAPEAXI@Z
pdata	ENDS
;	COMDAT pdata
pdata	SEGMENT
$pdata$??_Gexception@std@@UEAAPEAXI@Z DD imagerel $LN12
	DD	imagerel $LN12+66
	DD	imagerel $unwind$??_Gexception@std@@UEAAPEAXI@Z
pdata	ENDS
;	COMDAT pdata
pdata	SEGMENT
$pdata$??0exception@std@@QEAA@AEBV01@@Z DD imagerel $LN6
	DD	imagerel $LN6+50
	DD	imagerel $unwind$??0exception@std@@QEAA@AEBV01@@Z
pdata	ENDS
CRT$XCU	SEGMENT
?kernel32$initializer$@freqDLLS@ProcessUtilities@@3P6AXXZEA DQ FLAT:??__Ekernel32@freqDLLS@ProcessUtilities@@YAXXZ ; ProcessUtilities::freqDLLS::kernel32$initializer$
;	COMDAT __xmm@f3d721dd83fbbdcdf3d721dd83fbbdcd
CONST	SEGMENT
__xmm@f3d721dd83fbbdcdf3d721dd83fbbdcd DB 0cdH, 0bdH, 0fbH, 083H, 0ddH, '!'
	DB	0d7H, 0f3H, 0cdH, 0bdH, 0fbH, 083H, 0ddH, '!', 0d7H, 0f3H
CONST	ENDS
;	COMDAT __xmm@f165653785232bf3f165653785232bf3
CONST	SEGMENT
__xmm@f165653785232bf3f165653785232bf3 DB 0f3H, '+#', 085H, '7ee', 0f1H, 0f3H
	DB	'+#', 085H, '7ee', 0f1H
CONST	ENDS
;	COMDAT __xmm@f121bf4145812963f121bf4145812963
CONST	SEGMENT
__xmm@f121bf4145812963f121bf4145812963 DB 'c)', 081H, 'EA', 0bfH, '!', 0f1H
	DB	'c)', 081H, 'EA', 0bfH, '!', 0f1H
CONST	ENDS
;	COMDAT __xmm@ebe1417985296fdfebe1417985296fdf
CONST	SEGMENT
__xmm@ebe1417985296fdfebe1417985296fdf DB 0dfH, 'o)', 085H, 'yA', 0e1H, 0ebH
	DB	0dfH, 'o)', 085H, 'yA', 0e1H, 0ebH
CONST	ENDS
;	COMDAT __xmm@e57fbf1f7b375791e57fbf1f7b375791
CONST	SEGMENT
__xmm@e57fbf1f7b375791e57fbf1f7b375791 DB 091H, 'W7{', 01fH, 0bfH, 07fH, 0e5H
	DB	091H, 'W7{', 01fH, 0bfH, 07fH, 0e5H
CONST	ENDS
;	COMDAT __xmm@e528cb6c095e11a3d60ccc7a185825c1
CONST	SEGMENT
__xmm@e528cb6c095e11a3d60ccc7a185825c1 DB 0c1H, '%X', 018H, 'z', 0ccH, 0cH
	DB	0d6H, 0a3H, 011H, '^', 09H, 'l', 0cbH, '(', 0e5H
CONST	ENDS
;	COMDAT __xmm@e3912dfd25097b7be3912dfd25097b7b
CONST	SEGMENT
__xmm@e3912dfd25097b7be3912dfd25097b7b DB '{{', 09H, '%', 0fdH, '-', 091H
	DB	0e3H, '{{', 09H, '%', 0fdH, '-', 091H, 0e3H
CONST	ENDS
;	COMDAT __xmm@da590a3e2d0e5d24831d2c725159162c
CONST	SEGMENT
__xmm@da590a3e2d0e5d24831d2c725159162c DB ',', 016H, 'YQr,', 01dH, 083H, '$'
	DB	']', 0eH, '->', 0aH, 'Y', 0daH
CONST	ENDS
;	COMDAT __xmm@cd15890f1fef9f7dcd15890f1fef9f7d
CONST	SEGMENT
__xmm@cd15890f1fef9f7dcd15890f1fef9f7d DB '}', 09fH, 0efH, 01fH, 0fH, 089H
	DB	015H, 0cdH, '}', 09fH, 0efH, 01fH, 0fH, 089H, 015H, 0cdH
CONST	ENDS
;	COMDAT __xmm@c80d32685e375636c21d2f785a371f02
CONST	SEGMENT
__xmm@c80d32685e375636c21d2f785a371f02 DB 02H, 01fH, '7Zx/', 01dH, 0c2H, '6'
	DB	'V7^h2', 0dH, 0c8H
CONST	ENDS
;	COMDAT __xmm@bba969eff327f753bba969eff327f753
CONST	SEGMENT
__xmm@bba969eff327f753bba969eff327f753 DB 'S', 0f7H, '''', 0f3H, 0efH, 'i'
	DB	0a9H, 0bbH, 'S', 0f7H, '''', 0f3H, 0efH, 'i', 0a9H, 0bbH
CONST	ENDS
;	COMDAT __xmm@b4e9824d098f09bfaefb82435ecf50e1
CONST	SEGMENT
__xmm@b4e9824d098f09bfaefb82435ecf50e1 DB 0e1H, 'P', 0cfH, '^C', 082H, 0fbH
	DB	0aeH, 0bfH, 09H, 08fH, 09H, 'M', 082H, 0e9H, 0b4H
CONST	ENDS
;	COMDAT __xmm@ad7941110d6b2541ad7941110d6b2541
CONST	SEGMENT
__xmm@ad7941110d6b2541ad7941110d6b2541 DB 'A%k', 0dH, 011H, 'Ay', 0adH, 'A'
	DB	'%k', 0dH, 011H, 'Ay', 0adH
CONST	ENDS
;	COMDAT __xmm@99c9b36339a1399199c9b36339a13991
CONST	SEGMENT
__xmm@99c9b36339a1399199c9b36339a13991 DB 091H, '9', 0a1H, '9c', 0b3H, 0c9H
	DB	099H, 091H, '9', 0a1H, '9c', 0b3H, 0c9H, 099H
CONST	ENDS
;	COMDAT __xmm@96b046b2cf9ec9ac9db852afe68bd084
CONST	SEGMENT
__xmm@96b046b2cf9ec9ac9db852afe68bd084 DB 084H, 0d0H, 08bH, 0e6H, 0afH, 'R'
	DB	0b8H, 09dH, 0acH, 0c9H, 09eH, 0cfH, 0b2H, 'F', 0b0H, 096H
CONST	ENDS
;	COMDAT __xmm@8548e83236e44a0c8371da3524e45b20
CONST	SEGMENT
__xmm@8548e83236e44a0c8371da3524e45b20 DB ' [', 0e4H, '$5', 0daH, 'q', 083H
	DB	0cH, 'J', 0e4H, '62', 0e8H, 'H', 085H
CONST	ENDS
;	COMDAT __xmm@8300095be457589db8010043f65659a7
CONST	SEGMENT
__xmm@8300095be457589db8010043f65659a7 DB 0a7H, 'YV', 0f6H, 'C', 00H, 01H
	DB	0b8H, 09dH, 'XW', 0e4H, '[', 09H, 00H, 083H
CONST	ENDS
;	COMDAT __xmm@810979618f4359cd810979618f4359cd
CONST	SEGMENT
__xmm@810979618f4359cd810979618f4359cd DB 0cdH, 'YC', 08fH, 'ay', 09H, 081H
	DB	0cdH, 'YC', 08fH, 'ay', 09H, 081H
CONST	ENDS
;	COMDAT __xmm@7d21cb4597bfa7d17d21cb4597bfa7d1
CONST	SEGMENT
__xmm@7d21cb4597bfa7d17d21cb4597bfa7d1 DB 0d1H, 0a7H, 0bfH, 097H, 'E', 0cbH
	DB	'!}', 0d1H, 0a7H, 0bfH, 097H, 'E', 0cbH, '!}'
CONST	ENDS
;	COMDAT __xmm@717f5d0f8b9d9be7717f5d0f8b9d9be7
CONST	SEGMENT
__xmm@717f5d0f8b9d9be7717f5d0f8b9d9be7 DB 0e7H, 09bH, 09dH, 08bH, 0fH, ']'
	DB	07fH, 'q', 0e7H, 09bH, 09dH, 08bH, 0fH, ']', 07fH, 'q'
CONST	ENDS
;	COMDAT __xmm@6f55cd957ba3590f6f55cd957ba3590f
CONST	SEGMENT
__xmm@6f55cd957ba3590f6f55cd957ba3590f DB 0fH, 'Y', 0a3H, '{', 095H, 0cdH
	DB	'Uo', 0fH, 'Y', 0a3H, '{', 095H, 0cdH, 'Uo'
CONST	ENDS
;	COMDAT __xmm@57fb21ed7b6501a957fb21ed7b6501a9
CONST	SEGMENT
__xmm@57fb21ed7b6501a957fb21ed7b6501a9 DB 0a9H, 01H, 'e{', 0edH, '!', 0fbH
	DB	'W', 0a9H, 01H, 'e{', 0edH, '!', 0fbH, 'W'
CONST	ENDS
;	COMDAT __xmm@579735abedf3c931579735abedf3c931
CONST	SEGMENT
__xmm@579735abedf3c931579735abedf3c931 DB '1', 0c9H, 0f3H, 0edH, 0abH, '5'
	DB	097H, 'W1', 0c9H, 0f3H, 0edH, 0abH, '5', 097H, 'W'
CONST	ENDS
;	COMDAT __xmm@434c2d63eef5f7881e2b387beaf8e9a4
CONST	SEGMENT
__xmm@434c2d63eef5f7881e2b387beaf8e9a4 DB 0a4H, 0e9H, 0f8H, 0eaH, '{8+', 01eH
	DB	088H, 0f7H, 0f5H, 0eeH, 'c-LC'
CONST	ENDS
;	COMDAT __xmm@27cf676ff1953f9d27cf676ff1953f9d
CONST	SEGMENT
__xmm@27cf676ff1953f9d27cf676ff1953f9d DB 09dH, '?', 095H, 0f1H, 'og', 0cfH
	DB	'''', 09dH, '?', 095H, 0f1H, 'og', 0cfH, ''''
CONST	ENDS
;	COMDAT __xmm@23f641f88890a04725f266d29f96bc60
CONST	SEGMENT
__xmm@23f641f88890a04725f266d29f96bc60 DB '`', 0bcH, 096H, 09fH, 0d2H, 'f'
	DB	0f2H, '%G', 0a0H, 090H, 088H, 0f8H, 'A', 0f6H, '#'
CONST	ENDS
;	COMDAT __xmm@1b75bd1119a31f5d1b75bd1119a31f5d
CONST	SEGMENT
__xmm@1b75bd1119a31f5d1b75bd1119a31f5d DB ']', 01fH, 0a3H, 019H, 011H, 0bdH
	DB	'u', 01bH, ']', 01fH, 0a3H, 019H, 011H, 0bdH, 'u', 01bH
CONST	ENDS
;	COMDAT __xmm@01f3b16f0d3d333d01f3b16f0d3d333d
CONST	SEGMENT
__xmm@01f3b16f0d3d333d01f3b16f0d3d333d DB '=3=', 0dH, 'o', 0b1H, 0f3H, 01H
	DB	'=3=', 0dH, 'o', 0b1H, 0f3H, 01H
CONST	ENDS
;	COMDAT __xmm@00000000000008000000000000000800
CONST	SEGMENT
__xmm@00000000000008000000000000000800 DB 00H, 08H, 00H, 00H, 00H, 00H, 00H
	DB	00H, 00H, 08H, 00H, 00H, 00H, 00H, 00H, 00H
CONST	ENDS
;	COMDAT __xmm@000000000000000f0000000000000000
CONST	SEGMENT
__xmm@000000000000000f0000000000000000 DB 00H, 00H, 00H, 00H, 00H, 00H, 00H
	DB	00H, 0fH, 00H, 00H, 00H, 00H, 00H, 00H, 00H
CONST	ENDS
;	COMDAT __xmm@00000000000000070000000000000007
CONST	SEGMENT
__xmm@00000000000000070000000000000007 DB 07H, 00H, 00H, 00H, 00H, 00H, 00H
	DB	00H, 07H, 00H, 00H, 00H, 00H, 00H, 00H, 00H
CONST	ENDS
;	COMDAT __xmm@00000000000000070000000000000006
CONST	SEGMENT
__xmm@00000000000000070000000000000006 DB 06H, 00H, 00H, 00H, 00H, 00H, 00H
	DB	00H, 07H, 00H, 00H, 00H, 00H, 00H, 00H, 00H
CONST	ENDS
;	COMDAT __xmm@00000000000000050000000000000004
CONST	SEGMENT
__xmm@00000000000000050000000000000004 DB 04H, 00H, 00H, 00H, 00H, 00H, 00H
	DB	00H, 05H, 00H, 00H, 00H, 00H, 00H, 00H, 00H
CONST	ENDS
;	COMDAT __xmm@00000000000000030000000000000002
CONST	SEGMENT
__xmm@00000000000000030000000000000002 DB 02H, 00H, 00H, 00H, 00H, 00H, 00H
	DB	00H, 03H, 00H, 00H, 00H, 00H, 00H, 00H, 00H
CONST	ENDS
;	COMDAT __xmm@00000000000000010000000000000000
CONST	SEGMENT
__xmm@00000000000000010000000000000000 DB 00H, 00H, 00H, 00H, 00H, 00H, 00H
	DB	00H, 01H, 00H, 00H, 00H, 00H, 00H, 00H, 00H
CONST	ENDS
;	COMDAT __real@5f000000
CONST	SEGMENT
__real@5f000000 DD 05f000000r			; 9.22337e+18
CONST	ENDS
;	COMDAT xdata
xdata	SEGMENT
$unwind$??0exception@std@@QEAA@AEBV01@@Z DD 020601H
	DD	030023206H
xdata	ENDS
;	COMDAT xdata
xdata	SEGMENT
$unwind$??_Gexception@std@@UEAAPEAXI@Z DD 040a01H
	DD	06340aH
	DD	07006320aH
xdata	ENDS
;	COMDAT xdata
xdata	SEGMENT
$unwind$??_Gbad_alloc@std@@UEAAPEAXI@Z DD 040a01H
	DD	06340aH
	DD	07006320aH
xdata	ENDS
;	COMDAT xdata
xdata	SEGMENT
$unwind$??_Gbad_array_new_length@std@@UEAAPEAXI@Z DD 040a01H
	DD	06340aH
	DD	07006320aH
xdata	ENDS
;	COMDAT xdata
xdata	SEGMENT
$unwind$?_Throw_bad_array_new_length@std@@YAXXZ DD 010401H
	DD	08204H
xdata	ENDS
;	COMDAT xdata
xdata	SEGMENT
$unwind$??0bad_array_new_length@std@@QEAA@AEBV01@@Z DD 020601H
	DD	030023206H
xdata	ENDS
;	COMDAT xdata
xdata	SEGMENT
$unwind$??0bad_alloc@std@@QEAA@AEBV01@@Z DD 020601H
	DD	030023206H
xdata	ENDS
;	COMDAT xdata
xdata	SEGMENT
$unwind$?_Adjust_manually_vector_aligned@std@@YAXAEAPEAXAEA_K@Z DD 010401H
	DD	04204H
xdata	ENDS
;	COMDAT xdata
xdata	SEGMENT
$unwind$?_Xlen_string@std@@YAXXZ DD 010401H
	DD	04204H
xdata	ENDS
;	COMDAT xdata
xdata	SEGMENT
$chain$2$??$cipher@D@ay@@YAXPEAD_K1@Z DD 021H
	DD	imagerel $LN29
	DD	imagerel $LN29+88
	DD	imagerel $unwind$??$cipher@D@ay@@YAXPEAD_K1@Z
xdata	ENDS
;	COMDAT xdata
xdata	SEGMENT
$chain$1$??$cipher@D@ay@@YAXPEAD_K1@Z DD 041021H
	DD	07410H
	DD	023405H
	DD	imagerel $LN29
	DD	imagerel $LN29+88
	DD	imagerel $unwind$??$cipher@D@ay@@YAXPEAD_K1@Z
xdata	ENDS
;	COMDAT xdata
xdata	SEGMENT
$unwind$??$cipher@D@ay@@YAXPEAD_K1@Z DD 010401H
	DD	0204H
xdata	ENDS
;	COMDAT xdata
xdata	SEGMENT
$unwind$?dtor$0@?0???R<lambda_1>@freqDLLS@ProcessUtilities@@QEBAAEAV?$obfuscated_data@$0N@$0?DCOKHGPAOABAGAID@D@ay@@XZ@4HA DD 010201H
	DD	05002H
xdata	ENDS
;	COMDAT xdata
xdata	SEGMENT
$ip2state$??R<lambda_1>@freqDLLS@ProcessUtilities@@QEBAAEAV?$obfuscated_data@$0N@$0?DCOKHGPAOABAGAID@D@ay@@XZ DB 02H
	DB	0acH
	DB	02H
xdata	ENDS
;	COMDAT xdata
xdata	SEGMENT
$stateUnwindMap$??R<lambda_1>@freqDLLS@ProcessUtilities@@QEBAAEAV?$obfuscated_data@$0N@$0?DCOKHGPAOABAGAID@D@ay@@XZ DB 02H
	DB	0eH
	DD	imagerel ?dtor$0@?0???R<lambda_1>@freqDLLS@ProcessUtilities@@QEBAAEAV?$obfuscated_data@$0N@$0?DCOKHGPAOABAGAID@D@ay@@XZ@4HA
xdata	ENDS
;	COMDAT xdata
xdata	SEGMENT
$cppxdata$??R<lambda_1>@freqDLLS@ProcessUtilities@@QEBAAEAV?$obfuscated_data@$0N@$0?DCOKHGPAOABAGAID@D@ay@@XZ DB 028H
	DD	imagerel $stateUnwindMap$??R<lambda_1>@freqDLLS@ProcessUtilities@@QEBAAEAV?$obfuscated_data@$0N@$0?DCOKHGPAOABAGAID@D@ay@@XZ
	DD	imagerel $ip2state$??R<lambda_1>@freqDLLS@ProcessUtilities@@QEBAAEAV?$obfuscated_data@$0N@$0?DCOKHGPAOABAGAID@D@ay@@XZ
xdata	ENDS
;	COMDAT xdata
xdata	SEGMENT
$unwind$??R<lambda_1>@freqDLLS@ProcessUtilities@@QEBAAEAV?$obfuscated_data@$0N@$0?DCOKHGPAOABAGAID@D@ay@@XZ DD 020611H
	DD	030023206H
	DD	imagerel __CxxFrameHandler4
	DD	imagerel $cppxdata$??R<lambda_1>@freqDLLS@ProcessUtilities@@QEBAAEAV?$obfuscated_data@$0N@$0?DCOKHGPAOABAGAID@D@ay@@XZ
xdata	ENDS
;	COMDAT xdata
xdata	SEGMENT
$unwind$?dtor$0@?0???__Ekernel32@freqDLLS@ProcessUtilities@@YAXXZ@4HA DD 010201H
	DD	05002H
xdata	ENDS
;	COMDAT xdata
xdata	SEGMENT
$ip2state$??__Ekernel32@freqDLLS@ProcessUtilities@@YAXXZ DB 04H
	DB	0a8H
	DB	02H
	DB	']', 04H
	DB	00H
xdata	ENDS
;	COMDAT xdata
xdata	SEGMENT
$stateUnwindMap$??__Ekernel32@freqDLLS@ProcessUtilities@@YAXXZ DB 02H
	DB	0eH
	DD	imagerel ?dtor$0@?0???__Ekernel32@freqDLLS@ProcessUtilities@@YAXXZ@4HA
xdata	ENDS
;	COMDAT xdata
xdata	SEGMENT
$cppxdata$??__Ekernel32@freqDLLS@ProcessUtilities@@YAXXZ DB 028H
	DD	imagerel $stateUnwindMap$??__Ekernel32@freqDLLS@ProcessUtilities@@YAXXZ
	DD	imagerel $ip2state$??__Ekernel32@freqDLLS@ProcessUtilities@@YAXXZ
xdata	ENDS
;	COMDAT xdata
xdata	SEGMENT
$unwind$??__Ekernel32@freqDLLS@ProcessUtilities@@YAXXZ DD 020611H
	DD	030023206H
	DD	imagerel __CxxFrameHandler4
	DD	imagerel $cppxdata$??__Ekernel32@freqDLLS@ProcessUtilities@@YAXXZ
xdata	ENDS
;	COMDAT xdata
xdata	SEGMENT
$unwind$??__Fkernel32@freqDLLS@ProcessUtilities@@YAXXZ DD 010401H
	DD	04204H
xdata	ENDS
;	COMDAT xdata
xdata	SEGMENT
$unwind$?dtor$0@?0???R<lambda_2>@freqDLLS@ProcessUtilities@@QEBAAEAV?$obfuscated_data@$09$0GPFFMNJFHLKDFJAP@D@ay@@XZ@4HA DD 010201H
	DD	05002H
xdata	ENDS
;	COMDAT xdata
xdata	SEGMENT
$ip2state$??R<lambda_2>@freqDLLS@ProcessUtilities@@QEBAAEAV?$obfuscated_data@$09$0GPFFMNJFHLKDFJAP@D@ay@@XZ DB 02H
	DB	0a6H
	DB	02H
xdata	ENDS
;	COMDAT xdata
xdata	SEGMENT
$stateUnwindMap$??R<lambda_2>@freqDLLS@ProcessUtilities@@QEBAAEAV?$obfuscated_data@$09$0GPFFMNJFHLKDFJAP@D@ay@@XZ DB 02H
	DB	0eH
	DD	imagerel ?dtor$0@?0???R<lambda_2>@freqDLLS@ProcessUtilities@@QEBAAEAV?$obfuscated_data@$09$0GPFFMNJFHLKDFJAP@D@ay@@XZ@4HA
xdata	ENDS
;	COMDAT xdata
xdata	SEGMENT
$cppxdata$??R<lambda_2>@freqDLLS@ProcessUtilities@@QEBAAEAV?$obfuscated_data@$09$0GPFFMNJFHLKDFJAP@D@ay@@XZ DB 028H
	DD	imagerel $stateUnwindMap$??R<lambda_2>@freqDLLS@ProcessUtilities@@QEBAAEAV?$obfuscated_data@$09$0GPFFMNJFHLKDFJAP@D@ay@@XZ
	DD	imagerel $ip2state$??R<lambda_2>@freqDLLS@ProcessUtilities@@QEBAAEAV?$obfuscated_data@$09$0GPFFMNJFHLKDFJAP@D@ay@@XZ
xdata	ENDS
;	COMDAT xdata
xdata	SEGMENT
$unwind$??R<lambda_2>@freqDLLS@ProcessUtilities@@QEBAAEAV?$obfuscated_data@$09$0GPFFMNJFHLKDFJAP@D@ay@@XZ DD 020611H
	DD	030023206H
	DD	imagerel __CxxFrameHandler4
	DD	imagerel $cppxdata$??R<lambda_2>@freqDLLS@ProcessUtilities@@QEBAAEAV?$obfuscated_data@$09$0GPFFMNJFHLKDFJAP@D@ay@@XZ
xdata	ENDS
;	COMDAT xdata
xdata	SEGMENT
$unwind$?dtor$0@?0???__Entdll@freqDLLS@ProcessUtilities@@YAXXZ@4HA DD 010201H
	DD	05002H
xdata	ENDS
;	COMDAT xdata
xdata	SEGMENT
$ip2state$??__Entdll@freqDLLS@ProcessUtilities@@YAXXZ DB 04H
	DB	0a2H
	DB	02H
	DB	'i', 04H
	DB	00H
xdata	ENDS
;	COMDAT xdata
xdata	SEGMENT
$stateUnwindMap$??__Entdll@freqDLLS@ProcessUtilities@@YAXXZ DB 02H
	DB	0eH
	DD	imagerel ?dtor$0@?0???__Entdll@freqDLLS@ProcessUtilities@@YAXXZ@4HA
xdata	ENDS
;	COMDAT xdata
xdata	SEGMENT
$cppxdata$??__Entdll@freqDLLS@ProcessUtilities@@YAXXZ DB 028H
	DD	imagerel $stateUnwindMap$??__Entdll@freqDLLS@ProcessUtilities@@YAXXZ
	DD	imagerel $ip2state$??__Entdll@freqDLLS@ProcessUtilities@@YAXXZ
xdata	ENDS
;	COMDAT xdata
xdata	SEGMENT
$unwind$??__Entdll@freqDLLS@ProcessUtilities@@YAXXZ DD 020611H
	DD	030023206H
	DD	imagerel __CxxFrameHandler4
	DD	imagerel $cppxdata$??__Entdll@freqDLLS@ProcessUtilities@@YAXXZ
xdata	ENDS
;	COMDAT xdata
xdata	SEGMENT
$unwind$??__Fntdll@freqDLLS@ProcessUtilities@@YAXXZ DD 010401H
	DD	04204H
xdata	ENDS
;	COMDAT xdata
xdata	SEGMENT
$unwind$?dtor$0@?0???R<lambda_3>@freqDLLS@ProcessUtilities@@QEBAAEAV?$obfuscated_data@$0N@$0?BMGONCACNKPGIEIF@D@ay@@XZ@4HA DD 010201H
	DD	05002H
xdata	ENDS
;	COMDAT xdata
xdata	SEGMENT
$ip2state$??R<lambda_3>@freqDLLS@ProcessUtilities@@QEBAAEAV?$obfuscated_data@$0N@$0?BMGONCACNKPGIEIF@D@ay@@XZ DB 02H
	DB	0acH
	DB	02H
xdata	ENDS
;	COMDAT xdata
xdata	SEGMENT
$stateUnwindMap$??R<lambda_3>@freqDLLS@ProcessUtilities@@QEBAAEAV?$obfuscated_data@$0N@$0?BMGONCACNKPGIEIF@D@ay@@XZ DB 02H
	DB	0eH
	DD	imagerel ?dtor$0@?0???R<lambda_3>@freqDLLS@ProcessUtilities@@QEBAAEAV?$obfuscated_data@$0N@$0?BMGONCACNKPGIEIF@D@ay@@XZ@4HA
xdata	ENDS
;	COMDAT xdata
xdata	SEGMENT
$cppxdata$??R<lambda_3>@freqDLLS@ProcessUtilities@@QEBAAEAV?$obfuscated_data@$0N@$0?BMGONCACNKPGIEIF@D@ay@@XZ DB 028H
	DD	imagerel $stateUnwindMap$??R<lambda_3>@freqDLLS@ProcessUtilities@@QEBAAEAV?$obfuscated_data@$0N@$0?BMGONCACNKPGIEIF@D@ay@@XZ
	DD	imagerel $ip2state$??R<lambda_3>@freqDLLS@ProcessUtilities@@QEBAAEAV?$obfuscated_data@$0N@$0?BMGONCACNKPGIEIF@D@ay@@XZ
xdata	ENDS
;	COMDAT xdata
xdata	SEGMENT
$unwind$??R<lambda_3>@freqDLLS@ProcessUtilities@@QEBAAEAV?$obfuscated_data@$0N@$0?BMGONCACNKPGIEIF@D@ay@@XZ DD 020611H
	DD	030023206H
	DD	imagerel __CxxFrameHandler4
	DD	imagerel $cppxdata$??R<lambda_3>@freqDLLS@ProcessUtilities@@QEBAAEAV?$obfuscated_data@$0N@$0?BMGONCACNKPGIEIF@D@ay@@XZ
xdata	ENDS
;	COMDAT xdata
xdata	SEGMENT
$unwind$?dtor$0@?0???__Eadvapi32@freqDLLS@ProcessUtilities@@YAXXZ@4HA DD 010201H
	DD	05002H
xdata	ENDS
;	COMDAT xdata
xdata	SEGMENT
$ip2state$??__Eadvapi32@freqDLLS@ProcessUtilities@@YAXXZ DB 04H
	DB	0a8H
	DB	02H
	DB	']', 04H
	DB	00H
xdata	ENDS
;	COMDAT xdata
xdata	SEGMENT
$stateUnwindMap$??__Eadvapi32@freqDLLS@ProcessUtilities@@YAXXZ DB 02H
	DB	0eH
	DD	imagerel ?dtor$0@?0???__Eadvapi32@freqDLLS@ProcessUtilities@@YAXXZ@4HA
xdata	ENDS
;	COMDAT xdata
xdata	SEGMENT
$cppxdata$??__Eadvapi32@freqDLLS@ProcessUtilities@@YAXXZ DB 028H
	DD	imagerel $stateUnwindMap$??__Eadvapi32@freqDLLS@ProcessUtilities@@YAXXZ
	DD	imagerel $ip2state$??__Eadvapi32@freqDLLS@ProcessUtilities@@YAXXZ
xdata	ENDS
;	COMDAT xdata
xdata	SEGMENT
$unwind$??__Eadvapi32@freqDLLS@ProcessUtilities@@YAXXZ DD 020611H
	DD	030023206H
	DD	imagerel __CxxFrameHandler4
	DD	imagerel $cppxdata$??__Eadvapi32@freqDLLS@ProcessUtilities@@YAXXZ
xdata	ENDS
;	COMDAT xdata
xdata	SEGMENT
$unwind$??__Fadvapi32@freqDLLS@ProcessUtilities@@YAXXZ DD 010401H
	DD	04204H
xdata	ENDS
;	COMDAT xdata
xdata	SEGMENT
$ip2state$??0Client@@QEAA@XZ DB 04H
	DB	'y', 02H
	DB	02H
	DB	'f'
	DB	00H
xdata	ENDS
;	COMDAT xdata
xdata	SEGMENT
$stateUnwindMap$??0Client@@QEAA@XZ DB 02H
	DB	0eH
	DD	imagerel ?dtor$0@?0???0Client@@QEAA@XZ@4HA
xdata	ENDS
;	COMDAT xdata
xdata	SEGMENT
$cppxdata$??0Client@@QEAA@XZ DB 028H
	DD	imagerel $stateUnwindMap$??0Client@@QEAA@XZ
	DD	imagerel $ip2state$??0Client@@QEAA@XZ
xdata	ENDS
;	COMDAT xdata
xdata	SEGMENT
$unwind$??0Client@@QEAA@XZ DD 031b19H
	DD	03c0109H
	DD	03002H
	DD	imagerel __GSHandlerCheck_EH4
	DD	imagerel $cppxdata$??0Client@@QEAA@XZ
	DD	01d2H
xdata	ENDS
;	COMDAT xdata
xdata	SEGMENT
$ip2state$??1Client@@QEAA@XZ DB 02H
	DB	':'
	DB	00H
xdata	ENDS
;	COMDAT xdata
xdata	SEGMENT
$cppxdata$??1Client@@QEAA@XZ DB 060H
	DD	imagerel $ip2state$??1Client@@QEAA@XZ
xdata	ENDS
;	COMDAT xdata
xdata	SEGMENT
$unwind$??1Client@@QEAA@XZ DD 040a19H
	DD	0b340aH
	DD	07006720aH
	DD	imagerel __CxxFrameHandler4
	DD	imagerel $cppxdata$??1Client@@QEAA@XZ
xdata	ENDS
;	COMDAT xdata
xdata	SEGMENT
$unwind$?dtor$0@?0???R<lambda_1>@?1???1Client@@QEAA@XZ@QEBAAEAV?$obfuscated_data@$0L@$0?GIOGLOCGPCIABIMJ@D@ay@@XZ@4HA DD 010201H
	DD	05002H
xdata	ENDS
;	COMDAT xdata
xdata	SEGMENT
$ip2state$??R<lambda_1>@?1???1Client@@QEAA@XZ@QEBAAEAV?$obfuscated_data@$0L@$0?GIOGLOCGPCIABIMJ@D@ay@@XZ DB 02H
	DB	0a0H
	DB	02H
xdata	ENDS
;	COMDAT xdata
xdata	SEGMENT
$stateUnwindMap$??R<lambda_1>@?1???1Client@@QEAA@XZ@QEBAAEAV?$obfuscated_data@$0L@$0?GIOGLOCGPCIABIMJ@D@ay@@XZ DB 02H
	DB	0eH
	DD	imagerel ?dtor$0@?0???R<lambda_1>@?1???1Client@@QEAA@XZ@QEBAAEAV?$obfuscated_data@$0L@$0?GIOGLOCGPCIABIMJ@D@ay@@XZ@4HA
xdata	ENDS
;	COMDAT xdata
xdata	SEGMENT
$cppxdata$??R<lambda_1>@?1???1Client@@QEAA@XZ@QEBAAEAV?$obfuscated_data@$0L@$0?GIOGLOCGPCIABIMJ@D@ay@@XZ DB 028H
	DD	imagerel $stateUnwindMap$??R<lambda_1>@?1???1Client@@QEAA@XZ@QEBAAEAV?$obfuscated_data@$0L@$0?GIOGLOCGPCIABIMJ@D@ay@@XZ
	DD	imagerel $ip2state$??R<lambda_1>@?1???1Client@@QEAA@XZ@QEBAAEAV?$obfuscated_data@$0L@$0?GIOGLOCGPCIABIMJ@D@ay@@XZ
xdata	ENDS
;	COMDAT xdata
xdata	SEGMENT
$unwind$??R<lambda_1>@?1???1Client@@QEAA@XZ@QEBAAEAV?$obfuscated_data@$0L@$0?GIOGLOCGPCIABIMJ@D@ay@@XZ DD 020611H
	DD	030023206H
	DD	imagerel __CxxFrameHandler4
	DD	imagerel $cppxdata$??R<lambda_1>@?1???1Client@@QEAA@XZ@QEBAAEAV?$obfuscated_data@$0L@$0?GIOGLOCGPCIABIMJ@D@ay@@XZ
xdata	ENDS
;	COMDAT xdata
xdata	SEGMENT
$unwind$?dtor$45@?0??LoadWSAFunctions@Client@@IEAAXXZ@4HA DD 010201H
	DD	05002H
xdata	ENDS
;	COMDAT xdata
xdata	SEGMENT
$unwind$?dtor$41@?0??LoadWSAFunctions@Client@@IEAAXXZ@4HA DD 010201H
	DD	05002H
xdata	ENDS
;	COMDAT xdata
xdata	SEGMENT
$unwind$?dtor$37@?0??LoadWSAFunctions@Client@@IEAAXXZ@4HA DD 010201H
	DD	05002H
xdata	ENDS
;	COMDAT xdata
xdata	SEGMENT
$unwind$?dtor$33@?0??LoadWSAFunctions@Client@@IEAAXXZ@4HA DD 010201H
	DD	05002H
xdata	ENDS
;	COMDAT xdata
xdata	SEGMENT
$unwind$?dtor$29@?0??LoadWSAFunctions@Client@@IEAAXXZ@4HA DD 010201H
	DD	05002H
xdata	ENDS
;	COMDAT xdata
xdata	SEGMENT
$unwind$?dtor$25@?0??LoadWSAFunctions@Client@@IEAAXXZ@4HA DD 010201H
	DD	05002H
xdata	ENDS
;	COMDAT xdata
xdata	SEGMENT
$unwind$?dtor$21@?0??LoadWSAFunctions@Client@@IEAAXXZ@4HA DD 010201H
	DD	05002H
xdata	ENDS
;	COMDAT xdata
xdata	SEGMENT
$unwind$?dtor$17@?0??LoadWSAFunctions@Client@@IEAAXXZ@4HA DD 010201H
	DD	05002H
xdata	ENDS
;	COMDAT xdata
xdata	SEGMENT
$unwind$?dtor$16@?0??LoadWSAFunctions@Client@@IEAAXXZ@4HA DD 010201H
	DD	05002H
xdata	ENDS
;	COMDAT xdata
xdata	SEGMENT
$unwind$?dtor$12@?0??LoadWSAFunctions@Client@@IEAAXXZ@4HA DD 010201H
	DD	05002H
xdata	ENDS
;	COMDAT xdata
xdata	SEGMENT
$unwind$?dtor$11@?0??LoadWSAFunctions@Client@@IEAAXXZ@4HA DD 010201H
	DD	05002H
xdata	ENDS
;	COMDAT xdata
xdata	SEGMENT
$ip2state$?LoadWSAFunctions@Client@@IEAAXXZ DB '@'
	DB	0f8H
	DB	02H
	DB	084H
	DB	00H
	DB	'N'
	DB	04H
	DB	'J'
	DB	00H
	DB	09cH
	DB	06H
	DB	'4'
	DB	00H
	DB	0faH
	DB	08H
	DB	'`'
	DB	00H
	DB	'V'
	DB	0aH
	DB	'\'
	DB	00H
	DB	'q', 04H
	DB	0cH
	DB	'4'
	DB	00H
	DB	0f8H
	DB	0eH
	DB	'p'
	DB	00H
	DB	'&'
	DB	0cH
	DB	'5', 02H
	DB	010H
	DB	'`'
	DB	00H
	DB	'&'
	DB	0cH
	DB	'=', 02H
	DB	012H
	DB	'n'
	DB	00H
	DB	'&'
	DB	0cH
	DB	'U', 02H
	DB	014H
	DB	080H
	DB	00H
	DB	'&'
	DB	0cH
	DB	'9', 02H
	DB	016H
	DB	'`'
	DB	00H
	DB	'&'
	DB	0cH
	DB	'Y', 02H
	DB	018H
	DB	090H
	DB	00H
	DB	'&'
	DB	0cH
	DB	'a', 02H
	DB	01aH
	DB	'!', 04H
	DB	00H
xdata	ENDS
;	COMDAT xdata
xdata	SEGMENT
$stateUnwindMap$?LoadWSAFunctions@Client@@IEAAXXZ DB 01aH
	DB	0eH
	DD	imagerel ?dtor$11@?0??LoadWSAFunctions@Client@@IEAAXXZ@4HA
	DB	036H
	DD	imagerel ?dtor$12@?0??LoadWSAFunctions@Client@@IEAAXXZ@4HA
	DB	05cH
	DD	imagerel ??1?$basic_string@DU?$char_traits@D@std@@V?$allocator@D@2@@std@@QEAA@XZ
	DB	050H
	DB	08eH
	DD	imagerel ?dtor$16@?0??LoadWSAFunctions@Client@@IEAAXXZ@4HA
	DB	0b6H
	DD	imagerel ?dtor$17@?0??LoadWSAFunctions@Client@@IEAAXXZ@4HA
	DB	0dcH
	DD	imagerel ??1?$basic_string@DU?$char_traits@D@std@@V?$allocator@D@2@@std@@QEAA@XZ
	DB	040H
	DB	01dH
	DB	02H
	DD	imagerel ?dtor$21@?0??LoadWSAFunctions@Client@@IEAAXXZ@4HA
	DB	07dH
	DB	02H
	DD	imagerel ?dtor$25@?0??LoadWSAFunctions@Client@@IEAAXXZ@4HA
	DB	0ddH
	DB	02H
	DD	imagerel ?dtor$29@?0??LoadWSAFunctions@Client@@IEAAXXZ@4HA
	DB	03dH
	DB	03H
	DD	imagerel ?dtor$33@?0??LoadWSAFunctions@Client@@IEAAXXZ@4HA
	DB	09dH
	DB	03H
	DD	imagerel ?dtor$37@?0??LoadWSAFunctions@Client@@IEAAXXZ@4HA
	DB	0fdH
	DB	03H
	DD	imagerel ?dtor$41@?0??LoadWSAFunctions@Client@@IEAAXXZ@4HA
	DB	05dH
	DB	04H
	DD	imagerel ?dtor$45@?0??LoadWSAFunctions@Client@@IEAAXXZ@4HA
xdata	ENDS
;	COMDAT xdata
xdata	SEGMENT
$cppxdata$?LoadWSAFunctions@Client@@IEAAXXZ DB 028H
	DD	imagerel $stateUnwindMap$?LoadWSAFunctions@Client@@IEAAXXZ
	DD	imagerel $ip2state$?LoadWSAFunctions@Client@@IEAAXXZ
xdata	ENDS
;	COMDAT xdata
xdata	SEGMENT
$unwind$?LoadWSAFunctions@Client@@IEAAXXZ DD 0f2711H
	DD	096827H
	DD	01d7423H
	DD	01c6423H
	DD	01b3423H
	DD	0140123H
	DD	0e016f018H
	DD	0c012d014H
	DD	05010H
	DD	imagerel __CxxFrameHandler4
	DD	imagerel $cppxdata$?LoadWSAFunctions@Client@@IEAAXXZ
xdata	ENDS
;	COMDAT xdata
xdata	SEGMENT
$unwind$?dtor$0@?0???R<lambda_1>@?1??LoadWSAFunctions@Client@@IEAAXXZ@QEBAAEAV?$obfuscated_data@$0L@$0?DOJGCMFOPGMELMMP@D@ay@@XZ@4HA DD 010201H
	DD	05002H
xdata	ENDS
;	COMDAT xdata
xdata	SEGMENT
$ip2state$??R<lambda_1>@?1??LoadWSAFunctions@Client@@IEAAXXZ@QEBAAEAV?$obfuscated_data@$0L@$0?DOJGCMFOPGMELMMP@D@ay@@XZ DB 02H
	DB	0a0H
	DB	02H
xdata	ENDS
;	COMDAT xdata
xdata	SEGMENT
$stateUnwindMap$??R<lambda_1>@?1??LoadWSAFunctions@Client@@IEAAXXZ@QEBAAEAV?$obfuscated_data@$0L@$0?DOJGCMFOPGMELMMP@D@ay@@XZ DB 02H
	DB	0eH
	DD	imagerel ?dtor$0@?0???R<lambda_1>@?1??LoadWSAFunctions@Client@@IEAAXXZ@QEBAAEAV?$obfuscated_data@$0L@$0?DOJGCMFOPGMELMMP@D@ay@@XZ@4HA
xdata	ENDS
;	COMDAT xdata
xdata	SEGMENT
$cppxdata$??R<lambda_1>@?1??LoadWSAFunctions@Client@@IEAAXXZ@QEBAAEAV?$obfuscated_data@$0L@$0?DOJGCMFOPGMELMMP@D@ay@@XZ DB 028H
	DD	imagerel $stateUnwindMap$??R<lambda_1>@?1??LoadWSAFunctions@Client@@IEAAXXZ@QEBAAEAV?$obfuscated_data@$0L@$0?DOJGCMFOPGMELMMP@D@ay@@XZ
	DD	imagerel $ip2state$??R<lambda_1>@?1??LoadWSAFunctions@Client@@IEAAXXZ@QEBAAEAV?$obfuscated_data@$0L@$0?DOJGCMFOPGMELMMP@D@ay@@XZ
xdata	ENDS
;	COMDAT xdata
xdata	SEGMENT
$unwind$??R<lambda_1>@?1??LoadWSAFunctions@Client@@IEAAXXZ@QEBAAEAV?$obfuscated_data@$0L@$0?DOJGCMFOPGMELMMP@D@ay@@XZ DD 020611H
	DD	030023206H
	DD	imagerel __CxxFrameHandler4
	DD	imagerel $cppxdata$??R<lambda_1>@?1??LoadWSAFunctions@Client@@IEAAXXZ@QEBAAEAV?$obfuscated_data@$0L@$0?DOJGCMFOPGMELMMP@D@ay@@XZ
xdata	ENDS
;	COMDAT xdata
xdata	SEGMENT
$unwind$?dtor$0@?0???R<lambda_2>@?1??LoadWSAFunctions@Client@@IEAAXXZ@QEBAAEAV?$obfuscated_data@$0L@$0GPFFMNJFHLKDFJAP@D@ay@@XZ@4HA DD 010201H
	DD	05002H
xdata	ENDS
;	COMDAT xdata
xdata	SEGMENT
$ip2state$??R<lambda_2>@?1??LoadWSAFunctions@Client@@IEAAXXZ@QEBAAEAV?$obfuscated_data@$0L@$0GPFFMNJFHLKDFJAP@D@ay@@XZ DB 02H
	DB	0a0H
	DB	02H
xdata	ENDS
;	COMDAT xdata
xdata	SEGMENT
$stateUnwindMap$??R<lambda_2>@?1??LoadWSAFunctions@Client@@IEAAXXZ@QEBAAEAV?$obfuscated_data@$0L@$0GPFFMNJFHLKDFJAP@D@ay@@XZ DB 02H
	DB	0eH
	DD	imagerel ?dtor$0@?0???R<lambda_2>@?1??LoadWSAFunctions@Client@@IEAAXXZ@QEBAAEAV?$obfuscated_data@$0L@$0GPFFMNJFHLKDFJAP@D@ay@@XZ@4HA
xdata	ENDS
;	COMDAT xdata
xdata	SEGMENT
$cppxdata$??R<lambda_2>@?1??LoadWSAFunctions@Client@@IEAAXXZ@QEBAAEAV?$obfuscated_data@$0L@$0GPFFMNJFHLKDFJAP@D@ay@@XZ DB 028H
	DD	imagerel $stateUnwindMap$??R<lambda_2>@?1??LoadWSAFunctions@Client@@IEAAXXZ@QEBAAEAV?$obfuscated_data@$0L@$0GPFFMNJFHLKDFJAP@D@ay@@XZ
	DD	imagerel $ip2state$??R<lambda_2>@?1??LoadWSAFunctions@Client@@IEAAXXZ@QEBAAEAV?$obfuscated_data@$0L@$0GPFFMNJFHLKDFJAP@D@ay@@XZ
xdata	ENDS
;	COMDAT xdata
xdata	SEGMENT
$unwind$??R<lambda_2>@?1??LoadWSAFunctions@Client@@IEAAXXZ@QEBAAEAV?$obfuscated_data@$0L@$0GPFFMNJFHLKDFJAP@D@ay@@XZ DD 020611H
	DD	030023206H
	DD	imagerel __CxxFrameHandler4
	DD	imagerel $cppxdata$??R<lambda_2>@?1??LoadWSAFunctions@Client@@IEAAXXZ@QEBAAEAV?$obfuscated_data@$0L@$0GPFFMNJFHLKDFJAP@D@ay@@XZ
xdata	ENDS
;	COMDAT xdata
xdata	SEGMENT
$unwind$?dtor$0@?0???R<lambda_3>@?1??LoadWSAFunctions@Client@@IEAAXXZ@QEBAAEAV?$obfuscated_data@$04$0?BMGONCACNKPGIEIF@D@ay@@XZ@4HA DD 010201H
	DD	05002H
xdata	ENDS
;	COMDAT xdata
xdata	SEGMENT
$ip2state$??R<lambda_3>@?1??LoadWSAFunctions@Client@@IEAAXXZ@QEBAAEAV?$obfuscated_data@$04$0?BMGONCACNKPGIEIF@D@ay@@XZ DB 02H
	DB	090H
	DB	02H
xdata	ENDS
;	COMDAT xdata
xdata	SEGMENT
$stateUnwindMap$??R<lambda_3>@?1??LoadWSAFunctions@Client@@IEAAXXZ@QEBAAEAV?$obfuscated_data@$04$0?BMGONCACNKPGIEIF@D@ay@@XZ DB 02H
	DB	0eH
	DD	imagerel ?dtor$0@?0???R<lambda_3>@?1??LoadWSAFunctions@Client@@IEAAXXZ@QEBAAEAV?$obfuscated_data@$04$0?BMGONCACNKPGIEIF@D@ay@@XZ@4HA
xdata	ENDS
;	COMDAT xdata
xdata	SEGMENT
$cppxdata$??R<lambda_3>@?1??LoadWSAFunctions@Client@@IEAAXXZ@QEBAAEAV?$obfuscated_data@$04$0?BMGONCACNKPGIEIF@D@ay@@XZ DB 028H
	DD	imagerel $stateUnwindMap$??R<lambda_3>@?1??LoadWSAFunctions@Client@@IEAAXXZ@QEBAAEAV?$obfuscated_data@$04$0?BMGONCACNKPGIEIF@D@ay@@XZ
	DD	imagerel $ip2state$??R<lambda_3>@?1??LoadWSAFunctions@Client@@IEAAXXZ@QEBAAEAV?$obfuscated_data@$04$0?BMGONCACNKPGIEIF@D@ay@@XZ
xdata	ENDS
;	COMDAT xdata
xdata	SEGMENT
$unwind$??R<lambda_3>@?1??LoadWSAFunctions@Client@@IEAAXXZ@QEBAAEAV?$obfuscated_data@$04$0?BMGONCACNKPGIEIF@D@ay@@XZ DD 020611H
	DD	030023206H
	DD	imagerel __CxxFrameHandler4
	DD	imagerel $cppxdata$??R<lambda_3>@?1??LoadWSAFunctions@Client@@IEAAXXZ@QEBAAEAV?$obfuscated_data@$04$0?BMGONCACNKPGIEIF@D@ay@@XZ
xdata	ENDS
;	COMDAT xdata
xdata	SEGMENT
$unwind$?dtor$0@?0???R<lambda_4>@?1??LoadWSAFunctions@Client@@IEAAXXZ@QEBAAEAV?$obfuscated_data@$0M@$0FHPLCBONHLGFABKJ@D@ay@@XZ@4HA DD 010201H
	DD	05002H
xdata	ENDS
;	COMDAT xdata
xdata	SEGMENT
$ip2state$??R<lambda_4>@?1??LoadWSAFunctions@Client@@IEAAXXZ@QEBAAEAV?$obfuscated_data@$0M@$0FHPLCBONHLGFABKJ@D@ay@@XZ DB 02H
	DB	0b2H
	DB	02H
xdata	ENDS
;	COMDAT xdata
xdata	SEGMENT
$stateUnwindMap$??R<lambda_4>@?1??LoadWSAFunctions@Client@@IEAAXXZ@QEBAAEAV?$obfuscated_data@$0M@$0FHPLCBONHLGFABKJ@D@ay@@XZ DB 02H
	DB	0eH
	DD	imagerel ?dtor$0@?0???R<lambda_4>@?1??LoadWSAFunctions@Client@@IEAAXXZ@QEBAAEAV?$obfuscated_data@$0M@$0FHPLCBONHLGFABKJ@D@ay@@XZ@4HA
xdata	ENDS
;	COMDAT xdata
xdata	SEGMENT
$cppxdata$??R<lambda_4>@?1??LoadWSAFunctions@Client@@IEAAXXZ@QEBAAEAV?$obfuscated_data@$0M@$0FHPLCBONHLGFABKJ@D@ay@@XZ DB 028H
	DD	imagerel $stateUnwindMap$??R<lambda_4>@?1??LoadWSAFunctions@Client@@IEAAXXZ@QEBAAEAV?$obfuscated_data@$0M@$0FHPLCBONHLGFABKJ@D@ay@@XZ
	DD	imagerel $ip2state$??R<lambda_4>@?1??LoadWSAFunctions@Client@@IEAAXXZ@QEBAAEAV?$obfuscated_data@$0M@$0FHPLCBONHLGFABKJ@D@ay@@XZ
xdata	ENDS
;	COMDAT xdata
xdata	SEGMENT
$unwind$??R<lambda_4>@?1??LoadWSAFunctions@Client@@IEAAXXZ@QEBAAEAV?$obfuscated_data@$0M@$0FHPLCBONHLGFABKJ@D@ay@@XZ DD 020611H
	DD	030023206H
	DD	imagerel __CxxFrameHandler4
	DD	imagerel $cppxdata$??R<lambda_4>@?1??LoadWSAFunctions@Client@@IEAAXXZ@QEBAAEAV?$obfuscated_data@$0M@$0FHPLCBONHLGFABKJ@D@ay@@XZ
xdata	ENDS
;	COMDAT xdata
xdata	SEGMENT
$unwind$?dtor$0@?0???R<lambda_5>@?1??LoadWSAFunctions@Client@@IEAAXXZ@QEBAAEAV?$obfuscated_data@$06$0?CEJMCMFKCANAFKKD@D@ay@@XZ@4HA DD 010201H
	DD	05002H
xdata	ENDS
;	COMDAT xdata
xdata	SEGMENT
$ip2state$??R<lambda_5>@?1??LoadWSAFunctions@Client@@IEAAXXZ@QEBAAEAV?$obfuscated_data@$06$0?CEJMCMFKCANAFKKD@D@ay@@XZ DB 02H
	DB	092H
	DB	02H
xdata	ENDS
;	COMDAT xdata
xdata	SEGMENT
$stateUnwindMap$??R<lambda_5>@?1??LoadWSAFunctions@Client@@IEAAXXZ@QEBAAEAV?$obfuscated_data@$06$0?CEJMCMFKCANAFKKD@D@ay@@XZ DB 02H
	DB	0eH
	DD	imagerel ?dtor$0@?0???R<lambda_5>@?1??LoadWSAFunctions@Client@@IEAAXXZ@QEBAAEAV?$obfuscated_data@$06$0?CEJMCMFKCANAFKKD@D@ay@@XZ@4HA
xdata	ENDS
;	COMDAT xdata
xdata	SEGMENT
$cppxdata$??R<lambda_5>@?1??LoadWSAFunctions@Client@@IEAAXXZ@QEBAAEAV?$obfuscated_data@$06$0?CEJMCMFKCANAFKKD@D@ay@@XZ DB 028H
	DD	imagerel $stateUnwindMap$??R<lambda_5>@?1??LoadWSAFunctions@Client@@IEAAXXZ@QEBAAEAV?$obfuscated_data@$06$0?CEJMCMFKCANAFKKD@D@ay@@XZ
	DD	imagerel $ip2state$??R<lambda_5>@?1??LoadWSAFunctions@Client@@IEAAXXZ@QEBAAEAV?$obfuscated_data@$06$0?CEJMCMFKCANAFKKD@D@ay@@XZ
xdata	ENDS
;	COMDAT xdata
xdata	SEGMENT
$unwind$??R<lambda_5>@?1??LoadWSAFunctions@Client@@IEAAXXZ@QEBAAEAV?$obfuscated_data@$06$0?CEJMCMFKCANAFKKD@D@ay@@XZ DD 020611H
	DD	030023206H
	DD	imagerel __CxxFrameHandler4
	DD	imagerel $cppxdata$??R<lambda_5>@?1??LoadWSAFunctions@Client@@IEAAXXZ@QEBAAEAV?$obfuscated_data@$06$0?CEJMCMFKCANAFKKD@D@ay@@XZ
xdata	ENDS
;	COMDAT xdata
xdata	SEGMENT
$unwind$?dtor$0@?0???R<lambda_6>@?1??LoadWSAFunctions@Client@@IEAAXXZ@QEBAAEAV?$obfuscated_data@$04$0FFNFMNJBKPLPEDOJ@D@ay@@XZ@4HA DD 010201H
	DD	05002H
xdata	ENDS
;	COMDAT xdata
xdata	SEGMENT
$ip2state$??R<lambda_6>@?1??LoadWSAFunctions@Client@@IEAAXXZ@QEBAAEAV?$obfuscated_data@$04$0FFNFMNJBKPLPEDOJ@D@ay@@XZ DB 02H
	DB	090H
	DB	02H
xdata	ENDS
;	COMDAT xdata
xdata	SEGMENT
$stateUnwindMap$??R<lambda_6>@?1??LoadWSAFunctions@Client@@IEAAXXZ@QEBAAEAV?$obfuscated_data@$04$0FFNFMNJBKPLPEDOJ@D@ay@@XZ DB 02H
	DB	0eH
	DD	imagerel ?dtor$0@?0???R<lambda_6>@?1??LoadWSAFunctions@Client@@IEAAXXZ@QEBAAEAV?$obfuscated_data@$04$0FFNFMNJBKPLPEDOJ@D@ay@@XZ@4HA
xdata	ENDS
;	COMDAT xdata
xdata	SEGMENT
$cppxdata$??R<lambda_6>@?1??LoadWSAFunctions@Client@@IEAAXXZ@QEBAAEAV?$obfuscated_data@$04$0FFNFMNJBKPLPEDOJ@D@ay@@XZ DB 028H
	DD	imagerel $stateUnwindMap$??R<lambda_6>@?1??LoadWSAFunctions@Client@@IEAAXXZ@QEBAAEAV?$obfuscated_data@$04$0FFNFMNJBKPLPEDOJ@D@ay@@XZ
	DD	imagerel $ip2state$??R<lambda_6>@?1??LoadWSAFunctions@Client@@IEAAXXZ@QEBAAEAV?$obfuscated_data@$04$0FFNFMNJBKPLPEDOJ@D@ay@@XZ
xdata	ENDS
;	COMDAT xdata
xdata	SEGMENT
$unwind$??R<lambda_6>@?1??LoadWSAFunctions@Client@@IEAAXXZ@QEBAAEAV?$obfuscated_data@$04$0FFNFMNJBKPLPEDOJ@D@ay@@XZ DD 020611H
	DD	030023206H
	DD	imagerel __CxxFrameHandler4
	DD	imagerel $cppxdata$??R<lambda_6>@?1??LoadWSAFunctions@Client@@IEAAXXZ@QEBAAEAV?$obfuscated_data@$04$0FFNFMNJBKPLPEDOJ@D@ay@@XZ
xdata	ENDS
;	COMDAT xdata
xdata	SEGMENT
$unwind$?dtor$0@?0???R<lambda_7>@?1??LoadWSAFunctions@Client@@IEAAXXZ@QEBAAEAV?$obfuscated_data@$06$0?OLMMGBCGKAANADB@D@ay@@XZ@4HA DD 010201H
	DD	05002H
xdata	ENDS
;	COMDAT xdata
xdata	SEGMENT
$ip2state$??R<lambda_7>@?1??LoadWSAFunctions@Client@@IEAAXXZ@QEBAAEAV?$obfuscated_data@$06$0?OLMMGBCGKAANADB@D@ay@@XZ DB 02H
	DB	092H
	DB	02H
xdata	ENDS
;	COMDAT xdata
xdata	SEGMENT
$stateUnwindMap$??R<lambda_7>@?1??LoadWSAFunctions@Client@@IEAAXXZ@QEBAAEAV?$obfuscated_data@$06$0?OLMMGBCGKAANADB@D@ay@@XZ DB 02H
	DB	0eH
	DD	imagerel ?dtor$0@?0???R<lambda_7>@?1??LoadWSAFunctions@Client@@IEAAXXZ@QEBAAEAV?$obfuscated_data@$06$0?OLMMGBCGKAANADB@D@ay@@XZ@4HA
xdata	ENDS
;	COMDAT xdata
xdata	SEGMENT
$cppxdata$??R<lambda_7>@?1??LoadWSAFunctions@Client@@IEAAXXZ@QEBAAEAV?$obfuscated_data@$06$0?OLMMGBCGKAANADB@D@ay@@XZ DB 028H
	DD	imagerel $stateUnwindMap$??R<lambda_7>@?1??LoadWSAFunctions@Client@@IEAAXXZ@QEBAAEAV?$obfuscated_data@$06$0?OLMMGBCGKAANADB@D@ay@@XZ
	DD	imagerel $ip2state$??R<lambda_7>@?1??LoadWSAFunctions@Client@@IEAAXXZ@QEBAAEAV?$obfuscated_data@$06$0?OLMMGBCGKAANADB@D@ay@@XZ
xdata	ENDS
;	COMDAT xdata
xdata	SEGMENT
$unwind$??R<lambda_7>@?1??LoadWSAFunctions@Client@@IEAAXXZ@QEBAAEAV?$obfuscated_data@$06$0?OLMMGBCGKAANADB@D@ay@@XZ DD 020611H
	DD	030023206H
	DD	imagerel __CxxFrameHandler4
	DD	imagerel $cppxdata$??R<lambda_7>@?1??LoadWSAFunctions@Client@@IEAAXXZ@QEBAAEAV?$obfuscated_data@$06$0?OLMMGBCGKAANADB@D@ay@@XZ
xdata	ENDS
;	COMDAT xdata
xdata	SEGMENT
$unwind$?dtor$0@?0???R<lambda_8>@?1??LoadWSAFunctions@Client@@IEAAXXZ@QEBAAEAV?$obfuscated_data@$08$0BLAHMNIPHFJJOFGN@D@ay@@XZ@4HA DD 010201H
	DD	05002H
xdata	ENDS
;	COMDAT xdata
xdata	SEGMENT
$ip2state$??R<lambda_8>@?1??LoadWSAFunctions@Client@@IEAAXXZ@QEBAAEAV?$obfuscated_data@$08$0BLAHMNIPHFJJOFGN@D@ay@@XZ DB 02H
	DB	09eH
	DB	02H
xdata	ENDS
;	COMDAT xdata
xdata	SEGMENT
$stateUnwindMap$??R<lambda_8>@?1??LoadWSAFunctions@Client@@IEAAXXZ@QEBAAEAV?$obfuscated_data@$08$0BLAHMNIPHFJJOFGN@D@ay@@XZ DB 02H
	DB	0eH
	DD	imagerel ?dtor$0@?0???R<lambda_8>@?1??LoadWSAFunctions@Client@@IEAAXXZ@QEBAAEAV?$obfuscated_data@$08$0BLAHMNIPHFJJOFGN@D@ay@@XZ@4HA
xdata	ENDS
;	COMDAT xdata
xdata	SEGMENT
$cppxdata$??R<lambda_8>@?1??LoadWSAFunctions@Client@@IEAAXXZ@QEBAAEAV?$obfuscated_data@$08$0BLAHMNIPHFJJOFGN@D@ay@@XZ DB 028H
	DD	imagerel $stateUnwindMap$??R<lambda_8>@?1??LoadWSAFunctions@Client@@IEAAXXZ@QEBAAEAV?$obfuscated_data@$08$0BLAHMNIPHFJJOFGN@D@ay@@XZ
	DD	imagerel $ip2state$??R<lambda_8>@?1??LoadWSAFunctions@Client@@IEAAXXZ@QEBAAEAV?$obfuscated_data@$08$0BLAHMNIPHFJJOFGN@D@ay@@XZ
xdata	ENDS
;	COMDAT xdata
xdata	SEGMENT
$unwind$??R<lambda_8>@?1??LoadWSAFunctions@Client@@IEAAXXZ@QEBAAEAV?$obfuscated_data@$08$0BLAHMNIPHFJJOFGN@D@ay@@XZ DD 020611H
	DD	030023206H
	DD	imagerel __CxxFrameHandler4
	DD	imagerel $cppxdata$??R<lambda_8>@?1??LoadWSAFunctions@Client@@IEAAXXZ@QEBAAEAV?$obfuscated_data@$08$0BLAHMNIPHFJJOFGN@D@ay@@XZ
xdata	ENDS
;	COMDAT xdata
xdata	SEGMENT
$unwind$?dtor$0@?0???R<lambda_9>@?1??LoadWSAFunctions@Client@@IEAAXXZ@QEBAAEAV?$obfuscated_data@$04$0CJGHDDDHAHNPJJPJ@D@ay@@XZ@4HA DD 010201H
	DD	05002H
xdata	ENDS
;	COMDAT xdata
xdata	SEGMENT
$ip2state$??R<lambda_9>@?1??LoadWSAFunctions@Client@@IEAAXXZ@QEBAAEAV?$obfuscated_data@$04$0CJGHDDDHAHNPJJPJ@D@ay@@XZ DB 02H
	DB	090H
	DB	02H
xdata	ENDS
;	COMDAT xdata
xdata	SEGMENT
$stateUnwindMap$??R<lambda_9>@?1??LoadWSAFunctions@Client@@IEAAXXZ@QEBAAEAV?$obfuscated_data@$04$0CJGHDDDHAHNPJJPJ@D@ay@@XZ DB 02H
	DB	0eH
	DD	imagerel ?dtor$0@?0???R<lambda_9>@?1??LoadWSAFunctions@Client@@IEAAXXZ@QEBAAEAV?$obfuscated_data@$04$0CJGHDDDHAHNPJJPJ@D@ay@@XZ@4HA
xdata	ENDS
;	COMDAT xdata
xdata	SEGMENT
$cppxdata$??R<lambda_9>@?1??LoadWSAFunctions@Client@@IEAAXXZ@QEBAAEAV?$obfuscated_data@$04$0CJGHDDDHAHNPJJPJ@D@ay@@XZ DB 028H
	DD	imagerel $stateUnwindMap$??R<lambda_9>@?1??LoadWSAFunctions@Client@@IEAAXXZ@QEBAAEAV?$obfuscated_data@$04$0CJGHDDDHAHNPJJPJ@D@ay@@XZ
	DD	imagerel $ip2state$??R<lambda_9>@?1??LoadWSAFunctions@Client@@IEAAXXZ@QEBAAEAV?$obfuscated_data@$04$0CJGHDDDHAHNPJJPJ@D@ay@@XZ
xdata	ENDS
;	COMDAT xdata
xdata	SEGMENT
$unwind$??R<lambda_9>@?1??LoadWSAFunctions@Client@@IEAAXXZ@QEBAAEAV?$obfuscated_data@$04$0CJGHDDDHAHNPJJPJ@D@ay@@XZ DD 020611H
	DD	030023206H
	DD	imagerel __CxxFrameHandler4
	DD	imagerel $cppxdata$??R<lambda_9>@?1??LoadWSAFunctions@Client@@IEAAXXZ@QEBAAEAV?$obfuscated_data@$04$0CJGHDDDHAHNPJJPJ@D@ay@@XZ
xdata	ENDS
;	COMDAT xdata
xdata	SEGMENT
$unwind$?dtor$0@?0???R<lambda_10>@?1??LoadWSAFunctions@Client@@IEAAXXZ@QEBAAEAV?$obfuscated_data@$0L@$0?CLAAOECFMICOACN@D@ay@@XZ@4HA DD 010201H
	DD	05002H
xdata	ENDS
;	COMDAT xdata
xdata	SEGMENT
$ip2state$??R<lambda_10>@?1??LoadWSAFunctions@Client@@IEAAXXZ@QEBAAEAV?$obfuscated_data@$0L@$0?CLAAOECFMICOACN@D@ay@@XZ DB 02H
	DB	0a0H
	DB	02H
xdata	ENDS
;	COMDAT xdata
xdata	SEGMENT
$stateUnwindMap$??R<lambda_10>@?1??LoadWSAFunctions@Client@@IEAAXXZ@QEBAAEAV?$obfuscated_data@$0L@$0?CLAAOECFMICOACN@D@ay@@XZ DB 02H
	DB	0eH
	DD	imagerel ?dtor$0@?0???R<lambda_10>@?1??LoadWSAFunctions@Client@@IEAAXXZ@QEBAAEAV?$obfuscated_data@$0L@$0?CLAAOECFMICOACN@D@ay@@XZ@4HA
xdata	ENDS
;	COMDAT xdata
xdata	SEGMENT
$cppxdata$??R<lambda_10>@?1??LoadWSAFunctions@Client@@IEAAXXZ@QEBAAEAV?$obfuscated_data@$0L@$0?CLAAOECFMICOACN@D@ay@@XZ DB 028H
	DD	imagerel $stateUnwindMap$??R<lambda_10>@?1??LoadWSAFunctions@Client@@IEAAXXZ@QEBAAEAV?$obfuscated_data@$0L@$0?CLAAOECFMICOACN@D@ay@@XZ
	DD	imagerel $ip2state$??R<lambda_10>@?1??LoadWSAFunctions@Client@@IEAAXXZ@QEBAAEAV?$obfuscated_data@$0L@$0?CLAAOECFMICOACN@D@ay@@XZ
xdata	ENDS
;	COMDAT xdata
xdata	SEGMENT
$unwind$??R<lambda_10>@?1??LoadWSAFunctions@Client@@IEAAXXZ@QEBAAEAV?$obfuscated_data@$0L@$0?CLAAOECFMICOACN@D@ay@@XZ DD 020611H
	DD	030023206H
	DD	imagerel __CxxFrameHandler4
	DD	imagerel $cppxdata$??R<lambda_10>@?1??LoadWSAFunctions@Client@@IEAAXXZ@QEBAAEAV?$obfuscated_data@$0L@$0?CLAAOECFMICOACN@D@ay@@XZ
xdata	ENDS
;	COMDAT xdata
xdata	SEGMENT
$unwind$?dtor$0@?0???R<lambda_11>@?1??LoadWSAFunctions@Client@@IEAAXXZ@QEBAAEAV?$obfuscated_data@$07$0?HOPGIGJOHALMKGDD@D@ay@@XZ@4HA DD 010201H
	DD	05002H
xdata	ENDS
;	COMDAT xdata
xdata	SEGMENT
$ip2state$??R<lambda_11>@?1??LoadWSAFunctions@Client@@IEAAXXZ@QEBAAEAV?$obfuscated_data@$07$0?HOPGIGJOHALMKGDD@D@ay@@XZ DB 02H
	DB	0a4H
	DB	02H
xdata	ENDS
;	COMDAT xdata
xdata	SEGMENT
$stateUnwindMap$??R<lambda_11>@?1??LoadWSAFunctions@Client@@IEAAXXZ@QEBAAEAV?$obfuscated_data@$07$0?HOPGIGJOHALMKGDD@D@ay@@XZ DB 02H
	DB	0eH
	DD	imagerel ?dtor$0@?0???R<lambda_11>@?1??LoadWSAFunctions@Client@@IEAAXXZ@QEBAAEAV?$obfuscated_data@$07$0?HOPGIGJOHALMKGDD@D@ay@@XZ@4HA
xdata	ENDS
;	COMDAT xdata
xdata	SEGMENT
$cppxdata$??R<lambda_11>@?1??LoadWSAFunctions@Client@@IEAAXXZ@QEBAAEAV?$obfuscated_data@$07$0?HOPGIGJOHALMKGDD@D@ay@@XZ DB 028H
	DD	imagerel $stateUnwindMap$??R<lambda_11>@?1??LoadWSAFunctions@Client@@IEAAXXZ@QEBAAEAV?$obfuscated_data@$07$0?HOPGIGJOHALMKGDD@D@ay@@XZ
	DD	imagerel $ip2state$??R<lambda_11>@?1??LoadWSAFunctions@Client@@IEAAXXZ@QEBAAEAV?$obfuscated_data@$07$0?HOPGIGJOHALMKGDD@D@ay@@XZ
xdata	ENDS
;	COMDAT xdata
xdata	SEGMENT
$unwind$??R<lambda_11>@?1??LoadWSAFunctions@Client@@IEAAXXZ@QEBAAEAV?$obfuscated_data@$07$0?HOPGIGJOHALMKGDD@D@ay@@XZ DD 020611H
	DD	030023206H
	DD	imagerel __CxxFrameHandler4
	DD	imagerel $cppxdata$??R<lambda_11>@?1??LoadWSAFunctions@Client@@IEAAXXZ@QEBAAEAV?$obfuscated_data@$07$0?HOPGIGJOHALMKGDD@D@ay@@XZ
xdata	ENDS
;	COMDAT xdata
xdata	SEGMENT
$unwind$?Connect@Client@@QEAAHXZ DD 020601H
	DD	030025206H
xdata	ENDS
;	COMDAT xdata
xdata	SEGMENT
$ip2state$?UDPSendMessageToServer@Client@@IEAAHUClientRequest@@@Z DB 06H
	DB	0a0H
	DB	00H
	DB	'R'
	DB	02H
	DB	08cH
	DB	00H
xdata	ENDS
;	COMDAT xdata
xdata	SEGMENT
$stateUnwindMap$?UDPSendMessageToServer@Client@@IEAAHUClientRequest@@@Z DB 02H
	DB	0aH
	DD	imagerel ??1?$unique_ptr@$$BY0A@DU?$default_delete@$$BY0A@D@std@@@std@@QEAA@XZ
	DB	060H
xdata	ENDS
;	COMDAT xdata
xdata	SEGMENT
$cppxdata$?UDPSendMessageToServer@Client@@IEAAHUClientRequest@@@Z DB 028H
	DD	imagerel $stateUnwindMap$?UDPSendMessageToServer@Client@@IEAAHUClientRequest@@@Z
	DD	imagerel $ip2state$?UDPSendMessageToServer@Client@@IEAAHUClientRequest@@@Z
xdata	ENDS
;	COMDAT xdata
xdata	SEGMENT
$unwind$?UDPSendMessageToServer@Client@@IEAAHUClientRequest@@@Z DD 061e19H
	DD	0d640fH
	DD	0c340fH
	DD	0700b720fH
	DD	imagerel __GSHandlerCheck_EH4
	DD	imagerel $cppxdata$?UDPSendMessageToServer@Client@@IEAAHUClientRequest@@@Z
	DD	03aH
xdata	ENDS
;	COMDAT xdata
xdata	SEGMENT
$unwind$?TCPSendMessageToServer@Client@@IEAAHUClientRequest@@@Z DD 010401H
	DD	04204H
xdata	ENDS
;	COMDAT xdata
xdata	SEGMENT
$unwind$?MakeServerRequest@Client@@QEAAHUClientRequest@@H@Z DD 010401H
	DD	08204H
xdata	ENDS
;	COMDAT xdata
xdata	SEGMENT
$unwind$?Disconnect@Client@@QEAAHXZ DD 010401H
	DD	04204H
xdata	ENDS
;	COMDAT xdata
xdata	SEGMENT
$unwind$??1?$basic_string@DU?$char_traits@D@std@@V?$allocator@D@2@@std@@QEAA@XZ DD 020601H
	DD	030023206H
xdata	ENDS
;	COMDAT xdata
xdata	SEGMENT
$unwind$??0?$basic_string@DU?$char_traits@D@std@@V?$allocator@D@2@@std@@QEAA@QEBD@Z DD 081201H
	DD	0b5412H
	DD	0a3412H
	DD	0e00e3212H
	DD	0600b700cH
xdata	ENDS
;	COMDAT xdata
xdata	SEGMENT
$unwind$??0?$basic_string@DU?$char_traits@D@std@@V?$allocator@D@2@@std@@QEAA@AEBV01@@Z DD 060d01H
	DD	0a340dH
	DD	0e009320dH
	DD	060067007H
xdata	ENDS
;	COMDAT xdata
xdata	SEGMENT
$unwind$?_Tidy_deallocate@?$basic_string@DU?$char_traits@D@std@@V?$allocator@D@2@@std@@AEAAXXZ DD 020601H
	DD	030023206H
xdata	ENDS
;	COMDAT xdata
xdata	SEGMENT
$unwind$?_Deallocate_for_capacity@?$basic_string@DU?$char_traits@D@std@@V?$allocator@D@2@@std@@CAXAEAV?$allocator@D@2@QEAD_K@Z DD 010401H
	DD	04204H
xdata	ENDS
;	COMDAT xdata
xdata	SEGMENT
$unwind$?copy@?$_Char_traits@DH@std@@SAPEADQEADQEBD_K@Z DD 020601H
	DD	030023206H
xdata	ENDS
;	COMDAT xdata
xdata	SEGMENT
$unwind$?deallocate@?$allocator@D@std@@QEAAXQEAD_K@Z DD 010401H
	DD	04204H
xdata	ENDS
;	COMDAT xdata
xdata	SEGMENT
$ip2state$??$GetFunctionAddress@P6AHGPEAUWSAData@@@Z@ProcessUtilities@@YAP6AHGPEAUWSAData@@@ZPEAUHINSTANCE__@@V?$basic_string@DU?$char_traits@D@std@@V?$allocator@D@2@@std@@@Z DB 04H
	DB	'R'
	DB	02H
	DB	0ceH
	DB	00H
xdata	ENDS
;	COMDAT xdata
xdata	SEGMENT
$stateUnwindMap$??$GetFunctionAddress@P6AHGPEAUWSAData@@@Z@ProcessUtilities@@YAP6AHGPEAUWSAData@@@ZPEAUHINSTANCE__@@V?$basic_string@DU?$char_traits@D@std@@V?$allocator@D@2@@std@@@Z DB 02H
	DB	0cH
	DD	imagerel ??1?$basic_string@DU?$char_traits@D@std@@V?$allocator@D@2@@std@@QEAA@XZ
	DB	090H
xdata	ENDS
;	COMDAT xdata
xdata	SEGMENT
$cppxdata$??$GetFunctionAddress@P6AHGPEAUWSAData@@@Z@ProcessUtilities@@YAP6AHGPEAUWSAData@@@ZPEAUHINSTANCE__@@V?$basic_string@DU?$char_traits@D@std@@V?$allocator@D@2@@std@@@Z DB 028H
	DD	imagerel $stateUnwindMap$??$GetFunctionAddress@P6AHGPEAUWSAData@@@Z@ProcessUtilities@@YAP6AHGPEAUWSAData@@@ZPEAUHINSTANCE__@@V?$basic_string@DU?$char_traits@D@std@@V?$allocator@D@2@@std@@@Z
	DD	imagerel $ip2state$??$GetFunctionAddress@P6AHGPEAUWSAData@@@Z@ProcessUtilities@@YAP6AHGPEAUWSAData@@@ZPEAUHINSTANCE__@@V?$basic_string@DU?$char_traits@D@std@@V?$allocator@D@2@@std@@@Z
xdata	ENDS
;	COMDAT xdata
xdata	SEGMENT
$unwind$??$GetFunctionAddress@P6AHGPEAUWSAData@@@Z@ProcessUtilities@@YAP6AHGPEAUWSAData@@@ZPEAUHINSTANCE__@@V?$basic_string@DU?$char_traits@D@std@@V?$allocator@D@2@@std@@@Z DD 041919H
	DD	010340aH
	DD	07006b20aH
	DD	imagerel __GSHandlerCheck_EH4
	DD	imagerel $cppxdata$??$GetFunctionAddress@P6AHGPEAUWSAData@@@Z@ProcessUtilities@@YAP6AHGPEAUWSAData@@@ZPEAUHINSTANCE__@@V?$basic_string@DU?$char_traits@D@std@@V?$allocator@D@2@@std@@@Z
	DD	052H
xdata	ENDS
;	COMDAT xdata
xdata	SEGMENT
$ip2state$??$GetFunctionAddress@P6AH_KPEBUsockaddr@@H@Z@ProcessUtilities@@YAP6AH_KPEBUsockaddr@@H@ZPEAUHINSTANCE__@@V?$basic_string@DU?$char_traits@D@std@@V?$allocator@D@2@@std@@@Z DB 04H
	DB	'R'
	DB	02H
	DB	0ceH
	DB	00H
xdata	ENDS
;	COMDAT xdata
xdata	SEGMENT
$stateUnwindMap$??$GetFunctionAddress@P6AH_KPEBUsockaddr@@H@Z@ProcessUtilities@@YAP6AH_KPEBUsockaddr@@H@ZPEAUHINSTANCE__@@V?$basic_string@DU?$char_traits@D@std@@V?$allocator@D@2@@std@@@Z DB 02H
	DB	0cH
	DD	imagerel ??1?$basic_string@DU?$char_traits@D@std@@V?$allocator@D@2@@std@@QEAA@XZ
	DB	090H
xdata	ENDS
;	COMDAT xdata
xdata	SEGMENT
$cppxdata$??$GetFunctionAddress@P6AH_KPEBUsockaddr@@H@Z@ProcessUtilities@@YAP6AH_KPEBUsockaddr@@H@ZPEAUHINSTANCE__@@V?$basic_string@DU?$char_traits@D@std@@V?$allocator@D@2@@std@@@Z DB 028H
	DD	imagerel $stateUnwindMap$??$GetFunctionAddress@P6AH_KPEBUsockaddr@@H@Z@ProcessUtilities@@YAP6AH_KPEBUsockaddr@@H@ZPEAUHINSTANCE__@@V?$basic_string@DU?$char_traits@D@std@@V?$allocator@D@2@@std@@@Z
	DD	imagerel $ip2state$??$GetFunctionAddress@P6AH_KPEBUsockaddr@@H@Z@ProcessUtilities@@YAP6AH_KPEBUsockaddr@@H@ZPEAUHINSTANCE__@@V?$basic_string@DU?$char_traits@D@std@@V?$allocator@D@2@@std@@@Z
xdata	ENDS
;	COMDAT xdata
xdata	SEGMENT
$unwind$??$GetFunctionAddress@P6AH_KPEBUsockaddr@@H@Z@ProcessUtilities@@YAP6AH_KPEBUsockaddr@@H@ZPEAUHINSTANCE__@@V?$basic_string@DU?$char_traits@D@std@@V?$allocator@D@2@@std@@@Z DD 041919H
	DD	010340aH
	DD	07006b20aH
	DD	imagerel __GSHandlerCheck_EH4
	DD	imagerel $cppxdata$??$GetFunctionAddress@P6AH_KPEBUsockaddr@@H@Z@ProcessUtilities@@YAP6AH_KPEBUsockaddr@@H@ZPEAUHINSTANCE__@@V?$basic_string@DU?$char_traits@D@std@@V?$allocator@D@2@@std@@@Z
	DD	052H
xdata	ENDS
;	COMDAT xdata
xdata	SEGMENT
$ip2state$??$GetFunctionAddress@P6AH_K@Z@ProcessUtilities@@YAP6AH_K@ZPEAUHINSTANCE__@@V?$basic_string@DU?$char_traits@D@std@@V?$allocator@D@2@@std@@@Z DB 04H
	DB	'R'
	DB	02H
	DB	0ceH
	DB	00H
xdata	ENDS
;	COMDAT xdata
xdata	SEGMENT
$stateUnwindMap$??$GetFunctionAddress@P6AH_K@Z@ProcessUtilities@@YAP6AH_K@ZPEAUHINSTANCE__@@V?$basic_string@DU?$char_traits@D@std@@V?$allocator@D@2@@std@@@Z DB 02H
	DB	0cH
	DD	imagerel ??1?$basic_string@DU?$char_traits@D@std@@V?$allocator@D@2@@std@@QEAA@XZ
	DB	090H
xdata	ENDS
;	COMDAT xdata
xdata	SEGMENT
$cppxdata$??$GetFunctionAddress@P6AH_K@Z@ProcessUtilities@@YAP6AH_K@ZPEAUHINSTANCE__@@V?$basic_string@DU?$char_traits@D@std@@V?$allocator@D@2@@std@@@Z DB 028H
	DD	imagerel $stateUnwindMap$??$GetFunctionAddress@P6AH_K@Z@ProcessUtilities@@YAP6AH_K@ZPEAUHINSTANCE__@@V?$basic_string@DU?$char_traits@D@std@@V?$allocator@D@2@@std@@@Z
	DD	imagerel $ip2state$??$GetFunctionAddress@P6AH_K@Z@ProcessUtilities@@YAP6AH_K@ZPEAUHINSTANCE__@@V?$basic_string@DU?$char_traits@D@std@@V?$allocator@D@2@@std@@@Z
xdata	ENDS
;	COMDAT xdata
xdata	SEGMENT
$unwind$??$GetFunctionAddress@P6AH_K@Z@ProcessUtilities@@YAP6AH_K@ZPEAUHINSTANCE__@@V?$basic_string@DU?$char_traits@D@std@@V?$allocator@D@2@@std@@@Z DD 041919H
	DD	010340aH
	DD	07006b20aH
	DD	imagerel __GSHandlerCheck_EH4
	DD	imagerel $cppxdata$??$GetFunctionAddress@P6AH_K@Z@ProcessUtilities@@YAP6AH_K@ZPEAUHINSTANCE__@@V?$basic_string@DU?$char_traits@D@std@@V?$allocator@D@2@@std@@@Z
	DD	052H
xdata	ENDS
;	COMDAT xdata
xdata	SEGMENT
$ip2state$??$GetFunctionAddress@P6A_KHHH@Z@ProcessUtilities@@YAP6A_KHHH@ZPEAUHINSTANCE__@@V?$basic_string@DU?$char_traits@D@std@@V?$allocator@D@2@@std@@@Z DB 04H
	DB	'R'
	DB	02H
	DB	0ceH
	DB	00H
xdata	ENDS
;	COMDAT xdata
xdata	SEGMENT
$stateUnwindMap$??$GetFunctionAddress@P6A_KHHH@Z@ProcessUtilities@@YAP6A_KHHH@ZPEAUHINSTANCE__@@V?$basic_string@DU?$char_traits@D@std@@V?$allocator@D@2@@std@@@Z DB 02H
	DB	0cH
	DD	imagerel ??1?$basic_string@DU?$char_traits@D@std@@V?$allocator@D@2@@std@@QEAA@XZ
	DB	090H
xdata	ENDS
;	COMDAT xdata
xdata	SEGMENT
$cppxdata$??$GetFunctionAddress@P6A_KHHH@Z@ProcessUtilities@@YAP6A_KHHH@ZPEAUHINSTANCE__@@V?$basic_string@DU?$char_traits@D@std@@V?$allocator@D@2@@std@@@Z DB 028H
	DD	imagerel $stateUnwindMap$??$GetFunctionAddress@P6A_KHHH@Z@ProcessUtilities@@YAP6A_KHHH@ZPEAUHINSTANCE__@@V?$basic_string@DU?$char_traits@D@std@@V?$allocator@D@2@@std@@@Z
	DD	imagerel $ip2state$??$GetFunctionAddress@P6A_KHHH@Z@ProcessUtilities@@YAP6A_KHHH@ZPEAUHINSTANCE__@@V?$basic_string@DU?$char_traits@D@std@@V?$allocator@D@2@@std@@@Z
xdata	ENDS
;	COMDAT xdata
xdata	SEGMENT
$unwind$??$GetFunctionAddress@P6A_KHHH@Z@ProcessUtilities@@YAP6A_KHHH@ZPEAUHINSTANCE__@@V?$basic_string@DU?$char_traits@D@std@@V?$allocator@D@2@@std@@@Z DD 041919H
	DD	010340aH
	DD	07006b20aH
	DD	imagerel __GSHandlerCheck_EH4
	DD	imagerel $cppxdata$??$GetFunctionAddress@P6A_KHHH@Z@ProcessUtilities@@YAP6A_KHHH@ZPEAUHINSTANCE__@@V?$basic_string@DU?$char_traits@D@std@@V?$allocator@D@2@@std@@@Z
	DD	052H
xdata	ENDS
;	COMDAT xdata
xdata	SEGMENT
$ip2state$??$GetFunctionAddress@P6AH_KPEADHH@Z@ProcessUtilities@@YAP6AH_KPEADHH@ZPEAUHINSTANCE__@@V?$basic_string@DU?$char_traits@D@std@@V?$allocator@D@2@@std@@@Z DB 04H
	DB	'R'
	DB	02H
	DB	0ceH
	DB	00H
xdata	ENDS
;	COMDAT xdata
xdata	SEGMENT
$stateUnwindMap$??$GetFunctionAddress@P6AH_KPEADHH@Z@ProcessUtilities@@YAP6AH_KPEADHH@ZPEAUHINSTANCE__@@V?$basic_string@DU?$char_traits@D@std@@V?$allocator@D@2@@std@@@Z DB 02H
	DB	0cH
	DD	imagerel ??1?$basic_string@DU?$char_traits@D@std@@V?$allocator@D@2@@std@@QEAA@XZ
	DB	090H
xdata	ENDS
;	COMDAT xdata
xdata	SEGMENT
$cppxdata$??$GetFunctionAddress@P6AH_KPEADHH@Z@ProcessUtilities@@YAP6AH_KPEADHH@ZPEAUHINSTANCE__@@V?$basic_string@DU?$char_traits@D@std@@V?$allocator@D@2@@std@@@Z DB 028H
	DD	imagerel $stateUnwindMap$??$GetFunctionAddress@P6AH_KPEADHH@Z@ProcessUtilities@@YAP6AH_KPEADHH@ZPEAUHINSTANCE__@@V?$basic_string@DU?$char_traits@D@std@@V?$allocator@D@2@@std@@@Z
	DD	imagerel $ip2state$??$GetFunctionAddress@P6AH_KPEADHH@Z@ProcessUtilities@@YAP6AH_KPEADHH@ZPEAUHINSTANCE__@@V?$basic_string@DU?$char_traits@D@std@@V?$allocator@D@2@@std@@@Z
xdata	ENDS
;	COMDAT xdata
xdata	SEGMENT
$unwind$??$GetFunctionAddress@P6AH_KPEADHH@Z@ProcessUtilities@@YAP6AH_KPEADHH@ZPEAUHINSTANCE__@@V?$basic_string@DU?$char_traits@D@std@@V?$allocator@D@2@@std@@@Z DD 041919H
	DD	010340aH
	DD	07006b20aH
	DD	imagerel __GSHandlerCheck_EH4
	DD	imagerel $cppxdata$??$GetFunctionAddress@P6AH_KPEADHH@Z@ProcessUtilities@@YAP6AH_KPEADHH@ZPEAUHINSTANCE__@@V?$basic_string@DU?$char_traits@D@std@@V?$allocator@D@2@@std@@@Z
	DD	052H
xdata	ENDS
;	COMDAT xdata
xdata	SEGMENT
$ip2state$??$GetFunctionAddress@P6AH_KPEBDHHPEBUsockaddr@@H@Z@ProcessUtilities@@YAP6AH_KPEBDHHPEBUsockaddr@@H@ZPEAUHINSTANCE__@@V?$basic_string@DU?$char_traits@D@std@@V?$allocator@D@2@@std@@@Z DB 04H
	DB	'R'
	DB	02H
	DB	0ceH
	DB	00H
xdata	ENDS
;	COMDAT xdata
xdata	SEGMENT
$stateUnwindMap$??$GetFunctionAddress@P6AH_KPEBDHHPEBUsockaddr@@H@Z@ProcessUtilities@@YAP6AH_KPEBDHHPEBUsockaddr@@H@ZPEAUHINSTANCE__@@V?$basic_string@DU?$char_traits@D@std@@V?$allocator@D@2@@std@@@Z DB 02H
	DB	0cH
	DD	imagerel ??1?$basic_string@DU?$char_traits@D@std@@V?$allocator@D@2@@std@@QEAA@XZ
	DB	090H
xdata	ENDS
;	COMDAT xdata
xdata	SEGMENT
$cppxdata$??$GetFunctionAddress@P6AH_KPEBDHHPEBUsockaddr@@H@Z@ProcessUtilities@@YAP6AH_KPEBDHHPEBUsockaddr@@H@ZPEAUHINSTANCE__@@V?$basic_string@DU?$char_traits@D@std@@V?$allocator@D@2@@std@@@Z DB 028H
	DD	imagerel $stateUnwindMap$??$GetFunctionAddress@P6AH_KPEBDHHPEBUsockaddr@@H@Z@ProcessUtilities@@YAP6AH_KPEBDHHPEBUsockaddr@@H@ZPEAUHINSTANCE__@@V?$basic_string@DU?$char_traits@D@std@@V?$allocator@D@2@@std@@@Z
	DD	imagerel $ip2state$??$GetFunctionAddress@P6AH_KPEBDHHPEBUsockaddr@@H@Z@ProcessUtilities@@YAP6AH_KPEBDHHPEBUsockaddr@@H@ZPEAUHINSTANCE__@@V?$basic_string@DU?$char_traits@D@std@@V?$allocator@D@2@@std@@@Z
xdata	ENDS
;	COMDAT xdata
xdata	SEGMENT
$unwind$??$GetFunctionAddress@P6AH_KPEBDHHPEBUsockaddr@@H@Z@ProcessUtilities@@YAP6AH_KPEBDHHPEBUsockaddr@@H@ZPEAUHINSTANCE__@@V?$basic_string@DU?$char_traits@D@std@@V?$allocator@D@2@@std@@@Z DD 041919H
	DD	010340aH
	DD	07006b20aH
	DD	imagerel __GSHandlerCheck_EH4
	DD	imagerel $cppxdata$??$GetFunctionAddress@P6AH_KPEBDHHPEBUsockaddr@@H@Z@ProcessUtilities@@YAP6AH_KPEBDHHPEBUsockaddr@@H@ZPEAUHINSTANCE__@@V?$basic_string@DU?$char_traits@D@std@@V?$allocator@D@2@@std@@@Z
	DD	052H
xdata	ENDS
;	COMDAT xdata
xdata	SEGMENT
$ip2state$??$GetFunctionAddress@P6AH_KPEADHHPEAUsockaddr@@PEAH@Z@ProcessUtilities@@YAP6AH_KPEADHHPEAUsockaddr@@PEAH@ZPEAUHINSTANCE__@@V?$basic_string@DU?$char_traits@D@std@@V?$allocator@D@2@@std@@@Z DB 04H
	DB	'R'
	DB	02H
	DB	0ceH
	DB	00H
xdata	ENDS
;	COMDAT xdata
xdata	SEGMENT
$stateUnwindMap$??$GetFunctionAddress@P6AH_KPEADHHPEAUsockaddr@@PEAH@Z@ProcessUtilities@@YAP6AH_KPEADHHPEAUsockaddr@@PEAH@ZPEAUHINSTANCE__@@V?$basic_string@DU?$char_traits@D@std@@V?$allocator@D@2@@std@@@Z DB 02H
	DB	0cH
	DD	imagerel ??1?$basic_string@DU?$char_traits@D@std@@V?$allocator@D@2@@std@@QEAA@XZ
	DB	090H
xdata	ENDS
;	COMDAT xdata
xdata	SEGMENT
$cppxdata$??$GetFunctionAddress@P6AH_KPEADHHPEAUsockaddr@@PEAH@Z@ProcessUtilities@@YAP6AH_KPEADHHPEAUsockaddr@@PEAH@ZPEAUHINSTANCE__@@V?$basic_string@DU?$char_traits@D@std@@V?$allocator@D@2@@std@@@Z DB 028H
	DD	imagerel $stateUnwindMap$??$GetFunctionAddress@P6AH_KPEADHHPEAUsockaddr@@PEAH@Z@ProcessUtilities@@YAP6AH_KPEADHHPEAUsockaddr@@PEAH@ZPEAUHINSTANCE__@@V?$basic_string@DU?$char_traits@D@std@@V?$allocator@D@2@@std@@@Z
	DD	imagerel $ip2state$??$GetFunctionAddress@P6AH_KPEADHHPEAUsockaddr@@PEAH@Z@ProcessUtilities@@YAP6AH_KPEADHHPEAUsockaddr@@PEAH@ZPEAUHINSTANCE__@@V?$basic_string@DU?$char_traits@D@std@@V?$allocator@D@2@@std@@@Z
xdata	ENDS
;	COMDAT xdata
xdata	SEGMENT
$unwind$??$GetFunctionAddress@P6AH_KPEADHHPEAUsockaddr@@PEAH@Z@ProcessUtilities@@YAP6AH_KPEADHHPEAUsockaddr@@PEAH@ZPEAUHINSTANCE__@@V?$basic_string@DU?$char_traits@D@std@@V?$allocator@D@2@@std@@@Z DD 041919H
	DD	010340aH
	DD	07006b20aH
	DD	imagerel __GSHandlerCheck_EH4
	DD	imagerel $cppxdata$??$GetFunctionAddress@P6AH_KPEADHHPEAUsockaddr@@PEAH@Z@ProcessUtilities@@YAP6AH_KPEADHHPEAUsockaddr@@PEAH@ZPEAUHINSTANCE__@@V?$basic_string@DU?$char_traits@D@std@@V?$allocator@D@2@@std@@@Z
	DD	052H
xdata	ENDS
;	COMDAT xdata
xdata	SEGMENT
$ip2state$??$GetFunctionAddress@P6AH_KPEBDHH@Z@ProcessUtilities@@YAP6AH_KPEBDHH@ZPEAUHINSTANCE__@@V?$basic_string@DU?$char_traits@D@std@@V?$allocator@D@2@@std@@@Z DB 04H
	DB	'R'
	DB	02H
	DB	0ceH
	DB	00H
xdata	ENDS
;	COMDAT xdata
xdata	SEGMENT
$stateUnwindMap$??$GetFunctionAddress@P6AH_KPEBDHH@Z@ProcessUtilities@@YAP6AH_KPEBDHH@ZPEAUHINSTANCE__@@V?$basic_string@DU?$char_traits@D@std@@V?$allocator@D@2@@std@@@Z DB 02H
	DB	0cH
	DD	imagerel ??1?$basic_string@DU?$char_traits@D@std@@V?$allocator@D@2@@std@@QEAA@XZ
	DB	090H
xdata	ENDS
;	COMDAT xdata
xdata	SEGMENT
$cppxdata$??$GetFunctionAddress@P6AH_KPEBDHH@Z@ProcessUtilities@@YAP6AH_KPEBDHH@ZPEAUHINSTANCE__@@V?$basic_string@DU?$char_traits@D@std@@V?$allocator@D@2@@std@@@Z DB 028H
	DD	imagerel $stateUnwindMap$??$GetFunctionAddress@P6AH_KPEBDHH@Z@ProcessUtilities@@YAP6AH_KPEBDHH@ZPEAUHINSTANCE__@@V?$basic_string@DU?$char_traits@D@std@@V?$allocator@D@2@@std@@@Z
	DD	imagerel $ip2state$??$GetFunctionAddress@P6AH_KPEBDHH@Z@ProcessUtilities@@YAP6AH_KPEBDHH@ZPEAUHINSTANCE__@@V?$basic_string@DU?$char_traits@D@std@@V?$allocator@D@2@@std@@@Z
xdata	ENDS
;	COMDAT xdata
xdata	SEGMENT
$unwind$??$GetFunctionAddress@P6AH_KPEBDHH@Z@ProcessUtilities@@YAP6AH_KPEBDHH@ZPEAUHINSTANCE__@@V?$basic_string@DU?$char_traits@D@std@@V?$allocator@D@2@@std@@@Z DD 041919H
	DD	010340aH
	DD	07006b20aH
	DD	imagerel __GSHandlerCheck_EH4
	DD	imagerel $cppxdata$??$GetFunctionAddress@P6AH_KPEBDHH@Z@ProcessUtilities@@YAP6AH_KPEBDHH@ZPEAUHINSTANCE__@@V?$basic_string@DU?$char_traits@D@std@@V?$allocator@D@2@@std@@@Z
	DD	052H
xdata	ENDS
;	COMDAT xdata
xdata	SEGMENT
$ip2state$??$GetFunctionAddress@P6AHXZ@ProcessUtilities@@YAP6AHXZPEAUHINSTANCE__@@V?$basic_string@DU?$char_traits@D@std@@V?$allocator@D@2@@std@@@Z DB 04H
	DB	'R'
	DB	02H
	DB	0ceH
	DB	00H
xdata	ENDS
;	COMDAT xdata
xdata	SEGMENT
$stateUnwindMap$??$GetFunctionAddress@P6AHXZ@ProcessUtilities@@YAP6AHXZPEAUHINSTANCE__@@V?$basic_string@DU?$char_traits@D@std@@V?$allocator@D@2@@std@@@Z DB 02H
	DB	0cH
	DD	imagerel ??1?$basic_string@DU?$char_traits@D@std@@V?$allocator@D@2@@std@@QEAA@XZ
	DB	090H
xdata	ENDS
;	COMDAT xdata
xdata	SEGMENT
$cppxdata$??$GetFunctionAddress@P6AHXZ@ProcessUtilities@@YAP6AHXZPEAUHINSTANCE__@@V?$basic_string@DU?$char_traits@D@std@@V?$allocator@D@2@@std@@@Z DB 028H
	DD	imagerel $stateUnwindMap$??$GetFunctionAddress@P6AHXZ@ProcessUtilities@@YAP6AHXZPEAUHINSTANCE__@@V?$basic_string@DU?$char_traits@D@std@@V?$allocator@D@2@@std@@@Z
	DD	imagerel $ip2state$??$GetFunctionAddress@P6AHXZ@ProcessUtilities@@YAP6AHXZPEAUHINSTANCE__@@V?$basic_string@DU?$char_traits@D@std@@V?$allocator@D@2@@std@@@Z
xdata	ENDS
;	COMDAT xdata
xdata	SEGMENT
$unwind$??$GetFunctionAddress@P6AHXZ@ProcessUtilities@@YAP6AHXZPEAUHINSTANCE__@@V?$basic_string@DU?$char_traits@D@std@@V?$allocator@D@2@@std@@@Z DD 041919H
	DD	010340aH
	DD	07006b20aH
	DD	imagerel __GSHandlerCheck_EH4
	DD	imagerel $cppxdata$??$GetFunctionAddress@P6AHXZ@ProcessUtilities@@YAP6AHXZPEAUHINSTANCE__@@V?$basic_string@DU?$char_traits@D@std@@V?$allocator@D@2@@std@@@Z
	DD	052H
xdata	ENDS
;	COMDAT xdata
xdata	SEGMENT
$unwind$??$make_unique@$$BY0A@D$0A@@std@@YA?AV?$unique_ptr@$$BY0A@DU?$default_delete@$$BY0A@D@std@@@0@_K@Z DD 020601H
	DD	030025206H
xdata	ENDS
;	COMDAT xdata
xdata	SEGMENT
$chain$3$??$_Construct@$00PEBD@?$basic_string@DU?$char_traits@D@std@@V?$allocator@D@2@@std@@AEAAXQEBD_K@Z DD 021H
	DD	imagerel $LN97
	DD	imagerel $LN97+78
	DD	imagerel $unwind$??$_Construct@$00PEBD@?$basic_string@DU?$char_traits@D@std@@V?$allocator@D@2@@std@@AEAAXQEBD_K@Z
xdata	ENDS
;	COMDAT xdata
xdata	SEGMENT
$chain$2$??$_Construct@$00PEBD@?$basic_string@DU?$char_traits@D@std@@V?$allocator@D@2@@std@@AEAAXQEBD_K@Z DD 020021H
	DD	047400H
	DD	imagerel $LN97
	DD	imagerel $LN97+78
	DD	imagerel $unwind$??$_Construct@$00PEBD@?$basic_string@DU?$char_traits@D@std@@V?$allocator@D@2@@std@@AEAAXQEBD_K@Z
xdata	ENDS
;	COMDAT xdata
xdata	SEGMENT
$chain$0$??$_Construct@$00PEBD@?$basic_string@DU?$char_traits@D@std@@V?$allocator@D@2@@std@@AEAAXQEBD_K@Z DD 020521H
	DD	047405H
	DD	imagerel $LN97
	DD	imagerel $LN97+78
	DD	imagerel $unwind$??$_Construct@$00PEBD@?$basic_string@DU?$char_traits@D@std@@V?$allocator@D@2@@std@@AEAAXQEBD_K@Z
xdata	ENDS
;	COMDAT xdata
xdata	SEGMENT
$unwind$??$_Construct@$00PEBD@?$basic_string@DU?$char_traits@D@std@@V?$allocator@D@2@@std@@AEAAXQEBD_K@Z DD 050a01H
	DD	0e006420aH
	DD	050036004H
	DD	03002H
xdata	ENDS
;	COMDAT xdata
xdata	SEGMENT
$unwind$??$_Construct@$01PEBD@?$basic_string@DU?$char_traits@D@std@@V?$allocator@D@2@@std@@AEAAXQEBD_K@Z DD 060c01H
	DD	0b340cH
	DD	07008320cH
	DD	050066007H
xdata	ENDS
;	COMDAT xdata
xdata	SEGMENT
$unwind$??$_Deallocate@$0BA@@std@@YAXPEAX_K@Z DD 010401H
	DD	04204H
xdata	ENDS
;	COMDAT xdata
xdata	SEGMENT
$unwind$??$_Allocate_for_capacity@$0A@@?$basic_string@DU?$char_traits@D@std@@V?$allocator@D@2@@std@@CAPEADAEAV?$allocator@D@1@AEA_K@Z DD 020601H
	DD	030023206H
xdata	ENDS
;	COMDAT xdata
xdata	SEGMENT
$unwind$??$_Allocate_at_least_helper@V?$allocator@D@std@@@std@@YAPEADAEAV?$allocator@D@0@AEA_K@Z DD 010401H
	DD	04204H
xdata	ENDS
;	COMDAT xdata
xdata	SEGMENT
$unwind$?allocate@?$allocator@D@std@@QEAAPEAD_K@Z DD 010401H
	DD	04204H
xdata	ENDS
;	COMDAT xdata
xdata	SEGMENT
$unwind$??$_Allocate@$0BA@U_Default_allocate_traits@std@@@std@@YAPEAX_K@Z DD 010401H
	DD	04204H
xdata	ENDS
;	COMDAT xdata
xdata	SEGMENT
$unwind$??$_Allocate_manually_vector_aligned@U_Default_allocate_traits@std@@@std@@YAPEAX_K@Z DD 010401H
	DD	04204H
xdata	ENDS
CRT$XCU	SEGMENT
?ntdll$initializer$@freqDLLS@ProcessUtilities@@3P6AXXZEA DQ FLAT:??__Entdll@freqDLLS@ProcessUtilities@@YAXXZ ; ProcessUtilities::freqDLLS::ntdll$initializer$
CRT$XCU	ENDS
CRT$XCU	SEGMENT
?advapi32$initializer$@freqDLLS@ProcessUtilities@@3P6AXXZEA DQ FLAT:??__Eadvapi32@freqDLLS@ProcessUtilities@@YAXXZ ; ProcessUtilities::freqDLLS::advapi32$initializer$
CRT$XCU	ENDS
CRT$XCU	ENDS
CRT$XCU	ENDS
CRT$XCU	ENDS
CRT$XCU	ENDS
CRT$XCU	ENDS
CRT$XCU	ENDS
CRT$XCU	ENDS
CRT$XCU	ENDS
; Function compile flags: /Ogtpy
; File C:\Program Files\Microsoft Visual Studio\2022\Community\VC\Tools\MSVC\14.40.33807\include\xtr1common
;	COMDAT ?is_constant_evaluated@std@@YA_NXZ
_TEXT	SEGMENT
?is_constant_evaluated@std@@YA_NXZ PROC			; std::is_constant_evaluated, COMDAT

; 183  :     return __builtin_is_constant_evaluated();

	xor	al, al

; 184  : }

	ret	0
?is_constant_evaluated@std@@YA_NXZ ENDP			; std::is_constant_evaluated
_TEXT	ENDS
; Function compile flags: /Ogtpy
; File C:\Program Files\Microsoft Visual Studio\2022\Community\VC\Tools\MSVC\14.40.33807\include\vcruntime_new.h
;	COMDAT ??2@YAPEAX_KPEAX@Z
_TEXT	SEGMENT
_Size$dead$ = 8
_Where$ = 16
??2@YAPEAX_KPEAX@Z PROC					; operator new, COMDAT

; 165  :         (void)_Size;
; 166  :         return _Where;

	mov	rax, rdx

; 167  :     }

	ret	0
??2@YAPEAX_KPEAX@Z ENDP					; operator new
_TEXT	ENDS
; Function compile flags: /Ogtpy
; File C:\Program Files\Microsoft Visual Studio\2022\Community\VC\Tools\MSVC\14.40.33807\include\limits
;	COMDAT ?max@?$numeric_limits@_J@std@@SA_JXZ
_TEXT	SEGMENT
?max@?$numeric_limits@_J@std@@SA_JXZ PROC		; std::numeric_limits<__int64>::max, COMDAT

; 636  :         return LLONG_MAX;

	mov	rax, 9223372036854775807		; 7fffffffffffffffH

; 637  :     }

	ret	0
?max@?$numeric_limits@_J@std@@SA_JXZ ENDP		; std::numeric_limits<__int64>::max
_TEXT	ENDS
; Function compile flags: /Ogtpy
; File C:\Program Files\Microsoft Visual Studio\2022\Community\VC\Tools\MSVC\14.40.33807\include\vcruntime_exception.h
;	COMDAT ??0exception@std@@QEAA@QEBDH@Z
_TEXT	SEGMENT
this$ = 8
_Message$ = 16
__formal$ = 24
??0exception@std@@QEAA@QEBDH@Z PROC			; std::exception::exception, COMDAT

; 67   :     {

	lea	rax, OFFSET FLAT:??_7exception@std@@6B@
	mov	QWORD PTR [rcx], rax

; 68   :         _Data._What = _Message;
; 69   :     }

	mov	rax, rcx
	mov	QWORD PTR [rcx+16], 0
	mov	QWORD PTR [rcx+8], rdx
	ret	0
??0exception@std@@QEAA@QEBDH@Z ENDP			; std::exception::exception
_TEXT	ENDS
; Function compile flags: /Ogtpy
; File C:\Program Files\Microsoft Visual Studio\2022\Community\VC\Tools\MSVC\14.40.33807\include\vcruntime_exception.h
;	COMDAT ??0exception@std@@QEAA@AEBV01@@Z
_TEXT	SEGMENT
this$ = 48
_Other$ = 56
??0exception@std@@QEAA@AEBV01@@Z PROC			; std::exception::exception, COMDAT

; 73   :     {

$LN6:
	push	rbx
	sub	rsp, 32					; 00000020H
	mov	rbx, rcx
	mov	rax, rdx
	lea	rcx, OFFSET FLAT:??_7exception@std@@6B@
	xorps	xmm0, xmm0
	lea	rdx, QWORD PTR [rbx+8]
	mov	QWORD PTR [rbx], rcx

; 74   :         __std_exception_copy(&_Other._Data, &_Data);

	lea	rcx, QWORD PTR [rax+8]
	movups	XMMWORD PTR [rdx], xmm0
	call	__std_exception_copy

; 75   :     }

	mov	rax, rbx
	add	rsp, 32					; 00000020H
	pop	rbx
	ret	0
??0exception@std@@QEAA@AEBV01@@Z ENDP			; std::exception::exception
_TEXT	ENDS
; Function compile flags: /Ogtpy
; File C:\Program Files\Microsoft Visual Studio\2022\Community\VC\Tools\MSVC\14.40.33807\include\vcruntime_exception.h
;	COMDAT ??1exception@std@@UEAA@XZ
_TEXT	SEGMENT
this$ = 8
??1exception@std@@UEAA@XZ PROC				; std::exception::~exception, COMDAT

; 90   :     {

	lea	rax, OFFSET FLAT:??_7exception@std@@6B@
	mov	QWORD PTR [rcx], rax

; 91   :         __std_exception_destroy(&_Data);

	add	rcx, 8
	jmp	__std_exception_destroy
??1exception@std@@UEAA@XZ ENDP				; std::exception::~exception
_TEXT	ENDS
; Function compile flags: /Ogtpy
; File C:\Program Files\Microsoft Visual Studio\2022\Community\VC\Tools\MSVC\14.40.33807\include\vcruntime_exception.h
;	COMDAT ?what@exception@std@@UEBAPEBDXZ
_TEXT	SEGMENT
this$ = 8
?what@exception@std@@UEBAPEBDXZ PROC			; std::exception::what, COMDAT

; 96   :         return _Data._What ? _Data._What : "Unknown exception";

	mov	rdx, QWORD PTR [rcx+8]
	lea	rax, OFFSET FLAT:??_C@_0BC@EOODALEL@Unknown?5exception@
	test	rdx, rdx
	cmovne	rax, rdx

; 97   :     }

	ret	0
?what@exception@std@@UEBAPEBDXZ ENDP			; std::exception::what
_TEXT	ENDS
; Function compile flags: /Ogtpy
; File C:\Program Files\Microsoft Visual Studio\2022\Community\VC\Tools\MSVC\14.40.33807\include\vcruntime_exception.h
;	COMDAT ??_Gexception@std@@UEAAPEAXI@Z
_TEXT	SEGMENT
this$ = 48
__flags$ = 56
??_Gexception@std@@UEAAPEAXI@Z PROC			; std::exception::`scalar deleting destructor', COMDAT
$LN12:
	mov	QWORD PTR [rsp+8], rbx
	push	rdi
	sub	rsp, 32					; 00000020H

; 90   :     {

	lea	rax, OFFSET FLAT:??_7exception@std@@6B@
	mov	rdi, rcx
	mov	QWORD PTR [rcx], rax
	mov	ebx, edx

; 91   :         __std_exception_destroy(&_Data);

	add	rcx, 8
	call	__std_exception_destroy
	test	bl, 1
	je	SHORT $LN8@scalar
	mov	edx, 24
	mov	rcx, rdi
	call	??3@YAXPEAX_K@Z				; operator delete
$LN8@scalar:
	mov	rbx, QWORD PTR [rsp+48]
	mov	rax, rdi
	add	rsp, 32					; 00000020H
	pop	rdi
	ret	0
??_Gexception@std@@UEAAPEAXI@Z ENDP			; std::exception::`scalar deleting destructor'
_TEXT	ENDS
; Function compile flags: /Ogtpy
; File C:\Program Files\Microsoft Visual Studio\2022\Community\VC\Tools\MSVC\14.40.33807\include\vcruntime_exception.h
;	COMDAT ??0bad_alloc@std@@AEAA@QEBD@Z
_TEXT	SEGMENT
this$ = 8
_Message$ = 16
??0bad_alloc@std@@AEAA@QEBD@Z PROC			; std::bad_alloc::bad_alloc, COMDAT

; 133  :     {

	lea	rax, OFFSET FLAT:??_7bad_alloc@std@@6B@

; 66   :         : _Data()

	mov	QWORD PTR [rcx+16], 0

; 133  :     {

	mov	QWORD PTR [rcx], rax

; 134  :     }

	mov	rax, rcx

; 68   :         _Data._What = _Message;

	mov	QWORD PTR [rcx+8], rdx

; 134  :     }

	ret	0
??0bad_alloc@std@@AEAA@QEBD@Z ENDP			; std::bad_alloc::bad_alloc
_TEXT	ENDS
; Function compile flags: /Ogtpy
; File C:\Program Files\Microsoft Visual Studio\2022\Community\VC\Tools\MSVC\14.40.33807\include\vcruntime_exception.h
;	COMDAT ??_Gbad_alloc@std@@UEAAPEAXI@Z
_TEXT	SEGMENT
this$ = 48
__flags$ = 56
??_Gbad_alloc@std@@UEAAPEAXI@Z PROC			; std::bad_alloc::`scalar deleting destructor', COMDAT
$LN17:
	mov	QWORD PTR [rsp+8], rbx
	push	rdi
	sub	rsp, 32					; 00000020H

; 90   :     {

	lea	rax, OFFSET FLAT:??_7exception@std@@6B@
	mov	rdi, rcx
	mov	QWORD PTR [rcx], rax
	mov	ebx, edx

; 91   :         __std_exception_destroy(&_Data);

	add	rcx, 8
	call	__std_exception_destroy
	test	bl, 1
	je	SHORT $LN13@scalar
	mov	edx, 24
	mov	rcx, rdi
	call	??3@YAXPEAX_K@Z				; operator delete
$LN13@scalar:
	mov	rbx, QWORD PTR [rsp+48]
	mov	rax, rdi
	add	rsp, 32					; 00000020H
	pop	rdi
	ret	0
??_Gbad_alloc@std@@UEAAPEAXI@Z ENDP			; std::bad_alloc::`scalar deleting destructor'
_TEXT	ENDS
; Function compile flags: /Ogtpy
; File C:\Program Files\Microsoft Visual Studio\2022\Community\VC\Tools\MSVC\14.40.33807\include\vcruntime_exception.h
;	COMDAT ??1bad_alloc@std@@UEAA@XZ
_TEXT	SEGMENT
this$ = 8
??1bad_alloc@std@@UEAA@XZ PROC				; std::bad_alloc::~bad_alloc, COMDAT

; 90   :     {

	lea	rax, OFFSET FLAT:??_7exception@std@@6B@
	mov	QWORD PTR [rcx], rax

; 91   :         __std_exception_destroy(&_Data);

	add	rcx, 8
	jmp	__std_exception_destroy
??1bad_alloc@std@@UEAA@XZ ENDP				; std::bad_alloc::~bad_alloc
_TEXT	ENDS
; Function compile flags: /Ogtpy
; File C:\Program Files\Microsoft Visual Studio\2022\Community\VC\Tools\MSVC\14.40.33807\include\vcruntime_exception.h
;	COMDAT ??0bad_array_new_length@std@@QEAA@XZ
_TEXT	SEGMENT
this$ = 8
??0bad_array_new_length@std@@QEAA@XZ PROC		; std::bad_array_new_length::bad_array_new_length, COMDAT

; 68   :         _Data._What = _Message;

	lea	rax, OFFSET FLAT:??_C@_0BF@KINCDENJ@bad?5array?5new?5length@
	mov	QWORD PTR [rcx+16], 0
	mov	QWORD PTR [rcx+8], rax

; 144  :     {

	lea	rax, OFFSET FLAT:??_7bad_array_new_length@std@@6B@
	mov	QWORD PTR [rcx], rax

; 145  :     }

	mov	rax, rcx
	ret	0
??0bad_array_new_length@std@@QEAA@XZ ENDP		; std::bad_array_new_length::bad_array_new_length
_TEXT	ENDS
; Function compile flags: /Ogtpy
; File C:\Program Files\Microsoft Visual Studio\2022\Community\VC\Tools\MSVC\14.40.33807\include\vcruntime_exception.h
;	COMDAT ??_Gbad_array_new_length@std@@UEAAPEAXI@Z
_TEXT	SEGMENT
this$ = 48
__flags$ = 56
??_Gbad_array_new_length@std@@UEAAPEAXI@Z PROC		; std::bad_array_new_length::`scalar deleting destructor', COMDAT
$LN22:
	mov	QWORD PTR [rsp+8], rbx
	push	rdi
	sub	rsp, 32					; 00000020H

; 90   :     {

	lea	rax, OFFSET FLAT:??_7exception@std@@6B@
	mov	rdi, rcx
	mov	QWORD PTR [rcx], rax
	mov	ebx, edx

; 91   :         __std_exception_destroy(&_Data);

	add	rcx, 8
	call	__std_exception_destroy
	test	bl, 1
	je	SHORT $LN18@scalar
	mov	edx, 24
	mov	rcx, rdi
	call	??3@YAXPEAX_K@Z				; operator delete
$LN18@scalar:
	mov	rbx, QWORD PTR [rsp+48]
	mov	rax, rdi
	add	rsp, 32					; 00000020H
	pop	rdi
	ret	0
??_Gbad_array_new_length@std@@UEAAPEAXI@Z ENDP		; std::bad_array_new_length::`scalar deleting destructor'
_TEXT	ENDS
; Function compile flags: /Ogtpy
; File C:\Program Files\Microsoft Visual Studio\2022\Community\VC\Tools\MSVC\14.40.33807\include\vcruntime_exception.h
;	COMDAT ??1bad_array_new_length@std@@UEAA@XZ
_TEXT	SEGMENT
this$ = 8
??1bad_array_new_length@std@@UEAA@XZ PROC		; std::bad_array_new_length::~bad_array_new_length, COMDAT

; 90   :     {

	lea	rax, OFFSET FLAT:??_7exception@std@@6B@
	mov	QWORD PTR [rcx], rax

; 91   :         __std_exception_destroy(&_Data);

	add	rcx, 8
	jmp	__std_exception_destroy
??1bad_array_new_length@std@@UEAA@XZ ENDP		; std::bad_array_new_length::~bad_array_new_length
_TEXT	ENDS
; Function compile flags: /Ogtpy
; File C:\Program Files\Microsoft Visual Studio\2022\Community\VC\Tools\MSVC\14.40.33807\include\xmemory
;	COMDAT ?_Throw_bad_array_new_length@std@@YAXXZ
_TEXT	SEGMENT
$T1 = 32
?_Throw_bad_array_new_length@std@@YAXXZ PROC		; std::_Throw_bad_array_new_length, COMDAT

; 74   : [[noreturn]] inline void _Throw_bad_array_new_length() {

$LN4:
	sub	rsp, 72					; 00000048H

; 75   :     _THROW(bad_array_new_length{});

	lea	rcx, QWORD PTR $T1[rsp]
	call	??0bad_array_new_length@std@@QEAA@XZ	; std::bad_array_new_length::bad_array_new_length
	lea	rdx, OFFSET FLAT:_TI3?AVbad_array_new_length@std@@
	lea	rcx, QWORD PTR $T1[rsp]
	call	_CxxThrowException
	int	3
$LN3@Throw_bad_:
?_Throw_bad_array_new_length@std@@YAXXZ ENDP		; std::_Throw_bad_array_new_length
_TEXT	ENDS
; Function compile flags: /Ogtpy
; File C:\Program Files\Microsoft Visual Studio\2022\Community\VC\Tools\MSVC\14.40.33807\include\vcruntime_exception.h
;	COMDAT ??0bad_array_new_length@std@@QEAA@AEBV01@@Z
_TEXT	SEGMENT
this$ = 48
__that$ = 56
??0bad_array_new_length@std@@QEAA@AEBV01@@Z PROC	; std::bad_array_new_length::bad_array_new_length, COMDAT
$LN14:
	push	rbx
	sub	rsp, 32					; 00000020H
	mov	rbx, rcx
	mov	rax, rdx

; 73   :     {

	lea	rcx, OFFSET FLAT:??_7exception@std@@6B@
	xorps	xmm0, xmm0

; 72   :         : _Data()

	lea	rdx, QWORD PTR [rbx+8]

; 73   :     {

	mov	QWORD PTR [rbx], rcx

; 74   :         __std_exception_copy(&_Other._Data, &_Data);

	lea	rcx, QWORD PTR [rax+8]
	movups	XMMWORD PTR [rdx], xmm0
	call	__std_exception_copy
	lea	rax, OFFSET FLAT:??_7bad_array_new_length@std@@6B@
	mov	QWORD PTR [rbx], rax
	mov	rax, rbx
	add	rsp, 32					; 00000020H
	pop	rbx
	ret	0
??0bad_array_new_length@std@@QEAA@AEBV01@@Z ENDP	; std::bad_array_new_length::bad_array_new_length
_TEXT	ENDS
; Function compile flags: /Ogtpy
; File C:\Program Files\Microsoft Visual Studio\2022\Community\VC\Tools\MSVC\14.40.33807\include\vcruntime_exception.h
;	COMDAT ??0bad_alloc@std@@QEAA@AEBV01@@Z
_TEXT	SEGMENT
this$ = 48
__that$ = 56
??0bad_alloc@std@@QEAA@AEBV01@@Z PROC			; std::bad_alloc::bad_alloc, COMDAT
$LN9:
	push	rbx
	sub	rsp, 32					; 00000020H
	mov	rbx, rcx
	mov	rax, rdx

; 73   :     {

	lea	rcx, OFFSET FLAT:??_7exception@std@@6B@
	xorps	xmm0, xmm0

; 72   :         : _Data()

	lea	rdx, QWORD PTR [rbx+8]

; 73   :     {

	mov	QWORD PTR [rbx], rcx

; 74   :         __std_exception_copy(&_Other._Data, &_Data);

	lea	rcx, QWORD PTR [rax+8]
	movups	XMMWORD PTR [rdx], xmm0
	call	__std_exception_copy
	lea	rax, OFFSET FLAT:??_7bad_alloc@std@@6B@
	mov	QWORD PTR [rbx], rax
	mov	rax, rbx
	add	rsp, 32					; 00000020H
	pop	rbx
	ret	0
??0bad_alloc@std@@QEAA@AEBV01@@Z ENDP			; std::bad_alloc::bad_alloc
_TEXT	ENDS
; Function compile flags: /Ogtpy
; File C:\Program Files\Microsoft Visual Studio\2022\Community\VC\Tools\MSVC\14.40.33807\include\xmemory
;	COMDAT ?_Allocate@_Default_allocate_traits@std@@SAPEAX_K@Z
_TEXT	SEGMENT
_Bytes$ = 8
?_Allocate@_Default_allocate_traits@std@@SAPEAX_K@Z PROC ; std::_Default_allocate_traits::_Allocate, COMDAT

; 101  :         return ::operator new(_Bytes);

	jmp	??2@YAPEAX_K@Z				; operator new
?_Allocate@_Default_allocate_traits@std@@SAPEAX_K@Z ENDP ; std::_Default_allocate_traits::_Allocate
_TEXT	ENDS
; Function compile flags: /Ogtpy
; File C:\Program Files\Microsoft Visual Studio\2022\Community\VC\Tools\MSVC\14.40.33807\include\xmemory
;	COMDAT ?_Adjust_manually_vector_aligned@std@@YAXAEAPEAXAEA_K@Z
_TEXT	SEGMENT
_Ptr$ = 48
_Bytes$ = 56
?_Adjust_manually_vector_aligned@std@@YAXAEAPEAXAEA_K@Z PROC ; std::_Adjust_manually_vector_aligned, COMDAT

; 169  : inline void _Adjust_manually_vector_aligned(void*& _Ptr, size_t& _Bytes) {

$LN13:
	sub	rsp, 40					; 00000028H

; 170  :     // adjust parameters from _Allocate_manually_vector_aligned to pass to operator delete
; 171  :     _Bytes += _Non_user_size;

	add	QWORD PTR [rdx], 39			; 00000027H

; 172  : 
; 173  :     const uintptr_t* const _Ptr_user = static_cast<uintptr_t*>(_Ptr);
; 174  :     const uintptr_t _Ptr_container   = _Ptr_user[-1];

	mov	rax, QWORD PTR [rcx]
	mov	rdx, QWORD PTR [rax-8]

; 175  : 
; 176  :     // If the following asserts, it likely means that we are performing
; 177  :     // an aligned delete on memory coming from an unaligned allocation.
; 178  :     _STL_ASSERT(_Ptr_user[-2] == _Big_allocation_sentinel, "invalid argument");
; 179  : 
; 180  :     // Extra paranoia on aligned allocation/deallocation; ensure _Ptr_container is
; 181  :     // in range [_Min_back_shift, _Non_user_size]
; 182  : #ifdef _DEBUG
; 183  :     constexpr uintptr_t _Min_back_shift = 2 * sizeof(void*);
; 184  : #else // ^^^ defined(_DEBUG) / !defined(_DEBUG) vvv
; 185  :     constexpr uintptr_t _Min_back_shift = sizeof(void*);
; 186  : #endif // ^^^ !defined(_DEBUG) ^^^
; 187  :     const uintptr_t _Back_shift = reinterpret_cast<uintptr_t>(_Ptr) - _Ptr_container;

	sub	rax, rdx

; 188  :     _STL_VERIFY(_Back_shift >= _Min_back_shift && _Back_shift <= _Non_user_size, "invalid argument");

	add	rax, -8
	cmp	rax, 31
	ja	SHORT $LN7@Adjust_man

; 189  :     _Ptr = reinterpret_cast<void*>(_Ptr_container);

	mov	QWORD PTR [rcx], rdx

; 190  : }

	add	rsp, 40					; 00000028H
	ret	0
$LN7@Adjust_man:

; 188  :     _STL_VERIFY(_Back_shift >= _Min_back_shift && _Back_shift <= _Non_user_size, "invalid argument");

	call	_invalid_parameter_noinfo_noreturn
	int	3
$LN11@Adjust_man:
?_Adjust_manually_vector_aligned@std@@YAXAEAPEAXAEA_K@Z ENDP ; std::_Adjust_manually_vector_aligned
_TEXT	ENDS
; Function compile flags: /Ogtpy
; File C:\Program Files\Microsoft Visual Studio\2022\Community\VC\Tools\MSVC\14.40.33807\include\xmemory
;	COMDAT ?_Orphan_all@_Container_base0@std@@QEAAXXZ
_TEXT	SEGMENT
this$dead$ = 8
?_Orphan_all@_Container_base0@std@@QEAAXXZ PROC		; std::_Container_base0::_Orphan_all, COMDAT

; 1149 :     _CONSTEXPR20 void _Orphan_all() noexcept {}

	ret	0
?_Orphan_all@_Container_base0@std@@QEAAXXZ ENDP		; std::_Container_base0::_Orphan_all
_TEXT	ENDS
; Function compile flags: /Ogtpy
; File C:\Program Files\Microsoft Visual Studio\2022\Community\VC\Tools\MSVC\14.40.33807\include\xmemory
;	COMDAT ?_Alloc_proxy@_Container_base0@std@@QEAAXAEBU_Fake_allocator@2@@Z
_TEXT	SEGMENT
this$dead$ = 8
__formal$dead$ = 16
?_Alloc_proxy@_Container_base0@std@@QEAAXAEBU_Fake_allocator@2@@Z PROC ; std::_Container_base0::_Alloc_proxy, COMDAT

; 1151 :     _CONSTEXPR20 void _Alloc_proxy(const _Fake_allocator&) noexcept {}

	ret	0
?_Alloc_proxy@_Container_base0@std@@QEAAXAEBU_Fake_allocator@2@@Z ENDP ; std::_Container_base0::_Alloc_proxy
_TEXT	ENDS
; Function compile flags: /Ogtpy
; File C:\Program Files\Microsoft Visual Studio\2022\Community\VC\Tools\MSVC\14.40.33807\include\xmemory
;	COMDAT ??0_Fake_proxy_ptr_impl@std@@QEAA@AEBU_Fake_allocator@1@AEBU_Container_base0@1@@Z
_TEXT	SEGMENT
this$ = 8
__formal$dead$ = 16
__formal$dead$ = 24
??0_Fake_proxy_ptr_impl@std@@QEAA@AEBU_Fake_allocator@1@AEBU_Container_base0@1@@Z PROC ; std::_Fake_proxy_ptr_impl::_Fake_proxy_ptr_impl, COMDAT

; 1415 :     _CONSTEXPR20 _Fake_proxy_ptr_impl(const _Fake_allocator&, const _Container_base0&) noexcept {}

	mov	rax, rcx
	ret	0
??0_Fake_proxy_ptr_impl@std@@QEAA@AEBU_Fake_allocator@1@AEBU_Container_base0@1@@Z ENDP ; std::_Fake_proxy_ptr_impl::_Fake_proxy_ptr_impl
_TEXT	ENDS
; Function compile flags: /Ogtpy
; File C:\Program Files\Microsoft Visual Studio\2022\Community\VC\Tools\MSVC\14.40.33807\include\xmemory
;	COMDAT ?_Release@_Fake_proxy_ptr_impl@std@@QEAAXXZ
_TEXT	SEGMENT
this$dead$ = 8
?_Release@_Fake_proxy_ptr_impl@std@@QEAAXXZ PROC	; std::_Fake_proxy_ptr_impl::_Release, COMDAT

; 1418 :     _CONSTEXPR20 void _Release() noexcept {}

	ret	0
?_Release@_Fake_proxy_ptr_impl@std@@QEAAXXZ ENDP	; std::_Fake_proxy_ptr_impl::_Release
_TEXT	ENDS
; Function compile flags: /Ogtpy
; File C:\Program Files\Microsoft Visual Studio\2022\Community\VC\Tools\MSVC\14.40.33807\include\xstring
;	COMDAT ?_Xlen_string@std@@YAXXZ
_TEXT	SEGMENT
?_Xlen_string@std@@YAXXZ PROC				; std::_Xlen_string, COMDAT

; 2326 : [[noreturn]] inline void _Xlen_string() {

$LN4:
	sub	rsp, 40					; 00000028H

; 2327 :     _Xlength_error("string too long");

	lea	rcx, OFFSET FLAT:??_C@_0BA@JFNIOLAK@string?5too?5long@
	call	?_Xlength_error@std@@YAXPEBD@Z		; std::_Xlength_error
	int	3
$LN3@Xlen_strin:
?_Xlen_string@std@@YAXXZ ENDP				; std::_Xlen_string
_TEXT	ENDS
; Function compile flags: /Ogtpy
; File C:\Users\ethan\source\repos\DLL\DLL\Headers\obfuscate.h
;	COMDAT ??$cipher@D@ay@@YAXPEAD_K1@Z
_TEXT	SEGMENT
data$ = 16
size$ = 24
key$ = 32
??$cipher@D@ay@@YAXPEAD_K1@Z PROC			; ay::cipher<char>, COMDAT

; 66   : 	{

$LN29:
	sub	rsp, 8

; 67   : 		// Obfuscate with a simple XOR cipher based on key
; 68   : 		for ( size_type i = 0; i < size; i++ )

	xor	eax, eax
	movq	xmm2, r8
	punpcklqdq xmm2, xmm2
	mov	r9, rdx
	mov	r10, rcx
	test	rdx, rdx
	je	$LN3@cipher
	cmp	rdx, 8
	jb	$LL22@cipher
	cmp	DWORD PTR __isa_available, 5
	jl	$LL22@cipher
	movdqa	xmm3, XMMWORD PTR __xmm@00000000000000010000000000000000

; 69   : 		{
; 70   : 			data[i] ^= CHAR_TYPE(( key >> ( ( i % 8 ) * 8 ) ) & 0xFF);

	mov	r11, rdx
	movdqa	xmm4, XMMWORD PTR __xmm@00000000000000070000000000000007
	lea	rdx, QWORD PTR [rcx+4]
	movdqa	xmm5, XMMWORD PTR __xmm@00000000000008000000000000000800
	and	r11, -8
	mov	QWORD PTR [rsp+16], rbx
	mov	rbx, -2
	mov	QWORD PTR [rsp], rdi
	sub	rbx, rcx
	mov	edi, 2
	sub	rdi, rcx
$LL4@cipher:
	movzx	ecx, WORD PTR [rdx-4]
	movq	xmm0, rax
	punpcklqdq xmm0, xmm0
	add	rax, 8
	paddq	xmm0, xmm3
	andps	xmm0, xmm4
	psllq	xmm0, 3
	vpsrlvq	xmm1, xmm2, xmm0
	movd	xmm0, ecx
	pshufb	xmm1, xmm5
	xorps	xmm1, xmm0
	movd	ecx, xmm1
	mov	WORD PTR [rdx-4], cx
	lea	rcx, QWORD PTR [rbx+rdx]
	movq	xmm0, rcx
	movzx	ecx, WORD PTR [rdx-2]
	punpcklqdq xmm0, xmm0
	paddq	xmm0, xmm3
	andps	xmm0, xmm4
	psllq	xmm0, 3
	vpsrlvq	xmm1, xmm2, xmm0
	movd	xmm0, ecx
	pshufb	xmm1, xmm5
	xorps	xmm1, xmm0
	movd	ecx, xmm1
	mov	WORD PTR [rdx-2], cx
	mov	rcx, rdx
	sub	rcx, r10
	movq	xmm0, rcx
	movzx	ecx, WORD PTR [rdx]
	punpcklqdq xmm0, xmm0
	paddq	xmm0, xmm3
	andps	xmm0, xmm4
	psllq	xmm0, 3
	vpsrlvq	xmm1, xmm2, xmm0
	movd	xmm0, ecx
	pshufb	xmm1, xmm5
	xorps	xmm1, xmm0
	movd	ecx, xmm1
	mov	WORD PTR [rdx], cx
	lea	rcx, QWORD PTR [rdi+rdx]
	movq	xmm0, rcx
	movzx	ecx, WORD PTR [rdx+2]
	punpcklqdq xmm0, xmm0
	paddq	xmm0, xmm3
	andps	xmm0, xmm4
	psllq	xmm0, 3
	vpsrlvq	xmm1, xmm2, xmm0
	movd	xmm0, ecx
	pshufb	xmm1, xmm5
	xorps	xmm1, xmm0
	movd	ecx, xmm1
	mov	WORD PTR [rdx+2], cx
	add	rdx, 8
	cmp	rax, r11
	jb	$LL4@cipher

; 67   : 		// Obfuscate with a simple XOR cipher based on key
; 68   : 		for ( size_type i = 0; i < size; i++ )

	mov	rdi, QWORD PTR [rsp]
	mov	rbx, QWORD PTR [rsp+16]
	cmp	rax, r9
	jae	SHORT $LN3@cipher
	npad	10
$LL22@cipher:

; 69   : 		{
; 70   : 			data[i] ^= CHAR_TYPE(( key >> ( ( i % 8 ) * 8 ) ) & 0xFF);

	movzx	ecx, al
	mov	rdx, r8
	and	cl, 7
	shl	cl, 3
	shr	rdx, cl
	xor	BYTE PTR [r10+rax], dl
	inc	rax
	cmp	rax, r9
	jb	SHORT $LL22@cipher
$LN3@cipher:

; 71   : 		}
; 72   : 	}

	add	rsp, 8
	ret	0
??$cipher@D@ay@@YAXPEAD_K1@Z ENDP			; ay::cipher<char>
_TEXT	ENDS
; Function compile flags: /Ogtpy
; File C:\Users\ethan\source\repos\DLL\DLL\Headers\procutils.h
; File C:\Users\ethan\source\repos\DLL\DLL\Headers\obfuscate.h
; File C:\Users\ethan\source\repos\DLL\DLL\Headers\procutils.h
;	COMDAT ??R<lambda_1>@freqDLLS@ProcessUtilities@@QEBAAEAV?$obfuscated_data@$0N@$0?DCOKHGPAOABAGAID@D@ay@@XZ
_TEXT	SEGMENT
this$dead$ = 48
??R<lambda_1>@freqDLLS@ProcessUtilities@@QEBAAEAV?$obfuscated_data@$0N@$0?DCOKHGPAOABAGAID@D@ay@@XZ PROC ; ProcessUtilities::freqDLLS::<lambda_1>::operator(), COMDAT

; 32   : 		static const std::string kernel32 = std::string(HIDE("kernel32.dll"));	

	push	rbx
	sub	rsp, 32					; 00000020H
	mov	ecx, DWORD PTR _tls_index
	mov	rax, QWORD PTR gs:88
	mov	rdx, QWORD PTR [rax+rcx*8]
	mov	ecx, OFFSET FLAT:??__J?1???R<lambda_1>@freqDLLS@ProcessUtilities@@QEBAAEAV?$obfuscated_data@$0N@$0?DCOKHGPAOABAGAID@D@ay@@XZ@51
	mov	eax, DWORD PTR [rcx+rdx]
	mov	r8d, OFFSET FLAT:?obfuscated_data@?1???R<lambda_1>@freqDLLS@ProcessUtilities@@QEBAAEAV?$obfuscated_data@$0N@$0?DCOKHGPAOABAGAID@D@ay@@XZ@4V45@A
	test	al, 1
	jne	SHORT $LN26@operator
	or	eax, 1
	mov	DWORD PTR [rcx+rdx], eax
	lea	rbx, QWORD PTR [rdx+r8]
; File C:\Users\ethan\source\repos\DLL\DLL\Headers\obfuscate.h

; 123  : 				m_data[i] = obfuscator.data()[i];

	mov	DWORD PTR [rbx+10], 17789827		; 010f7383H
	mov	DWORD PTR [rbx], 1906178582		; 719dfa16H
	mov	DWORD PTR [rbx+4], -14228118		; ff26e56aH
	mov	WORD PTR [rbx+8], 64339			; 0000fb53H
; File C:\Users\ethan\source\repos\DLL\DLL\Headers\procutils.h

; 32   : 		static const std::string kernel32 = std::string(HIDE("kernel32.dll"));	

	lea	rcx, OFFSET FLAT:??__Fobfuscated_data@?1???R<lambda_1>@freqDLLS@ProcessUtilities@@QEBAAEAV?$obfuscated_data@$0N@$0?DCOKHGPAOABAGAID@D@ay@@XZ@YAXXZ ; `ProcessUtilities::freqDLLS::<lambda_1>::operator()'::`2'::`dynamic atexit destructor for 'obfuscated_data''
	call	__tlregdtor
	npad	1
	mov	rax, rbx
	add	rsp, 32					; 00000020H
	pop	rbx
	ret	0
$LN26@operator:
	lea	rax, QWORD PTR [rdx+r8]
	add	rsp, 32					; 00000020H
	pop	rbx
	ret	0
??R<lambda_1>@freqDLLS@ProcessUtilities@@QEBAAEAV?$obfuscated_data@$0N@$0?DCOKHGPAOABAGAID@D@ay@@XZ ENDP ; ProcessUtilities::freqDLLS::<lambda_1>::operator()
_TEXT	ENDS
; Function compile flags: /Ogtpy
;	COMDAT text$x
text$x	SEGMENT
this$dead$ = 48
?dtor$0@?0???R<lambda_1>@freqDLLS@ProcessUtilities@@QEBAAEAV?$obfuscated_data@$0N@$0?DCOKHGPAOABAGAID@D@ay@@XZ@4HA PROC ; `ProcessUtilities::freqDLLS::<lambda_1>::operator()'::`1'::dtor$0
	push	rbp
	mov	rbp, rdx
	mov	eax, OFFSET FLAT:??__J?1???R<lambda_1>@freqDLLS@ProcessUtilities@@QEBAAEAV?$obfuscated_data@$0N@$0?DCOKHGPAOABAGAID@D@ay@@XZ@51
	mov	ecx, eax
	mov	eax, DWORD PTR _tls_index
	imul	rax, rax, 8
	mov	r8, QWORD PTR gs:88
	add	r8, rax
	mov	r8, QWORD PTR [r8]
	add	r8, rcx
	mov	r8d, DWORD PTR [r8]
	and	r8d, -2					; fffffffeH
	mov	eax, DWORD PTR _tls_index
	imul	rax, rax, 8
	mov	rdx, QWORD PTR gs:88
	add	rdx, rax
	mov	eax, OFFSET FLAT:??__J?1???R<lambda_1>@freqDLLS@ProcessUtilities@@QEBAAEAV?$obfuscated_data@$0N@$0?DCOKHGPAOABAGAID@D@ay@@XZ@51
	mov	ecx, eax
	mov	rax, QWORD PTR [rdx]
	add	rax, rcx
	mov	DWORD PTR [rax], r8d
	pop	rbp
	ret	0
?dtor$0@?0???R<lambda_1>@freqDLLS@ProcessUtilities@@QEBAAEAV?$obfuscated_data@$0N@$0?DCOKHGPAOABAGAID@D@ay@@XZ@4HA ENDP ; `ProcessUtilities::freqDLLS::<lambda_1>::operator()'::`1'::dtor$0
text$x	ENDS
; Function compile flags: /Ogtpy
; File C:\Users\ethan\source\repos\DLL\DLL\Headers\procutils.h
; File C:\Users\ethan\source\repos\DLL\DLL\Headers\obfuscate.h
; File C:\Users\ethan\source\repos\DLL\DLL\Headers\procutils.h
; File C:\Users\ethan\source\repos\DLL\DLL\Headers\obfuscate.h
; File C:\Users\ethan\source\repos\DLL\DLL\Headers\procutils.h
;	COMDAT ??__Ekernel32@freqDLLS@ProcessUtilities@@YAXXZ
text$di	SEGMENT
??__Ekernel32@freqDLLS@ProcessUtilities@@YAXXZ PROC	; ProcessUtilities::freqDLLS::`dynamic initializer for 'kernel32'', COMDAT

; 32   : 		static const std::string kernel32 = std::string(HIDE("kernel32.dll"));	

	push	rbx
	sub	rsp, 32					; 00000020H
	mov	ecx, DWORD PTR _tls_index
	mov	rax, QWORD PTR gs:88
	mov	rdx, QWORD PTR [rax+rcx*8]
	mov	ecx, OFFSET FLAT:??__J?1???R<lambda_1>@freqDLLS@ProcessUtilities@@QEBAAEAV?$obfuscated_data@$0N@$0?DCOKHGPAOABAGAID@D@ay@@XZ@51
	mov	eax, DWORD PTR [rcx+rdx]
	mov	ebx, OFFSET FLAT:?obfuscated_data@?1???R<lambda_1>@freqDLLS@ProcessUtilities@@QEBAAEAV?$obfuscated_data@$0N@$0?DCOKHGPAOABAGAID@D@ay@@XZ@4V45@A
	add	rbx, rdx
	test	al, 1
	jne	SHORT $LN47@dynamic
	or	eax, 1
	mov	DWORD PTR [rcx+rdx], eax
; File C:\Users\ethan\source\repos\DLL\DLL\Headers\obfuscate.h

; 123  : 				m_data[i] = obfuscator.data()[i];

	mov	DWORD PTR [rbx+10], 17789827		; 010f7383H
	mov	DWORD PTR [rbx], 1906178582		; 719dfa16H
	mov	DWORD PTR [rbx+4], -14228118		; ff26e56aH
	mov	WORD PTR [rbx+8], 64339			; 0000fb53H
; File C:\Users\ethan\source\repos\DLL\DLL\Headers\procutils.h

; 32   : 		static const std::string kernel32 = std::string(HIDE("kernel32.dll"));	

	lea	rcx, OFFSET FLAT:??__Fobfuscated_data@?1???R<lambda_1>@freqDLLS@ProcessUtilities@@QEBAAEAV?$obfuscated_data@$0N@$0?DCOKHGPAOABAGAID@D@ay@@XZ@YAXXZ ; `ProcessUtilities::freqDLLS::<lambda_1>::operator()'::`2'::`dynamic atexit destructor for 'obfuscated_data''
	call	__tlregdtor
	npad	1
$LN47@dynamic:
; File C:\Users\ethan\source\repos\DLL\DLL\Headers\obfuscate.h

; 147  : 			if ( m_encrypted )

	cmp	BYTE PTR [rbx+13], 0
	je	$LN15@dynamic

; 148  : 			{
; 149  : 				cipher(m_data, N, KEY);

	xor	r8d, r8d
	cmp	DWORD PTR __isa_available, 5
	jl	$LN56@dynamic

; 70   : 			data[i] ^= CHAR_TYPE(( key >> ( ( i % 8 ) * 8 ) ) & 0xFF);

	movdqa	xmm3, XMMWORD PTR __xmm@cd15890f1fef9f7dcd15890f1fef9f7d
	movdqa	xmm0, XMMWORD PTR __xmm@00000000000000010000000000000000
	psllq	xmm0, 3
	vpsrlvq	xmm1, xmm3, xmm0
	movdqa	xmm2, XMMWORD PTR __xmm@00000000000008000000000000000800
	pshufb	xmm1, xmm2
	movzx	eax, WORD PTR [rbx]
	movd	xmm0, eax
	xorps	xmm1, xmm0
	movd	eax, xmm1
	mov	WORD PTR [rbx], ax
	movdqa	xmm0, XMMWORD PTR __xmm@00000000000000030000000000000002
	psllq	xmm0, 3
	vpsrlvq	xmm1, xmm3, xmm0
	pshufb	xmm1, xmm2
	movzx	eax, WORD PTR [rbx+2]
	movd	xmm0, eax
	xorps	xmm1, xmm0
	movd	eax, xmm1
	mov	WORD PTR [rbx+2], ax
	movdqa	xmm0, XMMWORD PTR __xmm@00000000000000050000000000000004
	psllq	xmm0, 3
	vpsrlvq	xmm1, xmm3, xmm0
	pshufb	xmm1, xmm2
	movzx	eax, WORD PTR [rbx+4]
	movd	xmm0, eax
	xorps	xmm1, xmm0
	movd	eax, xmm1
	mov	WORD PTR [rbx+4], ax
	movdqa	xmm0, XMMWORD PTR __xmm@00000000000000070000000000000006
	psllq	xmm0, 3
	vpsrlvq	xmm1, xmm3, xmm0
	pshufb	xmm1, xmm2
	movzx	eax, WORD PTR [rbx+6]
	movd	xmm0, eax
	xorps	xmm1, xmm0
	movd	eax, xmm1
	mov	WORD PTR [rbx+6], ax

; 68   : 		for ( size_type i = 0; i < size; i++ )

	mov	r8d, 8
$LN56@dynamic:
	mov	r9, -3668875623370088579		; cd15890f1fef9f7dH
	npad	6
$LL55@dynamic:

; 69   : 		{
; 70   : 			data[i] ^= CHAR_TYPE(( key >> ( ( i % 8 ) * 8 ) ) & 0xFF);

	movzx	ecx, r8b
	and	cl, 7
	shl	cl, 3
	mov	rdx, r9
	shr	rdx, cl
	xor	BYTE PTR [rbx+r8], dl

; 68   : 		for ( size_type i = 0; i < size; i++ )

	inc	r8
	cmp	r8, 13
	jb	SHORT $LL55@dynamic

; 150  : 				m_encrypted = false;

	mov	BYTE PTR [rbx+13], 0
$LN15@dynamic:
; File C:\Users\ethan\source\repos\DLL\DLL\Headers\procutils.h

; 32   : 		static const std::string kernel32 = std::string(HIDE("kernel32.dll"));	

	mov	rdx, rbx
	lea	rcx, OFFSET FLAT:?kernel32@freqDLLS@ProcessUtilities@@3V?$basic_string@DU?$char_traits@D@std@@V?$allocator@D@2@@std@@B
	call	??0?$basic_string@DU?$char_traits@D@std@@V?$allocator@D@2@@std@@QEAA@QEBD@Z ; std::basic_string<char,std::char_traits<char>,std::allocator<char> >::basic_string<char,std::char_traits<char>,std::allocator<char> >
	lea	rcx, OFFSET FLAT:??__Fkernel32@freqDLLS@ProcessUtilities@@YAXXZ ; ProcessUtilities::freqDLLS::`dynamic atexit destructor for 'kernel32''
	add	rsp, 32					; 00000020H
	pop	rbx
	jmp	atexit
??__Ekernel32@freqDLLS@ProcessUtilities@@YAXXZ ENDP	; ProcessUtilities::freqDLLS::`dynamic initializer for 'kernel32''
text$di	ENDS
; Function compile flags: /Ogtpy
;	COMDAT text$x
text$x	SEGMENT
?dtor$0@?0???__Ekernel32@freqDLLS@ProcessUtilities@@YAXXZ@4HA PROC ; `ProcessUtilities::freqDLLS::`dynamic initializer for 'kernel32'''::`1'::dtor$0
	push	rbp
	mov	rbp, rdx
	mov	eax, OFFSET FLAT:??__J?1???R<lambda_1>@freqDLLS@ProcessUtilities@@QEBAAEAV?$obfuscated_data@$0N@$0?DCOKHGPAOABAGAID@D@ay@@XZ@51
	mov	ecx, eax
	mov	eax, DWORD PTR _tls_index
	imul	rax, rax, 8
	mov	r8, QWORD PTR gs:88
	add	r8, rax
	mov	r8, QWORD PTR [r8]
	add	r8, rcx
	mov	r8d, DWORD PTR [r8]
	and	r8d, -2					; fffffffeH
	mov	eax, DWORD PTR _tls_index
	imul	rax, rax, 8
	mov	rdx, QWORD PTR gs:88
	add	rdx, rax
	mov	eax, OFFSET FLAT:??__J?1???R<lambda_1>@freqDLLS@ProcessUtilities@@QEBAAEAV?$obfuscated_data@$0N@$0?DCOKHGPAOABAGAID@D@ay@@XZ@51
	mov	ecx, eax
	mov	rax, QWORD PTR [rdx]
	add	rax, rcx
	mov	DWORD PTR [rax], r8d
	pop	rbp
	ret	0
?dtor$0@?0???__Ekernel32@freqDLLS@ProcessUtilities@@YAXXZ@4HA ENDP ; `ProcessUtilities::freqDLLS::`dynamic initializer for 'kernel32'''::`1'::dtor$0
text$x	ENDS
; Function compile flags: /Ogtpy
; File C:\Program Files\Microsoft Visual Studio\2022\Community\VC\Tools\MSVC\14.40.33807\include\xstring
; File C:\Program Files\Microsoft Visual Studio\2022\Community\VC\Tools\MSVC\14.40.33807\include\xmemory
; File C:\Program Files\Microsoft Visual Studio\2022\Community\VC\Tools\MSVC\14.40.33807\include\xstring
; File C:\Program Files\Microsoft Visual Studio\2022\Community\VC\Tools\MSVC\14.40.33807\include\xmemory
; File C:\Program Files\Microsoft Visual Studio\2022\Community\VC\Tools\MSVC\14.40.33807\include\xstring
; File C:\Program Files\Microsoft Visual Studio\2022\Community\VC\Tools\MSVC\14.40.33807\include\xmemory
;	COMDAT ??__Fkernel32@freqDLLS@ProcessUtilities@@YAXXZ
text$yd	SEGMENT
??__Fkernel32@freqDLLS@ProcessUtilities@@YAXXZ PROC	; ProcessUtilities::freqDLLS::`dynamic atexit destructor for 'kernel32'', COMDAT
	sub	rsp, 40					; 00000028H
; File C:\Program Files\Microsoft Visual Studio\2022\Community\VC\Tools\MSVC\14.40.33807\include\xstring

; 2244 :         return _Myres > _Small_string_capacity;

	mov	rdx, QWORD PTR ?kernel32@freqDLLS@ProcessUtilities@@3V?$basic_string@DU?$char_traits@D@std@@V?$allocator@D@2@@std@@B+24
	cmp	rdx, 15

; 4868 :         if (_My_data._Large_mode_engaged()) {

	jbe	SHORT $LN20@dynamic
; File C:\Program Files\Microsoft Visual Studio\2022\Community\VC\Tools\MSVC\14.40.33807\include\xmemory

; 950  :         _STD _Deallocate<_New_alignof<_Ty>>(_Ptr, sizeof(_Ty) * _Count);

	mov	rcx, QWORD PTR ?kernel32@freqDLLS@ProcessUtilities@@3V?$basic_string@DU?$char_traits@D@std@@V?$allocator@D@2@@std@@B
; File C:\Program Files\Microsoft Visual Studio\2022\Community\VC\Tools\MSVC\14.40.33807\include\xstring

; 2643 :         _Al.deallocate(_Old_ptr, _Capacity + 1); // +1 for null terminator

	inc	rdx
; File C:\Program Files\Microsoft Visual Studio\2022\Community\VC\Tools\MSVC\14.40.33807\include\xmemory

; 950  :         _STD _Deallocate<_New_alignof<_Ty>>(_Ptr, sizeof(_Ty) * _Count);

	mov	rax, rcx

; 253  :         if (_Bytes >= _Big_allocation_threshold) {

	cmp	rdx, 4096				; 00001000H
	jb	SHORT $LN34@dynamic

; 174  :     const uintptr_t _Ptr_container   = _Ptr_user[-1];

	mov	rcx, QWORD PTR [rcx-8]
	add	rdx, 39					; 00000027H
	sub	rax, rcx

; 188  :     _STL_VERIFY(_Back_shift >= _Min_back_shift && _Back_shift <= _Non_user_size, "invalid argument");

	add	rax, -8
	cmp	rax, 31
	ja	SHORT $LN43@dynamic
$LN34@dynamic:

; 258  :         ::operator delete(_Ptr, _Bytes);

	call	??3@YAXPEAX_K@Z				; operator delete
$LN20@dynamic:
; File C:\Program Files\Microsoft Visual Studio\2022\Community\VC\Tools\MSVC\14.40.33807\include\xstring

; 4875 :         _My_data._Mysize = 0;

	movdqa	xmm0, XMMWORD PTR __xmm@000000000000000f0000000000000000
	movdqa	XMMWORD PTR ?kernel32@freqDLLS@ProcessUtilities@@3V?$basic_string@DU?$char_traits@D@std@@V?$allocator@D@2@@std@@B+16, xmm0

; 4876 :         _My_data._Myres  = _Small_string_capacity;
; 4877 :         // the _Traits::assign is last so the codegen doesn't think the char write can alias this
; 4878 :         _Traits::assign(_My_data._Bx._Buf[0], _Elem());

	mov	BYTE PTR ?kernel32@freqDLLS@ProcessUtilities@@3V?$basic_string@DU?$char_traits@D@std@@V?$allocator@D@2@@std@@B, 0
	add	rsp, 40					; 00000028H
	ret	0
$LN43@dynamic:
; File C:\Program Files\Microsoft Visual Studio\2022\Community\VC\Tools\MSVC\14.40.33807\include\xmemory

; 188  :     _STL_VERIFY(_Back_shift >= _Min_back_shift && _Back_shift <= _Non_user_size, "invalid argument");

	call	_invalid_parameter_noinfo_noreturn
	int	3
$LN41@dynamic:
??__Fkernel32@freqDLLS@ProcessUtilities@@YAXXZ ENDP	; ProcessUtilities::freqDLLS::`dynamic atexit destructor for 'kernel32''
text$yd	ENDS
; Function compile flags: /Ogtpy
; File C:\Users\ethan\source\repos\DLL\DLL\Headers\obfuscate.h
;	COMDAT ??__Fobfuscated_data@?1???R<lambda_1>@freqDLLS@ProcessUtilities@@QEBAAEAV?$obfuscated_data@$0N@$0?DCOKHGPAOABAGAID@D@ay@@XZ@YAXXZ
text$yd	SEGMENT
??__Fobfuscated_data@?1???R<lambda_1>@freqDLLS@ProcessUtilities@@QEBAAEAV?$obfuscated_data@$0N@$0?DCOKHGPAOABAGAID@D@ay@@XZ@YAXXZ PROC ; `ProcessUtilities::freqDLLS::<lambda_1>::operator()'::`2'::`dynamic atexit destructor for 'obfuscated_data'', COMDAT
	mov	rax, QWORD PTR gs:88
	mov	ecx, DWORD PTR _tls_index
	mov	edx, OFFSET FLAT:?obfuscated_data@?1???R<lambda_1>@freqDLLS@ProcessUtilities@@QEBAAEAV?$obfuscated_data@$0N@$0?DCOKHGPAOABAGAID@D@ay@@XZ@4V45@A
	add	rdx, QWORD PTR [rax+rcx*8]

; 130  : 			for ( size_type i = 0; i < N; i++ )

	xor	eax, eax
	mov	QWORD PTR [rdx], rax
	mov	DWORD PTR [rdx+8], eax
	mov	BYTE PTR [rdx+12], al
	ret	0
??__Fobfuscated_data@?1???R<lambda_1>@freqDLLS@ProcessUtilities@@QEBAAEAV?$obfuscated_data@$0N@$0?DCOKHGPAOABAGAID@D@ay@@XZ@YAXXZ ENDP ; `ProcessUtilities::freqDLLS::<lambda_1>::operator()'::`2'::`dynamic atexit destructor for 'obfuscated_data''
text$yd	ENDS
; Function compile flags: /Ogtpy
; File C:\Users\ethan\source\repos\DLL\DLL\Headers\procutils.h
; File C:\Users\ethan\source\repos\DLL\DLL\Headers\obfuscate.h
; File C:\Users\ethan\source\repos\DLL\DLL\Headers\procutils.h
;	COMDAT ??R<lambda_2>@freqDLLS@ProcessUtilities@@QEBAAEAV?$obfuscated_data@$09$0GPFFMNJFHLKDFJAP@D@ay@@XZ
_TEXT	SEGMENT
this$dead$ = 48
??R<lambda_2>@freqDLLS@ProcessUtilities@@QEBAAEAV?$obfuscated_data@$09$0GPFFMNJFHLKDFJAP@D@ay@@XZ PROC ; ProcessUtilities::freqDLLS::<lambda_2>::operator(), COMDAT

; 33   : 		static const std::string ntdll    = std::string(HIDE("ntdll.dll"));

	push	rbx
	sub	rsp, 32					; 00000020H
	mov	ecx, DWORD PTR _tls_index
	mov	rax, QWORD PTR gs:88
	mov	rdx, QWORD PTR [rax+rcx*8]
	mov	ecx, OFFSET FLAT:??__J?1???R<lambda_2>@freqDLLS@ProcessUtilities@@QEBAAEAV?$obfuscated_data@$09$0GPFFMNJFHLKDFJAP@D@ay@@XZ@51
	mov	eax, DWORD PTR [rcx+rdx]
	mov	r8d, OFFSET FLAT:?obfuscated_data@?1???R<lambda_2>@freqDLLS@ProcessUtilities@@QEBAAEAV?$obfuscated_data@$09$0GPFFMNJFHLKDFJAP@D@ay@@XZ@4V45@A
	test	al, 1
	jne	SHORT $LN21@operator
	or	eax, 1
	mov	DWORD PTR [rcx+rdx], eax
	lea	rbx, QWORD PTR [rdx+r8]
; File C:\Users\ethan\source\repos\DLL\DLL\Headers\obfuscate.h

; 123  : 				m_data[i] = obfuscator.data()[i];

	mov	WORD PTR [rbx+9], 345			; 00000159H
	mov	DWORD PTR [rbx], 398929249		; 17c72d61H
	mov	DWORD PTR [rbx+4], 53601273		; 0331e3f9H
	mov	BYTE PTR [rbx+8], 99			; 00000063H
; File C:\Users\ethan\source\repos\DLL\DLL\Headers\procutils.h

; 33   : 		static const std::string ntdll    = std::string(HIDE("ntdll.dll"));

	lea	rcx, OFFSET FLAT:??__Fobfuscated_data@?1???R<lambda_2>@freqDLLS@ProcessUtilities@@QEBAAEAV?$obfuscated_data@$09$0GPFFMNJFHLKDFJAP@D@ay@@XZ@YAXXZ ; `ProcessUtilities::freqDLLS::<lambda_2>::operator()'::`2'::`dynamic atexit destructor for 'obfuscated_data''
	call	__tlregdtor
	npad	1
	mov	rax, rbx
	add	rsp, 32					; 00000020H
	pop	rbx
	ret	0
$LN21@operator:
	lea	rax, QWORD PTR [rdx+r8]
	add	rsp, 32					; 00000020H
	pop	rbx
	ret	0
??R<lambda_2>@freqDLLS@ProcessUtilities@@QEBAAEAV?$obfuscated_data@$09$0GPFFMNJFHLKDFJAP@D@ay@@XZ ENDP ; ProcessUtilities::freqDLLS::<lambda_2>::operator()
_TEXT	ENDS
; Function compile flags: /Ogtpy
;	COMDAT text$x
text$x	SEGMENT
this$dead$ = 48
?dtor$0@?0???R<lambda_2>@freqDLLS@ProcessUtilities@@QEBAAEAV?$obfuscated_data@$09$0GPFFMNJFHLKDFJAP@D@ay@@XZ@4HA PROC ; `ProcessUtilities::freqDLLS::<lambda_2>::operator()'::`1'::dtor$0
	push	rbp
	mov	rbp, rdx
	mov	eax, OFFSET FLAT:??__J?1???R<lambda_2>@freqDLLS@ProcessUtilities@@QEBAAEAV?$obfuscated_data@$09$0GPFFMNJFHLKDFJAP@D@ay@@XZ@51
	mov	ecx, eax
	mov	eax, DWORD PTR _tls_index
	imul	rax, rax, 8
	mov	r8, QWORD PTR gs:88
	add	r8, rax
	mov	r8, QWORD PTR [r8]
	add	r8, rcx
	mov	r8d, DWORD PTR [r8]
	and	r8d, -2					; fffffffeH
	mov	eax, DWORD PTR _tls_index
	imul	rax, rax, 8
	mov	rdx, QWORD PTR gs:88
	add	rdx, rax
	mov	eax, OFFSET FLAT:??__J?1???R<lambda_2>@freqDLLS@ProcessUtilities@@QEBAAEAV?$obfuscated_data@$09$0GPFFMNJFHLKDFJAP@D@ay@@XZ@51
	mov	ecx, eax
	mov	rax, QWORD PTR [rdx]
	add	rax, rcx
	mov	DWORD PTR [rax], r8d
	pop	rbp
	ret	0
?dtor$0@?0???R<lambda_2>@freqDLLS@ProcessUtilities@@QEBAAEAV?$obfuscated_data@$09$0GPFFMNJFHLKDFJAP@D@ay@@XZ@4HA ENDP ; `ProcessUtilities::freqDLLS::<lambda_2>::operator()'::`1'::dtor$0
text$x	ENDS
; Function compile flags: /Ogtpy
; File C:\Users\ethan\source\repos\DLL\DLL\Headers\procutils.h
; File C:\Users\ethan\source\repos\DLL\DLL\Headers\obfuscate.h
; File C:\Users\ethan\source\repos\DLL\DLL\Headers\procutils.h
; File C:\Users\ethan\source\repos\DLL\DLL\Headers\obfuscate.h
; File C:\Users\ethan\source\repos\DLL\DLL\Headers\procutils.h
;	COMDAT ??__Entdll@freqDLLS@ProcessUtilities@@YAXXZ
text$di	SEGMENT
??__Entdll@freqDLLS@ProcessUtilities@@YAXXZ PROC	; ProcessUtilities::freqDLLS::`dynamic initializer for 'ntdll'', COMDAT

; 33   : 		static const std::string ntdll    = std::string(HIDE("ntdll.dll"));

	push	rbx
	sub	rsp, 32					; 00000020H
	mov	ecx, DWORD PTR _tls_index
	mov	rax, QWORD PTR gs:88
	mov	rdx, QWORD PTR [rax+rcx*8]
	mov	ecx, OFFSET FLAT:??__J?1???R<lambda_2>@freqDLLS@ProcessUtilities@@QEBAAEAV?$obfuscated_data@$09$0GPFFMNJFHLKDFJAP@D@ay@@XZ@51
	mov	eax, DWORD PTR [rcx+rdx]
	mov	ebx, OFFSET FLAT:?obfuscated_data@?1???R<lambda_2>@freqDLLS@ProcessUtilities@@QEBAAEAV?$obfuscated_data@$09$0GPFFMNJFHLKDFJAP@D@ay@@XZ@4V45@A
	add	rbx, rdx
	test	al, 1
	jne	SHORT $LN42@dynamic
	or	eax, 1
	mov	DWORD PTR [rcx+rdx], eax
; File C:\Users\ethan\source\repos\DLL\DLL\Headers\obfuscate.h

; 123  : 				m_data[i] = obfuscator.data()[i];

	mov	WORD PTR [rbx+9], 345			; 00000159H
	mov	DWORD PTR [rbx], 398929249		; 17c72d61H
	mov	DWORD PTR [rbx+4], 53601273		; 0331e3f9H
	mov	BYTE PTR [rbx+8], 99			; 00000063H
; File C:\Users\ethan\source\repos\DLL\DLL\Headers\procutils.h

; 33   : 		static const std::string ntdll    = std::string(HIDE("ntdll.dll"));

	lea	rcx, OFFSET FLAT:??__Fobfuscated_data@?1???R<lambda_2>@freqDLLS@ProcessUtilities@@QEBAAEAV?$obfuscated_data@$09$0GPFFMNJFHLKDFJAP@D@ay@@XZ@YAXXZ ; `ProcessUtilities::freqDLLS::<lambda_2>::operator()'::`2'::`dynamic atexit destructor for 'obfuscated_data''
	call	__tlregdtor
	npad	1
$LN42@dynamic:
; File C:\Users\ethan\source\repos\DLL\DLL\Headers\obfuscate.h

; 147  : 			if ( m_encrypted )

	cmp	BYTE PTR [rbx+10], 0
	je	$LN15@dynamic

; 148  : 			{
; 149  : 				cipher(m_data, N, KEY);

	xor	r8d, r8d
	cmp	DWORD PTR __isa_available, 5
	jl	$LN51@dynamic

; 70   : 			data[i] ^= CHAR_TYPE(( key >> ( ( i % 8 ) * 8 ) ) & 0xFF);

	movdqa	xmm3, XMMWORD PTR __xmm@6f55cd957ba3590f6f55cd957ba3590f
	movdqa	xmm0, XMMWORD PTR __xmm@00000000000000010000000000000000
	psllq	xmm0, 3
	vpsrlvq	xmm1, xmm3, xmm0
	movdqa	xmm2, XMMWORD PTR __xmm@00000000000008000000000000000800
	pshufb	xmm1, xmm2
	movzx	eax, WORD PTR [rbx]
	movd	xmm0, eax
	xorps	xmm1, xmm0
	movd	eax, xmm1
	mov	WORD PTR [rbx], ax
	movdqa	xmm0, XMMWORD PTR __xmm@00000000000000030000000000000002
	psllq	xmm0, 3
	vpsrlvq	xmm1, xmm3, xmm0
	pshufb	xmm1, xmm2
	movzx	eax, WORD PTR [rbx+2]
	movd	xmm0, eax
	xorps	xmm1, xmm0
	movd	eax, xmm1
	mov	WORD PTR [rbx+2], ax
	movdqa	xmm0, XMMWORD PTR __xmm@00000000000000050000000000000004
	psllq	xmm0, 3
	vpsrlvq	xmm1, xmm3, xmm0
	pshufb	xmm1, xmm2
	movzx	eax, WORD PTR [rbx+4]
	movd	xmm0, eax
	xorps	xmm1, xmm0
	movd	eax, xmm1
	mov	WORD PTR [rbx+4], ax
	movdqa	xmm0, XMMWORD PTR __xmm@00000000000000070000000000000006
	psllq	xmm0, 3
	vpsrlvq	xmm1, xmm3, xmm0
	pshufb	xmm1, xmm2
	movzx	eax, WORD PTR [rbx+6]
	movd	xmm0, eax
	xorps	xmm1, xmm0
	movd	eax, xmm1
	mov	WORD PTR [rbx+6], ax

; 68   : 		for ( size_type i = 0; i < size; i++ )

	mov	r8d, 8
$LN51@dynamic:
	mov	r9, 8022544353138530575			; 6f55cd957ba3590fH
	npad	9
$LL50@dynamic:

; 69   : 		{
; 70   : 			data[i] ^= CHAR_TYPE(( key >> ( ( i % 8 ) * 8 ) ) & 0xFF);

	movzx	ecx, r8b
	and	cl, 7
	shl	cl, 3
	mov	rdx, r9
	shr	rdx, cl
	xor	BYTE PTR [rbx+r8], dl

; 68   : 		for ( size_type i = 0; i < size; i++ )

	inc	r8
	cmp	r8, 10
	jb	SHORT $LL50@dynamic

; 150  : 				m_encrypted = false;

	mov	BYTE PTR [rbx+10], 0
$LN15@dynamic:
; File C:\Users\ethan\source\repos\DLL\DLL\Headers\procutils.h

; 33   : 		static const std::string ntdll    = std::string(HIDE("ntdll.dll"));

	mov	rdx, rbx
	lea	rcx, OFFSET FLAT:?ntdll@freqDLLS@ProcessUtilities@@3V?$basic_string@DU?$char_traits@D@std@@V?$allocator@D@2@@std@@B
	call	??0?$basic_string@DU?$char_traits@D@std@@V?$allocator@D@2@@std@@QEAA@QEBD@Z ; std::basic_string<char,std::char_traits<char>,std::allocator<char> >::basic_string<char,std::char_traits<char>,std::allocator<char> >
	lea	rcx, OFFSET FLAT:??__Fntdll@freqDLLS@ProcessUtilities@@YAXXZ ; ProcessUtilities::freqDLLS::`dynamic atexit destructor for 'ntdll''
	add	rsp, 32					; 00000020H
	pop	rbx
	jmp	atexit
??__Entdll@freqDLLS@ProcessUtilities@@YAXXZ ENDP	; ProcessUtilities::freqDLLS::`dynamic initializer for 'ntdll''
text$di	ENDS
; Function compile flags: /Ogtpy
;	COMDAT text$x
text$x	SEGMENT
?dtor$0@?0???__Entdll@freqDLLS@ProcessUtilities@@YAXXZ@4HA PROC ; `ProcessUtilities::freqDLLS::`dynamic initializer for 'ntdll'''::`1'::dtor$0
	push	rbp
	mov	rbp, rdx
	mov	eax, OFFSET FLAT:??__J?1???R<lambda_2>@freqDLLS@ProcessUtilities@@QEBAAEAV?$obfuscated_data@$09$0GPFFMNJFHLKDFJAP@D@ay@@XZ@51
	mov	ecx, eax
	mov	eax, DWORD PTR _tls_index
	imul	rax, rax, 8
	mov	r8, QWORD PTR gs:88
	add	r8, rax
	mov	r8, QWORD PTR [r8]
	add	r8, rcx
	mov	r8d, DWORD PTR [r8]
	and	r8d, -2					; fffffffeH
	mov	eax, DWORD PTR _tls_index
	imul	rax, rax, 8
	mov	rdx, QWORD PTR gs:88
	add	rdx, rax
	mov	eax, OFFSET FLAT:??__J?1???R<lambda_2>@freqDLLS@ProcessUtilities@@QEBAAEAV?$obfuscated_data@$09$0GPFFMNJFHLKDFJAP@D@ay@@XZ@51
	mov	ecx, eax
	mov	rax, QWORD PTR [rdx]
	add	rax, rcx
	mov	DWORD PTR [rax], r8d
	pop	rbp
	ret	0
?dtor$0@?0???__Entdll@freqDLLS@ProcessUtilities@@YAXXZ@4HA ENDP ; `ProcessUtilities::freqDLLS::`dynamic initializer for 'ntdll'''::`1'::dtor$0
text$x	ENDS
; Function compile flags: /Ogtpy
; File C:\Program Files\Microsoft Visual Studio\2022\Community\VC\Tools\MSVC\14.40.33807\include\xstring
; File C:\Program Files\Microsoft Visual Studio\2022\Community\VC\Tools\MSVC\14.40.33807\include\xmemory
; File C:\Program Files\Microsoft Visual Studio\2022\Community\VC\Tools\MSVC\14.40.33807\include\xstring
; File C:\Program Files\Microsoft Visual Studio\2022\Community\VC\Tools\MSVC\14.40.33807\include\xmemory
; File C:\Program Files\Microsoft Visual Studio\2022\Community\VC\Tools\MSVC\14.40.33807\include\xstring
; File C:\Program Files\Microsoft Visual Studio\2022\Community\VC\Tools\MSVC\14.40.33807\include\xmemory
;	COMDAT ??__Fntdll@freqDLLS@ProcessUtilities@@YAXXZ
text$yd	SEGMENT
??__Fntdll@freqDLLS@ProcessUtilities@@YAXXZ PROC	; ProcessUtilities::freqDLLS::`dynamic atexit destructor for 'ntdll'', COMDAT
	sub	rsp, 40					; 00000028H
; File C:\Program Files\Microsoft Visual Studio\2022\Community\VC\Tools\MSVC\14.40.33807\include\xstring

; 2244 :         return _Myres > _Small_string_capacity;

	mov	rdx, QWORD PTR ?ntdll@freqDLLS@ProcessUtilities@@3V?$basic_string@DU?$char_traits@D@std@@V?$allocator@D@2@@std@@B+24
	cmp	rdx, 15

; 4868 :         if (_My_data._Large_mode_engaged()) {

	jbe	SHORT $LN20@dynamic
; File C:\Program Files\Microsoft Visual Studio\2022\Community\VC\Tools\MSVC\14.40.33807\include\xmemory

; 950  :         _STD _Deallocate<_New_alignof<_Ty>>(_Ptr, sizeof(_Ty) * _Count);

	mov	rcx, QWORD PTR ?ntdll@freqDLLS@ProcessUtilities@@3V?$basic_string@DU?$char_traits@D@std@@V?$allocator@D@2@@std@@B
; File C:\Program Files\Microsoft Visual Studio\2022\Community\VC\Tools\MSVC\14.40.33807\include\xstring

; 2643 :         _Al.deallocate(_Old_ptr, _Capacity + 1); // +1 for null terminator

	inc	rdx
; File C:\Program Files\Microsoft Visual Studio\2022\Community\VC\Tools\MSVC\14.40.33807\include\xmemory

; 950  :         _STD _Deallocate<_New_alignof<_Ty>>(_Ptr, sizeof(_Ty) * _Count);

	mov	rax, rcx

; 253  :         if (_Bytes >= _Big_allocation_threshold) {

	cmp	rdx, 4096				; 00001000H
	jb	SHORT $LN34@dynamic

; 174  :     const uintptr_t _Ptr_container   = _Ptr_user[-1];

	mov	rcx, QWORD PTR [rcx-8]
	add	rdx, 39					; 00000027H
	sub	rax, rcx

; 188  :     _STL_VERIFY(_Back_shift >= _Min_back_shift && _Back_shift <= _Non_user_size, "invalid argument");

	add	rax, -8
	cmp	rax, 31
	ja	SHORT $LN43@dynamic
$LN34@dynamic:

; 258  :         ::operator delete(_Ptr, _Bytes);

	call	??3@YAXPEAX_K@Z				; operator delete
$LN20@dynamic:
; File C:\Program Files\Microsoft Visual Studio\2022\Community\VC\Tools\MSVC\14.40.33807\include\xstring

; 4875 :         _My_data._Mysize = 0;

	movdqa	xmm0, XMMWORD PTR __xmm@000000000000000f0000000000000000
	movdqa	XMMWORD PTR ?ntdll@freqDLLS@ProcessUtilities@@3V?$basic_string@DU?$char_traits@D@std@@V?$allocator@D@2@@std@@B+16, xmm0

; 4876 :         _My_data._Myres  = _Small_string_capacity;
; 4877 :         // the _Traits::assign is last so the codegen doesn't think the char write can alias this
; 4878 :         _Traits::assign(_My_data._Bx._Buf[0], _Elem());

	mov	BYTE PTR ?ntdll@freqDLLS@ProcessUtilities@@3V?$basic_string@DU?$char_traits@D@std@@V?$allocator@D@2@@std@@B, 0
	add	rsp, 40					; 00000028H
	ret	0
$LN43@dynamic:
; File C:\Program Files\Microsoft Visual Studio\2022\Community\VC\Tools\MSVC\14.40.33807\include\xmemory

; 188  :     _STL_VERIFY(_Back_shift >= _Min_back_shift && _Back_shift <= _Non_user_size, "invalid argument");

	call	_invalid_parameter_noinfo_noreturn
	int	3
$LN41@dynamic:
??__Fntdll@freqDLLS@ProcessUtilities@@YAXXZ ENDP	; ProcessUtilities::freqDLLS::`dynamic atexit destructor for 'ntdll''
text$yd	ENDS
; Function compile flags: /Ogtpy
; File C:\Users\ethan\source\repos\DLL\DLL\Headers\obfuscate.h
;	COMDAT ??__Fobfuscated_data@?1???R<lambda_2>@freqDLLS@ProcessUtilities@@QEBAAEAV?$obfuscated_data@$09$0GPFFMNJFHLKDFJAP@D@ay@@XZ@YAXXZ
text$yd	SEGMENT
??__Fobfuscated_data@?1???R<lambda_2>@freqDLLS@ProcessUtilities@@QEBAAEAV?$obfuscated_data@$09$0GPFFMNJFHLKDFJAP@D@ay@@XZ@YAXXZ PROC ; `ProcessUtilities::freqDLLS::<lambda_2>::operator()'::`2'::`dynamic atexit destructor for 'obfuscated_data'', COMDAT
	mov	ecx, DWORD PTR _tls_index
	mov	rax, QWORD PTR gs:88
	mov	edx, OFFSET FLAT:?obfuscated_data@?1???R<lambda_2>@freqDLLS@ProcessUtilities@@QEBAAEAV?$obfuscated_data@$09$0GPFFMNJFHLKDFJAP@D@ay@@XZ@4V45@A
	mov	rax, QWORD PTR [rax+rcx*8]

; 132  : 				m_data[i] = 0;

	mov	QWORD PTR [rax+rdx], 0
	mov	WORD PTR [rax+rdx+8], 0
	ret	0
??__Fobfuscated_data@?1???R<lambda_2>@freqDLLS@ProcessUtilities@@QEBAAEAV?$obfuscated_data@$09$0GPFFMNJFHLKDFJAP@D@ay@@XZ@YAXXZ ENDP ; `ProcessUtilities::freqDLLS::<lambda_2>::operator()'::`2'::`dynamic atexit destructor for 'obfuscated_data''
text$yd	ENDS
; Function compile flags: /Ogtpy
; File C:\Users\ethan\source\repos\DLL\DLL\Headers\procutils.h
; File C:\Users\ethan\source\repos\DLL\DLL\Headers\obfuscate.h
; File C:\Users\ethan\source\repos\DLL\DLL\Headers\procutils.h
;	COMDAT ??R<lambda_3>@freqDLLS@ProcessUtilities@@QEBAAEAV?$obfuscated_data@$0N@$0?BMGONCACNKPGIEIF@D@ay@@XZ
_TEXT	SEGMENT
this$dead$ = 48
??R<lambda_3>@freqDLLS@ProcessUtilities@@QEBAAEAV?$obfuscated_data@$0N@$0?BMGONCACNKPGIEIF@D@ay@@XZ PROC ; ProcessUtilities::freqDLLS::<lambda_3>::operator(), COMDAT

; 34   : 		static const std::string advapi32 = std::string(HIDE("advapi32.dll"));

	push	rbx
	sub	rsp, 32					; 00000020H
	mov	ecx, DWORD PTR _tls_index
	mov	rax, QWORD PTR gs:88
	mov	rdx, QWORD PTR [rax+rcx*8]
	mov	ecx, OFFSET FLAT:??__J?1???R<lambda_3>@freqDLLS@ProcessUtilities@@QEBAAEAV?$obfuscated_data@$0N@$0?BMGONCACNKPGIEIF@D@ay@@XZ@51
	mov	eax, DWORD PTR [rcx+rdx]
	mov	r8d, OFFSET FLAT:?obfuscated_data@?1???R<lambda_3>@freqDLLS@ProcessUtilities@@QEBAAEAV?$obfuscated_data@$0N@$0?BMGONCACNKPGIEIF@D@ay@@XZ@4V45@A
	test	al, 1
	jne	SHORT $LN26@operator
	or	eax, 1
	mov	DWORD PTR [rcx+rdx], eax
	lea	rbx, QWORD PTR [rdx+r8]
; File C:\Users\ethan\source\repos\DLL\DLL\Headers\obfuscate.h

; 123  : 				m_data[i] = obfuscator.data()[i];

	mov	DWORD PTR [rbx+10], 33376613		; 01fd4965H
	mov	DWORD PTR [rbx], 1149181722		; 447f1f1aH
	mov	DWORD PTR [rbx+4], -777894771		; d1a2448dH
	mov	WORD PTR [rbx+8], 8021			; 00001f55H
; File C:\Users\ethan\source\repos\DLL\DLL\Headers\procutils.h

; 34   : 		static const std::string advapi32 = std::string(HIDE("advapi32.dll"));

	lea	rcx, OFFSET FLAT:??__Fobfuscated_data@?1???R<lambda_3>@freqDLLS@ProcessUtilities@@QEBAAEAV?$obfuscated_data@$0N@$0?BMGONCACNKPGIEIF@D@ay@@XZ@YAXXZ ; `ProcessUtilities::freqDLLS::<lambda_3>::operator()'::`2'::`dynamic atexit destructor for 'obfuscated_data''
	call	__tlregdtor
	npad	1
	mov	rax, rbx
	add	rsp, 32					; 00000020H
	pop	rbx
	ret	0
$LN26@operator:
	lea	rax, QWORD PTR [rdx+r8]
	add	rsp, 32					; 00000020H
	pop	rbx
	ret	0
??R<lambda_3>@freqDLLS@ProcessUtilities@@QEBAAEAV?$obfuscated_data@$0N@$0?BMGONCACNKPGIEIF@D@ay@@XZ ENDP ; ProcessUtilities::freqDLLS::<lambda_3>::operator()
_TEXT	ENDS
; Function compile flags: /Ogtpy
;	COMDAT text$x
text$x	SEGMENT
this$dead$ = 48
?dtor$0@?0???R<lambda_3>@freqDLLS@ProcessUtilities@@QEBAAEAV?$obfuscated_data@$0N@$0?BMGONCACNKPGIEIF@D@ay@@XZ@4HA PROC ; `ProcessUtilities::freqDLLS::<lambda_3>::operator()'::`1'::dtor$0
	push	rbp
	mov	rbp, rdx
	mov	eax, OFFSET FLAT:??__J?1???R<lambda_3>@freqDLLS@ProcessUtilities@@QEBAAEAV?$obfuscated_data@$0N@$0?BMGONCACNKPGIEIF@D@ay@@XZ@51
	mov	ecx, eax
	mov	eax, DWORD PTR _tls_index
	imul	rax, rax, 8
	mov	r8, QWORD PTR gs:88
	add	r8, rax
	mov	r8, QWORD PTR [r8]
	add	r8, rcx
	mov	r8d, DWORD PTR [r8]
	and	r8d, -2					; fffffffeH
	mov	eax, DWORD PTR _tls_index
	imul	rax, rax, 8
	mov	rdx, QWORD PTR gs:88
	add	rdx, rax
	mov	eax, OFFSET FLAT:??__J?1???R<lambda_3>@freqDLLS@ProcessUtilities@@QEBAAEAV?$obfuscated_data@$0N@$0?BMGONCACNKPGIEIF@D@ay@@XZ@51
	mov	ecx, eax
	mov	rax, QWORD PTR [rdx]
	add	rax, rcx
	mov	DWORD PTR [rax], r8d
	pop	rbp
	ret	0
?dtor$0@?0???R<lambda_3>@freqDLLS@ProcessUtilities@@QEBAAEAV?$obfuscated_data@$0N@$0?BMGONCACNKPGIEIF@D@ay@@XZ@4HA ENDP ; `ProcessUtilities::freqDLLS::<lambda_3>::operator()'::`1'::dtor$0
text$x	ENDS
; Function compile flags: /Ogtpy
; File C:\Users\ethan\source\repos\DLL\DLL\Headers\procutils.h
; File C:\Users\ethan\source\repos\DLL\DLL\Headers\obfuscate.h
; File C:\Users\ethan\source\repos\DLL\DLL\Headers\procutils.h
; File C:\Users\ethan\source\repos\DLL\DLL\Headers\obfuscate.h
; File C:\Users\ethan\source\repos\DLL\DLL\Headers\procutils.h
;	COMDAT ??__Eadvapi32@freqDLLS@ProcessUtilities@@YAXXZ
text$di	SEGMENT
??__Eadvapi32@freqDLLS@ProcessUtilities@@YAXXZ PROC	; ProcessUtilities::freqDLLS::`dynamic initializer for 'advapi32'', COMDAT

; 34   : 		static const std::string advapi32 = std::string(HIDE("advapi32.dll"));

	push	rbx
	sub	rsp, 32					; 00000020H
	mov	ecx, DWORD PTR _tls_index
	mov	rax, QWORD PTR gs:88
	mov	rdx, QWORD PTR [rax+rcx*8]
	mov	ecx, OFFSET FLAT:??__J?1???R<lambda_3>@freqDLLS@ProcessUtilities@@QEBAAEAV?$obfuscated_data@$0N@$0?BMGONCACNKPGIEIF@D@ay@@XZ@51
	mov	eax, DWORD PTR [rcx+rdx]
	mov	ebx, OFFSET FLAT:?obfuscated_data@?1???R<lambda_3>@freqDLLS@ProcessUtilities@@QEBAAEAV?$obfuscated_data@$0N@$0?BMGONCACNKPGIEIF@D@ay@@XZ@4V45@A
	add	rbx, rdx
	test	al, 1
	jne	SHORT $LN47@dynamic
	or	eax, 1
	mov	DWORD PTR [rcx+rdx], eax
; File C:\Users\ethan\source\repos\DLL\DLL\Headers\obfuscate.h

; 123  : 				m_data[i] = obfuscator.data()[i];

	mov	DWORD PTR [rbx+10], 33376613		; 01fd4965H
	mov	DWORD PTR [rbx], 1149181722		; 447f1f1aH
	mov	DWORD PTR [rbx+4], -777894771		; d1a2448dH
	mov	WORD PTR [rbx+8], 8021			; 00001f55H
; File C:\Users\ethan\source\repos\DLL\DLL\Headers\procutils.h

; 34   : 		static const std::string advapi32 = std::string(HIDE("advapi32.dll"));

	lea	rcx, OFFSET FLAT:??__Fobfuscated_data@?1???R<lambda_3>@freqDLLS@ProcessUtilities@@QEBAAEAV?$obfuscated_data@$0N@$0?BMGONCACNKPGIEIF@D@ay@@XZ@YAXXZ ; `ProcessUtilities::freqDLLS::<lambda_3>::operator()'::`2'::`dynamic atexit destructor for 'obfuscated_data''
	call	__tlregdtor
	npad	1
$LN47@dynamic:
; File C:\Users\ethan\source\repos\DLL\DLL\Headers\obfuscate.h

; 147  : 			if ( m_encrypted )

	cmp	BYTE PTR [rbx+13], 0
	je	$LN15@dynamic

; 148  : 			{
; 149  : 				cipher(m_data, N, KEY);

	xor	r8d, r8d
	cmp	DWORD PTR __isa_available, 5
	jl	$LN56@dynamic

; 70   : 			data[i] ^= CHAR_TYPE(( key >> ( ( i % 8 ) * 8 ) ) & 0xFF);

	movdqa	xmm3, XMMWORD PTR __xmm@e3912dfd25097b7be3912dfd25097b7b
	movdqa	xmm0, XMMWORD PTR __xmm@00000000000000010000000000000000
	psllq	xmm0, 3
	vpsrlvq	xmm1, xmm3, xmm0
	movdqa	xmm2, XMMWORD PTR __xmm@00000000000008000000000000000800
	pshufb	xmm1, xmm2
	movzx	eax, WORD PTR [rbx]
	movd	xmm0, eax
	xorps	xmm1, xmm0
	movd	eax, xmm1
	mov	WORD PTR [rbx], ax
	movdqa	xmm0, XMMWORD PTR __xmm@00000000000000030000000000000002
	psllq	xmm0, 3
	vpsrlvq	xmm1, xmm3, xmm0
	pshufb	xmm1, xmm2
	movzx	eax, WORD PTR [rbx+2]
	movd	xmm0, eax
	xorps	xmm1, xmm0
	movd	eax, xmm1
	mov	WORD PTR [rbx+2], ax
	movdqa	xmm0, XMMWORD PTR __xmm@00000000000000050000000000000004
	psllq	xmm0, 3
	vpsrlvq	xmm1, xmm3, xmm0
	pshufb	xmm1, xmm2
	movzx	eax, WORD PTR [rbx+4]
	movd	xmm0, eax
	xorps	xmm1, xmm0
	movd	eax, xmm1
	mov	WORD PTR [rbx+4], ax
	movdqa	xmm0, XMMWORD PTR __xmm@00000000000000070000000000000006
	psllq	xmm0, 3
	vpsrlvq	xmm1, xmm3, xmm0
	pshufb	xmm1, xmm2
	movzx	eax, WORD PTR [rbx+6]
	movd	xmm0, eax
	xorps	xmm1, xmm0
	movd	eax, xmm1
	mov	WORD PTR [rbx+6], ax

; 68   : 		for ( size_type i = 0; i < size; i++ )

	mov	r8d, 8
$LN56@dynamic:
	mov	r9, -2048805790205510789		; e3912dfd25097b7bH
	npad	6
$LL55@dynamic:

; 69   : 		{
; 70   : 			data[i] ^= CHAR_TYPE(( key >> ( ( i % 8 ) * 8 ) ) & 0xFF);

	movzx	ecx, r8b
	and	cl, 7
	shl	cl, 3
	mov	rdx, r9
	shr	rdx, cl
	xor	BYTE PTR [rbx+r8], dl

; 68   : 		for ( size_type i = 0; i < size; i++ )

	inc	r8
	cmp	r8, 13
	jb	SHORT $LL55@dynamic

; 150  : 				m_encrypted = false;

	mov	BYTE PTR [rbx+13], 0
$LN15@dynamic:
; File C:\Users\ethan\source\repos\DLL\DLL\Headers\procutils.h

; 34   : 		static const std::string advapi32 = std::string(HIDE("advapi32.dll"));

	mov	rdx, rbx
	lea	rcx, OFFSET FLAT:?advapi32@freqDLLS@ProcessUtilities@@3V?$basic_string@DU?$char_traits@D@std@@V?$allocator@D@2@@std@@B
	call	??0?$basic_string@DU?$char_traits@D@std@@V?$allocator@D@2@@std@@QEAA@QEBD@Z ; std::basic_string<char,std::char_traits<char>,std::allocator<char> >::basic_string<char,std::char_traits<char>,std::allocator<char> >
	lea	rcx, OFFSET FLAT:??__Fadvapi32@freqDLLS@ProcessUtilities@@YAXXZ ; ProcessUtilities::freqDLLS::`dynamic atexit destructor for 'advapi32''
	add	rsp, 32					; 00000020H
	pop	rbx
	jmp	atexit
??__Eadvapi32@freqDLLS@ProcessUtilities@@YAXXZ ENDP	; ProcessUtilities::freqDLLS::`dynamic initializer for 'advapi32''
text$di	ENDS
; Function compile flags: /Ogtpy
;	COMDAT text$x
text$x	SEGMENT
?dtor$0@?0???__Eadvapi32@freqDLLS@ProcessUtilities@@YAXXZ@4HA PROC ; `ProcessUtilities::freqDLLS::`dynamic initializer for 'advapi32'''::`1'::dtor$0
	push	rbp
	mov	rbp, rdx
	mov	eax, OFFSET FLAT:??__J?1???R<lambda_3>@freqDLLS@ProcessUtilities@@QEBAAEAV?$obfuscated_data@$0N@$0?BMGONCACNKPGIEIF@D@ay@@XZ@51
	mov	ecx, eax
	mov	eax, DWORD PTR _tls_index
	imul	rax, rax, 8
	mov	r8, QWORD PTR gs:88
	add	r8, rax
	mov	r8, QWORD PTR [r8]
	add	r8, rcx
	mov	r8d, DWORD PTR [r8]
	and	r8d, -2					; fffffffeH
	mov	eax, DWORD PTR _tls_index
	imul	rax, rax, 8
	mov	rdx, QWORD PTR gs:88
	add	rdx, rax
	mov	eax, OFFSET FLAT:??__J?1???R<lambda_3>@freqDLLS@ProcessUtilities@@QEBAAEAV?$obfuscated_data@$0N@$0?BMGONCACNKPGIEIF@D@ay@@XZ@51
	mov	ecx, eax
	mov	rax, QWORD PTR [rdx]
	add	rax, rcx
	mov	DWORD PTR [rax], r8d
	pop	rbp
	ret	0
?dtor$0@?0???__Eadvapi32@freqDLLS@ProcessUtilities@@YAXXZ@4HA ENDP ; `ProcessUtilities::freqDLLS::`dynamic initializer for 'advapi32'''::`1'::dtor$0
text$x	ENDS
; Function compile flags: /Ogtpy
; File C:\Program Files\Microsoft Visual Studio\2022\Community\VC\Tools\MSVC\14.40.33807\include\xstring
; File C:\Program Files\Microsoft Visual Studio\2022\Community\VC\Tools\MSVC\14.40.33807\include\xmemory
; File C:\Program Files\Microsoft Visual Studio\2022\Community\VC\Tools\MSVC\14.40.33807\include\xstring
; File C:\Program Files\Microsoft Visual Studio\2022\Community\VC\Tools\MSVC\14.40.33807\include\xmemory
; File C:\Program Files\Microsoft Visual Studio\2022\Community\VC\Tools\MSVC\14.40.33807\include\xstring
; File C:\Program Files\Microsoft Visual Studio\2022\Community\VC\Tools\MSVC\14.40.33807\include\xmemory
;	COMDAT ??__Fadvapi32@freqDLLS@ProcessUtilities@@YAXXZ
text$yd	SEGMENT
??__Fadvapi32@freqDLLS@ProcessUtilities@@YAXXZ PROC	; ProcessUtilities::freqDLLS::`dynamic atexit destructor for 'advapi32'', COMDAT
	sub	rsp, 40					; 00000028H
; File C:\Program Files\Microsoft Visual Studio\2022\Community\VC\Tools\MSVC\14.40.33807\include\xstring

; 2244 :         return _Myres > _Small_string_capacity;

	mov	rdx, QWORD PTR ?advapi32@freqDLLS@ProcessUtilities@@3V?$basic_string@DU?$char_traits@D@std@@V?$allocator@D@2@@std@@B+24
	cmp	rdx, 15

; 4868 :         if (_My_data._Large_mode_engaged()) {

	jbe	SHORT $LN20@dynamic
; File C:\Program Files\Microsoft Visual Studio\2022\Community\VC\Tools\MSVC\14.40.33807\include\xmemory

; 950  :         _STD _Deallocate<_New_alignof<_Ty>>(_Ptr, sizeof(_Ty) * _Count);

	mov	rcx, QWORD PTR ?advapi32@freqDLLS@ProcessUtilities@@3V?$basic_string@DU?$char_traits@D@std@@V?$allocator@D@2@@std@@B
; File C:\Program Files\Microsoft Visual Studio\2022\Community\VC\Tools\MSVC\14.40.33807\include\xstring

; 2643 :         _Al.deallocate(_Old_ptr, _Capacity + 1); // +1 for null terminator

	inc	rdx
; File C:\Program Files\Microsoft Visual Studio\2022\Community\VC\Tools\MSVC\14.40.33807\include\xmemory

; 950  :         _STD _Deallocate<_New_alignof<_Ty>>(_Ptr, sizeof(_Ty) * _Count);

	mov	rax, rcx

; 253  :         if (_Bytes >= _Big_allocation_threshold) {

	cmp	rdx, 4096				; 00001000H
	jb	SHORT $LN34@dynamic

; 174  :     const uintptr_t _Ptr_container   = _Ptr_user[-1];

	mov	rcx, QWORD PTR [rcx-8]
	add	rdx, 39					; 00000027H
	sub	rax, rcx

; 188  :     _STL_VERIFY(_Back_shift >= _Min_back_shift && _Back_shift <= _Non_user_size, "invalid argument");

	add	rax, -8
	cmp	rax, 31
	ja	SHORT $LN43@dynamic
$LN34@dynamic:

; 258  :         ::operator delete(_Ptr, _Bytes);

	call	??3@YAXPEAX_K@Z				; operator delete
$LN20@dynamic:
; File C:\Program Files\Microsoft Visual Studio\2022\Community\VC\Tools\MSVC\14.40.33807\include\xstring

; 4875 :         _My_data._Mysize = 0;

	movdqa	xmm0, XMMWORD PTR __xmm@000000000000000f0000000000000000
	movdqa	XMMWORD PTR ?advapi32@freqDLLS@ProcessUtilities@@3V?$basic_string@DU?$char_traits@D@std@@V?$allocator@D@2@@std@@B+16, xmm0

; 4876 :         _My_data._Myres  = _Small_string_capacity;
; 4877 :         // the _Traits::assign is last so the codegen doesn't think the char write can alias this
; 4878 :         _Traits::assign(_My_data._Bx._Buf[0], _Elem());

	mov	BYTE PTR ?advapi32@freqDLLS@ProcessUtilities@@3V?$basic_string@DU?$char_traits@D@std@@V?$allocator@D@2@@std@@B, 0
	add	rsp, 40					; 00000028H
	ret	0
$LN43@dynamic:
; File C:\Program Files\Microsoft Visual Studio\2022\Community\VC\Tools\MSVC\14.40.33807\include\xmemory

; 188  :     _STL_VERIFY(_Back_shift >= _Min_back_shift && _Back_shift <= _Non_user_size, "invalid argument");

	call	_invalid_parameter_noinfo_noreturn
	int	3
$LN41@dynamic:
??__Fadvapi32@freqDLLS@ProcessUtilities@@YAXXZ ENDP	; ProcessUtilities::freqDLLS::`dynamic atexit destructor for 'advapi32''
text$yd	ENDS
; Function compile flags: /Ogtpy
; File C:\Users\ethan\source\repos\DLL\DLL\Headers\obfuscate.h
;	COMDAT ??__Fobfuscated_data@?1???R<lambda_3>@freqDLLS@ProcessUtilities@@QEBAAEAV?$obfuscated_data@$0N@$0?BMGONCACNKPGIEIF@D@ay@@XZ@YAXXZ
text$yd	SEGMENT
??__Fobfuscated_data@?1???R<lambda_3>@freqDLLS@ProcessUtilities@@QEBAAEAV?$obfuscated_data@$0N@$0?BMGONCACNKPGIEIF@D@ay@@XZ@YAXXZ PROC ; `ProcessUtilities::freqDLLS::<lambda_3>::operator()'::`2'::`dynamic atexit destructor for 'obfuscated_data'', COMDAT
	mov	rax, QWORD PTR gs:88
	mov	ecx, DWORD PTR _tls_index
	mov	edx, OFFSET FLAT:?obfuscated_data@?1???R<lambda_3>@freqDLLS@ProcessUtilities@@QEBAAEAV?$obfuscated_data@$0N@$0?BMGONCACNKPGIEIF@D@ay@@XZ@4V45@A
	add	rdx, QWORD PTR [rax+rcx*8]

; 130  : 			for ( size_type i = 0; i < N; i++ )

	xor	eax, eax
	mov	QWORD PTR [rdx], rax
	mov	DWORD PTR [rdx+8], eax
	mov	BYTE PTR [rdx+12], al
	ret	0
??__Fobfuscated_data@?1???R<lambda_3>@freqDLLS@ProcessUtilities@@QEBAAEAV?$obfuscated_data@$0N@$0?BMGONCACNKPGIEIF@D@ay@@XZ@YAXXZ ENDP ; `ProcessUtilities::freqDLLS::<lambda_3>::operator()'::`2'::`dynamic atexit destructor for 'obfuscated_data''
text$yd	ENDS
; Function compile flags: /Ogtpy
; File C:\Users\ethan\source\repos\DLL\DLL\Source\client.cpp
; File C:\Users\ethan\source\repos\DLL\DLL\Headers\client.h
; File C:\Program Files\Microsoft Visual Studio\2022\Community\VC\Tools\MSVC\14.40.33807\include\xstring
; File C:\Users\ethan\source\repos\DLL\DLL\Source\client.cpp
;	COMDAT ??0Client@@QEAA@XZ
_TEXT	SEGMENT
this$GSCopy$ = 32
data$ = 48
__$ArrayPad$ = 464
this$ = 496
??0Client@@QEAA@XZ PROC					; Client::Client, COMDAT

; 7    : Client::Client() {

$LN28:
	push	rbx
	sub	rsp, 480				; 000001e0H
	mov	rax, QWORD PTR __security_cookie
	xor	rax, rsp
	mov	QWORD PTR __$ArrayPad$[rsp], rax
	mov	rbx, rcx
	mov	QWORD PTR this$GSCopy$[rsp], rcx
; File C:\Users\ethan\source\repos\DLL\DLL\Headers\client.h

; 77   :     _socket       CreateSocket    = nullptr;

	xor	ecx, ecx
	mov	QWORD PTR [rbx], rcx

; 78   :     _WSAStartup   StartWSA        = nullptr;

	mov	QWORD PTR [rbx+8], rcx

; 79   :     _WSACleanup   CleanWSA        = nullptr;

	mov	QWORD PTR [rbx+16], rcx

; 80   :     _closesocket  CloseSocket     = nullptr;

	mov	QWORD PTR [rbx+24], rcx

; 81   :     _bind         BindSocket      = nullptr;

	mov	QWORD PTR [rbx+32], rcx

; 82   :     _sendto       SendTo          = nullptr; 

	mov	QWORD PTR [rbx+40], rcx

; 83   :     _send         Send            = nullptr;

	mov	QWORD PTR [rbx+48], rcx

; 84   :     _recv         Receive         = nullptr;

	mov	QWORD PTR [rbx+56], rcx

; 85   :     _recvfrom     ReceiveFrom     = nullptr;

	mov	QWORD PTR [rbx+64], rcx

; 86   :     _connect      ConnectSocket   = nullptr; 

	mov	QWORD PTR [rbx+72], rcx

; 87   : 
; 88   :     // Further details on client
; 89   :     BOOL          WSAInitialized  = FALSE;

	mov	DWORD PTR [rbx+80], ecx

; 90   :     SOCKET        UDPSocket       = INVALID_SOCKET;

	mov	QWORD PTR [rbx+88], -1

; 91   :     SOCKET        TCPSocket       = INVALID_SOCKET;

	mov	QWORD PTR [rbx+96], -1
	xorps	xmm0, xmm0

; 92   :     Server        ConnectedServer = { 0 };          // Information on the clients connected server

	xor	eax, eax
	movups	XMMWORD PTR [rbx+104], xmm0
	movups	XMMWORD PTR [rbx+120], xmm0
	mov	DWORD PTR [rbx+136], eax

; 93   :     long          ClientUID       = -1;             // UID is assigned by the server. Used to perform commands on one client

	mov	DWORD PTR [rbx+140], -1
; File C:\Program Files\Microsoft Visual Studio\2022\Community\VC\Tools\MSVC\14.40.33807\include\xstring

; 2284 :         _CONSTEXPR20 _Bxty() noexcept : _Buf() {} // user-provided, for fancy pointers

	movups	XMMWORD PTR [rbx+144], xmm0

; 2651 :         _My_data._Mysize = 0;

	mov	QWORD PTR [rbx+160], rcx

; 2652 :         _My_data._Myres  = _Small_string_capacity;

	mov	QWORD PTR [rbx+168], 15

; 2653 :         _My_data._Activate_SSO_buffer();
; 2654 : 
; 2655 :         // the _Traits::assign is last so the codegen doesn't think the char write can alias this
; 2656 :         _Traits::assign(_My_data._Bx._Buf[0], _Elem());

	mov	BYTE PTR [rbx+144], al
; File C:\Users\ethan\source\repos\DLL\DLL\Source\client.cpp

; 8    : 	LoadWSAFunctions();

	mov	rcx, rbx
	call	?LoadWSAFunctions@Client@@IEAAXXZ	; Client::LoadWSAFunctions

; 9    : 
; 10   : 	WORD version = MAKEWORD(2, 2);
; 11   : 	WSAData data = { 0 };

	xor	edx, edx
	mov	r8d, 408				; 00000198H
	lea	rcx, QWORD PTR data$[rsp]
	call	memset

; 12   : 	int success  = StartWSA(version, &data);

	mov	r8, QWORD PTR [rbx+8]
	mov	ecx, 514				; 00000202H
	lea	rdx, QWORD PTR data$[rsp]
	call	r8

; 13   : 
; 14   : 	if ( success == 0 )

	test	eax, eax
	jne	SHORT $LN25@Client

; 15   : 		WSAInitialized = TRUE;

	mov	DWORD PTR [rbx+80], 1
$LN25@Client:

; 16   : }

	mov	rax, rbx
	mov	rcx, QWORD PTR __$ArrayPad$[rsp]
	xor	rcx, rsp
	call	__security_check_cookie
	add	rsp, 480				; 000001e0H
	pop	rbx
	ret	0
??0Client@@QEAA@XZ ENDP					; Client::Client
_TEXT	ENDS
; Function compile flags: /Ogtpy
;	COMDAT text$x
text$x	SEGMENT
this$GSCopy$ = 32
data$ = 48
__$ArrayPad$ = 464
this$ = 496
?dtor$0@?0???0Client@@QEAA@XZ@4HA PROC			; `Client::Client'::`1'::dtor$0
	mov	rcx, QWORD PTR this$GSCopy$[rdx]
	add	rcx, 144				; 00000090H
	jmp	??1?$basic_string@DU?$char_traits@D@std@@V?$allocator@D@2@@std@@QEAA@XZ ; std::basic_string<char,std::char_traits<char>,std::allocator<char> >::~basic_string<char,std::char_traits<char>,std::allocator<char> >
?dtor$0@?0???0Client@@QEAA@XZ@4HA ENDP			; `Client::Client'::`1'::dtor$0
text$x	ENDS
; Function compile flags: /Ogtpy
; File C:\Users\ethan\source\repos\DLL\DLL\Source\client.cpp
; File C:\Users\ethan\source\repos\DLL\DLL\Headers\obfuscate.h
; File C:\Users\ethan\source\repos\DLL\DLL\Source\client.cpp
; File C:\Users\ethan\source\repos\DLL\DLL\Headers\obfuscate.h
; File C:\Users\ethan\source\repos\DLL\DLL\Source\client.cpp
; File C:\Program Files\Microsoft Visual Studio\2022\Community\VC\Tools\MSVC\14.40.33807\include\xstring
; File C:\Program Files\Microsoft Visual Studio\2022\Community\VC\Tools\MSVC\14.40.33807\include\xmemory
; File C:\Program Files\Microsoft Visual Studio\2022\Community\VC\Tools\MSVC\14.40.33807\include\xstring
; File C:\Users\ethan\source\repos\DLL\DLL\Source\client.cpp
; File C:\Program Files\Microsoft Visual Studio\2022\Community\VC\Tools\MSVC\14.40.33807\include\xmemory
; File C:\Users\ethan\source\repos\DLL\DLL\Source\client.cpp
;	COMDAT ??1Client@@QEAA@XZ
_TEXT	SEGMENT
$T1 = 32
this$ = 80
??1Client@@QEAA@XZ PROC					; Client::~Client, COMDAT

; 18   : Client::~Client() {

$LN102:
	mov	QWORD PTR [rsp+16], rbx
	push	rdi
	sub	rsp, 64					; 00000040H
	mov	rdi, rcx

; 84   : 		socketReady = this->TCPSocket != INVALID_SOCKET;

	mov	rcx, QWORD PTR [rcx+96]

; 85   : 		break;
; 86   : 	}
; 87   : 
; 88   : 	return socketReady == TRUE && WSAInitialized;

	cmp	rcx, -1
	je	SHORT $LN6@Client
	cmp	DWORD PTR [rdi+80], 0
	je	SHORT $LN6@Client

; 136  : 	int status = CloseSocket(this->TCPSocket);

	call	QWORD PTR [rdi+24]
$LN6@Client:

; 19   : 	this->Disconnect(); // disconnect incase the socket is still connected
; 20   : 
; 21   : 	CleanWSA();

	call	QWORD PTR [rdi+16]

; 22   : 	ProcessUtilities::FreeUsedLibrary(winsock32);

	mov	ecx, DWORD PTR _tls_index
	mov	rax, QWORD PTR gs:88
	mov	rdx, QWORD PTR [rax+rcx*8]
	mov	ecx, OFFSET FLAT:??__J?1???R<lambda_1>@?1???1Client@@QEAA@XZ@QEBAAEAV?$obfuscated_data@$0L@$0?GIOGLOCGPCIABIMJ@D@ay@@XZ@51
	mov	eax, DWORD PTR [rcx+rdx]
	mov	ebx, OFFSET FLAT:?obfuscated_data@?1???R<lambda_1>@?1???1Client@@QEAA@XZ@QEBAAEAV?$obfuscated_data@$0L@$0?GIOGLOCGPCIABIMJ@D@ay@@XZ@4V34@A
	add	rbx, rdx
	test	al, 1
	jne	SHORT $LN96@Client
	or	eax, 1
	mov	DWORD PTR [rcx+rdx], eax
; File C:\Users\ethan\source\repos\DLL\DLL\Headers\obfuscate.h

; 123  : 				m_data[i] = obfuscator.data()[i];

	mov	DWORD PTR [rbx+8], 25135963		; 017f8b5bH
	mov	DWORD PTR [rbx], 1380815968		; 524d9460H
	mov	DWORD PTR [rbx+4], -214469654		; f33773eaH
; File C:\Users\ethan\source\repos\DLL\DLL\Source\client.cpp

; 22   : 	ProcessUtilities::FreeUsedLibrary(winsock32);

	lea	rcx, OFFSET FLAT:??__Fobfuscated_data@?1???R<lambda_1>@?1???1Client@@QEAA@XZ@QEBAAEAV?$obfuscated_data@$0L@$0?GIOGLOCGPCIABIMJ@D@ay@@XZ@YAXXZ ; ``Client::~Client'::`2'::<lambda_1>::operator()'::`2'::`dynamic atexit destructor for 'obfuscated_data''
	call	__tlregdtor
$LN96@Client:
; File C:\Users\ethan\source\repos\DLL\DLL\Headers\obfuscate.h

; 147  : 			if ( m_encrypted )

	cmp	BYTE PTR [rbx+11], 0
	je	SHORT $LN27@Client

; 70   : 			data[i] ^= CHAR_TYPE(( key >> ( ( i % 8 ) * 8 ) ) & 0xFF);

	xor	BYTE PTR [rbx], 55			; 00000037H
	xor	BYTE PTR [rbx+1], -25
	xor	BYTE PTR [rbx+2], 127			; 0000007fH
	xor	BYTE PTR [rbx+3], 13
	xor	BYTE PTR [rbx+4], -39			; ffffffffffffffd9H
	xor	BYTE PTR [rbx+5], 65			; 00000041H
	xor	BYTE PTR [rbx+6], 25
	xor	BYTE PTR [rbx+7], -105			; ffffffffffffff97H
	xor	BYTE PTR [rbx+8], 55			; 00000037H
	xor	BYTE PTR [rbx+9], -25
	xor	BYTE PTR [rbx+10], 127			; 0000007fH

; 150  : 				m_encrypted = false;

	mov	BYTE PTR [rbx+11], 0
$LN27@Client:
; File C:\Users\ethan\source\repos\DLL\DLL\Source\client.cpp

; 22   : 	ProcessUtilities::FreeUsedLibrary(winsock32);

	mov	rdx, rbx
	lea	rcx, QWORD PTR $T1[rsp]
	call	??0?$basic_string@DU?$char_traits@D@std@@V?$allocator@D@2@@std@@QEAA@QEBD@Z ; std::basic_string<char,std::char_traits<char>,std::allocator<char> >::basic_string<char,std::char_traits<char>,std::allocator<char> >
	mov	rcx, rax
	call	?FreeUsedLibrary@ProcessUtilities@@YAHV?$basic_string@DU?$char_traits@D@std@@V?$allocator@D@2@@std@@@Z ; ProcessUtilities::FreeUsedLibrary
; File C:\Program Files\Microsoft Visual Studio\2022\Community\VC\Tools\MSVC\14.40.33807\include\xstring

; 2244 :         return _Myres > _Small_string_capacity;

	mov	rdx, QWORD PTR [rdi+168]
	cmp	rdx, 15

; 4868 :         if (_My_data._Large_mode_engaged()) {

	jbe	SHORT $LN51@Client

; 2643 :         _Al.deallocate(_Old_ptr, _Capacity + 1); // +1 for null terminator

	inc	rdx
; File C:\Program Files\Microsoft Visual Studio\2022\Community\VC\Tools\MSVC\14.40.33807\include\xmemory

; 950  :         _STD _Deallocate<_New_alignof<_Ty>>(_Ptr, sizeof(_Ty) * _Count);

	mov	rcx, QWORD PTR [rdi+144]

; 253  :         if (_Bytes >= _Big_allocation_threshold) {

	cmp	rdx, 4096				; 00001000H
	jb	SHORT $LN65@Client

; 171  :     _Bytes += _Non_user_size;

	add	rdx, 39					; 00000027H

; 172  : 
; 173  :     const uintptr_t* const _Ptr_user = static_cast<uintptr_t*>(_Ptr);
; 174  :     const uintptr_t _Ptr_container   = _Ptr_user[-1];

	mov	r8, QWORD PTR [rcx-8]

; 175  : 
; 176  :     // If the following asserts, it likely means that we are performing
; 177  :     // an aligned delete on memory coming from an unaligned allocation.
; 178  :     _STL_ASSERT(_Ptr_user[-2] == _Big_allocation_sentinel, "invalid argument");
; 179  : 
; 180  :     // Extra paranoia on aligned allocation/deallocation; ensure _Ptr_container is
; 181  :     // in range [_Min_back_shift, _Non_user_size]
; 182  : #ifdef _DEBUG
; 183  :     constexpr uintptr_t _Min_back_shift = 2 * sizeof(void*);
; 184  : #else // ^^^ defined(_DEBUG) / !defined(_DEBUG) vvv
; 185  :     constexpr uintptr_t _Min_back_shift = sizeof(void*);
; 186  : #endif // ^^^ !defined(_DEBUG) ^^^
; 187  :     const uintptr_t _Back_shift = reinterpret_cast<uintptr_t>(_Ptr) - _Ptr_container;

	sub	rcx, r8

; 188  :     _STL_VERIFY(_Back_shift >= _Min_back_shift && _Back_shift <= _Non_user_size, "invalid argument");

	lea	rax, QWORD PTR [rcx-8]
	cmp	rax, 31
	ja	SHORT $LN62@Client

; 189  :     _Ptr = reinterpret_cast<void*>(_Ptr_container);

	mov	rcx, r8
$LN65@Client:

; 258  :         ::operator delete(_Ptr, _Bytes);

	call	??3@YAXPEAX_K@Z				; operator delete
$LN51@Client:
; File C:\Program Files\Microsoft Visual Studio\2022\Community\VC\Tools\MSVC\14.40.33807\include\xstring

; 4875 :         _My_data._Mysize = 0;

	mov	QWORD PTR [rdi+160], 0

; 4876 :         _My_data._Myres  = _Small_string_capacity;

	mov	QWORD PTR [rdi+168], 15

; 4877 :         // the _Traits::assign is last so the codegen doesn't think the char write can alias this
; 4878 :         _Traits::assign(_My_data._Bx._Buf[0], _Elem());

	mov	BYTE PTR [rdi+144], 0
; File C:\Users\ethan\source\repos\DLL\DLL\Source\client.cpp

; 23   : }

	mov	rbx, QWORD PTR [rsp+88]
	add	rsp, 64					; 00000040H
	pop	rdi
	ret	0
$LN62@Client:
; File C:\Program Files\Microsoft Visual Studio\2022\Community\VC\Tools\MSVC\14.40.33807\include\xmemory

; 188  :     _STL_VERIFY(_Back_shift >= _Min_back_shift && _Back_shift <= _Non_user_size, "invalid argument");

	call	_invalid_parameter_noinfo_noreturn
	int	3
$LN99@Client:
??1Client@@QEAA@XZ ENDP					; Client::~Client
_TEXT	ENDS
; Function compile flags: /Ogtpy
; File C:\Users\ethan\source\repos\DLL\DLL\Source\client.cpp
; File C:\Users\ethan\source\repos\DLL\DLL\Headers\obfuscate.h
; File C:\Users\ethan\source\repos\DLL\DLL\Source\client.cpp
;	COMDAT ??R<lambda_1>@?1???1Client@@QEAA@XZ@QEBAAEAV?$obfuscated_data@$0L@$0?GIOGLOCGPCIABIMJ@D@ay@@XZ
_TEXT	SEGMENT
this$dead$ = 48
??R<lambda_1>@?1???1Client@@QEAA@XZ@QEBAAEAV?$obfuscated_data@$0L@$0?GIOGLOCGPCIABIMJ@D@ay@@XZ PROC ; `Client::~Client'::`2'::<lambda_1>::operator(), COMDAT

; 22   : 	ProcessUtilities::FreeUsedLibrary(winsock32);

	push	rbx
	sub	rsp, 32					; 00000020H
	mov	ecx, DWORD PTR _tls_index
	mov	rax, QWORD PTR gs:88
	mov	rdx, QWORD PTR [rax+rcx*8]
	mov	ecx, OFFSET FLAT:??__J?1???R<lambda_1>@?1???1Client@@QEAA@XZ@QEBAAEAV?$obfuscated_data@$0L@$0?GIOGLOCGPCIABIMJ@D@ay@@XZ@51
	mov	eax, DWORD PTR [rcx+rdx]
	mov	r8d, OFFSET FLAT:?obfuscated_data@?1???R<lambda_1>@?1???1Client@@QEAA@XZ@QEBAAEAV?$obfuscated_data@$0L@$0?GIOGLOCGPCIABIMJ@D@ay@@XZ@4V34@A
	test	al, 1
	jne	SHORT $LN22@operator
	or	eax, 1
	mov	DWORD PTR [rcx+rdx], eax
	lea	rbx, QWORD PTR [rdx+r8]
; File C:\Users\ethan\source\repos\DLL\DLL\Headers\obfuscate.h

; 123  : 				m_data[i] = obfuscator.data()[i];

	mov	DWORD PTR [rbx+8], 25135963		; 017f8b5bH
	mov	DWORD PTR [rbx], 1380815968		; 524d9460H
	mov	DWORD PTR [rbx+4], -214469654		; f33773eaH
; File C:\Users\ethan\source\repos\DLL\DLL\Source\client.cpp

; 22   : 	ProcessUtilities::FreeUsedLibrary(winsock32);

	lea	rcx, OFFSET FLAT:??__Fobfuscated_data@?1???R<lambda_1>@?1???1Client@@QEAA@XZ@QEBAAEAV?$obfuscated_data@$0L@$0?GIOGLOCGPCIABIMJ@D@ay@@XZ@YAXXZ ; ``Client::~Client'::`2'::<lambda_1>::operator()'::`2'::`dynamic atexit destructor for 'obfuscated_data''
	call	__tlregdtor
	npad	1
	mov	rax, rbx
	add	rsp, 32					; 00000020H
	pop	rbx
	ret	0
$LN22@operator:
	lea	rax, QWORD PTR [rdx+r8]
	add	rsp, 32					; 00000020H
	pop	rbx
	ret	0
??R<lambda_1>@?1???1Client@@QEAA@XZ@QEBAAEAV?$obfuscated_data@$0L@$0?GIOGLOCGPCIABIMJ@D@ay@@XZ ENDP ; `Client::~Client'::`2'::<lambda_1>::operator()
_TEXT	ENDS
; Function compile flags: /Ogtpy
;	COMDAT text$x
text$x	SEGMENT
this$dead$ = 48
?dtor$0@?0???R<lambda_1>@?1???1Client@@QEAA@XZ@QEBAAEAV?$obfuscated_data@$0L@$0?GIOGLOCGPCIABIMJ@D@ay@@XZ@4HA PROC ; ``Client::~Client'::`2'::<lambda_1>::operator()'::`1'::dtor$0
	push	rbp
	mov	rbp, rdx
	mov	eax, OFFSET FLAT:??__J?1???R<lambda_1>@?1???1Client@@QEAA@XZ@QEBAAEAV?$obfuscated_data@$0L@$0?GIOGLOCGPCIABIMJ@D@ay@@XZ@51
	mov	ecx, eax
	mov	eax, DWORD PTR _tls_index
	imul	rax, rax, 8
	mov	r8, QWORD PTR gs:88
	add	r8, rax
	mov	r8, QWORD PTR [r8]
	add	r8, rcx
	mov	r8d, DWORD PTR [r8]
	and	r8d, -2					; fffffffeH
	mov	eax, DWORD PTR _tls_index
	imul	rax, rax, 8
	mov	rdx, QWORD PTR gs:88
	add	rdx, rax
	mov	eax, OFFSET FLAT:??__J?1???R<lambda_1>@?1???1Client@@QEAA@XZ@QEBAAEAV?$obfuscated_data@$0L@$0?GIOGLOCGPCIABIMJ@D@ay@@XZ@51
	mov	ecx, eax
	mov	rax, QWORD PTR [rdx]
	add	rax, rcx
	mov	DWORD PTR [rax], r8d
	pop	rbp
	ret	0
?dtor$0@?0???R<lambda_1>@?1???1Client@@QEAA@XZ@QEBAAEAV?$obfuscated_data@$0L@$0?GIOGLOCGPCIABIMJ@D@ay@@XZ@4HA ENDP ; ``Client::~Client'::`2'::<lambda_1>::operator()'::`1'::dtor$0
text$x	ENDS
; Function compile flags: /Ogtpy
; File C:\Users\ethan\source\repos\DLL\DLL\Headers\obfuscate.h
;	COMDAT ??__Fobfuscated_data@?1???R<lambda_1>@?1???1Client@@QEAA@XZ@QEBAAEAV?$obfuscated_data@$0L@$0?GIOGLOCGPCIABIMJ@D@ay@@XZ@YAXXZ
text$yd	SEGMENT
??__Fobfuscated_data@?1???R<lambda_1>@?1???1Client@@QEAA@XZ@QEBAAEAV?$obfuscated_data@$0L@$0?GIOGLOCGPCIABIMJ@D@ay@@XZ@YAXXZ PROC ; ``Client::~Client'::`2'::<lambda_1>::operator()'::`2'::`dynamic atexit destructor for 'obfuscated_data'', COMDAT
	mov	ecx, DWORD PTR _tls_index
	mov	rax, QWORD PTR gs:88
	mov	edx, OFFSET FLAT:?obfuscated_data@?1???R<lambda_1>@?1???1Client@@QEAA@XZ@QEBAAEAV?$obfuscated_data@$0L@$0?GIOGLOCGPCIABIMJ@D@ay@@XZ@4V34@A
	mov	rax, QWORD PTR [rax+rcx*8]

; 132  : 				m_data[i] = 0;

	mov	QWORD PTR [rax+rdx], 0
	mov	WORD PTR [rax+rdx+8], 0
	mov	BYTE PTR [rax+rdx+10], 0
	ret	0
??__Fobfuscated_data@?1???R<lambda_1>@?1???1Client@@QEAA@XZ@QEBAAEAV?$obfuscated_data@$0L@$0?GIOGLOCGPCIABIMJ@D@ay@@XZ@YAXXZ ENDP ; ``Client::~Client'::`2'::<lambda_1>::operator()'::`2'::`dynamic atexit destructor for 'obfuscated_data''
text$yd	ENDS
; Function compile flags: /Ogtpy
; File C:\Users\ethan\source\repos\DLL\DLL\Source\client.cpp
; File C:\Users\ethan\source\repos\DLL\DLL\Headers\obfuscate.h
; File C:\Users\ethan\source\repos\DLL\DLL\Source\client.cpp
; File C:\Users\ethan\source\repos\DLL\DLL\Headers\obfuscate.h
; File C:\Users\ethan\source\repos\DLL\DLL\Source\client.cpp
; File C:\Users\ethan\source\repos\DLL\DLL\Headers\obfuscate.h
; File C:\Users\ethan\source\repos\DLL\DLL\Source\client.cpp
; File C:\Users\ethan\source\repos\DLL\DLL\Headers\obfuscate.h
; File C:\Users\ethan\source\repos\DLL\DLL\Source\client.cpp
; File C:\Users\ethan\source\repos\DLL\DLL\Headers\procutils.h
; File C:\Program Files\Microsoft Visual Studio\2022\Community\VC\Tools\MSVC\14.40.33807\include\xstring
; File C:\Program Files\Microsoft Visual Studio\2022\Community\VC\Tools\MSVC\14.40.33807\include\xmemory
; File C:\Program Files\Microsoft Visual Studio\2022\Community\VC\Tools\MSVC\14.40.33807\include\xstring
; File C:\Users\ethan\source\repos\DLL\DLL\Source\client.cpp
; File C:\Users\ethan\source\repos\DLL\DLL\Headers\obfuscate.h
; File C:\Users\ethan\source\repos\DLL\DLL\Source\client.cpp
; File C:\Users\ethan\source\repos\DLL\DLL\Headers\obfuscate.h
; File C:\Users\ethan\source\repos\DLL\DLL\Source\client.cpp
; File C:\Users\ethan\source\repos\DLL\DLL\Headers\obfuscate.h
; File C:\Users\ethan\source\repos\DLL\DLL\Source\client.cpp
; File C:\Users\ethan\source\repos\DLL\DLL\Headers\obfuscate.h
; File C:\Users\ethan\source\repos\DLL\DLL\Source\client.cpp
; File C:\Users\ethan\source\repos\DLL\DLL\Headers\procutils.h
; File C:\Program Files\Microsoft Visual Studio\2022\Community\VC\Tools\MSVC\14.40.33807\include\xstring
; File C:\Program Files\Microsoft Visual Studio\2022\Community\VC\Tools\MSVC\14.40.33807\include\xmemory
; File C:\Program Files\Microsoft Visual Studio\2022\Community\VC\Tools\MSVC\14.40.33807\include\xstring
; File C:\Users\ethan\source\repos\DLL\DLL\Source\client.cpp
; File C:\Users\ethan\source\repos\DLL\DLL\Headers\obfuscate.h
; File C:\Users\ethan\source\repos\DLL\DLL\Source\client.cpp
; File C:\Users\ethan\source\repos\DLL\DLL\Headers\obfuscate.h
; File C:\Users\ethan\source\repos\DLL\DLL\Source\client.cpp
; File C:\Users\ethan\source\repos\DLL\DLL\Headers\procutils.h
; File C:\Program Files\Microsoft Visual Studio\2022\Community\VC\Tools\MSVC\14.40.33807\include\xstring
; File C:\Program Files\Microsoft Visual Studio\2022\Community\VC\Tools\MSVC\14.40.33807\include\xmemory
; File C:\Program Files\Microsoft Visual Studio\2022\Community\VC\Tools\MSVC\14.40.33807\include\xstring
; File C:\Users\ethan\source\repos\DLL\DLL\Source\client.cpp
; File C:\Users\ethan\source\repos\DLL\DLL\Headers\obfuscate.h
; File C:\Users\ethan\source\repos\DLL\DLL\Source\client.cpp
; File C:\Users\ethan\source\repos\DLL\DLL\Headers\obfuscate.h
; File C:\Users\ethan\source\repos\DLL\DLL\Source\client.cpp
; File C:\Users\ethan\source\repos\DLL\DLL\Headers\procutils.h
; File C:\Program Files\Microsoft Visual Studio\2022\Community\VC\Tools\MSVC\14.40.33807\include\xstring
; File C:\Program Files\Microsoft Visual Studio\2022\Community\VC\Tools\MSVC\14.40.33807\include\xmemory
; File C:\Program Files\Microsoft Visual Studio\2022\Community\VC\Tools\MSVC\14.40.33807\include\xstring
; File C:\Users\ethan\source\repos\DLL\DLL\Source\client.cpp
; File C:\Users\ethan\source\repos\DLL\DLL\Headers\obfuscate.h
; File C:\Users\ethan\source\repos\DLL\DLL\Source\client.cpp
; File C:\Users\ethan\source\repos\DLL\DLL\Headers\obfuscate.h
; File C:\Users\ethan\source\repos\DLL\DLL\Source\client.cpp
; File C:\Users\ethan\source\repos\DLL\DLL\Headers\procutils.h
; File C:\Program Files\Microsoft Visual Studio\2022\Community\VC\Tools\MSVC\14.40.33807\include\xstring
; File C:\Program Files\Microsoft Visual Studio\2022\Community\VC\Tools\MSVC\14.40.33807\include\xmemory
; File C:\Program Files\Microsoft Visual Studio\2022\Community\VC\Tools\MSVC\14.40.33807\include\xstring
; File C:\Users\ethan\source\repos\DLL\DLL\Source\client.cpp
; File C:\Users\ethan\source\repos\DLL\DLL\Headers\obfuscate.h
; File C:\Users\ethan\source\repos\DLL\DLL\Source\client.cpp
; File C:\Users\ethan\source\repos\DLL\DLL\Headers\obfuscate.h
; File C:\Users\ethan\source\repos\DLL\DLL\Source\client.cpp
; File C:\Users\ethan\source\repos\DLL\DLL\Headers\procutils.h
; File C:\Program Files\Microsoft Visual Studio\2022\Community\VC\Tools\MSVC\14.40.33807\include\xstring
; File C:\Program Files\Microsoft Visual Studio\2022\Community\VC\Tools\MSVC\14.40.33807\include\xmemory
; File C:\Program Files\Microsoft Visual Studio\2022\Community\VC\Tools\MSVC\14.40.33807\include\xstring
; File C:\Users\ethan\source\repos\DLL\DLL\Source\client.cpp
; File C:\Users\ethan\source\repos\DLL\DLL\Headers\obfuscate.h
; File C:\Users\ethan\source\repos\DLL\DLL\Source\client.cpp
; File C:\Users\ethan\source\repos\DLL\DLL\Headers\obfuscate.h
; File C:\Users\ethan\source\repos\DLL\DLL\Source\client.cpp
; File C:\Users\ethan\source\repos\DLL\DLL\Headers\procutils.h
; File C:\Program Files\Microsoft Visual Studio\2022\Community\VC\Tools\MSVC\14.40.33807\include\xstring
; File C:\Program Files\Microsoft Visual Studio\2022\Community\VC\Tools\MSVC\14.40.33807\include\xmemory
; File C:\Program Files\Microsoft Visual Studio\2022\Community\VC\Tools\MSVC\14.40.33807\include\xstring
; File C:\Users\ethan\source\repos\DLL\DLL\Source\client.cpp
; File C:\Users\ethan\source\repos\DLL\DLL\Headers\obfuscate.h
; File C:\Users\ethan\source\repos\DLL\DLL\Source\client.cpp
; File C:\Users\ethan\source\repos\DLL\DLL\Headers\obfuscate.h
; File C:\Users\ethan\source\repos\DLL\DLL\Source\client.cpp
; File C:\Users\ethan\source\repos\DLL\DLL\Headers\procutils.h
; File C:\Program Files\Microsoft Visual Studio\2022\Community\VC\Tools\MSVC\14.40.33807\include\xstring
; File C:\Program Files\Microsoft Visual Studio\2022\Community\VC\Tools\MSVC\14.40.33807\include\xmemory
; File C:\Program Files\Microsoft Visual Studio\2022\Community\VC\Tools\MSVC\14.40.33807\include\xstring
; File C:\Users\ethan\source\repos\DLL\DLL\Source\client.cpp
; File C:\Users\ethan\source\repos\DLL\DLL\Headers\obfuscate.h
; File C:\Users\ethan\source\repos\DLL\DLL\Source\client.cpp
; File C:\Users\ethan\source\repos\DLL\DLL\Headers\obfuscate.h
; File C:\Users\ethan\source\repos\DLL\DLL\Source\client.cpp
; File C:\Program Files\Microsoft Visual Studio\2022\Community\VC\Tools\MSVC\14.40.33807\include\xmemory
; File C:\Users\ethan\source\repos\DLL\DLL\Source\client.cpp
;	COMDAT ?LoadWSAFunctions@Client@@IEAAXXZ
_TEXT	SEGMENT
$T1 = 32
$T2 = 32
$T3 = 32
$T4 = 32
$T5 = 32
$T6 = 32
$T7 = 32
$T8 = 40
$T9 = 48
$T10 = 48
$T11 = 48
$T12 = 48
$T13 = 48
$T14 = 48
$T15 = 48
$T16 = 48
$T17 = 48
$T18 = 48
$T19 = 80
$T20 = 80
$T21 = 80
$T22 = 80
$T23 = 80
$T24 = 80
$T25 = 80
$T26 = 80
$T27 = 112
this$ = 208
?LoadWSAFunctions@Client@@IEAAXXZ PROC			; Client::LoadWSAFunctions, COMDAT

; 26   : VOID Client::LoadWSAFunctions() {

$LN805:
	mov	rax, rsp
	mov	QWORD PTR [rax+16], rbx
	mov	QWORD PTR [rax+24], rsi
	mov	QWORD PTR [rax+32], rdi
	push	rbp
	push	r12
	push	r13
	push	r14
	push	r15
	lea	rbp, QWORD PTR [rax-95]
	sub	rsp, 160				; 000000a0H
	movaps	XMMWORD PTR [rax-56], xmm6
	mov	r14, rcx

; 27   : 	if ( WSAInitialized )

	cmp	DWORD PTR [rcx+80], 0
	jne	$LN1@LoadWSAFun

; 30   : 	HMODULE WINSOCK = ProcessUtilities::GetModHandle(winsock32); // load winsock

	mov	edx, DWORD PTR _tls_index
	mov	rax, QWORD PTR gs:88
	mov	rdi, QWORD PTR [rax+rdx*8]
	mov	ecx, OFFSET FLAT:??__J?1???R<lambda_1>@?1??LoadWSAFunctions@Client@@IEAAXXZ@QEBAAEAV?$obfuscated_data@$0L@$0?DOJGCMFOPGMELMMP@D@ay@@XZ@51
	mov	eax, DWORD PTR [rcx+rdi]
	mov	ebx, OFFSET FLAT:?obfuscated_data@?1???R<lambda_1>@?1??LoadWSAFunctions@Client@@IEAAXXZ@QEBAAEAV?$obfuscated_data@$0L@$0?DOJGCMFOPGMELMMP@D@ay@@XZ@4V45@A
	add	rbx, rdi
	test	al, 1
	jne	SHORT $LN763@LoadWSAFun
	or	eax, 1
	mov	DWORD PTR [rcx+rdi], eax
; File C:\Users\ethan\source\repos\DLL\DLL\Headers\obfuscate.h

; 123  : 				m_data[i] = obfuscator.data()[i];

	mov	DWORD PTR [rbx+8], 20655965		; 013b2f5dH
	mov	DWORD PTR [rbx], 1443442790		; 56093066H
	mov	DWORD PTR [rbx+4], -1522015854		; a547e192H
; File C:\Users\ethan\source\repos\DLL\DLL\Source\client.cpp

; 30   : 	HMODULE WINSOCK = ProcessUtilities::GetModHandle(winsock32); // load winsock

	lea	rcx, OFFSET FLAT:??__Fobfuscated_data@?1???R<lambda_1>@?1??LoadWSAFunctions@Client@@IEAAXXZ@QEBAAEAV?$obfuscated_data@$0L@$0?DOJGCMFOPGMELMMP@D@ay@@XZ@YAXXZ ; ``Client::LoadWSAFunctions'::`2'::<lambda_1>::operator()'::`2'::`dynamic atexit destructor for 'obfuscated_data''
	call	__tlregdtor
	npad	1
$LN763@LoadWSAFun:
; File C:\Users\ethan\source\repos\DLL\DLL\Headers\obfuscate.h

; 147  : 			if ( m_encrypted )

	cmp	BYTE PTR [rbx+11], 0
	je	SHORT $LN27@LoadWSAFun

; 70   : 			data[i] ^= CHAR_TYPE(( key >> ( ( i % 8 ) * 8 ) ) & 0xFF);

	xor	BYTE PTR [rbx], 49			; 00000031H
	xor	BYTE PTR [rbx+1], 67			; 00000043H
	xor	BYTE PTR [rbx+2], 59			; 0000003bH
	xor	BYTE PTR [rbx+3], 9
	xor	BYTE PTR [rbx+4], -95			; ffffffffffffffa1H
	xor	BYTE PTR [rbx+5], -45			; ffffffffffffffd3H
	xor	BYTE PTR [rbx+6], 105			; 00000069H
	xor	BYTE PTR [rbx+7], -63			; ffffffffffffffc1H
	xor	BYTE PTR [rbx+8], 49			; 00000031H
	xor	BYTE PTR [rbx+9], 67			; 00000043H
	xor	BYTE PTR [rbx+10], 59			; 0000003bH

; 150  : 				m_encrypted = false;

	mov	BYTE PTR [rbx+11], 0
$LN27@LoadWSAFun:
; File C:\Users\ethan\source\repos\DLL\DLL\Source\client.cpp

; 30   : 	HMODULE WINSOCK = ProcessUtilities::GetModHandle(winsock32); // load winsock

	mov	rdx, rbx
	lea	rcx, QWORD PTR $T27[rbp-105]
	call	??0?$basic_string@DU?$char_traits@D@std@@V?$allocator@D@2@@std@@QEAA@QEBD@Z ; std::basic_string<char,std::char_traits<char>,std::allocator<char> >::basic_string<char,std::char_traits<char>,std::allocator<char> >
	mov	rcx, rax
	call	?GetModHandle@ProcessUtilities@@YAPEAUHINSTANCE__@@V?$basic_string@DU?$char_traits@D@std@@V?$allocator@D@2@@std@@@Z ; ProcessUtilities::GetModHandle
	mov	r15, rax

; 33   : 	StartWSA	  = ProcessUtilities::GetFunctionAddress<_WSAStartup>(WINSOCK, std::string(HIDE("WSAStartup")));

	mov	ecx, OFFSET FLAT:??__J?1???R<lambda_2>@?1??LoadWSAFunctions@Client@@IEAAXXZ@QEBAAEAV?$obfuscated_data@$0L@$0GPFFMNJFHLKDFJAP@D@ay@@XZ@51
	mov	eax, DWORD PTR [rcx+rdi]
	mov	edx, OFFSET FLAT:?obfuscated_data@?1???R<lambda_2>@?1??LoadWSAFunctions@Client@@IEAAXXZ@QEBAAEAV?$obfuscated_data@$0L@$0GPFFMNJFHLKDFJAP@D@ay@@XZ@4V45@A
	test	al, 1
	jne	SHORT $LN765@LoadWSAFun
	or	eax, 1
	mov	DWORD PTR [rcx+rdi], eax
	lea	rbx, QWORD PTR [rdx+rdi]
; File C:\Users\ethan\source\repos\DLL\DLL\Headers\obfuscate.h

; 123  : 				m_data[i] = obfuscator.data()[i];

	mov	DWORD PTR [rbx+8], 27470202		; 01a3297aH
	mov	DWORD PTR [rbx], 685902424		; 28e20a58H
	mov	DWORD PTR [rbx+4], 455584993		; 1b27ace1H
; File C:\Users\ethan\source\repos\DLL\DLL\Source\client.cpp

; 33   : 	StartWSA	  = ProcessUtilities::GetFunctionAddress<_WSAStartup>(WINSOCK, std::string(HIDE("WSAStartup")));

	lea	rcx, OFFSET FLAT:??__Fobfuscated_data@?1???R<lambda_2>@?1??LoadWSAFunctions@Client@@IEAAXXZ@QEBAAEAV?$obfuscated_data@$0L@$0GPFFMNJFHLKDFJAP@D@ay@@XZ@YAXXZ ; ``Client::LoadWSAFunctions'::`2'::<lambda_2>::operator()'::`2'::`dynamic atexit destructor for 'obfuscated_data''
	call	__tlregdtor
	npad	1
	jmp	SHORT $LN35@LoadWSAFun
$LN765@LoadWSAFun:
	lea	rbx, QWORD PTR [rdx+rdi]
$LN35@LoadWSAFun:
; File C:\Users\ethan\source\repos\DLL\DLL\Headers\obfuscate.h

; 147  : 			if ( m_encrypted )

	cmp	BYTE PTR [rbx+11], 0
	je	SHORT $LN46@LoadWSAFun

; 70   : 			data[i] ^= CHAR_TYPE(( key >> ( ( i % 8 ) * 8 ) ) & 0xFF);

	xor	BYTE PTR [rbx], 15
	xor	BYTE PTR [rbx+1], 89			; 00000059H
	xor	BYTE PTR [rbx+2], -93			; ffffffffffffffa3H
	xor	BYTE PTR [rbx+3], 123			; 0000007bH
	xor	BYTE PTR [rbx+4], -107			; ffffffffffffff95H
	xor	BYTE PTR [rbx+5], -51			; ffffffffffffffcdH
	xor	BYTE PTR [rbx+6], 85			; 00000055H
	xor	BYTE PTR [rbx+7], 111			; 0000006fH
	xor	BYTE PTR [rbx+8], 15
	xor	BYTE PTR [rbx+9], 89			; 00000059H
	xor	BYTE PTR [rbx+10], -93			; ffffffffffffffa3H

; 150  : 				m_encrypted = false;

	mov	BYTE PTR [rbx+11], 0
$LN46@LoadWSAFun:
; File C:\Users\ethan\source\repos\DLL\DLL\Source\client.cpp

; 33   : 	StartWSA	  = ProcessUtilities::GetFunctionAddress<_WSAStartup>(WINSOCK, std::string(HIDE("WSAStartup")));

	mov	rdx, rbx
	lea	rcx, QWORD PTR $T26[rbp-105]
	call	??0?$basic_string@DU?$char_traits@D@std@@V?$allocator@D@2@@std@@QEAA@QEBD@Z ; std::basic_string<char,std::char_traits<char>,std::allocator<char> >::basic_string<char,std::char_traits<char>,std::allocator<char> >
	mov	rbx, rax
	mov	QWORD PTR $T8[rbp-105], rax
; File C:\Users\ethan\source\repos\DLL\DLL\Headers\procutils.h

; 69   : 		return reinterpret_cast< fpType >( _GetFuncAddress(lib, proc) );

	mov	rdx, rax
	lea	rcx, QWORD PTR $T9[rbp-105]
	call	??0?$basic_string@DU?$char_traits@D@std@@V?$allocator@D@2@@std@@QEAA@AEBV01@@Z ; std::basic_string<char,std::char_traits<char>,std::allocator<char> >::basic_string<char,std::char_traits<char>,std::allocator<char> >
	mov	rdx, rax
	mov	rcx, r15
	call	?_GetFuncAddress@ProcessUtilities@@YAP6A_JXZPEAUHINSTANCE__@@V?$basic_string@DU?$char_traits@D@std@@V?$allocator@D@2@@std@@@Z ; ProcessUtilities::_GetFuncAddress
	mov	r12, rax
; File C:\Program Files\Microsoft Visual Studio\2022\Community\VC\Tools\MSVC\14.40.33807\include\xstring

; 2244 :         return _Myres > _Small_string_capacity;

	mov	rdx, QWORD PTR [rbx+24]
	cmp	rdx, 15

; 4868 :         if (_My_data._Large_mode_engaged()) {

	jbe	SHORT $LN74@LoadWSAFun

; 4869 :             _ASAN_STRING_REMOVE(*this);
; 4870 :             auto& _Al = _Getal();
; 4871 :             _Deallocate_for_capacity(_Al, _My_data._Bx._Ptr, _My_data._Myres);

	mov	rcx, QWORD PTR [rbx]

; 2643 :         _Al.deallocate(_Old_ptr, _Capacity + 1); // +1 for null terminator

	inc	rdx
; File C:\Program Files\Microsoft Visual Studio\2022\Community\VC\Tools\MSVC\14.40.33807\include\xmemory

; 253  :         if (_Bytes >= _Big_allocation_threshold) {

	cmp	rdx, 4096				; 00001000H
	jb	SHORT $LN88@LoadWSAFun

; 171  :     _Bytes += _Non_user_size;

	add	rdx, 39					; 00000027H

; 172  : 
; 173  :     const uintptr_t* const _Ptr_user = static_cast<uintptr_t*>(_Ptr);
; 174  :     const uintptr_t _Ptr_container   = _Ptr_user[-1];

	mov	r8, QWORD PTR [rcx-8]

; 175  : 
; 176  :     // If the following asserts, it likely means that we are performing
; 177  :     // an aligned delete on memory coming from an unaligned allocation.
; 178  :     _STL_ASSERT(_Ptr_user[-2] == _Big_allocation_sentinel, "invalid argument");
; 179  : 
; 180  :     // Extra paranoia on aligned allocation/deallocation; ensure _Ptr_container is
; 181  :     // in range [_Min_back_shift, _Non_user_size]
; 182  : #ifdef _DEBUG
; 183  :     constexpr uintptr_t _Min_back_shift = 2 * sizeof(void*);
; 184  : #else // ^^^ defined(_DEBUG) / !defined(_DEBUG) vvv
; 185  :     constexpr uintptr_t _Min_back_shift = sizeof(void*);
; 186  : #endif // ^^^ !defined(_DEBUG) ^^^
; 187  :     const uintptr_t _Back_shift = reinterpret_cast<uintptr_t>(_Ptr) - _Ptr_container;

	sub	rcx, r8

; 188  :     _STL_VERIFY(_Back_shift >= _Min_back_shift && _Back_shift <= _Non_user_size, "invalid argument");

	lea	rax, QWORD PTR [rcx-8]
	cmp	rax, 31
	ja	$LN85@LoadWSAFun

; 189  :     _Ptr = reinterpret_cast<void*>(_Ptr_container);

	mov	rcx, r8
$LN88@LoadWSAFun:

; 258  :         ::operator delete(_Ptr, _Bytes);

	call	??3@YAXPEAX_K@Z				; operator delete
$LN74@LoadWSAFun:
; File C:\Program Files\Microsoft Visual Studio\2022\Community\VC\Tools\MSVC\14.40.33807\include\xstring

; 4875 :         _My_data._Mysize = 0;

	xor	esi, esi
	mov	QWORD PTR [rbx+16], rsi

; 4876 :         _My_data._Myres  = _Small_string_capacity;

	mov	QWORD PTR [rbx+24], 15

; 4877 :         // the _Traits::assign is last so the codegen doesn't think the char write can alias this
; 4878 :         _Traits::assign(_My_data._Bx._Buf[0], _Elem());

	mov	BYTE PTR [rbx], sil
; File C:\Users\ethan\source\repos\DLL\DLL\Source\client.cpp

; 33   : 	StartWSA	  = ProcessUtilities::GetFunctionAddress<_WSAStartup>(WINSOCK, std::string(HIDE("WSAStartup")));

	mov	QWORD PTR [r14+8], r12

; 34   : 	BindSocket    = ProcessUtilities::GetFunctionAddress<_bind>(WINSOCK, std::string(HIDE("bind")));

	mov	ecx, OFFSET FLAT:??__J?1???R<lambda_3>@?1??LoadWSAFunctions@Client@@IEAAXXZ@QEBAAEAV?$obfuscated_data@$04$0?BMGONCACNKPGIEIF@D@ay@@XZ@51
	mov	eax, DWORD PTR [rcx+rdi]
	mov	edx, OFFSET FLAT:?obfuscated_data@?1???R<lambda_3>@?1??LoadWSAFunctions@Client@@IEAAXXZ@QEBAAEAV?$obfuscated_data@$04$0?BMGONCACNKPGIEIF@D@ay@@XZ@4V45@A
	test	al, 1
	jne	SHORT $LN767@LoadWSAFun
	or	eax, 1
	mov	DWORD PTR [rcx+rdi], eax
	lea	rbx, QWORD PTR [rdi+rdx]
; File C:\Users\ethan\source\repos\DLL\DLL\Headers\obfuscate.h

; 123  : 				m_data[i] = obfuscator.data()[i];

	mov	DWORD PTR [rbx+2], 33374567		; 01fd4167H
	mov	WORD PTR [rbx], 4633			; 00001219H
; File C:\Users\ethan\source\repos\DLL\DLL\Source\client.cpp

; 34   : 	BindSocket    = ProcessUtilities::GetFunctionAddress<_bind>(WINSOCK, std::string(HIDE("bind")));

	lea	rcx, OFFSET FLAT:??__Fobfuscated_data@?1???R<lambda_3>@?1??LoadWSAFunctions@Client@@IEAAXXZ@QEBAAEAV?$obfuscated_data@$04$0?BMGONCACNKPGIEIF@D@ay@@XZ@YAXXZ ; ``Client::LoadWSAFunctions'::`2'::<lambda_3>::operator()'::`2'::`dynamic atexit destructor for 'obfuscated_data''
	call	__tlregdtor
	npad	1
	jmp	SHORT $LN97@LoadWSAFun
$LN767@LoadWSAFun:
	lea	rbx, QWORD PTR [rdi+rdx]
$LN97@LoadWSAFun:
; File C:\Users\ethan\source\repos\DLL\DLL\Headers\obfuscate.h

; 147  : 			if ( m_encrypted )

	cmp	BYTE PTR [rbx+5], 0
	je	SHORT $LN108@LoadWSAFun

; 70   : 			data[i] ^= CHAR_TYPE(( key >> ( ( i % 8 ) * 8 ) ) & 0xFF);

	xor	BYTE PTR [rbx], 123			; 0000007bH
	xor	BYTE PTR [rbx+1], 123			; 0000007bH
	xor	BYTE PTR [rbx+2], 9
	xor	BYTE PTR [rbx+3], 37			; 00000025H
	xor	BYTE PTR [rbx+4], -3

; 150  : 				m_encrypted = false;

	mov	BYTE PTR [rbx+5], 0
$LN108@LoadWSAFun:
; File C:\Users\ethan\source\repos\DLL\DLL\Source\client.cpp

; 34   : 	BindSocket    = ProcessUtilities::GetFunctionAddress<_bind>(WINSOCK, std::string(HIDE("bind")));

	mov	rdx, rbx
	lea	rcx, QWORD PTR $T18[rbp-105]
	call	??0?$basic_string@DU?$char_traits@D@std@@V?$allocator@D@2@@std@@QEAA@QEBD@Z ; std::basic_string<char,std::char_traits<char>,std::allocator<char> >::basic_string<char,std::char_traits<char>,std::allocator<char> >
	mov	rdx, rax
	mov	rcx, r15
	call	??$GetFunctionAddress@P6AH_KPEBUsockaddr@@H@Z@ProcessUtilities@@YAP6AH_KPEBUsockaddr@@H@ZPEAUHINSTANCE__@@V?$basic_string@DU?$char_traits@D@std@@V?$allocator@D@2@@std@@@Z ; ProcessUtilities::GetFunctionAddress<int (__cdecl*)(unsigned __int64,sockaddr const *,int)>
	mov	QWORD PTR [r14+32], rax

; 35   : 	CloseSocket   = ProcessUtilities::GetFunctionAddress<_closesocket>(WINSOCK, std::string(HIDE("closesocket")));

	mov	ecx, OFFSET FLAT:??__J?1???R<lambda_4>@?1??LoadWSAFunctions@Client@@IEAAXXZ@QEBAAEAV?$obfuscated_data@$0M@$0FHPLCBONHLGFABKJ@D@ay@@XZ@51
	mov	eax, DWORD PTR [rcx+rdi]
	mov	edx, OFFSET FLAT:?obfuscated_data@?1???R<lambda_4>@?1??LoadWSAFunctions@Client@@IEAAXXZ@QEBAAEAV?$obfuscated_data@$0M@$0FHPLCBONHLGFABKJ@D@ay@@XZ@4V45@A
	test	al, 1
	jne	SHORT $LN769@LoadWSAFun
	or	eax, 1
	mov	DWORD PTR [rcx+rdi], eax
	lea	rbx, QWORD PTR [rdi+rdx]
; File C:\Users\ethan\source\repos\DLL\DLL\Headers\obfuscate.h

; 123  : 				m_data[i] = obfuscator.data()[i];

	mov	WORD PTR [rbx+11], 379			; 0000017bH
	mov	DWORD PTR [rbx], 134901194		; 080a6dcaH
	mov	DWORD PTR [rbx+4], 882135688		; 34945288H
	mov	WORD PTR [rbx+8], 25794			; 000064c2H
	mov	BYTE PTR [rbx+10], 17
; File C:\Users\ethan\source\repos\DLL\DLL\Source\client.cpp

; 35   : 	CloseSocket   = ProcessUtilities::GetFunctionAddress<_closesocket>(WINSOCK, std::string(HIDE("closesocket")));

	lea	rcx, OFFSET FLAT:??__Fobfuscated_data@?1???R<lambda_4>@?1??LoadWSAFunctions@Client@@IEAAXXZ@QEBAAEAV?$obfuscated_data@$0M@$0FHPLCBONHLGFABKJ@D@ay@@XZ@YAXXZ ; ``Client::LoadWSAFunctions'::`2'::<lambda_4>::operator()'::`2'::`dynamic atexit destructor for 'obfuscated_data''
	call	__tlregdtor
	npad	1
	jmp	SHORT $LN116@LoadWSAFun
$LN769@LoadWSAFun:
	lea	rbx, QWORD PTR [rdi+rdx]
$LN116@LoadWSAFun:
; File C:\Users\ethan\source\repos\DLL\DLL\Headers\obfuscate.h

; 147  : 			if ( m_encrypted )

	mov	r13d, DWORD PTR __isa_available
	movdqa	xmm6, XMMWORD PTR __xmm@00000000000008000000000000000800
	cmp	BYTE PTR [rbx+12], 0
	je	$LN127@LoadWSAFun

; 148  : 			{
; 149  : 				cipher(m_data, N, KEY);

	mov	rdx, rsi
	cmp	r13d, 5
	jl	$LN800@LoadWSAFun

; 70   : 			data[i] ^= CHAR_TYPE(( key >> ( ( i % 8 ) * 8 ) ) & 0xFF);

	movdqa	xmm2, XMMWORD PTR __xmm@57fb21ed7b6501a957fb21ed7b6501a9
	movdqa	xmm0, XMMWORD PTR __xmm@00000000000000010000000000000000
	psllq	xmm0, 3
	vpsrlvq	xmm1, xmm2, xmm0
	pshufb	xmm1, xmm6
	movzx	eax, WORD PTR [rbx]
	movd	xmm0, eax
	xorps	xmm1, xmm0
	movd	eax, xmm1
	mov	WORD PTR [rbx], ax
	movdqa	xmm0, XMMWORD PTR __xmm@00000000000000030000000000000002
	psllq	xmm0, 3
	vpsrlvq	xmm1, xmm2, xmm0
	pshufb	xmm1, xmm6
	movzx	eax, WORD PTR [rbx+2]
	movd	xmm0, eax
	xorps	xmm1, xmm0
	movd	eax, xmm1
	mov	WORD PTR [rbx+2], ax
	movdqa	xmm0, XMMWORD PTR __xmm@00000000000000050000000000000004
	psllq	xmm0, 3
	vpsrlvq	xmm1, xmm2, xmm0
	pshufb	xmm1, xmm6
	movzx	eax, WORD PTR [rbx+4]
	movd	xmm0, eax
	xorps	xmm1, xmm0
	movd	eax, xmm1
	mov	WORD PTR [rbx+4], ax
	movdqa	xmm0, XMMWORD PTR __xmm@00000000000000070000000000000006
	psllq	xmm0, 3
	vpsrlvq	xmm1, xmm2, xmm0
	pshufb	xmm1, xmm6
	movzx	eax, WORD PTR [rbx+6]
	movd	xmm0, eax
	xorps	xmm1, xmm0
	movd	eax, xmm1
	mov	WORD PTR [rbx+6], ax

; 68   : 		for ( size_type i = 0; i < size; i++ )

	mov	edx, 8
$LN800@LoadWSAFun:
	mov	r9, 6339698204315287977			; 57fb21ed7b6501a9H
$LL798@LoadWSAFun:

; 69   : 		{
; 70   : 			data[i] ^= CHAR_TYPE(( key >> ( ( i % 8 ) * 8 ) ) & 0xFF);

	movzx	ecx, dl
	and	cl, 7
	shl	cl, 3
	mov	r8, r9
	shr	r8, cl
	xor	BYTE PTR [rbx+rdx], r8b

; 68   : 		for ( size_type i = 0; i < size; i++ )

	inc	rdx
	cmp	rdx, 12
	jb	SHORT $LL798@LoadWSAFun

; 150  : 				m_encrypted = false;

	mov	BYTE PTR [rbx+12], 0
$LN127@LoadWSAFun:
; File C:\Users\ethan\source\repos\DLL\DLL\Source\client.cpp

; 35   : 	CloseSocket   = ProcessUtilities::GetFunctionAddress<_closesocket>(WINSOCK, std::string(HIDE("closesocket")));

	mov	rdx, rbx
	lea	rcx, QWORD PTR $T17[rbp-105]
	call	??0?$basic_string@DU?$char_traits@D@std@@V?$allocator@D@2@@std@@QEAA@QEBD@Z ; std::basic_string<char,std::char_traits<char>,std::allocator<char> >::basic_string<char,std::char_traits<char>,std::allocator<char> >
	mov	rbx, rax
	mov	QWORD PTR $T7[rbp-105], rax
; File C:\Users\ethan\source\repos\DLL\DLL\Headers\procutils.h

; 69   : 		return reinterpret_cast< fpType >( _GetFuncAddress(lib, proc) );

	mov	rdx, rax
	lea	rcx, QWORD PTR $T25[rbp-105]
	call	??0?$basic_string@DU?$char_traits@D@std@@V?$allocator@D@2@@std@@QEAA@AEBV01@@Z ; std::basic_string<char,std::char_traits<char>,std::allocator<char> >::basic_string<char,std::char_traits<char>,std::allocator<char> >
	mov	rdx, rax
	mov	rcx, r15
	call	?_GetFuncAddress@ProcessUtilities@@YAP6A_JXZPEAUHINSTANCE__@@V?$basic_string@DU?$char_traits@D@std@@V?$allocator@D@2@@std@@@Z ; ProcessUtilities::_GetFuncAddress
	mov	r12, rax
; File C:\Program Files\Microsoft Visual Studio\2022\Community\VC\Tools\MSVC\14.40.33807\include\xstring

; 2244 :         return _Myres > _Small_string_capacity;

	mov	rdx, QWORD PTR [rbx+24]
	cmp	rdx, 15

; 4868 :         if (_My_data._Large_mode_engaged()) {

	jbe	SHORT $LN155@LoadWSAFun

; 4869 :             _ASAN_STRING_REMOVE(*this);
; 4870 :             auto& _Al = _Getal();
; 4871 :             _Deallocate_for_capacity(_Al, _My_data._Bx._Ptr, _My_data._Myres);

	mov	rcx, QWORD PTR [rbx]

; 2643 :         _Al.deallocate(_Old_ptr, _Capacity + 1); // +1 for null terminator

	inc	rdx
; File C:\Program Files\Microsoft Visual Studio\2022\Community\VC\Tools\MSVC\14.40.33807\include\xmemory

; 253  :         if (_Bytes >= _Big_allocation_threshold) {

	cmp	rdx, 4096				; 00001000H
	jb	SHORT $LN169@LoadWSAFun

; 171  :     _Bytes += _Non_user_size;

	add	rdx, 39					; 00000027H

; 172  : 
; 173  :     const uintptr_t* const _Ptr_user = static_cast<uintptr_t*>(_Ptr);
; 174  :     const uintptr_t _Ptr_container   = _Ptr_user[-1];

	mov	r8, QWORD PTR [rcx-8]

; 175  : 
; 176  :     // If the following asserts, it likely means that we are performing
; 177  :     // an aligned delete on memory coming from an unaligned allocation.
; 178  :     _STL_ASSERT(_Ptr_user[-2] == _Big_allocation_sentinel, "invalid argument");
; 179  : 
; 180  :     // Extra paranoia on aligned allocation/deallocation; ensure _Ptr_container is
; 181  :     // in range [_Min_back_shift, _Non_user_size]
; 182  : #ifdef _DEBUG
; 183  :     constexpr uintptr_t _Min_back_shift = 2 * sizeof(void*);
; 184  : #else // ^^^ defined(_DEBUG) / !defined(_DEBUG) vvv
; 185  :     constexpr uintptr_t _Min_back_shift = sizeof(void*);
; 186  : #endif // ^^^ !defined(_DEBUG) ^^^
; 187  :     const uintptr_t _Back_shift = reinterpret_cast<uintptr_t>(_Ptr) - _Ptr_container;

	sub	rcx, r8

; 188  :     _STL_VERIFY(_Back_shift >= _Min_back_shift && _Back_shift <= _Non_user_size, "invalid argument");

	lea	rax, QWORD PTR [rcx-8]
	cmp	rax, 31
	ja	$LN166@LoadWSAFun

; 189  :     _Ptr = reinterpret_cast<void*>(_Ptr_container);

	mov	rcx, r8
$LN169@LoadWSAFun:

; 258  :         ::operator delete(_Ptr, _Bytes);

	call	??3@YAXPEAX_K@Z				; operator delete
$LN155@LoadWSAFun:
; File C:\Program Files\Microsoft Visual Studio\2022\Community\VC\Tools\MSVC\14.40.33807\include\xstring

; 4875 :         _My_data._Mysize = 0;

	mov	QWORD PTR [rbx+16], rsi

; 4876 :         _My_data._Myres  = _Small_string_capacity;

	mov	QWORD PTR [rbx+24], 15

; 4877 :         // the _Traits::assign is last so the codegen doesn't think the char write can alias this
; 4878 :         _Traits::assign(_My_data._Bx._Buf[0], _Elem());

	mov	BYTE PTR [rbx], 0
; File C:\Users\ethan\source\repos\DLL\DLL\Source\client.cpp

