; Listing generated by Microsoft (R) Optimizing Compiler Version 19.40.33811.0 

include listing.inc

INCLUDELIB OLDNAMES

PUBLIC	??_C@_0BC@EOODALEL@Unknown?5exception@		; `string'
PUBLIC	??_C@_0BF@KINCDENJ@bad?5array?5new?5length@	; `string'
PUBLIC	??_C@_0BA@JFNIOLAK@string?5too?5long@		; `string'
PUBLIC	??_C@_0BA@FOIKENOD@vector?5too?5long@		; `string'
PUBLIC	??_R4exception@std@@6B@				; std::exception::`RTTI Complete Object Locator'
PUBLIC	??_R2bad_array_new_length@std@@8		; std::bad_array_new_length::`RTTI Base Class Array'
PUBLIC	??_R0?AVbad_alloc@std@@@8			; std::bad_alloc `RTTI Type Descriptor'
PUBLIC	?ConnectSocket@@3P6AH_KPEBUsockaddr@@H@ZEA	; ConnectSocket
PUBLIC	??_R2bad_alloc@std@@8				; std::bad_alloc::`RTTI Base Class Array'
PUBLIC	_CTA3?AVbad_array_new_length@std@@
PUBLIC	??_7bad_array_new_length@std@@6B@		; std::bad_array_new_length::`vftable'
PUBLIC	??_R1A@?0A@EA@exception@std@@8			; std::exception::`RTTI Base Class Descriptor at (0,-1,0,64)'
PUBLIC	?CleanWSA@@3P6AHXZEA				; CleanWSA
PUBLIC	??_R1A@?0A@EA@bad_alloc@std@@8			; std::bad_alloc::`RTTI Base Class Descriptor at (0,-1,0,64)'
PUBLIC	?CreateSocket@@3P6A_KHHH@ZEA			; CreateSocket
PUBLIC	??_7bad_alloc@std@@6B@				; std::bad_alloc::`vftable'
PUBLIC	??_R2exception@std@@8				; std::exception::`RTTI Base Class Array'
PUBLIC	?ReceiveFrom@@3P6AH_KPEADHHPEAUsockaddr@@PEAH@ZEA ; ReceiveFrom
PUBLIC	??_7exception@std@@6B@				; std::exception::`vftable'
PUBLIC	??_R3exception@std@@8				; std::exception::`RTTI Class Hierarchy Descriptor'
PUBLIC	_CT??_R0?AVbad_array_new_length@std@@@8??0bad_array_new_length@std@@QEAA@AEBV01@@Z24
PUBLIC	?Send@@3P6AH_KPEBDHH@ZEA			; Send
PUBLIC	?_Fake_alloc@std@@3U_Fake_allocator@1@B		; std::_Fake_alloc
PUBLIC	??_R4bad_alloc@std@@6B@				; std::bad_alloc::`RTTI Complete Object Locator'
PUBLIC	??_R3bad_array_new_length@std@@8		; std::bad_array_new_length::`RTTI Class Hierarchy Descriptor'
PUBLIC	_CT??_R0?AVbad_alloc@std@@@8??0bad_alloc@std@@QEAA@AEBV01@@Z24
PUBLIC	??_R3bad_alloc@std@@8				; std::bad_alloc::`RTTI Class Hierarchy Descriptor'
PUBLIC	??_R4bad_array_new_length@std@@6B@		; std::bad_array_new_length::`RTTI Complete Object Locator'
PUBLIC	?CloseSocket@@3P6AH_K@ZEA			; CloseSocket
PUBLIC	?SendTo@@3P6AH_KPEBDHHPEBUsockaddr@@H@ZEA	; SendTo
PUBLIC	??_R1A@?0A@EA@bad_array_new_length@std@@8	; std::bad_array_new_length::`RTTI Base Class Descriptor at (0,-1,0,64)'
PUBLIC	_CT??_R0?AVexception@std@@@8??0exception@std@@QEAA@AEBV01@@Z24
PUBLIC	_TI3?AVbad_array_new_length@std@@
PUBLIC	??_R0?AVexception@std@@@8			; std::exception `RTTI Type Descriptor'
PUBLIC	??_R0?AVbad_array_new_length@std@@@8		; std::bad_array_new_length `RTTI Type Descriptor'
EXTRN	__tlregdtor:PROC
EXTRN	_invalid_parameter_noinfo_noreturn:PROC
EXTRN	??_7type_info@@6B@:BYTE				; type_info::`vftable'
EXTRN	__std_terminate:PROC
EXTRN	??3@YAXPEAX_K@Z:PROC				; operator delete
EXTRN	??3@YAXPEAX@Z:PROC				; operator delete
EXTRN	atexit:PROC
EXTRN	__std_exception_copy:PROC
EXTRN	?_Xlength_error@std@@YAXPEBD@Z:PROC		; std::_Xlength_error
EXTRN	??2@YAPEAX_K@Z:PROC				; operator new
EXTRN	__std_exception_destroy:PROC
EXTRN	__security_check_cookie:PROC
EXTRN	__CxxFrameHandler4:PROC
;	COMDAT ?ConnectSocket@@3P6AH_KPEBUsockaddr@@H@ZEA
_BSS	SEGMENT
?ConnectSocket@@3P6AH_KPEBUsockaddr@@H@ZEA DQ 01H DUP (?) ; ConnectSocket
_BSS	ENDS
;	COMDAT ?CleanWSA@@3P6AHXZEA
_BSS	SEGMENT
?CleanWSA@@3P6AHXZEA DQ 01H DUP (?)			; CleanWSA
_BSS	ENDS
;	COMDAT ?CreateSocket@@3P6A_KHHH@ZEA
_BSS	SEGMENT
?CreateSocket@@3P6A_KHHH@ZEA DQ 01H DUP (?)		; CreateSocket
_BSS	ENDS
;	COMDAT ?ReceiveFrom@@3P6AH_KPEADHHPEAUsockaddr@@PEAH@ZEA
_BSS	SEGMENT
?ReceiveFrom@@3P6AH_KPEADHHPEAUsockaddr@@PEAH@ZEA DQ 01H DUP (?) ; ReceiveFrom
_BSS	ENDS
;	COMDAT ?Send@@3P6AH_KPEBDHH@ZEA
_BSS	SEGMENT
?Send@@3P6AH_KPEBDHH@ZEA DQ 01H DUP (?)			; Send
_BSS	ENDS
;	COMDAT ?CloseSocket@@3P6AH_K@ZEA
_BSS	SEGMENT
?CloseSocket@@3P6AH_K@ZEA DQ 01H DUP (?)		; CloseSocket
_BSS	ENDS
;	COMDAT ?SendTo@@3P6AH_KPEBDHHPEBUsockaddr@@H@ZEA
_BSS	SEGMENT
?SendTo@@3P6AH_KPEBDHHPEBUsockaddr@@H@ZEA DQ 01H DUP (?) ; SendTo
_BSS	ENDS
;	COMDAT ??_R0?AVbad_array_new_length@std@@@8
data$r	SEGMENT
??_R0?AVbad_array_new_length@std@@@8 DQ FLAT:??_7type_info@@6B@ ; std::bad_array_new_length `RTTI Type Descriptor'
	DQ	0000000000000000H
	DB	'.?AVbad_array_new_length@std@@', 00H
data$r	ENDS
;	COMDAT ??_R0?AVexception@std@@@8
data$r	SEGMENT
??_R0?AVexception@std@@@8 DQ FLAT:??_7type_info@@6B@	; std::exception `RTTI Type Descriptor'
	DQ	0000000000000000H
	DB	'.?AVexception@std@@', 00H
data$r	ENDS
;	COMDAT _TI3?AVbad_array_new_length@std@@
xdata$x	SEGMENT
_TI3?AVbad_array_new_length@std@@ DD 00H
	DD	imagerel ??1bad_array_new_length@std@@UEAA@XZ
	DD	00H
	DD	imagerel _CTA3?AVbad_array_new_length@std@@
xdata$x	ENDS
;	COMDAT _CT??_R0?AVexception@std@@@8??0exception@std@@QEAA@AEBV01@@Z24
xdata$x	SEGMENT
_CT??_R0?AVexception@std@@@8??0exception@std@@QEAA@AEBV01@@Z24 DD 00H
	DD	imagerel ??_R0?AVexception@std@@@8
	DD	00H
	DD	0ffffffffH
	ORG $+4
	DD	018H
	DD	imagerel ??0exception@std@@QEAA@AEBV01@@Z
xdata$x	ENDS
;	COMDAT ??_R1A@?0A@EA@bad_array_new_length@std@@8
rdata$r	SEGMENT
??_R1A@?0A@EA@bad_array_new_length@std@@8 DD imagerel ??_R0?AVbad_array_new_length@std@@@8 ; std::bad_array_new_length::`RTTI Base Class Descriptor at (0,-1,0,64)'
	DD	02H
	DD	00H
	DD	0ffffffffH
	DD	00H
	DD	040H
	DD	imagerel ??_R3bad_array_new_length@std@@8
rdata$r	ENDS
;	COMDAT ??_R4bad_array_new_length@std@@6B@
rdata$r	SEGMENT
??_R4bad_array_new_length@std@@6B@ DD 01H		; std::bad_array_new_length::`RTTI Complete Object Locator'
	DD	00H
	DD	00H
	DD	imagerel ??_R0?AVbad_array_new_length@std@@@8
	DD	imagerel ??_R3bad_array_new_length@std@@8
	DD	imagerel ??_R4bad_array_new_length@std@@6B@
rdata$r	ENDS
;	COMDAT ??_R3bad_alloc@std@@8
rdata$r	SEGMENT
??_R3bad_alloc@std@@8 DD 00H				; std::bad_alloc::`RTTI Class Hierarchy Descriptor'
	DD	00H
	DD	02H
	DD	imagerel ??_R2bad_alloc@std@@8
rdata$r	ENDS
;	COMDAT _CT??_R0?AVbad_alloc@std@@@8??0bad_alloc@std@@QEAA@AEBV01@@Z24
xdata$x	SEGMENT
_CT??_R0?AVbad_alloc@std@@@8??0bad_alloc@std@@QEAA@AEBV01@@Z24 DD 010H
	DD	imagerel ??_R0?AVbad_alloc@std@@@8
	DD	00H
	DD	0ffffffffH
	ORG $+4
	DD	018H
	DD	imagerel ??0bad_alloc@std@@QEAA@AEBV01@@Z
xdata$x	ENDS
;	COMDAT ??_R3bad_array_new_length@std@@8
rdata$r	SEGMENT
??_R3bad_array_new_length@std@@8 DD 00H			; std::bad_array_new_length::`RTTI Class Hierarchy Descriptor'
	DD	00H
	DD	03H
	DD	imagerel ??_R2bad_array_new_length@std@@8
rdata$r	ENDS
;	COMDAT ??_R4bad_alloc@std@@6B@
rdata$r	SEGMENT
??_R4bad_alloc@std@@6B@ DD 01H				; std::bad_alloc::`RTTI Complete Object Locator'
	DD	00H
	DD	00H
	DD	imagerel ??_R0?AVbad_alloc@std@@@8
	DD	imagerel ??_R3bad_alloc@std@@8
	DD	imagerel ??_R4bad_alloc@std@@6B@
rdata$r	ENDS
;	COMDAT ?_Fake_alloc@std@@3U_Fake_allocator@1@B
CONST	SEGMENT
?_Fake_alloc@std@@3U_Fake_allocator@1@B	ORG $+1		; std::_Fake_alloc
CONST	ENDS
;	COMDAT _CT??_R0?AVbad_array_new_length@std@@@8??0bad_array_new_length@std@@QEAA@AEBV01@@Z24
xdata$x	SEGMENT
_CT??_R0?AVbad_array_new_length@std@@@8??0bad_array_new_length@std@@QEAA@AEBV01@@Z24 DD 00H
	DD	imagerel ??_R0?AVbad_array_new_length@std@@@8
	DD	00H
	DD	0ffffffffH
	ORG $+4
	DD	018H
	DD	imagerel ??0bad_array_new_length@std@@QEAA@AEBV01@@Z
xdata$x	ENDS
;	COMDAT ??_R3exception@std@@8
rdata$r	SEGMENT
??_R3exception@std@@8 DD 00H				; std::exception::`RTTI Class Hierarchy Descriptor'
	DD	00H
	DD	01H
	DD	imagerel ??_R2exception@std@@8
rdata$r	ENDS
;	COMDAT ??_7exception@std@@6B@
CONST	SEGMENT
??_7exception@std@@6B@ DQ FLAT:??_R4exception@std@@6B@	; std::exception::`vftable'
	DQ	FLAT:??_Eexception@std@@UEAAPEAXI@Z
	DQ	FLAT:?what@exception@std@@UEBAPEBDXZ
CONST	ENDS
;	COMDAT ??_R2exception@std@@8
rdata$r	SEGMENT
??_R2exception@std@@8 DD imagerel ??_R1A@?0A@EA@exception@std@@8 ; std::exception::`RTTI Base Class Array'
	ORG $+3
rdata$r	ENDS
;	COMDAT ??_7bad_alloc@std@@6B@
CONST	SEGMENT
??_7bad_alloc@std@@6B@ DQ FLAT:??_R4bad_alloc@std@@6B@	; std::bad_alloc::`vftable'
	DQ	FLAT:??_Ebad_alloc@std@@UEAAPEAXI@Z
	DQ	FLAT:?what@exception@std@@UEBAPEBDXZ
CONST	ENDS
;	COMDAT ??_R1A@?0A@EA@bad_alloc@std@@8
rdata$r	SEGMENT
??_R1A@?0A@EA@bad_alloc@std@@8 DD imagerel ??_R0?AVbad_alloc@std@@@8 ; std::bad_alloc::`RTTI Base Class Descriptor at (0,-1,0,64)'
	DD	01H
	DD	00H
	DD	0ffffffffH
	DD	00H
	DD	040H
	DD	imagerel ??_R3bad_alloc@std@@8
rdata$r	ENDS
;	COMDAT ??_R1A@?0A@EA@exception@std@@8
rdata$r	SEGMENT
??_R1A@?0A@EA@exception@std@@8 DD imagerel ??_R0?AVexception@std@@@8 ; std::exception::`RTTI Base Class Descriptor at (0,-1,0,64)'
	DD	00H
	DD	00H
	DD	0ffffffffH
	DD	00H
	DD	040H
	DD	imagerel ??_R3exception@std@@8
rdata$r	ENDS
;	COMDAT ??_7bad_array_new_length@std@@6B@
CONST	SEGMENT
??_7bad_array_new_length@std@@6B@ DQ FLAT:??_R4bad_array_new_length@std@@6B@ ; std::bad_array_new_length::`vftable'
	DQ	FLAT:??_Ebad_array_new_length@std@@UEAAPEAXI@Z
	DQ	FLAT:?what@exception@std@@UEBAPEBDXZ
CONST	ENDS
;	COMDAT _CTA3?AVbad_array_new_length@std@@
xdata$x	SEGMENT
_CTA3?AVbad_array_new_length@std@@ DD 03H
	DD	imagerel _CT??_R0?AVbad_array_new_length@std@@@8??0bad_array_new_length@std@@QEAA@AEBV01@@Z24
	DD	imagerel _CT??_R0?AVbad_alloc@std@@@8??0bad_alloc@std@@QEAA@AEBV01@@Z24
	DD	imagerel _CT??_R0?AVexception@std@@@8??0exception@std@@QEAA@AEBV01@@Z24
xdata$x	ENDS
;	COMDAT ??_R2bad_alloc@std@@8
rdata$r	SEGMENT
??_R2bad_alloc@std@@8 DD imagerel ??_R1A@?0A@EA@bad_alloc@std@@8 ; std::bad_alloc::`RTTI Base Class Array'
	DD	imagerel ??_R1A@?0A@EA@exception@std@@8
	ORG $+3
rdata$r	ENDS
;	COMDAT ??_R0?AVbad_alloc@std@@@8
data$r	SEGMENT
??_R0?AVbad_alloc@std@@@8 DQ FLAT:??_7type_info@@6B@	; std::bad_alloc `RTTI Type Descriptor'
	DQ	0000000000000000H
	DB	'.?AVbad_alloc@std@@', 00H
data$r	ENDS
;	COMDAT ??_R2bad_array_new_length@std@@8
rdata$r	SEGMENT
??_R2bad_array_new_length@std@@8 DD imagerel ??_R1A@?0A@EA@bad_array_new_length@std@@8 ; std::bad_array_new_length::`RTTI Base Class Array'
	DD	imagerel ??_R1A@?0A@EA@bad_alloc@std@@8
	DD	imagerel ??_R1A@?0A@EA@exception@std@@8
	ORG $+3
rdata$r	ENDS
;	COMDAT ??_R4exception@std@@6B@
rdata$r	SEGMENT
??_R4exception@std@@6B@ DD 01H				; std::exception::`RTTI Complete Object Locator'
	DD	00H
	DD	00H
	DD	imagerel ??_R0?AVexception@std@@@8
	DD	imagerel ??_R3exception@std@@8
	DD	imagerel ??_R4exception@std@@6B@
rdata$r	ENDS
;	COMDAT ??_C@_0BA@FOIKENOD@vector?5too?5long@
CONST	SEGMENT
??_C@_0BA@FOIKENOD@vector?5too?5long@ DB 'vector too long', 00H ; `string'
CONST	ENDS
;	COMDAT ??_C@_0BA@JFNIOLAK@string?5too?5long@
CONST	SEGMENT
??_C@_0BA@JFNIOLAK@string?5too?5long@ DB 'string too long', 00H ; `string'
CONST	ENDS
;	COMDAT ??_C@_0BF@KINCDENJ@bad?5array?5new?5length@
CONST	SEGMENT
??_C@_0BF@KINCDENJ@bad?5array?5new?5length@ DB 'bad array new length', 00H ; `string'
CONST	ENDS
;	COMDAT ??_C@_0BC@EOODALEL@Unknown?5exception@
CONST	SEGMENT
??_C@_0BC@EOODALEL@Unknown?5exception@ DB 'Unknown exception', 00H ; `string'
CONST	ENDS
PUBLIC	??$construct_at@EE$0A@@std@@YAPEAEQEAE$$QEAE@Z	; std::construct_at<unsigned char,unsigned char,0>
PUBLIC	??$construct_at@EAEAE$0A@@std@@YAPEAEQEAEAEAE@Z	; std::construct_at<unsigned char,unsigned char &,0>
PUBLIC	??$construct_at@E$$V$0A@@std@@YAPEAEQEAE@Z	; std::construct_at<unsigned char,0>
PUBLIC	??$construct@EE@?$_Default_allocator_traits@V?$allocator@E@std@@@std@@SAXAEAV?$allocator@E@1@QEAE$$QEAE@Z ; std::_Default_allocator_traits<std::allocator<unsigned char> >::construct<unsigned char,unsigned char>
PUBLIC	??$forward@E@std@@YA$$QEAEAEAE@Z		; std::forward<unsigned char>
PUBLIC	??$_Allocate_manually_vector_aligned@U_Default_allocate_traits@std@@@std@@YAPEAX_K@Z ; std::_Allocate_manually_vector_aligned<std::_Default_allocate_traits>
PUBLIC	??$construct@EAEAE@?$_Default_allocator_traits@V?$allocator@E@std@@@std@@SAXAEAV?$allocator@E@1@QEAEAEAE@Z ; std::_Default_allocator_traits<std::allocator<unsigned char> >::construct<unsigned char,unsigned char &>
PUBLIC	??$forward@AEAE@std@@YAAEAEAEAE@Z		; std::forward<unsigned char &>
PUBLIC	??$construct_at@EAEBE$0A@@std@@YAPEAEQEAEAEBE@Z	; std::construct_at<unsigned char,unsigned char const &,0>
PUBLIC	??$addressof@E@std@@YAPEAEAEAE@Z		; std::addressof<unsigned char>
PUBLIC	??$construct@E$$V@?$_Default_allocator_traits@V?$allocator@E@std@@@std@@SAXAEAV?$allocator@E@1@QEAE@Z ; std::_Default_allocator_traits<std::allocator<unsigned char> >::construct<unsigned char>
PUBLIC	??$_Emplace_back@E@?$_Uninitialized_backout_al@V?$allocator@E@std@@@std@@QEAAX$$QEAE@Z ; std::_Uninitialized_backout_al<std::allocator<unsigned char> >::_Emplace_back<unsigned char>
PUBLIC	??$move@AEAE@std@@YA$$QEAEAEAE@Z		; std::move<unsigned char &>
PUBLIC	?allocate@?$allocator@D@std@@QEAAPEAD_K@Z	; std::allocator<char>::allocate
PUBLIC	??$_Allocate@$0BA@U_Default_allocate_traits@std@@@std@@YAPEAX_K@Z ; std::_Allocate<16,std::_Default_allocate_traits>
PUBLIC	??$_Get_size_of_n@$00@std@@YA_K_K@Z		; std::_Get_size_of_n<1>
PUBLIC	??$construct_at@PEADAEBQEAD$0A@@std@@YAPEAPEADQEAPEADAEBQEAD@Z ; std::construct_at<char *,char * const &,0>
PUBLIC	??$forward@AEBQEAD@std@@YAAEBQEADAEBQEAD@Z	; std::forward<char * const &>
PUBLIC	??$construct_at@D$$V$0A@@std@@YAPEADQEAD@Z	; std::construct_at<char,0>
PUBLIC	??$_Allocate_at_least_helper@V?$allocator@D@std@@@std@@YAPEADAEAV?$allocator@D@0@AEA_K@Z ; std::_Allocate_at_least_helper<std::allocator<char> >
PUBLIC	??$_Emplace_back@AEAE@?$_Uninitialized_backout_al@V?$allocator@E@std@@@std@@QEAAXAEAE@Z ; std::_Uninitialized_backout_al<std::allocator<unsigned char> >::_Emplace_back<unsigned char &>
PUBLIC	??$_Copy_memmove@PEAEPEAE@std@@YAPEAEPEAE00@Z	; std::_Copy_memmove<unsigned char *,unsigned char *>
PUBLIC	??$to_address@E@std@@YAPEAEQEAE@Z		; std::to_address<unsigned char>
PUBLIC	??$move@AEAPEAE@std@@YA$$QEAPEAEAEAPEAE@Z	; std::move<unsigned char * &>
PUBLIC	??$construct@EAEBE@?$_Default_allocator_traits@V?$allocator@E@std@@@std@@SAXAEAV?$allocator@E@1@QEAEAEBE@Z ; std::_Default_allocator_traits<std::allocator<unsigned char> >::construct<unsigned char,unsigned char const &>
PUBLIC	??$_Construct_in_place@EAEBE@std@@YAXAEAEAEBE@Z	; std::_Construct_in_place<unsigned char,unsigned char const &>
PUBLIC	??$_Emplace_back@$$V@?$_Uninitialized_backout_al@V?$allocator@E@std@@@std@@QEAAXXZ ; std::_Uninitialized_backout_al<std::allocator<unsigned char> >::_Emplace_back<>
PUBLIC	??$_Zero_range@PEAE@std@@YAPEAEQEAE0@Z		; std::_Zero_range<unsigned char *>
PUBLIC	??$_Unfancy@E@std@@YAPEAEPEAE@Z			; std::_Unfancy<unsigned char>
PUBLIC	??$_Uninitialized_move@PEAEV?$allocator@E@std@@@std@@YAPEAEQEAE0PEAEAEAV?$allocator@E@0@@Z ; std::_Uninitialized_move<unsigned char *,std::allocator<unsigned char> >
PUBLIC	??$_Get_unwrapped@AEBQEAE@std@@YA?A_TAEBQEAE@Z	; std::_Get_unwrapped<unsigned char * const &>
PUBLIC	?capacity@?$vector@EV?$allocator@E@std@@@std@@QEBA_KXZ ; std::vector<unsigned char,std::allocator<unsigned char> >::capacity
PUBLIC	?allocate@?$allocator@E@std@@QEAAPEAE_K@Z	; std::allocator<unsigned char>::allocate
PUBLIC	?_Calculate_growth@?$vector@EV?$allocator@E@std@@@std@@AEBA_K_K@Z ; std::vector<unsigned char,std::allocator<unsigned char> >::_Calculate_growth
PUBLIC	?_Change_array@?$vector@EV?$allocator@E@std@@@std@@AEAAXQEAE_K1@Z ; std::vector<unsigned char,std::allocator<unsigned char> >::_Change_array
PUBLIC	??0?$_Uninitialized_backout_al@V?$allocator@E@std@@@std@@QEAA@PEAEAEAV?$allocator@E@1@@Z ; std::_Uninitialized_backout_al<std::allocator<unsigned char> >::_Uninitialized_backout_al<std::allocator<unsigned char> >
PUBLIC	??1?$_Uninitialized_backout_al@V?$allocator@E@std@@@std@@QEAA@XZ ; std::_Uninitialized_backout_al<std::allocator<unsigned char> >::~_Uninitialized_backout_al<std::allocator<unsigned char> >
PUBLIC	?_Release@?$_Uninitialized_backout_al@V?$allocator@E@std@@@std@@QEAAPEAEXZ ; std::_Uninitialized_backout_al<std::allocator<unsigned char> >::_Release
PUBLIC	?__autoclassinit2@?$_Uninitialized_backout_al@V?$allocator@E@std@@@std@@QEAAX_K@Z ; std::_Uninitialized_backout_al<std::allocator<unsigned char> >::__autoclassinit2
PUBLIC	??$_Allocate_at_least_helper@V?$allocator@E@std@@@std@@YAPEAEAEAV?$allocator@E@0@AEA_K@Z ; std::_Allocate_at_least_helper<std::allocator<unsigned char> >
PUBLIC	??$addressof@PEAD@std@@YAPEAPEADAEAPEAD@Z	; std::addressof<char *>
PUBLIC	??$_Construct_in_place@PEADAEBQEAD@std@@YAXAEAPEADAEBQEAD@Z ; std::_Construct_in_place<char *,char * const &>
PUBLIC	??$_Allocate_for_capacity@$0A@@?$basic_string@DU?$char_traits@D@std@@V?$allocator@D@2@@std@@CAPEADAEAV?$allocator@D@1@AEA_K@Z ; std::basic_string<char,std::char_traits<char>,std::allocator<char> >::_Allocate_for_capacity<0>
PUBLIC	??$forward@V?$allocator@D@std@@@std@@YA$$QEAV?$allocator@D@0@AEAV10@@Z ; std::forward<std::allocator<char> >
PUBLIC	??$_To_address@PEAE@std@@YA?A_PAEBQEAE@Z	; std::_To_address<unsigned char *>
PUBLIC	??$_Uninitialized_copy@PEAEPEAEV?$allocator@E@std@@@std@@YAPEAEPEAE00AEAV?$allocator@E@0@@Z ; std::_Uninitialized_copy<unsigned char *,unsigned char *,std::allocator<unsigned char> >
PUBLIC	??$_Unwrap_sent@PEAEPEAE@ranges@std@@YA?A_T$$QEAPEAE@Z ; std::ranges::_Unwrap_sent<unsigned char *,unsigned char *>
PUBLIC	??$_Unwrap_iter@PEAEPEAE@ranges@std@@YA?A_T$$QEAPEAE@Z ; std::ranges::_Unwrap_iter<unsigned char *,unsigned char *>
PUBLIC	??$forward@AEBQEAE@std@@YAAEBQEAEAEBQEAE@Z	; std::forward<unsigned char * const &>
PUBLIC	??$forward@PEAE@std@@YA$$QEAPEAEAEAPEAE@Z	; std::forward<unsigned char *>
PUBLIC	??$forward@V?$allocator@E@std@@@std@@YA$$QEAV?$allocator@E@0@AEAV10@@Z ; std::forward<std::allocator<unsigned char> >
PUBLIC	??$_Emplace_reallocate@AEBE@?$vector@EV?$allocator@E@std@@@std@@AEAAPEAEQEAEAEBE@Z ; std::vector<unsigned char,std::allocator<unsigned char> >::_Emplace_reallocate<unsigned char const &>
PUBLIC	??$_Emplace_back_with_unused_capacity@AEBE@?$vector@EV?$allocator@E@std@@@std@@AEAAAEAEAEBE@Z ; std::vector<unsigned char,std::allocator<unsigned char> >::_Emplace_back_with_unused_capacity<unsigned char const &>
PUBLIC	??$forward@AEBE@std@@YAAEBEAEBE@Z		; std::forward<unsigned char const &>
PUBLIC	??$_Uninitialized_value_construct_n@V?$allocator@E@std@@@std@@YAPEAEPEAE_KAEAV?$allocator@E@0@@Z ; std::_Uninitialized_value_construct_n<std::allocator<unsigned char> >
PUBLIC	??$_Resize_reallocate@U_Value_init_tag@std@@@?$vector@EV?$allocator@E@std@@@std@@AEAAX_KAEBU_Value_init_tag@1@@Z ; std::vector<unsigned char,std::allocator<unsigned char> >::_Resize_reallocate<std::_Value_init_tag>
PUBLIC	??$min@_K@std@@YAAEB_KAEB_K0@Z			; std::min<unsigned __int64>
PUBLIC	??$forward@AEBD@std@@YAAEBDAEBD@Z		; std::forward<char const &>
PUBLIC	?max_size@?$_Default_allocator_traits@V?$allocator@E@std@@@std@@SA_KAEBV?$allocator@E@2@@Z ; std::_Default_allocator_traits<std::allocator<unsigned char> >::max_size
PUBLIC	?max_size@?$_Default_allocator_traits@V?$allocator@D@std@@@std@@SA_KAEBV?$allocator@D@2@@Z ; std::_Default_allocator_traits<std::allocator<char> >::max_size
PUBLIC	??0_Bxty@?$_String_val@U?$_Simple_types@D@std@@@std@@QEAA@XZ ; std::_String_val<std::_Simple_types<char> >::_Bxty::_Bxty
PUBLIC	?max_size@?$vector@EV?$allocator@E@std@@@std@@QEBA_KXZ ; std::vector<unsigned char,std::allocator<unsigned char> >::max_size
PUBLIC	?_Buy_raw@?$vector@EV?$allocator@E@std@@@std@@AEAAX_K@Z ; std::vector<unsigned char,std::allocator<unsigned char> >::_Buy_raw
PUBLIC	?_Xlength@?$vector@EV?$allocator@E@std@@@std@@CAXXZ ; std::vector<unsigned char,std::allocator<unsigned char> >::_Xlength
PUBLIC	??0?$allocator@D@std@@QEAA@XZ			; std::allocator<char>::allocator<char>
PUBLIC	??0?$_String_val@U?$_Simple_types@D@std@@@std@@QEAA@XZ ; std::_String_val<std::_Simple_types<char> >::_String_val<std::_Simple_types<char> >
PUBLIC	?max_size@?$basic_string@DU?$char_traits@D@std@@V?$allocator@D@2@@std@@QEBA_KXZ ; std::basic_string<char,std::char_traits<char>,std::allocator<char> >::max_size
PUBLIC	?_Calculate_growth@?$basic_string@DU?$char_traits@D@std@@V?$allocator@D@2@@std@@CA_K_K00@Z ; std::basic_string<char,std::char_traits<char>,std::allocator<char> >::_Calculate_growth
PUBLIC	??0?$allocator@E@std@@QEAA@XZ			; std::allocator<unsigned char>::allocator<unsigned char>
PUBLIC	?_Buy_nonzero@?$vector@EV?$allocator@E@std@@@std@@AEAAX_K@Z ; std::vector<unsigned char,std::allocator<unsigned char> >::_Buy_nonzero
PUBLIC	?_Orphan_range@?$vector@EV?$allocator@E@std@@@std@@AEBAXPEAE0@Z ; std::vector<unsigned char,std::allocator<unsigned char> >::_Orphan_range
PUBLIC	??0?$_Vector_val@U?$_Simple_types@E@std@@@std@@QEAA@XZ ; std::_Vector_val<std::_Simple_types<unsigned char> >::_Vector_val<std::_Simple_types<unsigned char> >
PUBLIC	??0?$_Vector_val@U?$_Simple_types@E@std@@@std@@QEAA@PEAE00@Z ; std::_Vector_val<std::_Simple_types<unsigned char> >::_Vector_val<std::_Simple_types<unsigned char> >
PUBLIC	??1?$_Tidy_guard@V?$vector@EV?$allocator@E@std@@@std@@@std@@QEAA@XZ ; std::_Tidy_guard<std::vector<unsigned char,std::allocator<unsigned char> > >::~_Tidy_guard<std::vector<unsigned char,std::allocator<unsigned char> > >
PUBLIC	??$construct_at@DAEBD$0A@@std@@YAPEADQEADAEBD@Z	; std::construct_at<char,char const &,0>
PUBLIC	??$addressof@D@std@@YAPEADAEAD@Z		; std::addressof<char>
PUBLIC	??$_Destroy_in_place@PEAD@std@@YAXAEAPEAD@Z	; std::_Destroy_in_place<char *>
PUBLIC	??$_Deallocate@$0BA@@std@@YAXPEAX_K@Z		; std::_Deallocate<16>
PUBLIC	??$_Unfancy@D@std@@YAPEADPEAD@Z			; std::_Unfancy<char>
PUBLIC	??$_Destroy_range@V?$allocator@E@std@@@std@@YAXPEAEQEAEAEAV?$allocator@E@0@@Z ; std::_Destroy_range<std::allocator<unsigned char> >
PUBLIC	??$_Construct@$01PEBD@?$basic_string@DU?$char_traits@D@std@@V?$allocator@D@2@@std@@AEAAXQEBD_K@Z ; std::basic_string<char,std::char_traits<char>,std::allocator<char> >::_Construct<2,char const *>
PUBLIC	??$_Construct@$00PEBD@?$basic_string@DU?$char_traits@D@std@@V?$allocator@D@2@@std@@AEAAXQEBD_K@Z ; std::basic_string<char,std::char_traits<char>,std::allocator<char> >::_Construct<1,char const *>
PUBLIC	??$?0$$V@?$_Compressed_pair@V?$allocator@D@std@@V?$_String_val@U?$_Simple_types@D@std@@@2@$00@std@@QEAA@U_Zero_then_variadic_args_t@1@@Z ; std::_Compressed_pair<std::allocator<char>,std::_String_val<std::_Simple_types<char> >,1>::_Compressed_pair<std::allocator<char>,std::_String_val<std::_Simple_types<char> >,1><>
PUBLIC	??$?0V?$allocator@D@std@@$$V@?$_Compressed_pair@V?$allocator@D@std@@V?$_String_val@U?$_Simple_types@D@std@@@2@$00@std@@QEAA@U_One_then_variadic_args_t@1@$$QEAV?$allocator@D@1@@Z ; std::_Compressed_pair<std::allocator<char>,std::_String_val<std::_Simple_types<char> >,1>::_Compressed_pair<std::allocator<char>,std::_String_val<std::_Simple_types<char> >,1><std::allocator<char> >
PUBLIC	??$_Convert_size@_K_K@std@@YA_K_K@Z		; std::_Convert_size<unsigned __int64,unsigned __int64>
PUBLIC	??$?0$$V@?$_Compressed_pair@V?$allocator@E@std@@V?$_Vector_val@U?$_Simple_types@E@std@@@2@$00@std@@QEAA@U_Zero_then_variadic_args_t@1@@Z ; std::_Compressed_pair<std::allocator<unsigned char>,std::_Vector_val<std::_Simple_types<unsigned char> >,1>::_Compressed_pair<std::allocator<unsigned char>,std::_Vector_val<std::_Simple_types<unsigned char> >,1><>
PUBLIC	??$_Construct_n@AEBQEAEAEBQEAE@?$vector@EV?$allocator@E@std@@@std@@AEAAX_KAEBQEAE1@Z ; std::vector<unsigned char,std::allocator<unsigned char> >::_Construct_n<unsigned char * const &,unsigned char * const &>
PUBLIC	??$?0V?$allocator@E@std@@$$V@?$_Compressed_pair@V?$allocator@E@std@@V?$_Vector_val@U?$_Simple_types@E@std@@@2@$00@std@@QEAA@U_One_then_variadic_args_t@1@$$QEAV?$allocator@E@1@@Z ; std::_Compressed_pair<std::allocator<unsigned char>,std::_Vector_val<std::_Simple_types<unsigned char> >,1>::_Compressed_pair<std::allocator<unsigned char>,std::_Vector_val<std::_Simple_types<unsigned char> >,1><std::allocator<unsigned char> >
PUBLIC	??$?0V?$allocator@E@std@@PEAEPEAEPEAE@?$_Compressed_pair@V?$allocator@E@std@@V?$_Vector_val@U?$_Simple_types@E@std@@@2@$00@std@@QEAA@U_One_then_variadic_args_t@1@$$QEAV?$allocator@E@1@$$QEAPEAE22@Z ; std::_Compressed_pair<std::allocator<unsigned char>,std::_Vector_val<std::_Simple_types<unsigned char> >,1>::_Compressed_pair<std::allocator<unsigned char>,std::_Vector_val<std::_Simple_types<unsigned char> >,1><std::allocator<unsigned char>,unsigned char *,unsigned char *,unsigned char *>
PUBLIC	??$exchange@PEAE$$T@std@@YAPEAEAEAPEAE$$QEA$$T@Z ; std::exchange<unsigned char *,std::nullptr_t>
PUBLIC	??$move@AEAV?$allocator@E@std@@@std@@YA$$QEAV?$allocator@E@0@AEAV10@@Z ; std::move<std::allocator<unsigned char> &>
PUBLIC	??$_Emplace_one_at_back@AEBE@?$vector@EV?$allocator@E@std@@@std@@AEAAAEAEAEBE@Z ; std::vector<unsigned char,std::allocator<unsigned char> >::_Emplace_one_at_back<unsigned char const &>
PUBLIC	??$_Resize@U_Value_init_tag@std@@@?$vector@EV?$allocator@E@std@@@std@@AEAAX_KAEBU_Value_init_tag@1@@Z ; std::vector<unsigned char,std::allocator<unsigned char> >::_Resize<std::_Value_init_tag>
PUBLIC	??$_Unfancy_maybe_null@E@std@@YAPEAEPEAE@Z	; std::_Unfancy_maybe_null<unsigned char>
PUBLIC	??$DecryptInternetData@UUDPResponse@@@NetCommon@@YA?AUUDPResponse@@V?$vector@EV?$allocator@E@std@@@std@@V?$basic_string@DU?$char_traits@D@std@@V?$allocator@D@2@@3@@Z ; NetCommon::DecryptInternetData<UDPResponse>
PUBLIC	??$DecryptInternetData@UServerCommand@@@NetCommon@@YA?AUServerCommand@@V?$vector@EV?$allocator@E@std@@@std@@V?$basic_string@DU?$char_traits@D@std@@V?$allocator@D@2@@3@@Z ; NetCommon::DecryptInternetData<ServerCommand>
PUBLIC	?assign@?$_Char_traits@DH@std@@SAXAEADAEBD@Z	; std::_Char_traits<char,int>::assign
PUBLIC	?deallocate@?$allocator@D@std@@QEAAXQEAD_K@Z	; std::allocator<char>::deallocate
PUBLIC	?copy@?$_Char_traits@DH@std@@SAPEADQEADQEBD_K@Z	; std::_Char_traits<char,int>::copy
PUBLIC	?assign@?$_Narrow_char_traits@DH@std@@SAXAEADAEBD@Z ; std::_Narrow_char_traits<char,int>::assign
PUBLIC	?_Large_mode_engaged@?$_String_val@U?$_Simple_types@D@std@@@std@@QEBA_NXZ ; std::_String_val<std::_Simple_types<char> >::_Large_mode_engaged
PUBLIC	?_Activate_SSO_buffer@?$_String_val@U?$_Simple_types@D@std@@@std@@QEAAXXZ ; std::_String_val<std::_Simple_types<char> >::_Activate_SSO_buffer
PUBLIC	?_Switch_to_buf@_Bxty@?$_String_val@U?$_Simple_types@D@std@@@std@@QEAAXXZ ; std::_String_val<std::_Simple_types<char> >::_Bxty::_Switch_to_buf
PUBLIC	?_Deallocate_for_capacity@?$basic_string@DU?$char_traits@D@std@@V?$allocator@D@2@@std@@CAXAEAV?$allocator@D@2@QEAD_K@Z ; std::basic_string<char,std::char_traits<char>,std::allocator<char> >::_Deallocate_for_capacity
PUBLIC	?_Get_first@?$_Compressed_pair@V?$allocator@D@std@@V?$_String_val@U?$_Simple_types@D@std@@@2@$00@std@@QEAAAEAV?$allocator@D@2@XZ ; std::_Compressed_pair<std::allocator<char>,std::_String_val<std::_Simple_types<char> >,1>::_Get_first
PUBLIC	?_Get_first@?$_Compressed_pair@V?$allocator@D@std@@V?$_String_val@U?$_Simple_types@D@std@@@2@$00@std@@QEBAAEBV?$allocator@D@2@XZ ; std::_Compressed_pair<std::allocator<char>,std::_String_val<std::_Simple_types<char> >,1>::_Get_first
PUBLIC	?deallocate@?$allocator@E@std@@QEAAXQEAE_K@Z	; std::allocator<unsigned char>::deallocate
PUBLIC	?_Get_first@?$_Compressed_pair@V?$allocator@E@std@@V?$_Vector_val@U?$_Simple_types@E@std@@@2@$00@std@@QEAAAEAV?$allocator@E@2@XZ ; std::_Compressed_pair<std::allocator<unsigned char>,std::_Vector_val<std::_Simple_types<unsigned char> >,1>::_Get_first
PUBLIC	?_Get_first@?$_Compressed_pair@V?$allocator@E@std@@V?$_Vector_val@U?$_Simple_types@E@std@@@2@$00@std@@QEBAAEBV?$allocator@E@2@XZ ; std::_Compressed_pair<std::allocator<unsigned char>,std::_Vector_val<std::_Simple_types<unsigned char> >,1>::_Get_first
PUBLIC	?KEY_256_ASSIST_1@?$Aes@$0BAA@@Cipher@@AEAAXPEAT__m128i@@0@Z ; Cipher::Aes<256>::KEY_256_ASSIST_1
PUBLIC	?KEY_256_ASSIST_2@?$Aes@$0BAA@@Cipher@@AEAAXPEAT__m128i@@0@Z ; Cipher::Aes<256>::KEY_256_ASSIST_2
PUBLIC	??$max@_K@std@@YAAEB_KAEB_K0@Z			; std::max<unsigned __int64>
PUBLIC	?length@?$_Narrow_char_traits@DH@std@@SA_KQEBD@Z ; std::_Narrow_char_traits<char,int>::length
PUBLIC	?select_on_container_copy_construction@?$_Default_allocator_traits@V?$allocator@D@std@@@std@@SA?AV?$allocator@D@2@AEBV32@@Z ; std::_Default_allocator_traits<std::allocator<char> >::select_on_container_copy_construction
PUBLIC	?_Myptr@?$_String_val@U?$_Simple_types@D@std@@@std@@QEAAPEADXZ ; std::_String_val<std::_Simple_types<char> >::_Myptr
PUBLIC	?_Myptr@?$_String_val@U?$_Simple_types@D@std@@@std@@QEBAPEBDXZ ; std::_String_val<std::_Simple_types<char> >::_Myptr
PUBLIC	??1_Bxty@?$_String_val@U?$_Simple_types@D@std@@@std@@QEAA@XZ ; std::_String_val<std::_Simple_types<char> >::_Bxty::~_Bxty
PUBLIC	?_Construct_empty@?$basic_string@DU?$char_traits@D@std@@V?$allocator@D@2@@std@@AEAAXXZ ; std::basic_string<char,std::char_traits<char>,std::allocator<char> >::_Construct_empty
PUBLIC	?_Tidy_deallocate@?$basic_string@DU?$char_traits@D@std@@V?$allocator@D@2@@std@@AEAAXXZ ; std::basic_string<char,std::char_traits<char>,std::allocator<char> >::_Tidy_deallocate
PUBLIC	?_Getal@?$basic_string@DU?$char_traits@D@std@@V?$allocator@D@2@@std@@AEAAAEAV?$allocator@D@2@XZ ; std::basic_string<char,std::char_traits<char>,std::allocator<char> >::_Getal
PUBLIC	?_Getal@?$basic_string@DU?$char_traits@D@std@@V?$allocator@D@2@@std@@AEBAAEBV?$allocator@D@2@XZ ; std::basic_string<char,std::char_traits<char>,std::allocator<char> >::_Getal
PUBLIC	?select_on_container_copy_construction@?$_Default_allocator_traits@V?$allocator@E@std@@@std@@SA?AV?$allocator@E@2@AEBV32@@Z ; std::_Default_allocator_traits<std::allocator<unsigned char> >::select_on_container_copy_construction
PUBLIC	?_Tidy@?$vector@EV?$allocator@E@std@@@std@@AEAAXXZ ; std::vector<unsigned char,std::allocator<unsigned char> >::_Tidy
PUBLIC	?_Getal@?$vector@EV?$allocator@E@std@@@std@@AEAAAEAV?$allocator@E@2@XZ ; std::vector<unsigned char,std::allocator<unsigned char> >::_Getal
PUBLIC	?_Getal@?$vector@EV?$allocator@E@std@@@std@@AEBAAEBV?$allocator@E@2@XZ ; std::vector<unsigned char,std::allocator<unsigned char> >::_Getal
PUBLIC	?AES_256_Key_Expansion@?$Aes@$0BAA@@Cipher@@AEAAXPEBEPEAE@Z ; Cipher::Aes<256>::AES_256_Key_Expansion
PUBLIC	?data@?$obfuscator@$0N@$0GPFFMNJFHLKDFJAP@D@ay@@QEBAPEBDXZ ; ay::obfuscator<13,8022544353138530575,char>::data
PUBLIC	?decrypt@?$obfuscated_data@$0N@$0GPFFMNJFHLKDFJAP@D@ay@@QEAAXXZ ; ay::obfuscated_data<13,8022544353138530575,char>::decrypt
PUBLIC	?data@?$obfuscator@$09$0?BMGONCACNKPGIEIF@D@ay@@QEBAPEBDXZ ; ay::obfuscator<10,-2048805790205510789,char>::data
PUBLIC	?decrypt@?$obfuscated_data@$09$0?BMGONCACNKPGIEIF@D@ay@@QEAAXXZ ; ay::obfuscated_data<10,-2048805790205510789,char>::decrypt
PUBLIC	?data@?$obfuscator@$0N@$0FHPLCBONHLGFABKJ@D@ay@@QEBAPEBDXZ ; ay::obfuscator<13,6339698204315287977,char>::data
PUBLIC	?decrypt@?$obfuscated_data@$0N@$0FHPLCBONHLGFABKJ@D@ay@@QEAAXXZ ; ay::obfuscated_data<13,6339698204315287977,char>::decrypt
PUBLIC	?data@?$obfuscator@$0L@$0?DOJGCMFOPGMELMMP@D@ay@@QEBAPEBDXZ ; ay::obfuscator<11,-4509840863236766927,char>::data
PUBLIC	?decrypt@?$obfuscated_data@$0L@$0?DOJGCMFOPGMELMMP@D@ay@@QEAAXXZ ; ay::obfuscated_data<11,-4509840863236766927,char>::decrypt
PUBLIC	??0?$basic_string@DU?$char_traits@D@std@@V?$allocator@D@2@@std@@QEAA@XZ ; std::basic_string<char,std::char_traits<char>,std::allocator<char> >::basic_string<char,std::char_traits<char>,std::allocator<char> >
PUBLIC	??0?$basic_string@DU?$char_traits@D@std@@V?$allocator@D@2@@std@@QEAA@AEBV01@@Z ; std::basic_string<char,std::char_traits<char>,std::allocator<char> >::basic_string<char,std::char_traits<char>,std::allocator<char> >
PUBLIC	??0?$basic_string@DU?$char_traits@D@std@@V?$allocator@D@2@@std@@QEAA@QEBD@Z ; std::basic_string<char,std::char_traits<char>,std::allocator<char> >::basic_string<char,std::char_traits<char>,std::allocator<char> >
PUBLIC	??1?$_String_val@U?$_Simple_types@D@std@@@std@@QEAA@XZ ; std::_String_val<std::_Simple_types<char> >::~_String_val<std::_Simple_types<char> >
PUBLIC	??1?$_Compressed_pair@V?$allocator@D@std@@V?$_String_val@U?$_Simple_types@D@std@@@2@$00@std@@QEAA@XZ ; std::_Compressed_pair<std::allocator<char>,std::_String_val<std::_Simple_types<char> >,1>::~_Compressed_pair<std::allocator<char>,std::_String_val<std::_Simple_types<char> >,1>
PUBLIC	??1?$basic_string@DU?$char_traits@D@std@@V?$allocator@D@2@@std@@QEAA@XZ ; std::basic_string<char,std::char_traits<char>,std::allocator<char> >::~basic_string<char,std::char_traits<char>,std::allocator<char> >
PUBLIC	?_Unchecked_begin@?$basic_string@DU?$char_traits@D@std@@V?$allocator@D@2@@std@@QEAAPEADXZ ; std::basic_string<char,std::char_traits<char>,std::allocator<char> >::_Unchecked_begin
PUBLIC	?_Unchecked_end@?$basic_string@DU?$char_traits@D@std@@V?$allocator@D@2@@std@@QEAAPEADXZ ; std::basic_string<char,std::char_traits<char>,std::allocator<char> >::_Unchecked_end
PUBLIC	??0?$vector@EV?$allocator@E@std@@@std@@QEAA@XZ	; std::vector<unsigned char,std::allocator<unsigned char> >::vector<unsigned char,std::allocator<unsigned char> >
PUBLIC	??0?$vector@EV?$allocator@E@std@@@std@@QEAA@AEBV01@@Z ; std::vector<unsigned char,std::allocator<unsigned char> >::vector<unsigned char,std::allocator<unsigned char> >
PUBLIC	??0?$vector@EV?$allocator@E@std@@@std@@QEAA@$$QEAV01@@Z ; std::vector<unsigned char,std::allocator<unsigned char> >::vector<unsigned char,std::allocator<unsigned char> >
PUBLIC	??1?$vector@EV?$allocator@E@std@@@std@@QEAA@XZ	; std::vector<unsigned char,std::allocator<unsigned char> >::~vector<unsigned char,std::allocator<unsigned char> >
PUBLIC	?push_back@?$vector@EV?$allocator@E@std@@@std@@QEAAXAEBE@Z ; std::vector<unsigned char,std::allocator<unsigned char> >::push_back
PUBLIC	?resize@?$vector@EV?$allocator@E@std@@@std@@QEAAX_K@Z ; std::vector<unsigned char,std::allocator<unsigned char> >::resize
PUBLIC	?data@?$vector@EV?$allocator@E@std@@@std@@QEAAPEAEXZ ; std::vector<unsigned char,std::allocator<unsigned char> >::data
PUBLIC	?size@?$vector@EV?$allocator@E@std@@@std@@QEBA_KXZ ; std::vector<unsigned char,std::allocator<unsigned char> >::size
PUBLIC	??0?$Aes@$0BAA@@Cipher@@QEAA@QEAE@Z		; Cipher::Aes<256>::Aes<256>
PUBLIC	??1?$Aes@$0BAA@@Cipher@@QEAA@XZ			; Cipher::Aes<256>::~Aes<256>
PUBLIC	?decrypt_block@?$Aes@$0BAA@@Cipher@@QEAAXPEAE@Z	; Cipher::Aes<256>::decrypt_block
PUBLIC	??0?$obfuscated_data@$0N@$0GPFFMNJFHLKDFJAP@D@ay@@QEAA@AEBV?$obfuscator@$0N@$0GPFFMNJFHLKDFJAP@D@1@@Z ; ay::obfuscated_data<13,8022544353138530575,char>::obfuscated_data<13,8022544353138530575,char>
PUBLIC	??1?$obfuscated_data@$0N@$0GPFFMNJFHLKDFJAP@D@ay@@QEAA@XZ ; ay::obfuscated_data<13,8022544353138530575,char>::~obfuscated_data<13,8022544353138530575,char>
PUBLIC	??B?$obfuscated_data@$0N@$0GPFFMNJFHLKDFJAP@D@ay@@QEAAPEADXZ ; ay::obfuscated_data<13,8022544353138530575,char>::operator char *
PUBLIC	??0?$obfuscated_data@$09$0?BMGONCACNKPGIEIF@D@ay@@QEAA@AEBV?$obfuscator@$09$0?BMGONCACNKPGIEIF@D@1@@Z ; ay::obfuscated_data<10,-2048805790205510789,char>::obfuscated_data<10,-2048805790205510789,char>
PUBLIC	??1?$obfuscated_data@$09$0?BMGONCACNKPGIEIF@D@ay@@QEAA@XZ ; ay::obfuscated_data<10,-2048805790205510789,char>::~obfuscated_data<10,-2048805790205510789,char>
PUBLIC	??B?$obfuscated_data@$09$0?BMGONCACNKPGIEIF@D@ay@@QEAAPEADXZ ; ay::obfuscated_data<10,-2048805790205510789,char>::operator char *
PUBLIC	??0?$obfuscated_data@$0N@$0FHPLCBONHLGFABKJ@D@ay@@QEAA@AEBV?$obfuscator@$0N@$0FHPLCBONHLGFABKJ@D@1@@Z ; ay::obfuscated_data<13,6339698204315287977,char>::obfuscated_data<13,6339698204315287977,char>
PUBLIC	??1?$obfuscated_data@$0N@$0FHPLCBONHLGFABKJ@D@ay@@QEAA@XZ ; ay::obfuscated_data<13,6339698204315287977,char>::~obfuscated_data<13,6339698204315287977,char>
PUBLIC	??B?$obfuscated_data@$0N@$0FHPLCBONHLGFABKJ@D@ay@@QEAAPEADXZ ; ay::obfuscated_data<13,6339698204315287977,char>::operator char *
PUBLIC	??0?$obfuscated_data@$0L@$0?DOJGCMFOPGMELMMP@D@ay@@QEAA@AEBV?$obfuscator@$0L@$0?DOJGCMFOPGMELMMP@D@1@@Z ; ay::obfuscated_data<11,-4509840863236766927,char>::obfuscated_data<11,-4509840863236766927,char>
PUBLIC	??1?$obfuscated_data@$0L@$0?DOJGCMFOPGMELMMP@D@ay@@QEAA@XZ ; ay::obfuscated_data<11,-4509840863236766927,char>::~obfuscated_data<11,-4509840863236766927,char>
PUBLIC	??B?$obfuscated_data@$0L@$0?DOJGCMFOPGMELMMP@D@ay@@QEAAPEADXZ ; ay::obfuscated_data<11,-4509840863236766927,char>::operator char *
PUBLIC	?Disconnect@Client@@QEAAHXZ			; Client::Disconnect
PUBLIC	?MakeServerRequest@Client@@QEAAHUClientRequest@@H@Z ; Client::MakeServerRequest
PUBLIC	?TCPSendMessageToServer@Client@@IEAAHUClientRequest@@@Z ; Client::TCPSendMessageToServer
PUBLIC	?UDPSendMessageToServer@Client@@IEAAHUClientRequest@@@Z ; Client::UDPSendMessageToServer
PUBLIC	?UDPRecvMessageFromServer@Client@@IEAA?AUUDPResponse@@XZ ; Client::UDPRecvMessageFromServer
PUBLIC	?DecryptServerRequest@Client@@QEAA?AUServerCommand@@V?$vector@EV?$allocator@E@std@@@std@@@Z ; Client::DecryptServerRequest
PUBLIC	??0NET_BLOB@@QEAA@AEBU0@@Z			; NET_BLOB::NET_BLOB
PUBLIC	?EncryptClientRequest@Client@@QEBA?AV?$vector@EV?$allocator@E@std@@@std@@UClientRequest@@@Z ; Client::EncryptClientRequest
PUBLIC	?Connect@Client@@QEAAHXZ			; Client::Connect
PUBLIC	??__Fobfuscated_data@?1???R<lambda_1>@?1???1Client@@QEAA@XZ@QEBAAEAV?$obfuscated_data@$0L@$0?DOJGCMFOPGMELMMP@D@ay@@XZ@YAXXZ ; ``Client::~Client'::`2'::<lambda_1>::operator()'::`2'::`dynamic atexit destructor for 'obfuscated_data''
PUBLIC	??1Client@@QEAA@XZ				; Client::~Client
PUBLIC	??0Client@@QEAA@XZ				; Client::Client
PUBLIC	?SocketReady@Client@@QEBAHW4SocketTypes@@@Z	; Client::SocketReady
PUBLIC	??$cipher@D@ay@@YAXPEAD_K1@Z			; ay::cipher<char>
PUBLIC	??0ClientRequest@@QEAA@AEBU0@@Z			; ClientRequest::ClientRequest
PUBLIC	?RequestToBlob@NetCommon@@YA?AUNET_BLOB@@UClientRequest@@V?$basic_string@DU?$char_traits@D@std@@V?$allocator@D@2@@std@@@Z ; NetCommon::RequestToBlob
PUBLIC	??0ProcessInformation@@QEAA@AEBU0@@Z		; ProcessInformation::ProcessInformation
PUBLIC	??0ServerCommand@@QEAA@AEBU0@@Z			; ServerCommand::ServerCommand
PUBLIC	??1ProcessInformation@@QEAA@XZ			; ProcessInformation::~ProcessInformation
PUBLIC	??1ServerCommand@@QEAA@XZ			; ServerCommand::~ServerCommand
PUBLIC	??1ClientRequest@@QEAA@XZ			; ClientRequest::~ClientRequest
PUBLIC	??1NET_BLOB@@QEAA@XZ				; NET_BLOB::~NET_BLOB
PUBLIC	?DecryptByteString@NetCommon@@YAXAEAV?$vector@EV?$allocator@E@std@@@std@@V?$basic_string@DU?$char_traits@D@std@@V?$allocator@D@2@@3@@Z ; NetCommon::DecryptByteString
PUBLIC	?__autoclassinit2@?$vector@EV?$allocator@E@std@@@std@@QEAAX_K@Z ; std::vector<unsigned char,std::allocator<unsigned char> >::__autoclassinit2
PUBLIC	?SerializeString@NetCommon@@YA?AV?$vector@EV?$allocator@E@std@@@std@@V?$basic_string@DU?$char_traits@D@std@@V?$allocator@D@2@@3@@Z ; NetCommon::SerializeString
PUBLIC	?_Xlen_string@std@@YAXXZ			; std::_Xlen_string
PUBLIC	?_Release@_Fake_proxy_ptr_impl@std@@QEAAXXZ	; std::_Fake_proxy_ptr_impl::_Release
PUBLIC	??0_Fake_proxy_ptr_impl@std@@QEAA@AEBU_Fake_allocator@1@AEBU_Container_base0@1@@Z ; std::_Fake_proxy_ptr_impl::_Fake_proxy_ptr_impl
PUBLIC	?_Alloc_proxy@_Container_base0@std@@QEAAXAEBU_Fake_allocator@2@@Z ; std::_Container_base0::_Alloc_proxy
PUBLIC	?_Swap_proxy_and_iterators@_Container_base0@std@@QEAAXAEAU12@@Z ; std::_Container_base0::_Swap_proxy_and_iterators
PUBLIC	?_Orphan_all@_Container_base0@std@@QEAAXXZ	; std::_Container_base0::_Orphan_all
PUBLIC	?_Adjust_manually_vector_aligned@std@@YAXAEAPEAXAEA_K@Z ; std::_Adjust_manually_vector_aligned
PUBLIC	?_Allocate@_Default_allocate_traits@std@@SAPEAX_K@Z ; std::_Default_allocate_traits::_Allocate
PUBLIC	??0bad_alloc@std@@QEAA@AEBV01@@Z		; std::bad_alloc::bad_alloc
PUBLIC	??0bad_array_new_length@std@@QEAA@AEBV01@@Z	; std::bad_array_new_length::bad_array_new_length
PUBLIC	?_Throw_bad_array_new_length@std@@YAXXZ		; std::_Throw_bad_array_new_length
PUBLIC	??1bad_array_new_length@std@@UEAA@XZ		; std::bad_array_new_length::~bad_array_new_length
PUBLIC	??_Gbad_array_new_length@std@@UEAAPEAXI@Z	; std::bad_array_new_length::`scalar deleting destructor'
PUBLIC	??0bad_array_new_length@std@@QEAA@XZ		; std::bad_array_new_length::bad_array_new_length
PUBLIC	??1bad_alloc@std@@UEAA@XZ			; std::bad_alloc::~bad_alloc
PUBLIC	??_Gbad_alloc@std@@UEAAPEAXI@Z			; std::bad_alloc::`scalar deleting destructor'
PUBLIC	??0bad_alloc@std@@AEAA@QEBD@Z			; std::bad_alloc::bad_alloc
PUBLIC	??_Gexception@std@@UEAAPEAXI@Z			; std::exception::`scalar deleting destructor'
PUBLIC	?what@exception@std@@UEBAPEBDXZ			; std::exception::what
PUBLIC	??1exception@std@@UEAA@XZ			; std::exception::~exception
PUBLIC	??0exception@std@@QEAA@AEBV01@@Z		; std::exception::exception
PUBLIC	??0exception@std@@QEAA@QEBDH@Z			; std::exception::exception
PUBLIC	?max@?$numeric_limits@_J@std@@SA_JXZ		; std::numeric_limits<__int64>::max
PUBLIC	??2@YAPEAX_KPEAX@Z				; operator new
PUBLIC	?is_constant_evaluated@std@@YA_NXZ		; std::is_constant_evaluated
PUBLIC	__isa_available_default
PUBLIC	__real@5f000000
PUBLIC	__xmm@00000000000000010000000000000000
PUBLIC	__xmm@00000000000000030000000000000002
PUBLIC	__xmm@00000000000000050000000000000004
PUBLIC	__xmm@00000000000000070000000000000006
PUBLIC	__xmm@00000000000000070000000000000007
PUBLIC	__xmm@000000000000000f0000000000000000
PUBLIC	__xmm@00000000000008000000000000000800
PUBLIC	__xmm@09376f353935157309376f3539351573
PUBLIC	__xmm@1114cdf5faf7edaa4c73d8edfefaf386
PUBLIC	__xmm@1301a3a71d258b291301a3a71d258b29
PUBLIC	__xmm@193305173d3dc37b193305173d3dc37b
PUBLIC	__xmm@2327bd999f9f81c52327bd999f9f81c5
PUBLIC	__xmm@57fb21ed7b6501a957fb21ed7b6501a9
PUBLIC	__xmm@6f55cd957ba3590f6f55cd957ba3590f
PUBLIC	__xmm@7d410717b555f99b7d410717b555f99b
PUBLIC	__xmm@7d561b665c567c057b523c4c4b506022
PUBLIC	__xmm@83af0533df55afe783af0533df55afe7
PUBLIC	__xmm@8707dd23b1c9b5ef8707dd23b1c9b5ef
PUBLIC	__xmm@89f52b3945a9b13589f52b3945a9b135
PUBLIC	__xmm@95db052fc5cb633595db052fc5cb6335
PUBLIC	__xmm@9d3fe36fdf3909279d3fe36fdf390927
PUBLIC	__xmm@a9fb6ded3163673ba9fb6ded3163673b
PUBLIC	__xmm@ae8f341def7b9fc9b49d3413b83bc697
PUBLIC	__xmm@b920101e2aaed804bf19221938aec928
PUBLIC	__xmm@bd4045c34225ea7786414cdb5024eb4d
PUBLIC	__xmm@cc9c0a827d06135ac7941e9f54130a72
PUBLIC	__xmm@cd49476d59cbbb6bcd49476d59cbbb6b
PUBLIC	__xmm@cf2529af23519919cf2529af23519919
PUBLIC	__xmm@cff1734fb9430b19cff1734fb9430b19
PUBLIC	__xmm@d11bf34b25d5a973d11bf34b25d5a973
PUBLIC	__xmm@dfa009bc1d20bbd9ec840eaa0c268fbb
PUBLIC	__xmm@dff77dcf6f49fdebdff77dcf6f49fdeb
PUBLIC	__xmm@e3912dfd25097b7be3912dfd25097b7b
PUBLIC	__xmm@ea1fa840ff5c7142b35b8e0c830b3a4a
PUBLIC	__xmm@f84b90168c657a50f25b8d0688653364
PUBLIC	__xmm@ffc3978bc98f5399ffc3978bc98f5399
EXTRN	??_Eexception@std@@UEAAPEAXI@Z:PROC		; std::exception::`vector deleting destructor'
EXTRN	??_Ebad_alloc@std@@UEAAPEAXI@Z:PROC		; std::bad_alloc::`vector deleting destructor'
EXTRN	??_Ebad_array_new_length@std@@UEAAPEAXI@Z:PROC	; std::bad_array_new_length::`vector deleting destructor'
EXTRN	_CxxThrowException:PROC
EXTRN	__GSHandlerCheck:PROC
EXTRN	__GSHandlerCheck_EH4:PROC
EXTRN	ceilf:PROC
EXTRN	memchr:PROC
EXTRN	memcmp:PROC
EXTRN	memcpy:PROC
EXTRN	memmove:PROC
EXTRN	memset:PROC
EXTRN	__isa_available:DWORD
EXTRN	__security_cookie:QWORD
EXTRN	_fltused:DWORD
EXTRN	_tls_index:DWORD
;	COMDAT ??__J?1???R<lambda_2>@freqDLLS@ProcessUtilities@@QEBAAEAV?$obfuscated_data@$09$0?BMGONCACNKPGIEIF@D@ay@@XZ@51
_TLS	SEGMENT
??__J?1???R<lambda_2>@freqDLLS@ProcessUtilities@@QEBAAEAV?$obfuscated_data@$09$0?BMGONCACNKPGIEIF@D@ay@@XZ@51 DD 01H DUP (?) ; `ProcessUtilities::freqDLLS::<lambda_2>::operator()'::`2'::`local static thread guard'
_TLS	ENDS
;	COMDAT ?obfuscated_data@?1???R<lambda_3>@freqDLLS@ProcessUtilities@@QEBAAEAV?$obfuscated_data@$0N@$0FHPLCBONHLGFABKJ@D@ay@@XZ@4V45@A
_TLS	SEGMENT
?obfuscated_data@?1???R<lambda_3>@freqDLLS@ProcessUtilities@@QEBAAEAV?$obfuscated_data@$0N@$0FHPLCBONHLGFABKJ@D@ay@@XZ@4V45@A DB 0eH DUP (?) ; `ProcessUtilities::freqDLLS::<lambda_3>::operator()'::`2'::obfuscated_data
_TLS	ENDS
;	COMDAT ?obfuscated_data@?1???R<lambda_1>@freqDLLS@ProcessUtilities@@QEBAAEAV?$obfuscated_data@$0N@$0GPFFMNJFHLKDFJAP@D@ay@@XZ@4V45@A
_TLS	SEGMENT
?obfuscated_data@?1???R<lambda_1>@freqDLLS@ProcessUtilities@@QEBAAEAV?$obfuscated_data@$0N@$0GPFFMNJFHLKDFJAP@D@ay@@XZ@4V45@A DB 0eH DUP (?) ; `ProcessUtilities::freqDLLS::<lambda_1>::operator()'::`2'::obfuscated_data
_TLS	ENDS
;	COMDAT ??__J?1???R<lambda_3>@freqDLLS@ProcessUtilities@@QEBAAEAV?$obfuscated_data@$0N@$0FHPLCBONHLGFABKJ@D@ay@@XZ@51
_TLS	SEGMENT
??__J?1???R<lambda_3>@freqDLLS@ProcessUtilities@@QEBAAEAV?$obfuscated_data@$0N@$0FHPLCBONHLGFABKJ@D@ay@@XZ@51 DD 01H DUP (?) ; `ProcessUtilities::freqDLLS::<lambda_3>::operator()'::`2'::`local static thread guard'
_TLS	ENDS
;	COMDAT ?obfuscated_data@?1???R<lambda_1>@?1???1Client@@QEAA@XZ@QEBAAEAV?$obfuscated_data@$0L@$0?DOJGCMFOPGMELMMP@D@ay@@XZ@4V34@A
_TLS	SEGMENT
?obfuscated_data@?1???R<lambda_1>@?1???1Client@@QEAA@XZ@QEBAAEAV?$obfuscated_data@$0L@$0?DOJGCMFOPGMELMMP@D@ay@@XZ@4V34@A DB 0cH DUP (?) ; ``Client::~Client'::`2'::<lambda_1>::operator()'::`2'::obfuscated_data
_TLS	ENDS
;	COMDAT ?obfuscated_data@?1???R<lambda_2>@freqDLLS@ProcessUtilities@@QEBAAEAV?$obfuscated_data@$09$0?BMGONCACNKPGIEIF@D@ay@@XZ@4V45@A
_TLS	SEGMENT
?obfuscated_data@?1???R<lambda_2>@freqDLLS@ProcessUtilities@@QEBAAEAV?$obfuscated_data@$09$0?BMGONCACNKPGIEIF@D@ay@@XZ@4V45@A DB 0bH DUP (?) ; `ProcessUtilities::freqDLLS::<lambda_2>::operator()'::`2'::obfuscated_data
_TLS	ENDS
;	COMDAT ??__J?1???R<lambda_1>@freqDLLS@ProcessUtilities@@QEBAAEAV?$obfuscated_data@$0N@$0GPFFMNJFHLKDFJAP@D@ay@@XZ@51
_TLS	SEGMENT
??__J?1???R<lambda_1>@freqDLLS@ProcessUtilities@@QEBAAEAV?$obfuscated_data@$0N@$0GPFFMNJFHLKDFJAP@D@ay@@XZ@51 DD 01H DUP (?) ; `ProcessUtilities::freqDLLS::<lambda_1>::operator()'::`2'::`local static thread guard'
_TLS	ENDS
;	COMDAT ??__J?1???R<lambda_1>@?1???1Client@@QEAA@XZ@QEBAAEAV?$obfuscated_data@$0L@$0?DOJGCMFOPGMELMMP@D@ay@@XZ@51
_TLS	SEGMENT
??__J?1???R<lambda_1>@?1???1Client@@QEAA@XZ@QEBAAEAV?$obfuscated_data@$0L@$0?DOJGCMFOPGMELMMP@D@ay@@XZ@51 DD 01H DUP (?) ; ``Client::~Client'::`2'::<lambda_1>::operator()'::`2'::`local static thread guard'
?kernel32@freqDLLS@ProcessUtilities@@3V?$basic_string@DU?$char_traits@D@std@@V?$allocator@D@2@@std@@B DB 020H DUP (?) ; ProcessUtilities::freqDLLS::kernel32
?ntdll@freqDLLS@ProcessUtilities@@3V?$basic_string@DU?$char_traits@D@std@@V?$allocator@D@2@@std@@B DB 020H DUP (?) ; ProcessUtilities::freqDLLS::ntdll
?advapi32@freqDLLS@ProcessUtilities@@3V?$basic_string@DU?$char_traits@D@std@@V?$allocator@D@2@@std@@B DB 020H DUP (?) ; ProcessUtilities::freqDLLS::advapi32
_BSS	ENDS
;	COMDAT __isa_available_default
_BSS	SEGMENT
__isa_available_default DD 01H DUP (?)
_BSS	ENDS
;	COMDAT pdata
pdata	SEGMENT
$pdata$??$_Allocate_manually_vector_aligned@U_Default_allocate_traits@std@@@std@@YAPEAX_K@Z DD imagerel $LN17
	DD	imagerel $LN17+58
	DD	imagerel $unwind$??$_Allocate_manually_vector_aligned@U_Default_allocate_traits@std@@@std@@YAPEAX_K@Z
pdata	ENDS
;	COMDAT pdata
pdata	SEGMENT
$pdata$?allocate@?$allocator@D@std@@QEAAPEAD_K@Z DD imagerel $LN30
	DD	imagerel $LN30+88
	DD	imagerel $unwind$?allocate@?$allocator@D@std@@QEAAPEAD_K@Z
pdata	ENDS
;	COMDAT pdata
pdata	SEGMENT
$pdata$??$_Allocate@$0BA@U_Default_allocate_traits@std@@@std@@YAPEAX_K@Z DD imagerel $LN27
	DD	imagerel $LN27+88
	DD	imagerel $unwind$??$_Allocate@$0BA@U_Default_allocate_traits@std@@@std@@YAPEAX_K@Z
pdata	ENDS
;	COMDAT pdata
pdata	SEGMENT
$pdata$??$_Allocate_at_least_helper@V?$allocator@D@std@@@std@@YAPEADAEAV?$allocator@D@0@AEA_K@Z DD imagerel $LN33
	DD	imagerel $LN33+91
	DD	imagerel $unwind$??$_Allocate_at_least_helper@V?$allocator@D@std@@@std@@YAPEADAEAV?$allocator@D@0@AEA_K@Z
pdata	ENDS
;	COMDAT pdata
pdata	SEGMENT
$pdata$??$_Copy_memmove@PEAEPEAE@std@@YAPEAEPEAE00@Z DD imagerel $LN4
	DD	imagerel $LN4+48
	DD	imagerel $unwind$??$_Copy_memmove@PEAEPEAE@std@@YAPEAEPEAE00@Z
pdata	ENDS
;	COMDAT pdata
pdata	SEGMENT
$pdata$??$_Zero_range@PEAE@std@@YAPEAEQEAE0@Z DD imagerel $LN4
	DD	imagerel $LN4+31
	DD	imagerel $unwind$??$_Zero_range@PEAE@std@@YAPEAEQEAE0@Z
pdata	ENDS
;	COMDAT pdata
pdata	SEGMENT
$pdata$??$_Uninitialized_move@PEAEV?$allocator@E@std@@@std@@YAPEAEQEAE0PEAEAEAV?$allocator@E@0@@Z DD imagerel $LN24
	DD	imagerel $LN24+49
	DD	imagerel $unwind$??$_Uninitialized_move@PEAEV?$allocator@E@std@@@std@@YAPEAEQEAE0PEAEAEAV?$allocator@E@0@@Z
pdata	ENDS
;	COMDAT pdata
pdata	SEGMENT
$pdata$?allocate@?$allocator@E@std@@QEAAPEAE_K@Z DD imagerel $LN30
	DD	imagerel $LN30+88
	DD	imagerel $unwind$?allocate@?$allocator@E@std@@QEAAPEAE_K@Z
pdata	ENDS
;	COMDAT pdata
pdata	SEGMENT
$pdata$?_Change_array@?$vector@EV?$allocator@E@std@@@std@@AEAAXQEAE_K1@Z DD imagerel $LN30
	DD	imagerel $LN30+131
	DD	imagerel $unwind$?_Change_array@?$vector@EV?$allocator@E@std@@@std@@AEAAXQEAE_K1@Z
pdata	ENDS
;	COMDAT pdata
pdata	SEGMENT
$pdata$??$_Allocate_at_least_helper@V?$allocator@E@std@@@std@@YAPEAEAEAV?$allocator@E@0@AEA_K@Z DD imagerel $LN33
	DD	imagerel $LN33+91
	DD	imagerel $unwind$??$_Allocate_at_least_helper@V?$allocator@E@std@@@std@@YAPEAEAEAV?$allocator@E@0@AEA_K@Z
pdata	ENDS
;	COMDAT pdata
pdata	SEGMENT
$pdata$??$_Allocate_for_capacity@$0A@@?$basic_string@DU?$char_traits@D@std@@V?$allocator@D@2@@std@@CAPEADAEAV?$allocator@D@1@AEA_K@Z DD imagerel $LN52
	DD	imagerel $LN52+110
	DD	imagerel $unwind$??$_Allocate_for_capacity@$0A@@?$basic_string@DU?$char_traits@D@std@@V?$allocator@D@2@@std@@CAPEADAEAV?$allocator@D@1@AEA_K@Z
pdata	ENDS
;	COMDAT pdata
pdata	SEGMENT
$pdata$??$_Uninitialized_copy@PEAEPEAEV?$allocator@E@std@@@std@@YAPEAEPEAE00AEAV?$allocator@E@0@@Z DD imagerel $LN24
	DD	imagerel $LN24+49
	DD	imagerel $unwind$??$_Uninitialized_copy@PEAEPEAEV?$allocator@E@std@@@std@@YAPEAEPEAE00AEAV?$allocator@E@0@@Z
pdata	ENDS
;	COMDAT pdata
pdata	SEGMENT
$pdata$??$_Emplace_reallocate@AEBE@?$vector@EV?$allocator@E@std@@@std@@AEAAPEAEQEAEAEBE@Z DD imagerel $LN128
	DD	imagerel $LN128+64
	DD	imagerel $unwind$??$_Emplace_reallocate@AEBE@?$vector@EV?$allocator@E@std@@@std@@AEAAPEAEQEAEAEBE@Z
pdata	ENDS
;	COMDAT pdata
pdata	SEGMENT
$pdata$2$??$_Emplace_reallocate@AEBE@?$vector@EV?$allocator@E@std@@@std@@AEAAPEAEQEAEAEBE@Z DD imagerel $LN128+64
	DD	imagerel $LN128+305
	DD	imagerel $chain$2$??$_Emplace_reallocate@AEBE@?$vector@EV?$allocator@E@std@@@std@@AEAAPEAEQEAEAEBE@Z
pdata	ENDS
;	COMDAT pdata
pdata	SEGMENT
$pdata$4$??$_Emplace_reallocate@AEBE@?$vector@EV?$allocator@E@std@@@std@@AEAAPEAEQEAEAEBE@Z DD imagerel $LN128+305
	DD	imagerel $LN128+317
	DD	imagerel $chain$4$??$_Emplace_reallocate@AEBE@?$vector@EV?$allocator@E@std@@@std@@AEAAPEAEQEAEAEBE@Z
pdata	ENDS
;	COMDAT pdata
pdata	SEGMENT
$pdata$5$??$_Emplace_reallocate@AEBE@?$vector@EV?$allocator@E@std@@@std@@AEAAPEAEQEAEAEBE@Z DD imagerel $LN128+317
	DD	imagerel $LN128+323
	DD	imagerel $chain$5$??$_Emplace_reallocate@AEBE@?$vector@EV?$allocator@E@std@@@std@@AEAAPEAEQEAEAEBE@Z
pdata	ENDS
;	COMDAT pdata
pdata	SEGMENT
$pdata$??$_Uninitialized_value_construct_n@V?$allocator@E@std@@@std@@YAPEAEPEAE_KAEAV?$allocator@E@0@@Z DD imagerel $LN29
	DD	imagerel $LN29+41
	DD	imagerel $unwind$??$_Uninitialized_value_construct_n@V?$allocator@E@std@@@std@@YAPEAEPEAE_KAEAV?$allocator@E@0@@Z
pdata	ENDS
;	COMDAT pdata
pdata	SEGMENT
$pdata$??$_Resize_reallocate@U_Value_init_tag@std@@@?$vector@EV?$allocator@E@std@@@std@@AEAAX_KAEBU_Value_init_tag@1@@Z DD imagerel $LN108
	DD	imagerel $LN108+34
	DD	imagerel $unwind$??$_Resize_reallocate@U_Value_init_tag@std@@@?$vector@EV?$allocator@E@std@@@std@@AEAAX_KAEBU_Value_init_tag@1@@Z
pdata	ENDS
;	COMDAT pdata
pdata	SEGMENT
$pdata$2$??$_Resize_reallocate@U_Value_init_tag@std@@@?$vector@EV?$allocator@E@std@@@std@@AEAAX_KAEBU_Value_init_tag@1@@Z DD imagerel $LN108+34
	DD	imagerel $LN108+244
	DD	imagerel $chain$2$??$_Resize_reallocate@U_Value_init_tag@std@@@?$vector@EV?$allocator@E@std@@@std@@AEAAX_KAEBU_Value_init_tag@1@@Z
pdata	ENDS
;	COMDAT pdata
pdata	SEGMENT
$pdata$4$??$_Resize_reallocate@U_Value_init_tag@std@@@?$vector@EV?$allocator@E@std@@@std@@AEAAX_KAEBU_Value_init_tag@1@@Z DD imagerel $LN108+244
	DD	imagerel $LN108+256
	DD	imagerel $chain$4$??$_Resize_reallocate@U_Value_init_tag@std@@@?$vector@EV?$allocator@E@std@@@std@@AEAAX_KAEBU_Value_init_tag@1@@Z
pdata	ENDS
;	COMDAT pdata
pdata	SEGMENT
$pdata$5$??$_Resize_reallocate@U_Value_init_tag@std@@@?$vector@EV?$allocator@E@std@@@std@@AEAAX_KAEBU_Value_init_tag@1@@Z DD imagerel $LN108+256
	DD	imagerel $LN108+262
	DD	imagerel $chain$5$??$_Resize_reallocate@U_Value_init_tag@std@@@?$vector@EV?$allocator@E@std@@@std@@AEAAX_KAEBU_Value_init_tag@1@@Z
pdata	ENDS
;	COMDAT pdata
pdata	SEGMENT
$pdata$?_Buy_raw@?$vector@EV?$allocator@E@std@@@std@@AEAAX_K@Z DD imagerel $LN40
	DD	imagerel $LN40+115
	DD	imagerel $unwind$?_Buy_raw@?$vector@EV?$allocator@E@std@@@std@@AEAAX_K@Z
pdata	ENDS
;	COMDAT pdata
pdata	SEGMENT
$pdata$?_Xlength@?$vector@EV?$allocator@E@std@@@std@@CAXXZ DD imagerel $LN4
	DD	imagerel $LN4+17
	DD	imagerel $unwind$?_Xlength@?$vector@EV?$allocator@E@std@@@std@@CAXXZ
pdata	ENDS
;	COMDAT pdata
pdata	SEGMENT
$pdata$?_Buy_nonzero@?$vector@EV?$allocator@E@std@@@std@@AEAAX_K@Z DD imagerel $LN46
	DD	imagerel $LN46+136
	DD	imagerel $unwind$?_Buy_nonzero@?$vector@EV?$allocator@E@std@@@std@@AEAAX_K@Z
pdata	ENDS
;	COMDAT pdata
pdata	SEGMENT
$pdata$??1?$_Tidy_guard@V?$vector@EV?$allocator@E@std@@@std@@@std@@QEAA@XZ DD imagerel $LN37
	DD	imagerel $LN37+92
	DD	imagerel $unwind$??1?$_Tidy_guard@V?$vector@EV?$allocator@E@std@@@std@@@std@@QEAA@XZ
pdata	ENDS
;	COMDAT pdata
pdata	SEGMENT
$pdata$??$_Deallocate@$0BA@@std@@YAXPEAX_K@Z DD imagerel $LN20
	DD	imagerel $LN20+52
	DD	imagerel $unwind$??$_Deallocate@$0BA@@std@@YAXPEAX_K@Z
pdata	ENDS
;	COMDAT pdata
pdata	SEGMENT
$pdata$??$_Construct@$01PEBD@?$basic_string@DU?$char_traits@D@std@@V?$allocator@D@2@@std@@AEAAXQEBD_K@Z DD imagerel $LN99
	DD	imagerel $LN99+242
	DD	imagerel $unwind$??$_Construct@$01PEBD@?$basic_string@DU?$char_traits@D@std@@V?$allocator@D@2@@std@@AEAAXQEBD_K@Z
pdata	ENDS
;	COMDAT pdata
pdata	SEGMENT
$pdata$??$_Construct@$00PEBD@?$basic_string@DU?$char_traits@D@std@@V?$allocator@D@2@@std@@AEAAXQEBD_K@Z DD imagerel $LN97
	DD	imagerel $LN97+78
	DD	imagerel $unwind$??$_Construct@$00PEBD@?$basic_string@DU?$char_traits@D@std@@V?$allocator@D@2@@std@@AEAAXQEBD_K@Z
pdata	ENDS
;	COMDAT pdata
pdata	SEGMENT
$pdata$0$??$_Construct@$00PEBD@?$basic_string@DU?$char_traits@D@std@@V?$allocator@D@2@@std@@AEAAXQEBD_K@Z DD imagerel $LN97+78
	DD	imagerel $LN97+233
	DD	imagerel $chain$0$??$_Construct@$00PEBD@?$basic_string@DU?$char_traits@D@std@@V?$allocator@D@2@@std@@AEAAXQEBD_K@Z
pdata	ENDS
;	COMDAT pdata
pdata	SEGMENT
$pdata$2$??$_Construct@$00PEBD@?$basic_string@DU?$char_traits@D@std@@V?$allocator@D@2@@std@@AEAAXQEBD_K@Z DD imagerel $LN97+233
	DD	imagerel $LN97+245
	DD	imagerel $chain$2$??$_Construct@$00PEBD@?$basic_string@DU?$char_traits@D@std@@V?$allocator@D@2@@std@@AEAAXQEBD_K@Z
pdata	ENDS
;	COMDAT pdata
pdata	SEGMENT
$pdata$3$??$_Construct@$00PEBD@?$basic_string@DU?$char_traits@D@std@@V?$allocator@D@2@@std@@AEAAXQEBD_K@Z DD imagerel $LN97+245
	DD	imagerel $LN97+251
	DD	imagerel $chain$3$??$_Construct@$00PEBD@?$basic_string@DU?$char_traits@D@std@@V?$allocator@D@2@@std@@AEAAXQEBD_K@Z
pdata	ENDS
;	COMDAT pdata
pdata	SEGMENT
$pdata$??$_Construct_n@AEBQEAEAEBQEAE@?$vector@EV?$allocator@E@std@@@std@@AEAAX_KAEBQEAE1@Z DD imagerel $LN104
	DD	imagerel $LN104+46
	DD	imagerel $unwind$??$_Construct_n@AEBQEAEAEBQEAE@?$vector@EV?$allocator@E@std@@@std@@AEAAX_KAEBQEAE1@Z
pdata	ENDS
;	COMDAT pdata
pdata	SEGMENT
$pdata$0$??$_Construct_n@AEBQEAEAEBQEAE@?$vector@EV?$allocator@E@std@@@std@@AEAAX_KAEBQEAE1@Z DD imagerel $LN104+46
	DD	imagerel $LN104+162
	DD	imagerel $chain$0$??$_Construct_n@AEBQEAEAEBQEAE@?$vector@EV?$allocator@E@std@@@std@@AEAAX_KAEBQEAE1@Z
pdata	ENDS
;	COMDAT pdata
pdata	SEGMENT
$pdata$1$??$_Construct_n@AEBQEAEAEBQEAE@?$vector@EV?$allocator@E@std@@@std@@AEAAX_KAEBQEAE1@Z DD imagerel $LN104+162
	DD	imagerel $LN104+163
	DD	imagerel $chain$1$??$_Construct_n@AEBQEAEAEBQEAE@?$vector@EV?$allocator@E@std@@@std@@AEAAX_KAEBQEAE1@Z
pdata	ENDS
;	COMDAT pdata
pdata	SEGMENT
$pdata$2$??$_Construct_n@AEBQEAEAEBQEAE@?$vector@EV?$allocator@E@std@@@std@@AEAAX_KAEBQEAE1@Z DD imagerel $LN104+163
	DD	imagerel $LN104+169
	DD	imagerel $chain$2$??$_Construct_n@AEBQEAEAEBQEAE@?$vector@EV?$allocator@E@std@@@std@@AEAAX_KAEBQEAE1@Z
pdata	ENDS
;	COMDAT pdata
pdata	SEGMENT
$pdata$3$??$_Construct_n@AEBQEAEAEBQEAE@?$vector@EV?$allocator@E@std@@@std@@AEAAX_KAEBQEAE1@Z DD imagerel $LN104+169
	DD	imagerel $LN104+175
	DD	imagerel $chain$3$??$_Construct_n@AEBQEAEAEBQEAE@?$vector@EV?$allocator@E@std@@@std@@AEAAX_KAEBQEAE1@Z
pdata	ENDS
;	COMDAT pdata
pdata	SEGMENT
$pdata$4$??$_Construct_n@AEBQEAEAEBQEAE@?$vector@EV?$allocator@E@std@@@std@@AEAAX_KAEBQEAE1@Z DD imagerel $LN104+175
	DD	imagerel $LN104+181
	DD	imagerel $chain$4$??$_Construct_n@AEBQEAEAEBQEAE@?$vector@EV?$allocator@E@std@@@std@@AEAAX_KAEBQEAE1@Z
pdata	ENDS
;	COMDAT pdata
pdata	SEGMENT
$pdata$??$_Resize@U_Value_init_tag@std@@@?$vector@EV?$allocator@E@std@@@std@@AEAAX_KAEBU_Value_init_tag@1@@Z DD imagerel $LN38
	DD	imagerel $LN38+125
	DD	imagerel $unwind$??$_Resize@U_Value_init_tag@std@@@?$vector@EV?$allocator@E@std@@@std@@AEAAX_KAEBU_Value_init_tag@1@@Z
pdata	ENDS
;	COMDAT pdata
pdata	SEGMENT
$pdata$??$DecryptInternetData@UUDPResponse@@@NetCommon@@YA?AUUDPResponse@@V?$vector@EV?$allocator@E@std@@@std@@V?$basic_string@DU?$char_traits@D@std@@V?$allocator@D@2@@3@@Z DD imagerel $LN75
	DD	imagerel $LN75+273
	DD	imagerel $unwind$??$DecryptInternetData@UUDPResponse@@@NetCommon@@YA?AUUDPResponse@@V?$vector@EV?$allocator@E@std@@@std@@V?$basic_string@DU?$char_traits@D@std@@V?$allocator@D@2@@3@@Z
pdata	ENDS
;	COMDAT pdata
pdata	SEGMENT
$pdata$??$DecryptInternetData@UServerCommand@@@NetCommon@@YA?AUServerCommand@@V?$vector@EV?$allocator@E@std@@@std@@V?$basic_string@DU?$char_traits@D@std@@V?$allocator@D@2@@3@@Z DD imagerel $LN85
	DD	imagerel $LN85+326
	DD	imagerel $unwind$??$DecryptInternetData@UServerCommand@@@NetCommon@@YA?AUServerCommand@@V?$vector@EV?$allocator@E@std@@@std@@V?$basic_string@DU?$char_traits@D@std@@V?$allocator@D@2@@3@@Z
pdata	ENDS
;	COMDAT pdata
pdata	SEGMENT
$pdata$?deallocate@?$allocator@D@std@@QEAAXQEAD_K@Z DD imagerel $LN23
	DD	imagerel $LN23+61
	DD	imagerel $unwind$?deallocate@?$allocator@D@std@@QEAAXQEAD_K@Z
pdata	ENDS
;	COMDAT pdata
pdata	SEGMENT
$pdata$?copy@?$_Char_traits@DH@std@@SAPEADQEADQEBD_K@Z DD imagerel $LN16
	DD	imagerel $LN16+23
	DD	imagerel $unwind$?copy@?$_Char_traits@DH@std@@SAPEADQEADQEBD_K@Z
pdata	ENDS
;	COMDAT pdata
pdata	SEGMENT
$pdata$?_Deallocate_for_capacity@?$basic_string@DU?$char_traits@D@std@@V?$allocator@D@2@@std@@CAXAEAV?$allocator@D@2@QEAD_K@Z DD imagerel $LN27
	DD	imagerel $LN27+62
	DD	imagerel $unwind$?_Deallocate_for_capacity@?$basic_string@DU?$char_traits@D@std@@V?$allocator@D@2@@std@@CAXAEAV?$allocator@D@2@QEAD_K@Z
pdata	ENDS
;	COMDAT pdata
pdata	SEGMENT
$pdata$?deallocate@?$allocator@E@std@@QEAAXQEAE_K@Z DD imagerel $LN23
	DD	imagerel $LN23+61
	DD	imagerel $unwind$?deallocate@?$allocator@E@std@@QEAAXQEAE_K@Z
pdata	ENDS
;	COMDAT pdata
pdata	SEGMENT
$pdata$?_Tidy_deallocate@?$basic_string@DU?$char_traits@D@std@@V?$allocator@D@2@@std@@AEAAXXZ DD imagerel $LN38
	DD	imagerel $LN38+94
	DD	imagerel $unwind$?_Tidy_deallocate@?$basic_string@DU?$char_traits@D@std@@V?$allocator@D@2@@std@@AEAAXXZ
pdata	ENDS
;	COMDAT pdata
pdata	SEGMENT
$pdata$?_Tidy@?$vector@EV?$allocator@E@std@@@std@@AEAAXXZ DD imagerel $LN31
	DD	imagerel $LN31+87
	DD	imagerel $unwind$?_Tidy@?$vector@EV?$allocator@E@std@@@std@@AEAAXXZ
pdata	ENDS
;	COMDAT pdata
pdata	SEGMENT
$pdata$??0?$basic_string@DU?$char_traits@D@std@@V?$allocator@D@2@@std@@QEAA@AEBV01@@Z DD imagerel $LN123
	DD	imagerel $LN123+276
	DD	imagerel $unwind$??0?$basic_string@DU?$char_traits@D@std@@V?$allocator@D@2@@std@@QEAA@AEBV01@@Z
pdata	ENDS
;	COMDAT pdata
pdata	SEGMENT
$pdata$??0?$basic_string@DU?$char_traits@D@std@@V?$allocator@D@2@@std@@QEAA@QEBD@Z DD imagerel $LN117
	DD	imagerel $LN117+285
	DD	imagerel $unwind$??0?$basic_string@DU?$char_traits@D@std@@V?$allocator@D@2@@std@@QEAA@QEBD@Z
pdata	ENDS
;	COMDAT pdata
pdata	SEGMENT
$pdata$??1?$basic_string@DU?$char_traits@D@std@@V?$allocator@D@2@@std@@QEAA@XZ DD imagerel $LN42
	DD	imagerel $LN42+94
	DD	imagerel $unwind$??1?$basic_string@DU?$char_traits@D@std@@V?$allocator@D@2@@std@@QEAA@XZ
pdata	ENDS
;	COMDAT pdata
pdata	SEGMENT
$pdata$??0?$vector@EV?$allocator@E@std@@@std@@QEAA@AEBV01@@Z DD imagerel $LN111
	DD	imagerel $LN111+188
	DD	imagerel $unwind$??0?$vector@EV?$allocator@E@std@@@std@@QEAA@AEBV01@@Z
pdata	ENDS
;	COMDAT pdata
pdata	SEGMENT
$pdata$??1?$vector@EV?$allocator@E@std@@@std@@QEAA@XZ DD imagerel $LN35
	DD	imagerel $LN35+87
	DD	imagerel $unwind$??1?$vector@EV?$allocator@E@std@@@std@@QEAA@XZ
pdata	ENDS
;	COMDAT pdata
pdata	SEGMENT
$pdata$?resize@?$vector@EV?$allocator@E@std@@@std@@QEAAX_K@Z DD imagerel $LN40
	DD	imagerel $LN40+125
	DD	imagerel $unwind$?resize@?$vector@EV?$allocator@E@std@@@std@@QEAAX_K@Z
pdata	ENDS
;	COMDAT pdata
pdata	SEGMENT
$pdata$??0?$Aes@$0BAA@@Cipher@@QEAA@QEAE@Z DD imagerel $LN4
	DD	imagerel $LN4+54
	DD	imagerel $unwind$??0?$Aes@$0BAA@@Cipher@@QEAA@QEAE@Z
pdata	ENDS
;	COMDAT pdata
pdata	SEGMENT
$pdata$?Disconnect@Client@@QEAAHXZ DD imagerel $LN14
	DD	imagerel $LN14+45
	DD	imagerel $unwind$?Disconnect@Client@@QEAAHXZ
pdata	ENDS
;	COMDAT pdata
pdata	SEGMENT
$pdata$?MakeServerRequest@Client@@QEAAHUClientRequest@@H@Z DD imagerel $LN62
	DD	imagerel $LN62+262
	DD	imagerel $unwind$?MakeServerRequest@Client@@QEAAHUClientRequest@@H@Z
pdata	ENDS
;	COMDAT pdata
pdata	SEGMENT
$pdata$?TCPSendMessageToServer@Client@@IEAAHUClientRequest@@@Z DD imagerel $LN126
	DD	imagerel $LN126+451
	DD	imagerel $unwind$?TCPSendMessageToServer@Client@@IEAAHUClientRequest@@@Z
pdata	ENDS
;	COMDAT pdata
pdata	SEGMENT
$pdata$?UDPSendMessageToServer@Client@@IEAAHUClientRequest@@@Z DD imagerel $LN125
	DD	imagerel $LN125+527
	DD	imagerel $unwind$?UDPSendMessageToServer@Client@@IEAAHUClientRequest@@@Z
pdata	ENDS
;	COMDAT pdata
pdata	SEGMENT
$pdata$?UDPRecvMessageFromServer@Client@@IEAA?AUUDPResponse@@XZ DD imagerel $LN185
	DD	imagerel $LN185+426
	DD	imagerel $unwind$?UDPRecvMessageFromServer@Client@@IEAA?AUUDPResponse@@XZ
pdata	ENDS
;	COMDAT pdata
pdata	SEGMENT
$pdata$?DecryptServerRequest@Client@@QEAA?AUServerCommand@@V?$vector@EV?$allocator@E@std@@@std@@@Z DD imagerel $LN40
	DD	imagerel $LN40+209
	DD	imagerel $unwind$?DecryptServerRequest@Client@@QEAA?AUServerCommand@@V?$vector@EV?$allocator@E@std@@@std@@@Z
pdata	ENDS
;	COMDAT pdata
pdata	SEGMENT
$pdata$??0NET_BLOB@@QEAA@AEBU0@@Z DD imagerel $LN19
	DD	imagerel $LN19+227
	DD	imagerel $unwind$??0NET_BLOB@@QEAA@AEBU0@@Z
pdata	ENDS
;	COMDAT pdata
pdata	SEGMENT
$pdata$?EncryptClientRequest@Client@@QEBA?AV?$vector@EV?$allocator@E@std@@@std@@UClientRequest@@@Z DD imagerel $LN63
	DD	imagerel $LN63+307
	DD	imagerel $unwind$?EncryptClientRequest@Client@@QEBA?AV?$vector@EV?$allocator@E@std@@@std@@UClientRequest@@@Z
pdata	ENDS
;	COMDAT pdata
pdata	SEGMENT
$pdata$?Connect@Client@@QEAAHXZ DD imagerel $LN99
	DD	imagerel $LN99+359
	DD	imagerel $unwind$?Connect@Client@@QEAAHXZ
pdata	ENDS
;	COMDAT pdata
pdata	SEGMENT
$pdata$??R<lambda_1>@?1???1Client@@QEAA@XZ@QEBAAEAV?$obfuscated_data@$0L@$0?DOJGCMFOPGMELMMP@D@ay@@XZ DD imagerel ??R<lambda_1>@?1???1Client@@QEAA@XZ@QEBAAEAV?$obfuscated_data@$0L@$0?DOJGCMFOPGMELMMP@D@ay@@XZ
	DD	imagerel ??R<lambda_1>@?1???1Client@@QEAA@XZ@QEBAAEAV?$obfuscated_data@$0L@$0?DOJGCMFOPGMELMMP@D@ay@@XZ+105
	DD	imagerel $unwind$??R<lambda_1>@?1???1Client@@QEAA@XZ@QEBAAEAV?$obfuscated_data@$0L@$0?DOJGCMFOPGMELMMP@D@ay@@XZ
pdata	ENDS
;	COMDAT pdata
pdata	SEGMENT
$pdata$?dtor$0@?0???R<lambda_1>@?1???1Client@@QEAA@XZ@QEBAAEAV?$obfuscated_data@$0L@$0?DOJGCMFOPGMELMMP@D@ay@@XZ@4HA DD imagerel ?dtor$0@?0???R<lambda_1>@?1???1Client@@QEAA@XZ@QEBAAEAV?$obfuscated_data@$0L@$0?DOJGCMFOPGMELMMP@D@ay@@XZ@4HA
	DD	imagerel ?dtor$0@?0???R<lambda_1>@?1???1Client@@QEAA@XZ@QEBAAEAV?$obfuscated_data@$0L@$0?DOJGCMFOPGMELMMP@D@ay@@XZ@4HA+87
	DD	imagerel $unwind$?dtor$0@?0???R<lambda_1>@?1???1Client@@QEAA@XZ@QEBAAEAV?$obfuscated_data@$0L@$0?DOJGCMFOPGMELMMP@D@ay@@XZ@4HA
pdata	ENDS
;	COMDAT pdata
pdata	SEGMENT
$pdata$??1Client@@QEAA@XZ DD imagerel $LN136
	DD	imagerel $LN136+345
	DD	imagerel $unwind$??1Client@@QEAA@XZ
pdata	ENDS
;	COMDAT pdata
pdata	SEGMENT
$pdata$??0Client@@QEAA@XZ DD imagerel $LN47
	DD	imagerel $LN47+104
	DD	imagerel $unwind$??0Client@@QEAA@XZ
pdata	ENDS
;	COMDAT pdata
pdata	SEGMENT
$pdata$??__Fadvapi32@freqDLLS@ProcessUtilities@@YAXXZ DD imagerel ??__Fadvapi32@freqDLLS@ProcessUtilities@@YAXXZ
	DD	imagerel ??__Fadvapi32@freqDLLS@ProcessUtilities@@YAXXZ+99
	DD	imagerel $unwind$??__Fadvapi32@freqDLLS@ProcessUtilities@@YAXXZ
pdata	ENDS
;	COMDAT pdata
pdata	SEGMENT
$pdata$??__Eadvapi32@freqDLLS@ProcessUtilities@@YAXXZ DD imagerel ??__Eadvapi32@freqDLLS@ProcessUtilities@@YAXXZ
	DD	imagerel ??__Eadvapi32@freqDLLS@ProcessUtilities@@YAXXZ+385
	DD	imagerel $unwind$??__Eadvapi32@freqDLLS@ProcessUtilities@@YAXXZ
pdata	ENDS
;	COMDAT pdata
pdata	SEGMENT
$pdata$?dtor$0@?0???__Eadvapi32@freqDLLS@ProcessUtilities@@YAXXZ@4HA DD imagerel ?dtor$0@?0???__Eadvapi32@freqDLLS@ProcessUtilities@@YAXXZ@4HA
	DD	imagerel ?dtor$0@?0???__Eadvapi32@freqDLLS@ProcessUtilities@@YAXXZ@4HA+87
	DD	imagerel $unwind$?dtor$0@?0???__Eadvapi32@freqDLLS@ProcessUtilities@@YAXXZ@4HA
pdata	ENDS
;	COMDAT pdata
pdata	SEGMENT
$pdata$??R<lambda_3>@freqDLLS@ProcessUtilities@@QEBAAEAV?$obfuscated_data@$0N@$0FHPLCBONHLGFABKJ@D@ay@@XZ DD imagerel ??R<lambda_3>@freqDLLS@ProcessUtilities@@QEBAAEAV?$obfuscated_data@$0N@$0FHPLCBONHLGFABKJ@D@ay@@XZ
	DD	imagerel ??R<lambda_3>@freqDLLS@ProcessUtilities@@QEBAAEAV?$obfuscated_data@$0N@$0FHPLCBONHLGFABKJ@D@ay@@XZ+111
	DD	imagerel $unwind$??R<lambda_3>@freqDLLS@ProcessUtilities@@QEBAAEAV?$obfuscated_data@$0N@$0FHPLCBONHLGFABKJ@D@ay@@XZ
pdata	ENDS
;	COMDAT pdata
pdata	SEGMENT
$pdata$?dtor$0@?0???R<lambda_3>@freqDLLS@ProcessUtilities@@QEBAAEAV?$obfuscated_data@$0N@$0FHPLCBONHLGFABKJ@D@ay@@XZ@4HA DD imagerel ?dtor$0@?0???R<lambda_3>@freqDLLS@ProcessUtilities@@QEBAAEAV?$obfuscated_data@$0N@$0FHPLCBONHLGFABKJ@D@ay@@XZ@4HA
	DD	imagerel ?dtor$0@?0???R<lambda_3>@freqDLLS@ProcessUtilities@@QEBAAEAV?$obfuscated_data@$0N@$0FHPLCBONHLGFABKJ@D@ay@@XZ@4HA+87
	DD	imagerel $unwind$?dtor$0@?0???R<lambda_3>@freqDLLS@ProcessUtilities@@QEBAAEAV?$obfuscated_data@$0N@$0FHPLCBONHLGFABKJ@D@ay@@XZ@4HA
pdata	ENDS
;	COMDAT pdata
pdata	SEGMENT
$pdata$??__Fntdll@freqDLLS@ProcessUtilities@@YAXXZ DD imagerel ??__Fntdll@freqDLLS@ProcessUtilities@@YAXXZ
	DD	imagerel ??__Fntdll@freqDLLS@ProcessUtilities@@YAXXZ+99
	DD	imagerel $unwind$??__Fntdll@freqDLLS@ProcessUtilities@@YAXXZ
pdata	ENDS
;	COMDAT pdata
pdata	SEGMENT
$pdata$??__Entdll@freqDLLS@ProcessUtilities@@YAXXZ DD imagerel ??__Entdll@freqDLLS@ProcessUtilities@@YAXXZ
	DD	imagerel ??__Entdll@freqDLLS@ProcessUtilities@@YAXXZ+385
	DD	imagerel $unwind$??__Entdll@freqDLLS@ProcessUtilities@@YAXXZ
pdata	ENDS
;	COMDAT pdata
pdata	SEGMENT
$pdata$?dtor$0@?0???__Entdll@freqDLLS@ProcessUtilities@@YAXXZ@4HA DD imagerel ?dtor$0@?0???__Entdll@freqDLLS@ProcessUtilities@@YAXXZ@4HA
	DD	imagerel ?dtor$0@?0???__Entdll@freqDLLS@ProcessUtilities@@YAXXZ@4HA+87
	DD	imagerel $unwind$?dtor$0@?0???__Entdll@freqDLLS@ProcessUtilities@@YAXXZ@4HA
pdata	ENDS
;	COMDAT pdata
pdata	SEGMENT
$pdata$??R<lambda_2>@freqDLLS@ProcessUtilities@@QEBAAEAV?$obfuscated_data@$09$0?BMGONCACNKPGIEIF@D@ay@@XZ DD imagerel ??R<lambda_2>@freqDLLS@ProcessUtilities@@QEBAAEAV?$obfuscated_data@$09$0?BMGONCACNKPGIEIF@D@ay@@XZ
	DD	imagerel ??R<lambda_2>@freqDLLS@ProcessUtilities@@QEBAAEAV?$obfuscated_data@$09$0?BMGONCACNKPGIEIF@D@ay@@XZ+108
	DD	imagerel $unwind$??R<lambda_2>@freqDLLS@ProcessUtilities@@QEBAAEAV?$obfuscated_data@$09$0?BMGONCACNKPGIEIF@D@ay@@XZ
pdata	ENDS
;	COMDAT pdata
pdata	SEGMENT
$pdata$?dtor$0@?0???R<lambda_2>@freqDLLS@ProcessUtilities@@QEBAAEAV?$obfuscated_data@$09$0?BMGONCACNKPGIEIF@D@ay@@XZ@4HA DD imagerel ?dtor$0@?0???R<lambda_2>@freqDLLS@ProcessUtilities@@QEBAAEAV?$obfuscated_data@$09$0?BMGONCACNKPGIEIF@D@ay@@XZ@4HA
	DD	imagerel ?dtor$0@?0???R<lambda_2>@freqDLLS@ProcessUtilities@@QEBAAEAV?$obfuscated_data@$09$0?BMGONCACNKPGIEIF@D@ay@@XZ@4HA+87
	DD	imagerel $unwind$?dtor$0@?0???R<lambda_2>@freqDLLS@ProcessUtilities@@QEBAAEAV?$obfuscated_data@$09$0?BMGONCACNKPGIEIF@D@ay@@XZ@4HA
pdata	ENDS
;	COMDAT pdata
pdata	SEGMENT
$pdata$??__Fkernel32@freqDLLS@ProcessUtilities@@YAXXZ DD imagerel ??__Fkernel32@freqDLLS@ProcessUtilities@@YAXXZ
	DD	imagerel ??__Fkernel32@freqDLLS@ProcessUtilities@@YAXXZ+99
	DD	imagerel $unwind$??__Fkernel32@freqDLLS@ProcessUtilities@@YAXXZ
pdata	ENDS
;	COMDAT pdata
pdata	SEGMENT
$pdata$??__Ekernel32@freqDLLS@ProcessUtilities@@YAXXZ DD imagerel ??__Ekernel32@freqDLLS@ProcessUtilities@@YAXXZ
	DD	imagerel ??__Ekernel32@freqDLLS@ProcessUtilities@@YAXXZ+385
	DD	imagerel $unwind$??__Ekernel32@freqDLLS@ProcessUtilities@@YAXXZ
pdata	ENDS
;	COMDAT pdata
pdata	SEGMENT
$pdata$?dtor$0@?0???__Ekernel32@freqDLLS@ProcessUtilities@@YAXXZ@4HA DD imagerel ?dtor$0@?0???__Ekernel32@freqDLLS@ProcessUtilities@@YAXXZ@4HA
	DD	imagerel ?dtor$0@?0???__Ekernel32@freqDLLS@ProcessUtilities@@YAXXZ@4HA+87
	DD	imagerel $unwind$?dtor$0@?0???__Ekernel32@freqDLLS@ProcessUtilities@@YAXXZ@4HA
pdata	ENDS
;	COMDAT pdata
pdata	SEGMENT
$pdata$??R<lambda_1>@freqDLLS@ProcessUtilities@@QEBAAEAV?$obfuscated_data@$0N@$0GPFFMNJFHLKDFJAP@D@ay@@XZ DD imagerel ??R<lambda_1>@freqDLLS@ProcessUtilities@@QEBAAEAV?$obfuscated_data@$0N@$0GPFFMNJFHLKDFJAP@D@ay@@XZ
	DD	imagerel ??R<lambda_1>@freqDLLS@ProcessUtilities@@QEBAAEAV?$obfuscated_data@$0N@$0GPFFMNJFHLKDFJAP@D@ay@@XZ+111
	DD	imagerel $unwind$??R<lambda_1>@freqDLLS@ProcessUtilities@@QEBAAEAV?$obfuscated_data@$0N@$0GPFFMNJFHLKDFJAP@D@ay@@XZ
pdata	ENDS
;	COMDAT pdata
pdata	SEGMENT
$pdata$?dtor$0@?0???R<lambda_1>@freqDLLS@ProcessUtilities@@QEBAAEAV?$obfuscated_data@$0N@$0GPFFMNJFHLKDFJAP@D@ay@@XZ@4HA DD imagerel ?dtor$0@?0???R<lambda_1>@freqDLLS@ProcessUtilities@@QEBAAEAV?$obfuscated_data@$0N@$0GPFFMNJFHLKDFJAP@D@ay@@XZ@4HA
	DD	imagerel ?dtor$0@?0???R<lambda_1>@freqDLLS@ProcessUtilities@@QEBAAEAV?$obfuscated_data@$0N@$0GPFFMNJFHLKDFJAP@D@ay@@XZ@4HA+87
	DD	imagerel $unwind$?dtor$0@?0???R<lambda_1>@freqDLLS@ProcessUtilities@@QEBAAEAV?$obfuscated_data@$0N@$0GPFFMNJFHLKDFJAP@D@ay@@XZ@4HA
pdata	ENDS
;	COMDAT pdata
pdata	SEGMENT
$pdata$??$cipher@D@ay@@YAXPEAD_K1@Z DD imagerel $LN29
	DD	imagerel $LN29+88
	DD	imagerel $unwind$??$cipher@D@ay@@YAXPEAD_K1@Z
pdata	ENDS
;	COMDAT pdata
pdata	SEGMENT
$pdata$1$??$cipher@D@ay@@YAXPEAD_K1@Z DD imagerel $LN29+88
	DD	imagerel $LN29+368
	DD	imagerel $chain$1$??$cipher@D@ay@@YAXPEAD_K1@Z
pdata	ENDS
;	COMDAT pdata
pdata	SEGMENT
$pdata$2$??$cipher@D@ay@@YAXPEAD_K1@Z DD imagerel $LN29+368
	DD	imagerel $LN29+400
	DD	imagerel $chain$2$??$cipher@D@ay@@YAXPEAD_K1@Z
pdata	ENDS
;	COMDAT pdata
pdata	SEGMENT
$pdata$??0ClientRequest@@QEAA@AEBU0@@Z DD imagerel $LN6
	DD	imagerel $LN6+49
	DD	imagerel $unwind$??0ClientRequest@@QEAA@AEBU0@@Z
pdata	ENDS
;	COMDAT pdata
pdata	SEGMENT
$pdata$?RequestToBlob@NetCommon@@YA?AUNET_BLOB@@UClientRequest@@V?$basic_string@DU?$char_traits@D@std@@V?$allocator@D@2@@std@@@Z DD imagerel $LN161
	DD	imagerel $LN161+404
	DD	imagerel $unwind$?RequestToBlob@NetCommon@@YA?AUNET_BLOB@@UClientRequest@@V?$basic_string@DU?$char_traits@D@std@@V?$allocator@D@2@@std@@@Z
pdata	ENDS
;	COMDAT pdata
pdata	SEGMENT
$pdata$??0ProcessInformation@@QEAA@AEBU0@@Z DD imagerel $LN6
	DD	imagerel $LN6+47
	DD	imagerel $unwind$??0ProcessInformation@@QEAA@AEBU0@@Z
pdata	ENDS
;	COMDAT pdata
pdata	SEGMENT
$pdata$??0ServerCommand@@QEAA@AEBU0@@Z DD imagerel $LN11
	DD	imagerel $LN11+105
	DD	imagerel $unwind$??0ServerCommand@@QEAA@AEBU0@@Z
pdata	ENDS
;	COMDAT pdata
pdata	SEGMENT
$pdata$??1ProcessInformation@@QEAA@XZ DD imagerel $LN48
	DD	imagerel $LN48+96
	DD	imagerel $unwind$??1ProcessInformation@@QEAA@XZ
pdata	ENDS
;	COMDAT pdata
pdata	SEGMENT
$pdata$??1ServerCommand@@QEAA@XZ DD imagerel $LN134
	DD	imagerel $LN134+250
	DD	imagerel $unwind$??1ServerCommand@@QEAA@XZ
pdata	ENDS
;	COMDAT pdata
pdata	SEGMENT
$pdata$??1ClientRequest@@QEAA@XZ DD imagerel $LN48
	DD	imagerel $LN48+96
	DD	imagerel $unwind$??1ClientRequest@@QEAA@XZ
pdata	ENDS
;	COMDAT pdata
pdata	SEGMENT
$pdata$??1NET_BLOB@@QEAA@XZ DD imagerel $LN94
	DD	imagerel $LN94+195
	DD	imagerel $unwind$??1NET_BLOB@@QEAA@XZ
pdata	ENDS
;	COMDAT pdata
pdata	SEGMENT
$pdata$?DecryptByteString@NetCommon@@YAXAEAV?$vector@EV?$allocator@E@std@@@std@@V?$basic_string@DU?$char_traits@D@std@@V?$allocator@D@2@@3@@Z DD imagerel $LN94
	DD	imagerel $LN94+387
	DD	imagerel $unwind$?DecryptByteString@NetCommon@@YAXAEAV?$vector@EV?$allocator@E@std@@@std@@V?$basic_string@DU?$char_traits@D@std@@V?$allocator@D@2@@3@@Z
pdata	ENDS
;	COMDAT pdata
pdata	SEGMENT
$pdata$?SerializeString@NetCommon@@YA?AV?$vector@EV?$allocator@E@std@@@std@@V?$basic_string@DU?$char_traits@D@std@@V?$allocator@D@2@@3@@Z DD imagerel $LN96
	DD	imagerel $LN96+284
	DD	imagerel $unwind$?SerializeString@NetCommon@@YA?AV?$vector@EV?$allocator@E@std@@@std@@V?$basic_string@DU?$char_traits@D@std@@V?$allocator@D@2@@3@@Z
pdata	ENDS
;	COMDAT pdata
pdata	SEGMENT
$pdata$?dtor$1@?0??SerializeString@NetCommon@@YA?AV?$vector@EV?$allocator@E@std@@@std@@V?$basic_string@DU?$char_traits@D@std@@V?$allocator@D@2@@3@@Z@4HA DD imagerel ?dtor$1@?0??SerializeString@NetCommon@@YA?AV?$vector@EV?$allocator@E@std@@@std@@V?$basic_string@DU?$char_traits@D@std@@V?$allocator@D@2@@3@@Z@4HA
	DD	imagerel ?dtor$1@?0??SerializeString@NetCommon@@YA?AV?$vector@EV?$allocator@E@std@@@std@@V?$basic_string@DU?$char_traits@D@std@@V?$allocator@D@2@@3@@Z@4HA+38
	DD	imagerel $unwind$?dtor$1@?0??SerializeString@NetCommon@@YA?AV?$vector@EV?$allocator@E@std@@@std@@V?$basic_string@DU?$char_traits@D@std@@V?$allocator@D@2@@3@@Z@4HA
pdata	ENDS
;	COMDAT pdata
pdata	SEGMENT
$pdata$?_Xlen_string@std@@YAXXZ DD imagerel $LN4
	DD	imagerel $LN4+17
	DD	imagerel $unwind$?_Xlen_string@std@@YAXXZ
pdata	ENDS
;	COMDAT pdata
pdata	SEGMENT
$pdata$?_Adjust_manually_vector_aligned@std@@YAXAEAPEAXAEA_K@Z DD imagerel $LN13
	DD	imagerel $LN13+42
	DD	imagerel $unwind$?_Adjust_manually_vector_aligned@std@@YAXAEAPEAXAEA_K@Z
pdata	ENDS
;	COMDAT pdata
pdata	SEGMENT
$pdata$??0bad_alloc@std@@QEAA@AEBV01@@Z DD imagerel $LN9
	DD	imagerel $LN9+60
	DD	imagerel $unwind$??0bad_alloc@std@@QEAA@AEBV01@@Z
pdata	ENDS
;	COMDAT pdata
pdata	SEGMENT
$pdata$??0bad_array_new_length@std@@QEAA@AEBV01@@Z DD imagerel $LN14
	DD	imagerel $LN14+60
	DD	imagerel $unwind$??0bad_array_new_length@std@@QEAA@AEBV01@@Z
pdata	ENDS
;	COMDAT pdata
pdata	SEGMENT
$pdata$?_Throw_bad_array_new_length@std@@YAXXZ DD imagerel $LN4
	DD	imagerel $LN4+32
	DD	imagerel $unwind$?_Throw_bad_array_new_length@std@@YAXXZ
pdata	ENDS
;	COMDAT pdata
pdata	SEGMENT
$pdata$??_Gbad_array_new_length@std@@UEAAPEAXI@Z DD imagerel $LN22
	DD	imagerel $LN22+66
	DD	imagerel $unwind$??_Gbad_array_new_length@std@@UEAAPEAXI@Z
pdata	ENDS
;	COMDAT pdata
pdata	SEGMENT
$pdata$??_Gbad_alloc@std@@UEAAPEAXI@Z DD imagerel $LN17
	DD	imagerel $LN17+66
	DD	imagerel $unwind$??_Gbad_alloc@std@@UEAAPEAXI@Z
pdata	ENDS
;	COMDAT pdata
pdata	SEGMENT
$pdata$??_Gexception@std@@UEAAPEAXI@Z DD imagerel $LN12
	DD	imagerel $LN12+66
	DD	imagerel $unwind$??_Gexception@std@@UEAAPEAXI@Z
pdata	ENDS
;	COMDAT pdata
pdata	SEGMENT
$pdata$??0exception@std@@QEAA@AEBV01@@Z DD imagerel $LN6
	DD	imagerel $LN6+50
	DD	imagerel $unwind$??0exception@std@@QEAA@AEBV01@@Z
pdata	ENDS
CRT$XCU	SEGMENT
?kernel32$initializer$@freqDLLS@ProcessUtilities@@3P6AXXZEA DQ FLAT:??__Ekernel32@freqDLLS@ProcessUtilities@@YAXXZ ; ProcessUtilities::freqDLLS::kernel32$initializer$
;	COMDAT __xmm@ffc3978bc98f5399ffc3978bc98f5399
CONST	SEGMENT
__xmm@ffc3978bc98f5399ffc3978bc98f5399 DB 099H, 'S', 08fH, 0c9H, 08bH, 097H
	DB	0c3H, 0ffH, 099H, 'S', 08fH, 0c9H, 08bH, 097H, 0c3H, 0ffH
CONST	ENDS
;	COMDAT __xmm@f84b90168c657a50f25b8d0688653364
CONST	SEGMENT
__xmm@f84b90168c657a50f25b8d0688653364 DB 'd3e', 088H, 06H, 08dH, '[', 0f2H
	DB	'Pze', 08cH, 016H, 090H, 'K', 0f8H
CONST	ENDS
;	COMDAT __xmm@ea1fa840ff5c7142b35b8e0c830b3a4a
CONST	SEGMENT
__xmm@ea1fa840ff5c7142b35b8e0c830b3a4a DB 'J:', 0bH, 083H, 0cH, 08eH, '[', 0b3H
	DB	'Bq\', 0ffH, '@', 0a8H, 01fH, 0eaH
CONST	ENDS
;	COMDAT __xmm@e3912dfd25097b7be3912dfd25097b7b
CONST	SEGMENT
__xmm@e3912dfd25097b7be3912dfd25097b7b DB '{{', 09H, '%', 0fdH, '-', 091H
	DB	0e3H, '{{', 09H, '%', 0fdH, '-', 091H, 0e3H
CONST	ENDS
;	COMDAT __xmm@dff77dcf6f49fdebdff77dcf6f49fdeb
CONST	SEGMENT
__xmm@dff77dcf6f49fdebdff77dcf6f49fdeb DB 0ebH, 0fdH, 'Io', 0cfH, '}', 0f7H
	DB	0dfH, 0ebH, 0fdH, 'Io', 0cfH, '}', 0f7H, 0dfH
CONST	ENDS
;	COMDAT __xmm@dfa009bc1d20bbd9ec840eaa0c268fbb
CONST	SEGMENT
__xmm@dfa009bc1d20bbd9ec840eaa0c268fbb DB 0bbH, 08fH, '&', 0cH, 0aaH, 0eH
	DB	084H, 0ecH, 0d9H, 0bbH, ' ', 01dH, 0bcH, 09H, 0a0H, 0dfH
CONST	ENDS
;	COMDAT __xmm@d11bf34b25d5a973d11bf34b25d5a973
CONST	SEGMENT
__xmm@d11bf34b25d5a973d11bf34b25d5a973 DB 's', 0a9H, 0d5H, '%K', 0f3H, 01bH
	DB	0d1H, 's', 0a9H, 0d5H, '%K', 0f3H, 01bH, 0d1H
CONST	ENDS
;	COMDAT __xmm@cff1734fb9430b19cff1734fb9430b19
CONST	SEGMENT
__xmm@cff1734fb9430b19cff1734fb9430b19 DB 019H, 0bH, 'C', 0b9H, 'Os', 0f1H
	DB	0cfH, 019H, 0bH, 'C', 0b9H, 'Os', 0f1H, 0cfH
CONST	ENDS
;	COMDAT __xmm@cf2529af23519919cf2529af23519919
CONST	SEGMENT
__xmm@cf2529af23519919cf2529af23519919 DB 019H, 099H, 'Q#', 0afH, ')%', 0cfH
	DB	019H, 099H, 'Q#', 0afH, ')%', 0cfH
CONST	ENDS
;	COMDAT __xmm@cd49476d59cbbb6bcd49476d59cbbb6b
CONST	SEGMENT
__xmm@cd49476d59cbbb6bcd49476d59cbbb6b DB 'k', 0bbH, 0cbH, 'YmGI', 0cdH, 'k'
	DB	0bbH, 0cbH, 'YmGI', 0cdH
CONST	ENDS
;	COMDAT __xmm@cc9c0a827d06135ac7941e9f54130a72
CONST	SEGMENT
__xmm@cc9c0a827d06135ac7941e9f54130a72 DB 'r', 0aH, 013H, 'T', 09fH, 01eH
	DB	094H, 0c7H, 'Z', 013H, 06H, '}', 082H, 0aH, 09cH, 0ccH
CONST	ENDS
;	COMDAT __xmm@bd4045c34225ea7786414cdb5024eb4d
CONST	SEGMENT
__xmm@bd4045c34225ea7786414cdb5024eb4d DB 'M', 0ebH, '$P', 0dbH, 'LA', 086H
	DB	'w', 0eaH, '%B', 0c3H, 'E@', 0bdH
CONST	ENDS
;	COMDAT __xmm@b920101e2aaed804bf19221938aec928
CONST	SEGMENT
__xmm@b920101e2aaed804bf19221938aec928 DB '(', 0c9H, 0aeH, '8', 019H, '"', 019H
	DB	0bfH, 04H, 0d8H, 0aeH, '*', 01eH, 010H, ' ', 0b9H
CONST	ENDS
;	COMDAT __xmm@ae8f341def7b9fc9b49d3413b83bc697
CONST	SEGMENT
__xmm@ae8f341def7b9fc9b49d3413b83bc697 DB 097H, 0c6H, ';', 0b8H, 013H, '4'
	DB	09dH, 0b4H, 0c9H, 09fH, '{', 0efH, 01dH, '4', 08fH, 0aeH
CONST	ENDS
;	COMDAT __xmm@a9fb6ded3163673ba9fb6ded3163673b
CONST	SEGMENT
__xmm@a9fb6ded3163673ba9fb6ded3163673b DB ';gc1', 0edH, 'm', 0fbH, 0a9H, ';'
	DB	'gc1', 0edH, 'm', 0fbH, 0a9H
CONST	ENDS
;	COMDAT __xmm@9d3fe36fdf3909279d3fe36fdf390927
CONST	SEGMENT
__xmm@9d3fe36fdf3909279d3fe36fdf390927 DB '''', 09H, '9', 0dfH, 'o', 0e3H
	DB	'?', 09dH, '''', 09H, '9', 0dfH, 'o', 0e3H, '?', 09dH
CONST	ENDS
;	COMDAT __xmm@95db052fc5cb633595db052fc5cb6335
CONST	SEGMENT
__xmm@95db052fc5cb633595db052fc5cb6335 DB '5c', 0cbH, 0c5H, '/', 05H, 0dbH
	DB	095H, '5c', 0cbH, 0c5H, '/', 05H, 0dbH, 095H
CONST	ENDS
;	COMDAT __xmm@89f52b3945a9b13589f52b3945a9b135
CONST	SEGMENT
__xmm@89f52b3945a9b13589f52b3945a9b135 DB '5', 0b1H, 0a9H, 'E9+', 0f5H, 089H
	DB	'5', 0b1H, 0a9H, 'E9+', 0f5H, 089H
CONST	ENDS
;	COMDAT __xmm@8707dd23b1c9b5ef8707dd23b1c9b5ef
CONST	SEGMENT
__xmm@8707dd23b1c9b5ef8707dd23b1c9b5ef DB 0efH, 0b5H, 0c9H, 0b1H, '#', 0ddH
	DB	07H, 087H, 0efH, 0b5H, 0c9H, 0b1H, '#', 0ddH, 07H, 087H
CONST	ENDS
;	COMDAT __xmm@83af0533df55afe783af0533df55afe7
CONST	SEGMENT
__xmm@83af0533df55afe783af0533df55afe7 DB 0e7H, 0afH, 'U', 0dfH, '3', 05H
	DB	0afH, 083H, 0e7H, 0afH, 'U', 0dfH, '3', 05H, 0afH, 083H
CONST	ENDS
;	COMDAT __xmm@7d561b665c567c057b523c4c4b506022
CONST	SEGMENT
__xmm@7d561b665c567c057b523c4c4b506022 DB '"`PKL<R{', 05H, '|V\f', 01bH, 'V'
	DB	'}'
CONST	ENDS
;	COMDAT __xmm@7d410717b555f99b7d410717b555f99b
CONST	SEGMENT
__xmm@7d410717b555f99b7d410717b555f99b DB 09bH, 0f9H, 'U', 0b5H, 017H, 07H
	DB	'A}', 09bH, 0f9H, 'U', 0b5H, 017H, 07H, 'A}'
CONST	ENDS
;	COMDAT __xmm@6f55cd957ba3590f6f55cd957ba3590f
CONST	SEGMENT
__xmm@6f55cd957ba3590f6f55cd957ba3590f DB 0fH, 'Y', 0a3H, '{', 095H, 0cdH
	DB	'Uo', 0fH, 'Y', 0a3H, '{', 095H, 0cdH, 'Uo'
CONST	ENDS
;	COMDAT __xmm@57fb21ed7b6501a957fb21ed7b6501a9
CONST	SEGMENT
__xmm@57fb21ed7b6501a957fb21ed7b6501a9 DB 0a9H, 01H, 'e{', 0edH, '!', 0fbH
	DB	'W', 0a9H, 01H, 'e{', 0edH, '!', 0fbH, 'W'
CONST	ENDS
;	COMDAT __xmm@2327bd999f9f81c52327bd999f9f81c5
CONST	SEGMENT
__xmm@2327bd999f9f81c52327bd999f9f81c5 DB 0c5H, 081H, 09fH, 09fH, 099H, 0bdH
	DB	'''#', 0c5H, 081H, 09fH, 09fH, 099H, 0bdH, '''#'
CONST	ENDS
;	COMDAT __xmm@193305173d3dc37b193305173d3dc37b
CONST	SEGMENT
__xmm@193305173d3dc37b193305173d3dc37b DB '{', 0c3H, '==', 017H, 05H, '3', 019H
	DB	'{', 0c3H, '==', 017H, 05H, '3', 019H
CONST	ENDS
;	COMDAT __xmm@1301a3a71d258b291301a3a71d258b29
CONST	SEGMENT
__xmm@1301a3a71d258b291301a3a71d258b29 DB ')', 08bH, '%', 01dH, 0a7H, 0a3H
	DB	01H, 013H, ')', 08bH, '%', 01dH, 0a7H, 0a3H, 01H, 013H
CONST	ENDS
;	COMDAT __xmm@1114cdf5faf7edaa4c73d8edfefaf386
CONST	SEGMENT
__xmm@1114cdf5faf7edaa4c73d8edfefaf386 DB 086H, 0f3H, 0faH, 0feH, 0edH, 0d8H
	DB	'sL', 0aaH, 0edH, 0f7H, 0faH, 0f5H, 0cdH, 014H, 011H
CONST	ENDS
;	COMDAT __xmm@09376f353935157309376f3539351573
CONST	SEGMENT
__xmm@09376f353935157309376f3539351573 DB 's', 015H, '595o7', 09H, 's', 015H
	DB	'595o7', 09H
CONST	ENDS
;	COMDAT __xmm@00000000000008000000000000000800
CONST	SEGMENT
__xmm@00000000000008000000000000000800 DB 00H, 08H, 00H, 00H, 00H, 00H, 00H
	DB	00H, 00H, 08H, 00H, 00H, 00H, 00H, 00H, 00H
CONST	ENDS
;	COMDAT __xmm@000000000000000f0000000000000000
CONST	SEGMENT
__xmm@000000000000000f0000000000000000 DB 00H, 00H, 00H, 00H, 00H, 00H, 00H
	DB	00H, 0fH, 00H, 00H, 00H, 00H, 00H, 00H, 00H
CONST	ENDS
;	COMDAT __xmm@00000000000000070000000000000007
CONST	SEGMENT
__xmm@00000000000000070000000000000007 DB 07H, 00H, 00H, 00H, 00H, 00H, 00H
	DB	00H, 07H, 00H, 00H, 00H, 00H, 00H, 00H, 00H
CONST	ENDS
;	COMDAT __xmm@00000000000000070000000000000006
CONST	SEGMENT
__xmm@00000000000000070000000000000006 DB 06H, 00H, 00H, 00H, 00H, 00H, 00H
	DB	00H, 07H, 00H, 00H, 00H, 00H, 00H, 00H, 00H
CONST	ENDS
;	COMDAT __xmm@00000000000000050000000000000004
CONST	SEGMENT
__xmm@00000000000000050000000000000004 DB 04H, 00H, 00H, 00H, 00H, 00H, 00H
	DB	00H, 05H, 00H, 00H, 00H, 00H, 00H, 00H, 00H
CONST	ENDS
;	COMDAT __xmm@00000000000000030000000000000002
CONST	SEGMENT
__xmm@00000000000000030000000000000002 DB 02H, 00H, 00H, 00H, 00H, 00H, 00H
	DB	00H, 03H, 00H, 00H, 00H, 00H, 00H, 00H, 00H
CONST	ENDS
;	COMDAT __xmm@00000000000000010000000000000000
CONST	SEGMENT
__xmm@00000000000000010000000000000000 DB 00H, 00H, 00H, 00H, 00H, 00H, 00H
	DB	00H, 01H, 00H, 00H, 00H, 00H, 00H, 00H, 00H
CONST	ENDS
;	COMDAT __real@5f000000
CONST	SEGMENT
__real@5f000000 DD 05f000000r			; 9.22337e+18
CONST	ENDS
;	COMDAT xdata
xdata	SEGMENT
$unwind$??0exception@std@@QEAA@AEBV01@@Z DD 020601H
	DD	030023206H
xdata	ENDS
;	COMDAT xdata
xdata	SEGMENT
$unwind$??_Gexception@std@@UEAAPEAXI@Z DD 040a01H
	DD	06340aH
	DD	07006320aH
xdata	ENDS
;	COMDAT xdata
xdata	SEGMENT
$unwind$??_Gbad_alloc@std@@UEAAPEAXI@Z DD 040a01H
	DD	06340aH
	DD	07006320aH
xdata	ENDS
;	COMDAT xdata
xdata	SEGMENT
$unwind$??_Gbad_array_new_length@std@@UEAAPEAXI@Z DD 040a01H
	DD	06340aH
	DD	07006320aH
xdata	ENDS
;	COMDAT xdata
xdata	SEGMENT
$unwind$?_Throw_bad_array_new_length@std@@YAXXZ DD 010401H
	DD	08204H
xdata	ENDS
;	COMDAT xdata
xdata	SEGMENT
$unwind$??0bad_array_new_length@std@@QEAA@AEBV01@@Z DD 020601H
	DD	030023206H
xdata	ENDS
;	COMDAT xdata
xdata	SEGMENT
$unwind$??0bad_alloc@std@@QEAA@AEBV01@@Z DD 020601H
	DD	030023206H
xdata	ENDS
;	COMDAT xdata
xdata	SEGMENT
$unwind$?_Adjust_manually_vector_aligned@std@@YAXAEAPEAXAEA_K@Z DD 010401H
	DD	04204H
xdata	ENDS
;	COMDAT xdata
xdata	SEGMENT
$unwind$?_Xlen_string@std@@YAXXZ DD 010401H
	DD	04204H
xdata	ENDS
;	COMDAT xdata
xdata	SEGMENT
$unwind$?dtor$1@?0??SerializeString@NetCommon@@YA?AV?$vector@EV?$allocator@E@std@@@std@@V?$basic_string@DU?$char_traits@D@std@@V?$allocator@D@2@@3@@Z@4HA DD 020601H
	DD	050023206H
xdata	ENDS
;	COMDAT xdata
xdata	SEGMENT
$ip2state$?SerializeString@NetCommon@@YA?AV?$vector@EV?$allocator@E@std@@@std@@V?$basic_string@DU?$char_traits@D@std@@V?$allocator@D@2@@3@@Z DB 04H
	DB	085H, 02H
	DB	04H
	DB	0baH
	DB	02H
xdata	ENDS
;	COMDAT xdata
xdata	SEGMENT
$stateUnwindMap$?SerializeString@NetCommon@@YA?AV?$vector@EV?$allocator@E@std@@@std@@V?$basic_string@DU?$char_traits@D@std@@V?$allocator@D@2@@3@@Z DB 04H
	DB	0eH
	DD	imagerel ?dtor$1@?0??SerializeString@NetCommon@@YA?AV?$vector@EV?$allocator@E@std@@@std@@V?$basic_string@DU?$char_traits@D@std@@V?$allocator@D@2@@3@@Z@4HA
	DB	02cH
	DD	imagerel ??1?$basic_string@DU?$char_traits@D@std@@V?$allocator@D@2@@std@@QEAA@XZ
	DB	060H
xdata	ENDS
;	COMDAT xdata
xdata	SEGMENT
$cppxdata$?SerializeString@NetCommon@@YA?AV?$vector@EV?$allocator@E@std@@@std@@V?$basic_string@DU?$char_traits@D@std@@V?$allocator@D@2@@3@@Z DB 028H
	DD	imagerel $stateUnwindMap$?SerializeString@NetCommon@@YA?AV?$vector@EV?$allocator@E@std@@@std@@V?$basic_string@DU?$char_traits@D@std@@V?$allocator@D@2@@3@@Z
	DD	imagerel $ip2state$?SerializeString@NetCommon@@YA?AV?$vector@EV?$allocator@E@std@@@std@@V?$basic_string@DU?$char_traits@D@std@@V?$allocator@D@2@@3@@Z
xdata	ENDS
;	COMDAT xdata
xdata	SEGMENT
$unwind$?SerializeString@NetCommon@@YA?AV?$vector@EV?$allocator@E@std@@@std@@V?$basic_string@DU?$char_traits@D@std@@V?$allocator@D@2@@3@@Z DD 082119H
	DD	0f5412H
	DD	0e3412H
	DD	0e00e7212H
	DD	0600b700cH
	DD	imagerel __GSHandlerCheck_EH4
	DD	imagerel $cppxdata$?SerializeString@NetCommon@@YA?AV?$vector@EV?$allocator@E@std@@@std@@V?$basic_string@DU?$char_traits@D@std@@V?$allocator@D@2@@3@@Z
	DD	03aH
xdata	ENDS
;	COMDAT xdata
xdata	SEGMENT
$ip2state$?DecryptByteString@NetCommon@@YAXAEAV?$vector@EV?$allocator@E@std@@@std@@V?$basic_string@DU?$char_traits@D@std@@V?$allocator@D@2@@3@@Z DB 06H
	DB	'|'
	DB	02H
	DB	'M', 03H
	DB	00H
	DB	0ccH
	DB	02H
xdata	ENDS
;	COMDAT xdata
xdata	SEGMENT
$stateUnwindMap$?DecryptByteString@NetCommon@@YAXAEAV?$vector@EV?$allocator@E@std@@@std@@V?$basic_string@DU?$char_traits@D@std@@V?$allocator@D@2@@3@@Z DB 02H
	DB	0cH
	DD	imagerel ??1?$basic_string@DU?$char_traits@D@std@@V?$allocator@D@2@@std@@QEAA@XZ
	DB	090H
xdata	ENDS
;	COMDAT xdata
xdata	SEGMENT
$cppxdata$?DecryptByteString@NetCommon@@YAXAEAV?$vector@EV?$allocator@E@std@@@std@@V?$basic_string@DU?$char_traits@D@std@@V?$allocator@D@2@@3@@Z DB 028H
	DD	imagerel $stateUnwindMap$?DecryptByteString@NetCommon@@YAXAEAV?$vector@EV?$allocator@E@std@@@std@@V?$basic_string@DU?$char_traits@D@std@@V?$allocator@D@2@@3@@Z
	DD	imagerel $ip2state$?DecryptByteString@NetCommon@@YAXAEAV?$vector@EV?$allocator@E@std@@@std@@V?$basic_string@DU?$char_traits@D@std@@V?$allocator@D@2@@3@@Z
xdata	ENDS
;	COMDAT xdata
xdata	SEGMENT
$unwind$?DecryptByteString@NetCommon@@YAXAEAV?$vector@EV?$allocator@E@std@@@std@@V?$basic_string@DU?$char_traits@D@std@@V?$allocator@D@2@@3@@Z DD 051f19H
	DD	032340dH
	DD	02e010dH
	DD	07006H
	DD	imagerel __GSHandlerCheck_EH4
	DD	imagerel $cppxdata$?DecryptByteString@NetCommon@@YAXAEAV?$vector@EV?$allocator@E@std@@@std@@V?$basic_string@DU?$char_traits@D@std@@V?$allocator@D@2@@3@@Z
	DD	0162H
xdata	ENDS
;	COMDAT xdata
xdata	SEGMENT
$unwind$??1NET_BLOB@@QEAA@XZ DD 020601H
	DD	030023206H
xdata	ENDS
;	COMDAT xdata
xdata	SEGMENT
$unwind$??1ClientRequest@@QEAA@XZ DD 020601H
	DD	030023206H
xdata	ENDS
;	COMDAT xdata
xdata	SEGMENT
$unwind$??1ServerCommand@@QEAA@XZ DD 020601H
	DD	030023206H
xdata	ENDS
;	COMDAT xdata
xdata	SEGMENT
$unwind$??1ProcessInformation@@QEAA@XZ DD 020601H
	DD	030023206H
xdata	ENDS
;	COMDAT xdata
xdata	SEGMENT
$ip2state$??0ServerCommand@@QEAA@AEBU0@@Z DB 06H
	DB	'h'
	DB	00H
	DB	01cH
	DB	02H
	DB	01cH
	DB	04H
xdata	ENDS
;	COMDAT xdata
xdata	SEGMENT
$stateUnwindMap$??0ServerCommand@@QEAA@AEBU0@@Z DB 04H
	DB	0eH
	DD	imagerel ?dtor$0@?0???0ServerCommand@@QEAA@AEBU0@@Z@4HA
	DB	02eH
	DD	imagerel ?dtor$1@?0???0ServerCommand@@QEAA@AEBU0@@Z@4HA
xdata	ENDS
;	COMDAT xdata
xdata	SEGMENT
$cppxdata$??0ServerCommand@@QEAA@AEBU0@@Z DB 028H
	DD	imagerel $stateUnwindMap$??0ServerCommand@@QEAA@AEBU0@@Z
	DD	imagerel $ip2state$??0ServerCommand@@QEAA@AEBU0@@Z
xdata	ENDS
;	COMDAT xdata
xdata	SEGMENT
$unwind$??0ServerCommand@@QEAA@AEBU0@@Z DD 040f11H
	DD	07340fH
	DD	0700b320fH
	DD	imagerel __CxxFrameHandler4
	DD	imagerel $cppxdata$??0ServerCommand@@QEAA@AEBU0@@Z
xdata	ENDS
;	COMDAT xdata
xdata	SEGMENT
$unwind$??0ProcessInformation@@QEAA@AEBU0@@Z DD 020601H
	DD	030023206H
xdata	ENDS
;	COMDAT xdata
xdata	SEGMENT
$ip2state$?RequestToBlob@NetCommon@@YA?AUNET_BLOB@@UClientRequest@@V?$basic_string@DU?$char_traits@D@std@@V?$allocator@D@2@@std@@@Z DB 06H
	DB	09eH
	DB	04H
	DB	'%', 02H
	DB	08H
	DB	'm', 02H
	DB	00H
xdata	ENDS
;	COMDAT xdata
xdata	SEGMENT
$stateUnwindMap$?RequestToBlob@NetCommon@@YA?AUNET_BLOB@@UClientRequest@@V?$basic_string@DU?$char_traits@D@std@@V?$allocator@D@2@@std@@@Z DB 08H
	DB	0cH
	DD	imagerel ??1?$basic_string@DU?$char_traits@D@std@@V?$allocator@D@2@@std@@QEAA@XZ
	DB	090H
	DB	034H
	DD	imagerel ??1ClientRequest@@QEAA@XZ
	DB	080H
	DB	034H
	DD	imagerel ??1ClientRequest@@QEAA@XZ
	DB	060H
	DB	036H
	DD	imagerel ?dtor$7@?0??RequestToBlob@NetCommon@@YA?AUNET_BLOB@@UClientRequest@@V?$basic_string@DU?$char_traits@D@std@@V?$allocator@D@2@@std@@@Z@4HA
xdata	ENDS
;	COMDAT xdata
xdata	SEGMENT
$cppxdata$?RequestToBlob@NetCommon@@YA?AUNET_BLOB@@UClientRequest@@V?$basic_string@DU?$char_traits@D@std@@V?$allocator@D@2@@std@@@Z DB 028H
	DD	imagerel $stateUnwindMap$?RequestToBlob@NetCommon@@YA?AUNET_BLOB@@UClientRequest@@V?$basic_string@DU?$char_traits@D@std@@V?$allocator@D@2@@std@@@Z
	DD	imagerel $ip2state$?RequestToBlob@NetCommon@@YA?AUNET_BLOB@@UClientRequest@@V?$basic_string@DU?$char_traits@D@std@@V?$allocator@D@2@@std@@@Z
xdata	ENDS
;	COMDAT xdata
xdata	SEGMENT
$unwind$?RequestToBlob@NetCommon@@YA?AUNET_BLOB@@UClientRequest@@V?$basic_string@DU?$char_traits@D@std@@V?$allocator@D@2@@std@@@Z DD 061b19H
	DD	013340cH
	DD	07008b20cH
	DD	050066007H
	DD	imagerel __GSHandlerCheck_EH4
	DD	imagerel $cppxdata$?RequestToBlob@NetCommon@@YA?AUNET_BLOB@@UClientRequest@@V?$basic_string@DU?$char_traits@D@std@@V?$allocator@D@2@@std@@@Z
	DD	052H
xdata	ENDS
;	COMDAT xdata
xdata	SEGMENT
$unwind$??0ClientRequest@@QEAA@AEBU0@@Z DD 020601H
	DD	030023206H
xdata	ENDS
;	COMDAT xdata
xdata	SEGMENT
$chain$2$??$cipher@D@ay@@YAXPEAD_K1@Z DD 021H
	DD	imagerel $LN29
	DD	imagerel $LN29+88
	DD	imagerel $unwind$??$cipher@D@ay@@YAXPEAD_K1@Z
xdata	ENDS
;	COMDAT xdata
xdata	SEGMENT
$chain$1$??$cipher@D@ay@@YAXPEAD_K1@Z DD 041021H
	DD	07410H
	DD	023405H
	DD	imagerel $LN29
	DD	imagerel $LN29+88
	DD	imagerel $unwind$??$cipher@D@ay@@YAXPEAD_K1@Z
xdata	ENDS
;	COMDAT xdata
xdata	SEGMENT
$unwind$??$cipher@D@ay@@YAXPEAD_K1@Z DD 010401H
	DD	0204H
xdata	ENDS
;	COMDAT xdata
xdata	SEGMENT
$unwind$?dtor$0@?0???R<lambda_1>@freqDLLS@ProcessUtilities@@QEBAAEAV?$obfuscated_data@$0N@$0GPFFMNJFHLKDFJAP@D@ay@@XZ@4HA DD 010201H
	DD	05002H
xdata	ENDS
;	COMDAT xdata
xdata	SEGMENT
$ip2state$??R<lambda_1>@freqDLLS@ProcessUtilities@@QEBAAEAV?$obfuscated_data@$0N@$0GPFFMNJFHLKDFJAP@D@ay@@XZ DB 02H
	DB	0acH
	DB	02H
xdata	ENDS
;	COMDAT xdata
xdata	SEGMENT
$stateUnwindMap$??R<lambda_1>@freqDLLS@ProcessUtilities@@QEBAAEAV?$obfuscated_data@$0N@$0GPFFMNJFHLKDFJAP@D@ay@@XZ DB 02H
	DB	0eH
	DD	imagerel ?dtor$0@?0???R<lambda_1>@freqDLLS@ProcessUtilities@@QEBAAEAV?$obfuscated_data@$0N@$0GPFFMNJFHLKDFJAP@D@ay@@XZ@4HA
xdata	ENDS
;	COMDAT xdata
xdata	SEGMENT
$cppxdata$??R<lambda_1>@freqDLLS@ProcessUtilities@@QEBAAEAV?$obfuscated_data@$0N@$0GPFFMNJFHLKDFJAP@D@ay@@XZ DB 028H
	DD	imagerel $stateUnwindMap$??R<lambda_1>@freqDLLS@ProcessUtilities@@QEBAAEAV?$obfuscated_data@$0N@$0GPFFMNJFHLKDFJAP@D@ay@@XZ
	DD	imagerel $ip2state$??R<lambda_1>@freqDLLS@ProcessUtilities@@QEBAAEAV?$obfuscated_data@$0N@$0GPFFMNJFHLKDFJAP@D@ay@@XZ
xdata	ENDS
;	COMDAT xdata
xdata	SEGMENT
$unwind$??R<lambda_1>@freqDLLS@ProcessUtilities@@QEBAAEAV?$obfuscated_data@$0N@$0GPFFMNJFHLKDFJAP@D@ay@@XZ DD 020611H
	DD	030023206H
	DD	imagerel __CxxFrameHandler4
	DD	imagerel $cppxdata$??R<lambda_1>@freqDLLS@ProcessUtilities@@QEBAAEAV?$obfuscated_data@$0N@$0GPFFMNJFHLKDFJAP@D@ay@@XZ
xdata	ENDS
;	COMDAT xdata
xdata	SEGMENT
$unwind$?dtor$0@?0???__Ekernel32@freqDLLS@ProcessUtilities@@YAXXZ@4HA DD 010201H
	DD	05002H
xdata	ENDS
;	COMDAT xdata
xdata	SEGMENT
$ip2state$??__Ekernel32@freqDLLS@ProcessUtilities@@YAXXZ DB 04H
	DB	0a8H
	DB	02H
	DB	']', 04H
	DB	00H
xdata	ENDS
;	COMDAT xdata
xdata	SEGMENT
$stateUnwindMap$??__Ekernel32@freqDLLS@ProcessUtilities@@YAXXZ DB 02H
	DB	0eH
	DD	imagerel ?dtor$0@?0???__Ekernel32@freqDLLS@ProcessUtilities@@YAXXZ@4HA
xdata	ENDS
;	COMDAT xdata
xdata	SEGMENT
$cppxdata$??__Ekernel32@freqDLLS@ProcessUtilities@@YAXXZ DB 028H
	DD	imagerel $stateUnwindMap$??__Ekernel32@freqDLLS@ProcessUtilities@@YAXXZ
	DD	imagerel $ip2state$??__Ekernel32@freqDLLS@ProcessUtilities@@YAXXZ
xdata	ENDS
;	COMDAT xdata
xdata	SEGMENT
$unwind$??__Ekernel32@freqDLLS@ProcessUtilities@@YAXXZ DD 020611H
	DD	030023206H
	DD	imagerel __CxxFrameHandler4
	DD	imagerel $cppxdata$??__Ekernel32@freqDLLS@ProcessUtilities@@YAXXZ
xdata	ENDS
;	COMDAT xdata
xdata	SEGMENT
$unwind$??__Fkernel32@freqDLLS@ProcessUtilities@@YAXXZ DD 010401H
	DD	04204H
xdata	ENDS
;	COMDAT xdata
xdata	SEGMENT
$unwind$?dtor$0@?0???R<lambda_2>@freqDLLS@ProcessUtilities@@QEBAAEAV?$obfuscated_data@$09$0?BMGONCACNKPGIEIF@D@ay@@XZ@4HA DD 010201H
	DD	05002H
xdata	ENDS
;	COMDAT xdata
xdata	SEGMENT
$ip2state$??R<lambda_2>@freqDLLS@ProcessUtilities@@QEBAAEAV?$obfuscated_data@$09$0?BMGONCACNKPGIEIF@D@ay@@XZ DB 02H
	DB	0a6H
	DB	02H
xdata	ENDS
;	COMDAT xdata
xdata	SEGMENT
$stateUnwindMap$??R<lambda_2>@freqDLLS@ProcessUtilities@@QEBAAEAV?$obfuscated_data@$09$0?BMGONCACNKPGIEIF@D@ay@@XZ DB 02H
	DB	0eH
	DD	imagerel ?dtor$0@?0???R<lambda_2>@freqDLLS@ProcessUtilities@@QEBAAEAV?$obfuscated_data@$09$0?BMGONCACNKPGIEIF@D@ay@@XZ@4HA
xdata	ENDS
;	COMDAT xdata
xdata	SEGMENT
$cppxdata$??R<lambda_2>@freqDLLS@ProcessUtilities@@QEBAAEAV?$obfuscated_data@$09$0?BMGONCACNKPGIEIF@D@ay@@XZ DB 028H
	DD	imagerel $stateUnwindMap$??R<lambda_2>@freqDLLS@ProcessUtilities@@QEBAAEAV?$obfuscated_data@$09$0?BMGONCACNKPGIEIF@D@ay@@XZ
	DD	imagerel $ip2state$??R<lambda_2>@freqDLLS@ProcessUtilities@@QEBAAEAV?$obfuscated_data@$09$0?BMGONCACNKPGIEIF@D@ay@@XZ
xdata	ENDS
;	COMDAT xdata
xdata	SEGMENT
$unwind$??R<lambda_2>@freqDLLS@ProcessUtilities@@QEBAAEAV?$obfuscated_data@$09$0?BMGONCACNKPGIEIF@D@ay@@XZ DD 020611H
	DD	030023206H
	DD	imagerel __CxxFrameHandler4
	DD	imagerel $cppxdata$??R<lambda_2>@freqDLLS@ProcessUtilities@@QEBAAEAV?$obfuscated_data@$09$0?BMGONCACNKPGIEIF@D@ay@@XZ
xdata	ENDS
;	COMDAT xdata
xdata	SEGMENT
$unwind$?dtor$0@?0???__Entdll@freqDLLS@ProcessUtilities@@YAXXZ@4HA DD 010201H
	DD	05002H
xdata	ENDS
;	COMDAT xdata
xdata	SEGMENT
$ip2state$??__Entdll@freqDLLS@ProcessUtilities@@YAXXZ DB 04H
	DB	0a2H
	DB	02H
	DB	'i', 04H
	DB	00H
xdata	ENDS
;	COMDAT xdata
xdata	SEGMENT
$stateUnwindMap$??__Entdll@freqDLLS@ProcessUtilities@@YAXXZ DB 02H
	DB	0eH
	DD	imagerel ?dtor$0@?0???__Entdll@freqDLLS@ProcessUtilities@@YAXXZ@4HA
xdata	ENDS
;	COMDAT xdata
xdata	SEGMENT
$cppxdata$??__Entdll@freqDLLS@ProcessUtilities@@YAXXZ DB 028H
	DD	imagerel $stateUnwindMap$??__Entdll@freqDLLS@ProcessUtilities@@YAXXZ
	DD	imagerel $ip2state$??__Entdll@freqDLLS@ProcessUtilities@@YAXXZ
xdata	ENDS
;	COMDAT xdata
xdata	SEGMENT
$unwind$??__Entdll@freqDLLS@ProcessUtilities@@YAXXZ DD 020611H
	DD	030023206H
	DD	imagerel __CxxFrameHandler4
	DD	imagerel $cppxdata$??__Entdll@freqDLLS@ProcessUtilities@@YAXXZ
xdata	ENDS
;	COMDAT xdata
xdata	SEGMENT
$unwind$??__Fntdll@freqDLLS@ProcessUtilities@@YAXXZ DD 010401H
	DD	04204H
xdata	ENDS
;	COMDAT xdata
xdata	SEGMENT
$unwind$?dtor$0@?0???R<lambda_3>@freqDLLS@ProcessUtilities@@QEBAAEAV?$obfuscated_data@$0N@$0FHPLCBONHLGFABKJ@D@ay@@XZ@4HA DD 010201H
	DD	05002H
xdata	ENDS
;	COMDAT xdata
xdata	SEGMENT
$ip2state$??R<lambda_3>@freqDLLS@ProcessUtilities@@QEBAAEAV?$obfuscated_data@$0N@$0FHPLCBONHLGFABKJ@D@ay@@XZ DB 02H
	DB	0acH
	DB	02H
xdata	ENDS
;	COMDAT xdata
xdata	SEGMENT
$stateUnwindMap$??R<lambda_3>@freqDLLS@ProcessUtilities@@QEBAAEAV?$obfuscated_data@$0N@$0FHPLCBONHLGFABKJ@D@ay@@XZ DB 02H
	DB	0eH
	DD	imagerel ?dtor$0@?0???R<lambda_3>@freqDLLS@ProcessUtilities@@QEBAAEAV?$obfuscated_data@$0N@$0FHPLCBONHLGFABKJ@D@ay@@XZ@4HA
xdata	ENDS
;	COMDAT xdata
xdata	SEGMENT
$cppxdata$??R<lambda_3>@freqDLLS@ProcessUtilities@@QEBAAEAV?$obfuscated_data@$0N@$0FHPLCBONHLGFABKJ@D@ay@@XZ DB 028H
	DD	imagerel $stateUnwindMap$??R<lambda_3>@freqDLLS@ProcessUtilities@@QEBAAEAV?$obfuscated_data@$0N@$0FHPLCBONHLGFABKJ@D@ay@@XZ
	DD	imagerel $ip2state$??R<lambda_3>@freqDLLS@ProcessUtilities@@QEBAAEAV?$obfuscated_data@$0N@$0FHPLCBONHLGFABKJ@D@ay@@XZ
xdata	ENDS
;	COMDAT xdata
xdata	SEGMENT
$unwind$??R<lambda_3>@freqDLLS@ProcessUtilities@@QEBAAEAV?$obfuscated_data@$0N@$0FHPLCBONHLGFABKJ@D@ay@@XZ DD 020611H
	DD	030023206H
	DD	imagerel __CxxFrameHandler4
	DD	imagerel $cppxdata$??R<lambda_3>@freqDLLS@ProcessUtilities@@QEBAAEAV?$obfuscated_data@$0N@$0FHPLCBONHLGFABKJ@D@ay@@XZ
xdata	ENDS
;	COMDAT xdata
xdata	SEGMENT
$unwind$?dtor$0@?0???__Eadvapi32@freqDLLS@ProcessUtilities@@YAXXZ@4HA DD 010201H
	DD	05002H
xdata	ENDS
;	COMDAT xdata
xdata	SEGMENT
$ip2state$??__Eadvapi32@freqDLLS@ProcessUtilities@@YAXXZ DB 04H
	DB	0a8H
	DB	02H
	DB	']', 04H
	DB	00H
xdata	ENDS
;	COMDAT xdata
xdata	SEGMENT
$stateUnwindMap$??__Eadvapi32@freqDLLS@ProcessUtilities@@YAXXZ DB 02H
	DB	0eH
	DD	imagerel ?dtor$0@?0???__Eadvapi32@freqDLLS@ProcessUtilities@@YAXXZ@4HA
xdata	ENDS
;	COMDAT xdata
xdata	SEGMENT
$cppxdata$??__Eadvapi32@freqDLLS@ProcessUtilities@@YAXXZ DB 028H
	DD	imagerel $stateUnwindMap$??__Eadvapi32@freqDLLS@ProcessUtilities@@YAXXZ
	DD	imagerel $ip2state$??__Eadvapi32@freqDLLS@ProcessUtilities@@YAXXZ
xdata	ENDS
;	COMDAT xdata
xdata	SEGMENT
$unwind$??__Eadvapi32@freqDLLS@ProcessUtilities@@YAXXZ DD 020611H
	DD	030023206H
	DD	imagerel __CxxFrameHandler4
	DD	imagerel $cppxdata$??__Eadvapi32@freqDLLS@ProcessUtilities@@YAXXZ
xdata	ENDS
;	COMDAT xdata
xdata	SEGMENT
$unwind$??__Fadvapi32@freqDLLS@ProcessUtilities@@YAXXZ DD 010401H
	DD	04204H
xdata	ENDS
;	COMDAT xdata
xdata	SEGMENT
$ip2state$??0Client@@QEAA@XZ DB 02H
	DB	0b2H
	DB	04H
xdata	ENDS
;	COMDAT xdata
xdata	SEGMENT
$stateUnwindMap$??0Client@@QEAA@XZ DB 04H
	DB	0eH
	DD	imagerel ?dtor$0@?0???0Client@@QEAA@XZ@4HA
	DB	02eH
	DD	imagerel ?dtor$1@?0???0Client@@QEAA@XZ@4HA
xdata	ENDS
;	COMDAT xdata
xdata	SEGMENT
$cppxdata$??0Client@@QEAA@XZ DB 028H
	DD	imagerel $stateUnwindMap$??0Client@@QEAA@XZ
	DD	imagerel $ip2state$??0Client@@QEAA@XZ
xdata	ENDS
;	COMDAT xdata
xdata	SEGMENT
$unwind$??0Client@@QEAA@XZ DD 020a11H
	DD	03006320aH
	DD	imagerel __CxxFrameHandler4
	DD	imagerel $cppxdata$??0Client@@QEAA@XZ
xdata	ENDS
;	COMDAT xdata
xdata	SEGMENT
$ip2state$??1Client@@QEAA@XZ DB 02H
	DB	'.'
	DB	00H
xdata	ENDS
;	COMDAT xdata
xdata	SEGMENT
$cppxdata$??1Client@@QEAA@XZ DB 060H
	DD	imagerel $ip2state$??1Client@@QEAA@XZ
xdata	ENDS
;	COMDAT xdata
xdata	SEGMENT
$unwind$??1Client@@QEAA@XZ DD 040a19H
	DD	0b340aH
	DD	07006720aH
	DD	imagerel __CxxFrameHandler4
	DD	imagerel $cppxdata$??1Client@@QEAA@XZ
xdata	ENDS
;	COMDAT xdata
xdata	SEGMENT
$unwind$?dtor$0@?0???R<lambda_1>@?1???1Client@@QEAA@XZ@QEBAAEAV?$obfuscated_data@$0L@$0?DOJGCMFOPGMELMMP@D@ay@@XZ@4HA DD 010201H
	DD	05002H
xdata	ENDS
;	COMDAT xdata
xdata	SEGMENT
$ip2state$??R<lambda_1>@?1???1Client@@QEAA@XZ@QEBAAEAV?$obfuscated_data@$0L@$0?DOJGCMFOPGMELMMP@D@ay@@XZ DB 02H
	DB	0a0H
	DB	02H
xdata	ENDS
;	COMDAT xdata
xdata	SEGMENT
$stateUnwindMap$??R<lambda_1>@?1???1Client@@QEAA@XZ@QEBAAEAV?$obfuscated_data@$0L@$0?DOJGCMFOPGMELMMP@D@ay@@XZ DB 02H
	DB	0eH
	DD	imagerel ?dtor$0@?0???R<lambda_1>@?1???1Client@@QEAA@XZ@QEBAAEAV?$obfuscated_data@$0L@$0?DOJGCMFOPGMELMMP@D@ay@@XZ@4HA
xdata	ENDS
;	COMDAT xdata
xdata	SEGMENT
$cppxdata$??R<lambda_1>@?1???1Client@@QEAA@XZ@QEBAAEAV?$obfuscated_data@$0L@$0?DOJGCMFOPGMELMMP@D@ay@@XZ DB 028H
	DD	imagerel $stateUnwindMap$??R<lambda_1>@?1???1Client@@QEAA@XZ@QEBAAEAV?$obfuscated_data@$0L@$0?DOJGCMFOPGMELMMP@D@ay@@XZ
	DD	imagerel $ip2state$??R<lambda_1>@?1???1Client@@QEAA@XZ@QEBAAEAV?$obfuscated_data@$0L@$0?DOJGCMFOPGMELMMP@D@ay@@XZ
xdata	ENDS
;	COMDAT xdata
xdata	SEGMENT
$unwind$??R<lambda_1>@?1???1Client@@QEAA@XZ@QEBAAEAV?$obfuscated_data@$0L@$0?DOJGCMFOPGMELMMP@D@ay@@XZ DD 020611H
	DD	030023206H
	DD	imagerel __CxxFrameHandler4
	DD	imagerel $cppxdata$??R<lambda_1>@?1???1Client@@QEAA@XZ@QEBAAEAV?$obfuscated_data@$0L@$0?DOJGCMFOPGMELMMP@D@ay@@XZ
xdata	ENDS
;	COMDAT xdata
xdata	SEGMENT
$ip2state$?Connect@Client@@QEAAHXZ DB 06H
	DB	'l'
	DB	00H
	DB	0c4H
	DB	02H
	DB	0d4H
	DB	00H
xdata	ENDS
;	COMDAT xdata
xdata	SEGMENT
$stateUnwindMap$?Connect@Client@@QEAAHXZ DB 02H
	DB	0aH
	DD	imagerel ??1ClientRequest@@QEAA@XZ
	DB	0b0H
xdata	ENDS
;	COMDAT xdata
xdata	SEGMENT
$cppxdata$?Connect@Client@@QEAAHXZ DB 028H
	DD	imagerel $stateUnwindMap$?Connect@Client@@QEAAHXZ
	DD	imagerel $ip2state$?Connect@Client@@QEAAHXZ
xdata	ENDS
;	COMDAT xdata
xdata	SEGMENT
$unwind$?Connect@Client@@QEAAHXZ DD 051f19H
	DD	015340dH
	DD	012010dH
	DD	07006H
	DD	imagerel __GSHandlerCheck_EH4
	DD	imagerel $cppxdata$?Connect@Client@@QEAAHXZ
	DD	08aH
xdata	ENDS
;	COMDAT xdata
xdata	SEGMENT
$ip2state$?EncryptClientRequest@Client@@QEBA?AV?$vector@EV?$allocator@E@std@@@std@@UClientRequest@@@Z DB 0cH
	DB	08cH
	DB	02H
	DB	'N'
	DB	04H
	DB	','
	DB	02H
	DB	'D'
	DB	06H
	DB	'"'
	DB	02H
	DB	0ceH
	DB	00H
xdata	ENDS
;	COMDAT xdata
xdata	SEGMENT
$stateUnwindMap$?EncryptClientRequest@Client@@QEBA?AV?$vector@EV?$allocator@E@std@@@std@@UClientRequest@@@Z DB 06H
	DB	0cH
	DD	imagerel ??1ClientRequest@@QEAA@XZ
	DB	01H
	DB	06H
	DB	03cH
	DD	imagerel ??1?$basic_string@DU?$char_traits@D@std@@V?$allocator@D@2@@std@@QEAA@XZ
	DB	060H
	DB	06aH
	DD	imagerel ??1NET_BLOB@@QEAA@XZ
	DB	041H
	DB	06H
xdata	ENDS
;	COMDAT xdata
xdata	SEGMENT
$cppxdata$?EncryptClientRequest@Client@@QEBA?AV?$vector@EV?$allocator@E@std@@@std@@UClientRequest@@@Z DB 028H
	DD	imagerel $stateUnwindMap$?EncryptClientRequest@Client@@QEBA?AV?$vector@EV?$allocator@E@std@@@std@@UClientRequest@@@Z
	DD	imagerel $ip2state$?EncryptClientRequest@Client@@QEBA?AV?$vector@EV?$allocator@E@std@@@std@@UClientRequest@@@Z
xdata	ENDS
;	COMDAT xdata
xdata	SEGMENT
$unwind$?EncryptClientRequest@Client@@QEBA?AV?$vector@EV?$allocator@E@std@@@std@@UClientRequest@@@Z DD 051d19H
	DD	054010bH
	DD	060037004H
	DD	03002H
	DD	imagerel __GSHandlerCheck_EH4
	DD	imagerel $cppxdata$?EncryptClientRequest@Client@@QEBA?AV?$vector@EV?$allocator@E@std@@@std@@UClientRequest@@@Z
	DD	0292H
xdata	ENDS
;	COMDAT xdata
xdata	SEGMENT
$ip2state$??0NET_BLOB@@QEAA@AEBU0@@Z DB 0aH
	DB	'h'
	DB	00H
	DB	'^'
	DB	02H
	DB	01cH
	DB	04H
	DB	'"'
	DB	06H
	DB	090H
	DB	08H
xdata	ENDS
;	COMDAT xdata
xdata	SEGMENT
$stateUnwindMap$??0NET_BLOB@@QEAA@AEBU0@@Z DB 08H
	DB	0cH
	DD	imagerel ??1ClientRequest@@QEAA@XZ
	DB	060H
	DB	036H
	DD	imagerel ?dtor$4@?0???0NET_BLOB@@QEAA@AEBU0@@Z@4HA
	DB	02eH
	DD	imagerel ?dtor$5@?0???0NET_BLOB@@QEAA@AEBU0@@Z@4HA
	DB	086H
	DD	imagerel ?dtor$1@?0???0NET_BLOB@@QEAA@AEBU0@@Z@4HA
xdata	ENDS
;	COMDAT xdata
xdata	SEGMENT
$cppxdata$??0NET_BLOB@@QEAA@AEBU0@@Z DB 028H
	DD	imagerel $stateUnwindMap$??0NET_BLOB@@QEAA@AEBU0@@Z
	DD	imagerel $ip2state$??0NET_BLOB@@QEAA@AEBU0@@Z
xdata	ENDS
;	COMDAT xdata
xdata	SEGMENT
$unwind$??0NET_BLOB@@QEAA@AEBU0@@Z DD 061411H
	DD	096414H
	DD	083414H
	DD	070103214H
	DD	imagerel __CxxFrameHandler4
	DD	imagerel $cppxdata$??0NET_BLOB@@QEAA@AEBU0@@Z
xdata	ENDS
;	COMDAT xdata
xdata	SEGMENT
$ip2state$?DecryptServerRequest@Client@@QEAA?AUServerCommand@@V?$vector@EV?$allocator@E@std@@@std@@@Z DB 08H
	DB	086H
	DB	02H
	DB	' '
	DB	04H
	DB	01eH
	DB	02H
	DB	0a2H
	DB	00H
xdata	ENDS
;	COMDAT xdata
xdata	SEGMENT
$stateUnwindMap$?DecryptServerRequest@Client@@QEAA?AUServerCommand@@V?$vector@EV?$allocator@E@std@@@std@@@Z DB 04H
	DB	0cH
	DD	imagerel ??1?$vector@EV?$allocator@E@std@@@std@@QEAA@XZ
	DB	0e0H
	DB	034H
	DD	imagerel ??1?$basic_string@DU?$char_traits@D@std@@V?$allocator@D@2@@std@@QEAA@XZ
	DB	050H
xdata	ENDS
;	COMDAT xdata
xdata	SEGMENT
$cppxdata$?DecryptServerRequest@Client@@QEAA?AUServerCommand@@V?$vector@EV?$allocator@E@std@@@std@@@Z DB 028H
	DD	imagerel $stateUnwindMap$?DecryptServerRequest@Client@@QEAA?AUServerCommand@@V?$vector@EV?$allocator@E@std@@@std@@@Z
	DD	imagerel $ip2state$?DecryptServerRequest@Client@@QEAA?AUServerCommand@@V?$vector@EV?$allocator@E@std@@@std@@@Z
xdata	ENDS
;	COMDAT xdata
xdata	SEGMENT
$unwind$?DecryptServerRequest@Client@@QEAA?AUServerCommand@@V?$vector@EV?$allocator@E@std@@@std@@@Z DD 061e19H
	DD	017340fH
	DD	07008f20fH
	DD	050066007H
	DD	imagerel __GSHandlerCheck_EH4
	DD	imagerel $cppxdata$?DecryptServerRequest@Client@@QEAA?AUServerCommand@@V?$vector@EV?$allocator@E@std@@@std@@@Z
	DD	07aH
xdata	ENDS
;	COMDAT xdata
xdata	SEGMENT
$ip2state$?UDPRecvMessageFromServer@Client@@IEAA?AUUDPResponse@@XZ DB 0cH
	DB	086H
	DB	02H
	DB	084H
	DB	00H
	DB	0d4H
	DB	02H
	DB	'6'
	DB	04H
	DB	'&'
	DB	02H
	DB	084H
	DB	00H
xdata	ENDS
;	COMDAT xdata
xdata	SEGMENT
$stateUnwindMap$?UDPRecvMessageFromServer@Client@@IEAA?AUUDPResponse@@XZ DB 04H
	DB	0aH
	DD	imagerel ??1?$vector@EV?$allocator@E@std@@@std@@QEAA@XZ
	DB	081H
	DB	02H
	DB	03cH
	DD	imagerel ??1?$basic_string@DU?$char_traits@D@std@@V?$allocator@D@2@@std@@QEAA@XZ
	DB	060H
xdata	ENDS
;	COMDAT xdata
xdata	SEGMENT
$cppxdata$?UDPRecvMessageFromServer@Client@@IEAA?AUUDPResponse@@XZ DB 028H
	DD	imagerel $stateUnwindMap$?UDPRecvMessageFromServer@Client@@IEAA?AUUDPResponse@@XZ
	DD	imagerel $ip2state$?UDPRecvMessageFromServer@Client@@IEAA?AUUDPResponse@@XZ
xdata	ENDS
;	COMDAT xdata
xdata	SEGMENT
$unwind$?UDPRecvMessageFromServer@Client@@IEAA?AUUDPResponse@@XZ DD 072519H
	DD	01d6413H
	DD	01c3413H
	DD	0180113H
	DD	0700cH
	DD	imagerel __GSHandlerCheck_EH4
	DD	imagerel $cppxdata$?UDPRecvMessageFromServer@Client@@IEAA?AUUDPResponse@@XZ
	DD	0baH
xdata	ENDS
;	COMDAT xdata
xdata	SEGMENT
$ip2state$?UDPSendMessageToServer@Client@@IEAAHUClientRequest@@@Z DB 0aH
	DB	05H, 03H
	DB	02H
	DB	'6'
	DB	04H
	DB	'\'
	DB	02H
	DB	0d4H
	DB	04H
	DB	0deH
	DB	00H
xdata	ENDS
;	COMDAT xdata
xdata	SEGMENT
$stateUnwindMap$?UDPSendMessageToServer@Client@@IEAAHUClientRequest@@@Z DB 04H
	DB	0cH
	DD	imagerel ??1ClientRequest@@QEAA@XZ
	DB	041H
	DB	02H
	DB	03aH
	DD	imagerel ??1?$vector@EV?$allocator@E@std@@@std@@QEAA@XZ
	DB	061H
	DB	02H
xdata	ENDS
;	COMDAT xdata
xdata	SEGMENT
$cppxdata$?UDPSendMessageToServer@Client@@IEAAHUClientRequest@@@Z DB 028H
	DD	imagerel $stateUnwindMap$?UDPSendMessageToServer@Client@@IEAAHUClientRequest@@@Z
	DD	imagerel $ip2state$?UDPSendMessageToServer@Client@@IEAAHUClientRequest@@@Z
xdata	ENDS
;	COMDAT xdata
xdata	SEGMENT
$unwind$?UDPSendMessageToServer@Client@@IEAAHUClientRequest@@@Z DD 072419H
	DD	01d6412H
	DD	01c3412H
	DD	0180112H
	DD	0700bH
	DD	imagerel __GSHandlerCheck_EH4
	DD	imagerel $cppxdata$?UDPSendMessageToServer@Client@@IEAAHUClientRequest@@@Z
	DD	0b2H
xdata	ENDS
;	COMDAT xdata
xdata	SEGMENT
$ip2state$?TCPSendMessageToServer@Client@@IEAAHUClientRequest@@@Z DB 08H
	DB	0c9H, 02H
	DB	02H
	DB	'0'
	DB	04H
	DB	'<'
	DB	02H
	DB	0e5H, 02H
	DB	00H
xdata	ENDS
;	COMDAT xdata
xdata	SEGMENT
$stateUnwindMap$?TCPSendMessageToServer@Client@@IEAAHUClientRequest@@@Z DB 04H
	DB	0cH
	DD	imagerel ??1ClientRequest@@QEAA@XZ
	DB	0b0H
	DB	032H
	DD	imagerel ??1?$vector@EV?$allocator@E@std@@@std@@QEAA@XZ
	DB	0c0H
xdata	ENDS
;	COMDAT xdata
xdata	SEGMENT
$cppxdata$?TCPSendMessageToServer@Client@@IEAAHUClientRequest@@@Z DB 028H
	DD	imagerel $stateUnwindMap$?TCPSendMessageToServer@Client@@IEAAHUClientRequest@@@Z
	DD	imagerel $ip2state$?TCPSendMessageToServer@Client@@IEAAHUClientRequest@@@Z
xdata	ENDS
;	COMDAT xdata
xdata	SEGMENT
$unwind$?TCPSendMessageToServer@Client@@IEAAHUClientRequest@@@Z DD 041c19H
	DD	014340dH
	DD	07006f20dH
	DD	imagerel __GSHandlerCheck_EH4
	DD	imagerel $cppxdata$?TCPSendMessageToServer@Client@@IEAAHUClientRequest@@@Z
	DD	07aH
xdata	ENDS
;	COMDAT xdata
xdata	SEGMENT
$ip2state$?MakeServerRequest@Client@@QEAAHUClientRequest@@H@Z DB 04H
	DB	09aH
	DB	02H
	DB	08aH
	DB	00H
xdata	ENDS
;	COMDAT xdata
xdata	SEGMENT
$stateUnwindMap$?MakeServerRequest@Client@@QEAAHUClientRequest@@H@Z DB 02H
	DB	0cH
	DD	imagerel ??1ClientRequest@@QEAA@XZ
	DB	021H
	DB	02H
xdata	ENDS
;	COMDAT xdata
xdata	SEGMENT
$cppxdata$?MakeServerRequest@Client@@QEAAHUClientRequest@@H@Z DB 028H
	DD	imagerel $stateUnwindMap$?MakeServerRequest@Client@@QEAAHUClientRequest@@H@Z
	DD	imagerel $ip2state$?MakeServerRequest@Client@@QEAAHUClientRequest@@H@Z
xdata	ENDS
;	COMDAT xdata
xdata	SEGMENT
$unwind$?MakeServerRequest@Client@@QEAAHUClientRequest@@H@Z DD 052119H
	DD	018340fH
	DD	014010fH
	DD	07008H
	DD	imagerel __GSHandlerCheck_EH4
	DD	imagerel $cppxdata$?MakeServerRequest@Client@@QEAAHUClientRequest@@H@Z
	DD	092H
xdata	ENDS
;	COMDAT xdata
xdata	SEGMENT
$unwind$?Disconnect@Client@@QEAAHXZ DD 010401H
	DD	04204H
xdata	ENDS
;	COMDAT xdata
xdata	SEGMENT
$unwind$??0?$Aes@$0BAA@@Cipher@@QEAA@QEAE@Z DD 040a01H
	DD	06340aH
	DD	07006320aH
xdata	ENDS
;	COMDAT xdata
xdata	SEGMENT
$unwind$?resize@?$vector@EV?$allocator@E@std@@@std@@QEAAX_K@Z DD 060f01H
	DD	09640fH
	DD	08340fH
	DD	0700b320fH
xdata	ENDS
;	COMDAT xdata
xdata	SEGMENT
$unwind$??1?$vector@EV?$allocator@E@std@@@std@@QEAA@XZ DD 020601H
	DD	030023206H
xdata	ENDS
;	COMDAT xdata
xdata	SEGMENT
$unwind$??0?$vector@EV?$allocator@E@std@@@std@@QEAA@AEBV01@@Z DD 060d01H
	DD	0a340dH
	DD	0e009320dH
	DD	060067007H
xdata	ENDS
;	COMDAT xdata
xdata	SEGMENT
$unwind$??1?$basic_string@DU?$char_traits@D@std@@V?$allocator@D@2@@std@@QEAA@XZ DD 020601H
	DD	030023206H
xdata	ENDS
;	COMDAT xdata
xdata	SEGMENT
$unwind$??0?$basic_string@DU?$char_traits@D@std@@V?$allocator@D@2@@std@@QEAA@QEBD@Z DD 081201H
	DD	0b5412H
	DD	0a3412H
	DD	0e00e3212H
	DD	0600b700cH
xdata	ENDS
;	COMDAT xdata
xdata	SEGMENT
$unwind$??0?$basic_string@DU?$char_traits@D@std@@V?$allocator@D@2@@std@@QEAA@AEBV01@@Z DD 060d01H
	DD	0a340dH
	DD	0e009320dH
	DD	060067007H
xdata	ENDS
;	COMDAT xdata
xdata	SEGMENT
$unwind$?_Tidy@?$vector@EV?$allocator@E@std@@@std@@AEAAXXZ DD 020601H
	DD	030023206H
xdata	ENDS
;	COMDAT xdata
xdata	SEGMENT
$unwind$?_Tidy_deallocate@?$basic_string@DU?$char_traits@D@std@@V?$allocator@D@2@@std@@AEAAXXZ DD 020601H
	DD	030023206H
xdata	ENDS
;	COMDAT xdata
xdata	SEGMENT
$unwind$?deallocate@?$allocator@E@std@@QEAAXQEAE_K@Z DD 010401H
	DD	04204H
xdata	ENDS
;	COMDAT xdata
xdata	SEGMENT
$unwind$?_Deallocate_for_capacity@?$basic_string@DU?$char_traits@D@std@@V?$allocator@D@2@@std@@CAXAEAV?$allocator@D@2@QEAD_K@Z DD 010401H
	DD	04204H
xdata	ENDS
;	COMDAT xdata
xdata	SEGMENT
$unwind$?copy@?$_Char_traits@DH@std@@SAPEADQEADQEBD_K@Z DD 020601H
	DD	030023206H
xdata	ENDS
;	COMDAT xdata
xdata	SEGMENT
$unwind$?deallocate@?$allocator@D@std@@QEAAXQEAD_K@Z DD 010401H
	DD	04204H
xdata	ENDS
;	COMDAT xdata
xdata	SEGMENT
$ip2state$??$DecryptInternetData@UServerCommand@@@NetCommon@@YA?AUServerCommand@@V?$vector@EV?$allocator@E@std@@@std@@V?$basic_string@DU?$char_traits@D@std@@V?$allocator@D@2@@3@@Z DB 0aH
	DB	'x'
	DB	04H
	DB	'x'
	DB	06H
	DB	01cH
	DB	08H
	DB	'('
	DB	02H
	DB	'A', 02H
	DB	00H
xdata	ENDS
;	COMDAT xdata
xdata	SEGMENT
$stateUnwindMap$??$DecryptInternetData@UServerCommand@@@NetCommon@@YA?AUServerCommand@@V?$vector@EV?$allocator@E@std@@@std@@V?$basic_string@DU?$char_traits@D@std@@V?$allocator@D@2@@3@@Z DB 08H
	DB	0cH
	DD	imagerel ??1?$basic_string@DU?$char_traits@D@std@@V?$allocator@D@2@@std@@QEAA@XZ
	DB	0c0H
	DB	034H
	DD	imagerel ??1?$vector@EV?$allocator@E@std@@@std@@QEAA@XZ
	DB	0b0H
	DB	036H
	DD	imagerel ?dtor$4@?0???$DecryptInternetData@UServerCommand@@@NetCommon@@YA?AUServerCommand@@V?$vector@EV?$allocator@E@std@@@std@@V?$basic_string@DU?$char_traits@D@std@@V?$allocator@D@2@@3@@Z@4HA
	DB	02eH
	DD	imagerel ?dtor$5@?0???$DecryptInternetData@UServerCommand@@@NetCommon@@YA?AUServerCommand@@V?$vector@EV?$allocator@E@std@@@std@@V?$basic_string@DU?$char_traits@D@std@@V?$allocator@D@2@@3@@Z@4HA
xdata	ENDS
;	COMDAT xdata
xdata	SEGMENT
$cppxdata$??$DecryptInternetData@UServerCommand@@@NetCommon@@YA?AUServerCommand@@V?$vector@EV?$allocator@E@std@@@std@@V?$basic_string@DU?$char_traits@D@std@@V?$allocator@D@2@@3@@Z DB 028H
	DD	imagerel $stateUnwindMap$??$DecryptInternetData@UServerCommand@@@NetCommon@@YA?AUServerCommand@@V?$vector@EV?$allocator@E@std@@@std@@V?$basic_string@DU?$char_traits@D@std@@V?$allocator@D@2@@3@@Z
	DD	imagerel $ip2state$??$DecryptInternetData@UServerCommand@@@NetCommon@@YA?AUServerCommand@@V?$vector@EV?$allocator@E@std@@@std@@V?$basic_string@DU?$char_traits@D@std@@V?$allocator@D@2@@3@@Z
xdata	ENDS
;	COMDAT xdata
xdata	SEGMENT
$unwind$??$DecryptInternetData@UServerCommand@@@NetCommon@@YA?AUServerCommand@@V?$vector@EV?$allocator@E@std@@@std@@V?$basic_string@DU?$char_traits@D@std@@V?$allocator@D@2@@3@@Z DD 061a19H
	DD	0e007d20bH
	DD	060047005H
	DD	030025003H
	DD	imagerel __GSHandlerCheck_EH4
	DD	imagerel $cppxdata$??$DecryptInternetData@UServerCommand@@@NetCommon@@YA?AUServerCommand@@V?$vector@EV?$allocator@E@std@@@std@@V?$basic_string@DU?$char_traits@D@std@@V?$allocator@D@2@@3@@Z
	DD	06aH
xdata	ENDS
;	COMDAT xdata
xdata	SEGMENT
$ip2state$??$DecryptInternetData@UUDPResponse@@@NetCommon@@YA?AUUDPResponse@@V?$vector@EV?$allocator@E@std@@@std@@V?$basic_string@DU?$char_traits@D@std@@V?$allocator@D@2@@3@@Z DB 06H
	DB	'l'
	DB	04H
	DB	'V'
	DB	02H
	DB	'=', 02H
	DB	00H
xdata	ENDS
;	COMDAT xdata
xdata	SEGMENT
$stateUnwindMap$??$DecryptInternetData@UUDPResponse@@@NetCommon@@YA?AUUDPResponse@@V?$vector@EV?$allocator@E@std@@@std@@V?$basic_string@DU?$char_traits@D@std@@V?$allocator@D@2@@3@@Z DB 04H
	DB	0cH
	DD	imagerel ??1?$basic_string@DU?$char_traits@D@std@@V?$allocator@D@2@@std@@QEAA@XZ
	DB	0a0H
	DB	034H
	DD	imagerel ??1?$vector@EV?$allocator@E@std@@@std@@QEAA@XZ
	DB	090H
xdata	ENDS
;	COMDAT xdata
xdata	SEGMENT
$cppxdata$??$DecryptInternetData@UUDPResponse@@@NetCommon@@YA?AUUDPResponse@@V?$vector@EV?$allocator@E@std@@@std@@V?$basic_string@DU?$char_traits@D@std@@V?$allocator@D@2@@3@@Z DB 028H
	DD	imagerel $stateUnwindMap$??$DecryptInternetData@UUDPResponse@@@NetCommon@@YA?AUUDPResponse@@V?$vector@EV?$allocator@E@std@@@std@@V?$basic_string@DU?$char_traits@D@std@@V?$allocator@D@2@@3@@Z
	DD	imagerel $ip2state$??$DecryptInternetData@UUDPResponse@@@NetCommon@@YA?AUUDPResponse@@V?$vector@EV?$allocator@E@std@@@std@@V?$basic_string@DU?$char_traits@D@std@@V?$allocator@D@2@@3@@Z
xdata	ENDS
;	COMDAT xdata
xdata	SEGMENT
$unwind$??$DecryptInternetData@UUDPResponse@@@NetCommon@@YA?AUUDPResponse@@V?$vector@EV?$allocator@E@std@@@std@@V?$basic_string@DU?$char_traits@D@std@@V?$allocator@D@2@@3@@Z DD 061b19H
	DD	010340cH
	DD	07008b20cH
	DD	050066007H
	DD	imagerel __GSHandlerCheck_EH4
	DD	imagerel $cppxdata$??$DecryptInternetData@UUDPResponse@@@NetCommon@@YA?AUUDPResponse@@V?$vector@EV?$allocator@E@std@@@std@@V?$basic_string@DU?$char_traits@D@std@@V?$allocator@D@2@@3@@Z
	DD	05aH
xdata	ENDS
;	COMDAT xdata
xdata	SEGMENT
$unwind$??$_Resize@U_Value_init_tag@std@@@?$vector@EV?$allocator@E@std@@@std@@AEAAX_KAEBU_Value_init_tag@1@@Z DD 060f01H
	DD	09640fH
	DD	08340fH
	DD	0700b320fH
xdata	ENDS
;	COMDAT xdata
xdata	SEGMENT
$chain$4$??$_Construct_n@AEBQEAEAEBQEAE@?$vector@EV?$allocator@E@std@@@std@@AEAAX_KAEBQEAE1@Z DD 020021H
	DD	047400H
	DD	imagerel $LN104
	DD	imagerel $LN104+46
	DD	imagerel $unwind$??$_Construct_n@AEBQEAEAEBQEAE@?$vector@EV?$allocator@E@std@@@std@@AEAAX_KAEBQEAE1@Z
xdata	ENDS
;	COMDAT xdata
xdata	SEGMENT
$chain$3$??$_Construct_n@AEBQEAEAEBQEAE@?$vector@EV?$allocator@E@std@@@std@@AEAAX_KAEBQEAE1@Z DD 021H
	DD	imagerel $LN104
	DD	imagerel $LN104+46
	DD	imagerel $unwind$??$_Construct_n@AEBQEAEAEBQEAE@?$vector@EV?$allocator@E@std@@@std@@AEAAX_KAEBQEAE1@Z
xdata	ENDS
;	COMDAT xdata
xdata	SEGMENT
$chain$2$??$_Construct_n@AEBQEAEAEBQEAE@?$vector@EV?$allocator@E@std@@@std@@AEAAX_KAEBQEAE1@Z DD 020021H
	DD	047400H
	DD	imagerel $LN104
	DD	imagerel $LN104+46
	DD	imagerel $unwind$??$_Construct_n@AEBQEAEAEBQEAE@?$vector@EV?$allocator@E@std@@@std@@AEAAX_KAEBQEAE1@Z
xdata	ENDS
;	COMDAT xdata
xdata	SEGMENT
$chain$1$??$_Construct_n@AEBQEAEAEBQEAE@?$vector@EV?$allocator@E@std@@@std@@AEAAX_KAEBQEAE1@Z DD 021H
	DD	imagerel $LN104
	DD	imagerel $LN104+46
	DD	imagerel $unwind$??$_Construct_n@AEBQEAEAEBQEAE@?$vector@EV?$allocator@E@std@@@std@@AEAAX_KAEBQEAE1@Z
xdata	ENDS
;	COMDAT xdata
xdata	SEGMENT
$chain$0$??$_Construct_n@AEBQEAEAEBQEAE@?$vector@EV?$allocator@E@std@@@std@@AEAAX_KAEBQEAE1@Z DD 020521H
	DD	047405H
	DD	imagerel $LN104
	DD	imagerel $LN104+46
	DD	imagerel $unwind$??$_Construct_n@AEBQEAEAEBQEAE@?$vector@EV?$allocator@E@std@@@std@@AEAAX_KAEBQEAE1@Z
xdata	ENDS
;	COMDAT xdata
xdata	SEGMENT
$unwind$??$_Construct_n@AEBQEAEAEBQEAE@?$vector@EV?$allocator@E@std@@@std@@AEAAX_KAEBQEAE1@Z DD 051301H
	DD	0f00f4213H
	DD	0600be00dH
	DD	0300aH
xdata	ENDS
;	COMDAT xdata
xdata	SEGMENT
$chain$3$??$_Construct@$00PEBD@?$basic_string@DU?$char_traits@D@std@@V?$allocator@D@2@@std@@AEAAXQEBD_K@Z DD 021H
	DD	imagerel $LN97
	DD	imagerel $LN97+78
	DD	imagerel $unwind$??$_Construct@$00PEBD@?$basic_string@DU?$char_traits@D@std@@V?$allocator@D@2@@std@@AEAAXQEBD_K@Z
xdata	ENDS
;	COMDAT xdata
xdata	SEGMENT
$chain$2$??$_Construct@$00PEBD@?$basic_string@DU?$char_traits@D@std@@V?$allocator@D@2@@std@@AEAAXQEBD_K@Z DD 020021H
	DD	047400H
	DD	imagerel $LN97
	DD	imagerel $LN97+78
	DD	imagerel $unwind$??$_Construct@$00PEBD@?$basic_string@DU?$char_traits@D@std@@V?$allocator@D@2@@std@@AEAAXQEBD_K@Z
xdata	ENDS
;	COMDAT xdata
xdata	SEGMENT
$chain$0$??$_Construct@$00PEBD@?$basic_string@DU?$char_traits@D@std@@V?$allocator@D@2@@std@@AEAAXQEBD_K@Z DD 020521H
	DD	047405H
	DD	imagerel $LN97
	DD	imagerel $LN97+78
	DD	imagerel $unwind$??$_Construct@$00PEBD@?$basic_string@DU?$char_traits@D@std@@V?$allocator@D@2@@std@@AEAAXQEBD_K@Z
xdata	ENDS
;	COMDAT xdata
xdata	SEGMENT
$unwind$??$_Construct@$00PEBD@?$basic_string@DU?$char_traits@D@std@@V?$allocator@D@2@@std@@AEAAXQEBD_K@Z DD 050a01H
	DD	0e006420aH
	DD	050036004H
	DD	03002H
xdata	ENDS
;	COMDAT xdata
xdata	SEGMENT
$unwind$??$_Construct@$01PEBD@?$basic_string@DU?$char_traits@D@std@@V?$allocator@D@2@@std@@AEAAXQEBD_K@Z DD 060c01H
	DD	0b340cH
	DD	07008320cH
	DD	050066007H
xdata	ENDS
;	COMDAT xdata
xdata	SEGMENT
$unwind$??$_Deallocate@$0BA@@std@@YAXPEAX_K@Z DD 010401H
	DD	04204H
xdata	ENDS
;	COMDAT xdata
xdata	SEGMENT
$unwind$??1?$_Tidy_guard@V?$vector@EV?$allocator@E@std@@@std@@@std@@QEAA@XZ DD 020601H
	DD	030023206H
xdata	ENDS
;	COMDAT xdata
xdata	SEGMENT
$unwind$?_Buy_nonzero@?$vector@EV?$allocator@E@std@@@std@@AEAAX_K@Z DD 040a01H
	DD	08340aH
	DD	07006320aH
xdata	ENDS
;	COMDAT xdata
xdata	SEGMENT
$unwind$?_Xlength@?$vector@EV?$allocator@E@std@@@std@@CAXXZ DD 010401H
	DD	04204H
xdata	ENDS
;	COMDAT xdata
xdata	SEGMENT
$unwind$?_Buy_raw@?$vector@EV?$allocator@E@std@@@std@@AEAAX_K@Z DD 040a01H
	DD	06340aH
	DD	07006320aH
xdata	ENDS
;	COMDAT xdata
xdata	SEGMENT
$chain$5$??$_Resize_reallocate@U_Value_init_tag@std@@@?$vector@EV?$allocator@E@std@@@std@@AEAAX_KAEBU_Value_init_tag@1@@Z DD 021H
	DD	imagerel $LN108
	DD	imagerel $LN108+34
	DD	imagerel $unwind$??$_Resize_reallocate@U_Value_init_tag@std@@@?$vector@EV?$allocator@E@std@@@std@@AEAAX_KAEBU_Value_init_tag@1@@Z
xdata	ENDS
;	COMDAT xdata
xdata	SEGMENT
$chain$4$??$_Resize_reallocate@U_Value_init_tag@std@@@?$vector@EV?$allocator@E@std@@@std@@AEAAX_KAEBU_Value_init_tag@1@@Z DD 060021H
	DD	04f400H
	DD	057400H
	DD	0c6400H
	DD	imagerel $LN108
	DD	imagerel $LN108+34
	DD	imagerel $unwind$??$_Resize_reallocate@U_Value_init_tag@std@@@?$vector@EV?$allocator@E@std@@@std@@AEAAX_KAEBU_Value_init_tag@1@@Z
xdata	ENDS
;	COMDAT xdata
xdata	SEGMENT
$chain$2$??$_Resize_reallocate@U_Value_init_tag@std@@@?$vector@EV?$allocator@E@std@@@std@@AEAAX_KAEBU_Value_init_tag@1@@Z DD 061221H
	DD	04f412H
	DD	05740dH
	DD	0c6405H
	DD	imagerel $LN108
	DD	imagerel $LN108+34
	DD	imagerel $unwind$??$_Resize_reallocate@U_Value_init_tag@std@@@?$vector@EV?$allocator@E@std@@@std@@AEAAX_KAEBU_Value_init_tag@1@@Z
xdata	ENDS
;	COMDAT xdata
xdata	SEGMENT
$unwind$??$_Resize_reallocate@U_Value_init_tag@std@@@?$vector@EV?$allocator@E@std@@@std@@AEAAX_KAEBU_Value_init_tag@1@@Z DD 040901H
	DD	0e0055209H
	DD	030025003H
xdata	ENDS
;	COMDAT xdata
xdata	SEGMENT
$unwind$??$_Uninitialized_value_construct_n@V?$allocator@E@std@@@std@@YAPEAEPEAE_KAEAV?$allocator@E@0@@Z DD 040a01H
	DD	08340aH
	DD	07006320aH
xdata	ENDS
;	COMDAT xdata
xdata	SEGMENT
$chain$5$??$_Emplace_reallocate@AEBE@?$vector@EV?$allocator@E@std@@@std@@AEAAPEAEQEAEAEBE@Z DD 021H
	DD	imagerel $LN128
	DD	imagerel $LN128+64
	DD	imagerel $unwind$??$_Emplace_reallocate@AEBE@?$vector@EV?$allocator@E@std@@@std@@AEAAPEAEQEAEAEBE@Z
xdata	ENDS
;	COMDAT xdata
xdata	SEGMENT
$chain$4$??$_Emplace_reallocate@AEBE@?$vector@EV?$allocator@E@std@@@std@@AEAAPEAEQEAEAEBE@Z DD 060021H
	DD	04c400H
	DD	056400H
	DD	0e3400H
	DD	imagerel $LN128
	DD	imagerel $LN128+64
	DD	imagerel $unwind$??$_Emplace_reallocate@AEBE@?$vector@EV?$allocator@E@std@@@std@@AEAAPEAEQEAEAEBE@Z
xdata	ENDS
;	COMDAT xdata
xdata	SEGMENT
$chain$2$??$_Emplace_reallocate@AEBE@?$vector@EV?$allocator@E@std@@@std@@AEAAPEAEQEAEAEBE@Z DD 061521H
	DD	04c415H
	DD	05640aH
	DD	0e3405H
	DD	imagerel $LN128
	DD	imagerel $LN128+64
	DD	imagerel $unwind$??$_Emplace_reallocate@AEBE@?$vector@EV?$allocator@E@std@@@std@@AEAAPEAEQEAEAEBE@Z
xdata	ENDS
;	COMDAT xdata
xdata	SEGMENT
$unwind$??$_Emplace_reallocate@AEBE@?$vector@EV?$allocator@E@std@@@std@@AEAAPEAEQEAEAEBE@Z DD 060d01H
	DD	0f009520dH
	DD	0d005e007H
	DD	050027003H
xdata	ENDS
;	COMDAT xdata
xdata	SEGMENT
$unwind$??$_Uninitialized_copy@PEAEPEAEV?$allocator@E@std@@@std@@YAPEAEPEAE00AEAV?$allocator@E@0@@Z DD 040801H
	DD	070043208H
	DD	030026003H
xdata	ENDS
;	COMDAT xdata
xdata	SEGMENT
$unwind$??$_Allocate_for_capacity@$0A@@?$basic_string@DU?$char_traits@D@std@@V?$allocator@D@2@@std@@CAPEADAEAV?$allocator@D@1@AEA_K@Z DD 020601H
	DD	030023206H
xdata	ENDS
;	COMDAT xdata
xdata	SEGMENT
$unwind$??$_Allocate_at_least_helper@V?$allocator@E@std@@@std@@YAPEAEAEAV?$allocator@E@0@AEA_K@Z DD 010401H
	DD	04204H
xdata	ENDS
;	COMDAT xdata
xdata	SEGMENT
$unwind$?_Change_array@?$vector@EV?$allocator@E@std@@@std@@AEAAXQEAE_K1@Z DD 081401H
	DD	096414H
	DD	085414H
	DD	073414H
	DD	070103214H
xdata	ENDS
;	COMDAT xdata
xdata	SEGMENT
$unwind$?allocate@?$allocator@E@std@@QEAAPEAE_K@Z DD 010401H
	DD	04204H
xdata	ENDS
;	COMDAT xdata
xdata	SEGMENT
$unwind$??$_Uninitialized_move@PEAEV?$allocator@E@std@@@std@@YAPEAEQEAE0PEAEAEAV?$allocator@E@0@@Z DD 040801H
	DD	070043208H
	DD	030026003H
xdata	ENDS
;	COMDAT xdata
xdata	SEGMENT
$unwind$??$_Zero_range@PEAE@std@@YAPEAEQEAE0@Z DD 020601H
	DD	030023206H
xdata	ENDS
;	COMDAT xdata
xdata	SEGMENT
$unwind$??$_Copy_memmove@PEAEPEAE@std@@YAPEAEPEAE00@Z DD 040a01H
	DD	06340aH
	DD	07006320aH
xdata	ENDS
;	COMDAT xdata
xdata	SEGMENT
$unwind$??$_Allocate_at_least_helper@V?$allocator@D@std@@@std@@YAPEADAEAV?$allocator@D@0@AEA_K@Z DD 010401H
	DD	04204H
xdata	ENDS
;	COMDAT xdata
xdata	SEGMENT
$unwind$??$_Allocate@$0BA@U_Default_allocate_traits@std@@@std@@YAPEAX_K@Z DD 010401H
	DD	04204H
xdata	ENDS
;	COMDAT xdata
xdata	SEGMENT
$unwind$?allocate@?$allocator@D@std@@QEAAPEAD_K@Z DD 010401H
	DD	04204H
xdata	ENDS
;	COMDAT xdata
xdata	SEGMENT
$unwind$??$_Allocate_manually_vector_aligned@U_Default_allocate_traits@std@@@std@@YAPEAX_K@Z DD 010401H
	DD	04204H
xdata	ENDS
CRT$XCU	SEGMENT
?ntdll$initializer$@freqDLLS@ProcessUtilities@@3P6AXXZEA DQ FLAT:??__Entdll@freqDLLS@ProcessUtilities@@YAXXZ ; ProcessUtilities::freqDLLS::ntdll$initializer$
CRT$XCU	ENDS
CRT$XCU	SEGMENT
?advapi32$initializer$@freqDLLS@ProcessUtilities@@3P6AXXZEA DQ FLAT:??__Eadvapi32@freqDLLS@ProcessUtilities@@YAXXZ ; ProcessUtilities::freqDLLS::advapi32$initializer$
CRT$XCU	ENDS
CRT$XCU	ENDS
CRT$XCU	ENDS
CRT$XCU	ENDS
CRT$XCU	ENDS
CRT$XCU	ENDS
CRT$XCU	ENDS
CRT$XCU	ENDS
CRT$XCU	ENDS
CRT$XCU	ENDS
CRT$XCU	ENDS
CRT$XCU	ENDS
; Function compile flags: /Ogtpy
; File C:\Program Files\Microsoft Visual Studio\2022\Community\VC\Tools\MSVC\14.40.33807\include\xtr1common
;	COMDAT ?is_constant_evaluated@std@@YA_NXZ
_TEXT	SEGMENT
?is_constant_evaluated@std@@YA_NXZ PROC			; std::is_constant_evaluated, COMDAT

; 183  :     return __builtin_is_constant_evaluated();

	xor	al, al

; 184  : }

	ret	0
?is_constant_evaluated@std@@YA_NXZ ENDP			; std::is_constant_evaluated
_TEXT	ENDS
; Function compile flags: /Ogtpy
; File C:\Program Files\Microsoft Visual Studio\2022\Community\VC\Tools\MSVC\14.40.33807\include\vcruntime_new.h
;	COMDAT ??2@YAPEAX_KPEAX@Z
_TEXT	SEGMENT
_Size$dead$ = 8
_Where$ = 16
??2@YAPEAX_KPEAX@Z PROC					; operator new, COMDAT

; 165  :         (void)_Size;
; 166  :         return _Where;

	mov	rax, rdx

; 167  :     }

	ret	0
??2@YAPEAX_KPEAX@Z ENDP					; operator new
_TEXT	ENDS
; Function compile flags: /Ogtpy
; File C:\Program Files\Microsoft Visual Studio\2022\Community\VC\Tools\MSVC\14.40.33807\include\limits
;	COMDAT ?max@?$numeric_limits@_J@std@@SA_JXZ
_TEXT	SEGMENT
?max@?$numeric_limits@_J@std@@SA_JXZ PROC		; std::numeric_limits<__int64>::max, COMDAT

; 636  :         return LLONG_MAX;

	mov	rax, 9223372036854775807		; 7fffffffffffffffH

; 637  :     }

	ret	0
?max@?$numeric_limits@_J@std@@SA_JXZ ENDP		; std::numeric_limits<__int64>::max
_TEXT	ENDS
; Function compile flags: /Ogtpy
; File C:\Program Files\Microsoft Visual Studio\2022\Community\VC\Tools\MSVC\14.40.33807\include\vcruntime_exception.h
;	COMDAT ??0exception@std@@QEAA@QEBDH@Z
_TEXT	SEGMENT
this$ = 8
_Message$ = 16
__formal$ = 24
??0exception@std@@QEAA@QEBDH@Z PROC			; std::exception::exception, COMDAT

; 67   :     {

	lea	rax, OFFSET FLAT:??_7exception@std@@6B@
	mov	QWORD PTR [rcx], rax

; 68   :         _Data._What = _Message;
; 69   :     }

	mov	rax, rcx
	mov	QWORD PTR [rcx+16], 0
	mov	QWORD PTR [rcx+8], rdx
	ret	0
??0exception@std@@QEAA@QEBDH@Z ENDP			; std::exception::exception
_TEXT	ENDS
; Function compile flags: /Ogtpy
; File C:\Program Files\Microsoft Visual Studio\2022\Community\VC\Tools\MSVC\14.40.33807\include\vcruntime_exception.h
;	COMDAT ??0exception@std@@QEAA@AEBV01@@Z
_TEXT	SEGMENT
this$ = 48
_Other$ = 56
??0exception@std@@QEAA@AEBV01@@Z PROC			; std::exception::exception, COMDAT

; 73   :     {

$LN6:
	push	rbx
	sub	rsp, 32					; 00000020H
	mov	rbx, rcx
	mov	rax, rdx
	lea	rcx, OFFSET FLAT:??_7exception@std@@6B@
	xorps	xmm0, xmm0
	lea	rdx, QWORD PTR [rbx+8]
	mov	QWORD PTR [rbx], rcx

; 74   :         __std_exception_copy(&_Other._Data, &_Data);

	lea	rcx, QWORD PTR [rax+8]
	movups	XMMWORD PTR [rdx], xmm0
	call	__std_exception_copy

; 75   :     }

	mov	rax, rbx
	add	rsp, 32					; 00000020H
	pop	rbx
	ret	0
??0exception@std@@QEAA@AEBV01@@Z ENDP			; std::exception::exception
_TEXT	ENDS
; Function compile flags: /Ogtpy
; File C:\Program Files\Microsoft Visual Studio\2022\Community\VC\Tools\MSVC\14.40.33807\include\vcruntime_exception.h
;	COMDAT ??1exception@std@@UEAA@XZ
_TEXT	SEGMENT
this$ = 8
??1exception@std@@UEAA@XZ PROC				; std::exception::~exception, COMDAT

; 90   :     {

	lea	rax, OFFSET FLAT:??_7exception@std@@6B@
	mov	QWORD PTR [rcx], rax

; 91   :         __std_exception_destroy(&_Data);

	add	rcx, 8
	jmp	__std_exception_destroy
??1exception@std@@UEAA@XZ ENDP				; std::exception::~exception
_TEXT	ENDS
; Function compile flags: /Ogtpy
; File C:\Program Files\Microsoft Visual Studio\2022\Community\VC\Tools\MSVC\14.40.33807\include\vcruntime_exception.h
;	COMDAT ?what@exception@std@@UEBAPEBDXZ
_TEXT	SEGMENT
this$ = 8
?what@exception@std@@UEBAPEBDXZ PROC			; std::exception::what, COMDAT

; 96   :         return _Data._What ? _Data._What : "Unknown exception";

	mov	rdx, QWORD PTR [rcx+8]
	lea	rax, OFFSET FLAT:??_C@_0BC@EOODALEL@Unknown?5exception@
	test	rdx, rdx
	cmovne	rax, rdx

; 97   :     }

	ret	0
?what@exception@std@@UEBAPEBDXZ ENDP			; std::exception::what
_TEXT	ENDS
; Function compile flags: /Ogtpy
; File C:\Program Files\Microsoft Visual Studio\2022\Community\VC\Tools\MSVC\14.40.33807\include\vcruntime_exception.h
;	COMDAT ??_Gexception@std@@UEAAPEAXI@Z
_TEXT	SEGMENT
this$ = 48
__flags$ = 56
??_Gexception@std@@UEAAPEAXI@Z PROC			; std::exception::`scalar deleting destructor', COMDAT
$LN12:
	mov	QWORD PTR [rsp+8], rbx
	push	rdi
	sub	rsp, 32					; 00000020H

; 90   :     {

	lea	rax, OFFSET FLAT:??_7exception@std@@6B@
	mov	rdi, rcx
	mov	QWORD PTR [rcx], rax
	mov	ebx, edx

; 91   :         __std_exception_destroy(&_Data);

	add	rcx, 8
	call	__std_exception_destroy
	test	bl, 1
	je	SHORT $LN8@scalar
	mov	edx, 24
	mov	rcx, rdi
	call	??3@YAXPEAX_K@Z				; operator delete
$LN8@scalar:
	mov	rbx, QWORD PTR [rsp+48]
	mov	rax, rdi
	add	rsp, 32					; 00000020H
	pop	rdi
	ret	0
??_Gexception@std@@UEAAPEAXI@Z ENDP			; std::exception::`scalar deleting destructor'
_TEXT	ENDS
; Function compile flags: /Ogtpy
; File C:\Program Files\Microsoft Visual Studio\2022\Community\VC\Tools\MSVC\14.40.33807\include\vcruntime_exception.h
;	COMDAT ??0bad_alloc@std@@AEAA@QEBD@Z
_TEXT	SEGMENT
this$ = 8
_Message$ = 16
??0bad_alloc@std@@AEAA@QEBD@Z PROC			; std::bad_alloc::bad_alloc, COMDAT

; 133  :     {

	lea	rax, OFFSET FLAT:??_7bad_alloc@std@@6B@

; 66   :         : _Data()

	mov	QWORD PTR [rcx+16], 0

; 133  :     {

	mov	QWORD PTR [rcx], rax

; 134  :     }

	mov	rax, rcx

; 68   :         _Data._What = _Message;

	mov	QWORD PTR [rcx+8], rdx

; 134  :     }

	ret	0
??0bad_alloc@std@@AEAA@QEBD@Z ENDP			; std::bad_alloc::bad_alloc
_TEXT	ENDS
; Function compile flags: /Ogtpy
; File C:\Program Files\Microsoft Visual Studio\2022\Community\VC\Tools\MSVC\14.40.33807\include\vcruntime_exception.h
;	COMDAT ??_Gbad_alloc@std@@UEAAPEAXI@Z
_TEXT	SEGMENT
this$ = 48
__flags$ = 56
??_Gbad_alloc@std@@UEAAPEAXI@Z PROC			; std::bad_alloc::`scalar deleting destructor', COMDAT
$LN17:
	mov	QWORD PTR [rsp+8], rbx
	push	rdi
	sub	rsp, 32					; 00000020H

; 90   :     {

	lea	rax, OFFSET FLAT:??_7exception@std@@6B@
	mov	rdi, rcx
	mov	QWORD PTR [rcx], rax
	mov	ebx, edx

; 91   :         __std_exception_destroy(&_Data);

	add	rcx, 8
	call	__std_exception_destroy
	test	bl, 1
	je	SHORT $LN13@scalar
	mov	edx, 24
	mov	rcx, rdi
	call	??3@YAXPEAX_K@Z				; operator delete
$LN13@scalar:
	mov	rbx, QWORD PTR [rsp+48]
	mov	rax, rdi
	add	rsp, 32					; 00000020H
	pop	rdi
	ret	0
??_Gbad_alloc@std@@UEAAPEAXI@Z ENDP			; std::bad_alloc::`scalar deleting destructor'
_TEXT	ENDS
; Function compile flags: /Ogtpy
; File C:\Program Files\Microsoft Visual Studio\2022\Community\VC\Tools\MSVC\14.40.33807\include\vcruntime_exception.h
;	COMDAT ??1bad_alloc@std@@UEAA@XZ
_TEXT	SEGMENT
this$ = 8
??1bad_alloc@std@@UEAA@XZ PROC				; std::bad_alloc::~bad_alloc, COMDAT

; 90   :     {

	lea	rax, OFFSET FLAT:??_7exception@std@@6B@
	mov	QWORD PTR [rcx], rax

; 91   :         __std_exception_destroy(&_Data);

	add	rcx, 8
	jmp	__std_exception_destroy
??1bad_alloc@std@@UEAA@XZ ENDP				; std::bad_alloc::~bad_alloc
_TEXT	ENDS
; Function compile flags: /Ogtpy
; File C:\Program Files\Microsoft Visual Studio\2022\Community\VC\Tools\MSVC\14.40.33807\include\vcruntime_exception.h
;	COMDAT ??0bad_array_new_length@std@@QEAA@XZ
_TEXT	SEGMENT
this$ = 8
??0bad_array_new_length@std@@QEAA@XZ PROC		; std::bad_array_new_length::bad_array_new_length, COMDAT

; 68   :         _Data._What = _Message;

	lea	rax, OFFSET FLAT:??_C@_0BF@KINCDENJ@bad?5array?5new?5length@
	mov	QWORD PTR [rcx+16], 0
	mov	QWORD PTR [rcx+8], rax

; 144  :     {

	lea	rax, OFFSET FLAT:??_7bad_array_new_length@std@@6B@
	mov	QWORD PTR [rcx], rax

; 145  :     }

	mov	rax, rcx
	ret	0
??0bad_array_new_length@std@@QEAA@XZ ENDP		; std::bad_array_new_length::bad_array_new_length
_TEXT	ENDS
; Function compile flags: /Ogtpy
; File C:\Program Files\Microsoft Visual Studio\2022\Community\VC\Tools\MSVC\14.40.33807\include\vcruntime_exception.h
;	COMDAT ??_Gbad_array_new_length@std@@UEAAPEAXI@Z
_TEXT	SEGMENT
this$ = 48
__flags$ = 56
??_Gbad_array_new_length@std@@UEAAPEAXI@Z PROC		; std::bad_array_new_length::`scalar deleting destructor', COMDAT
$LN22:
	mov	QWORD PTR [rsp+8], rbx
	push	rdi
	sub	rsp, 32					; 00000020H

; 90   :     {

	lea	rax, OFFSET FLAT:??_7exception@std@@6B@
	mov	rdi, rcx
	mov	QWORD PTR [rcx], rax
	mov	ebx, edx

; 91   :         __std_exception_destroy(&_Data);

	add	rcx, 8
	call	__std_exception_destroy
	test	bl, 1
	je	SHORT $LN18@scalar
	mov	edx, 24
	mov	rcx, rdi
	call	??3@YAXPEAX_K@Z				; operator delete
$LN18@scalar:
	mov	rbx, QWORD PTR [rsp+48]
	mov	rax, rdi
	add	rsp, 32					; 00000020H
	pop	rdi
	ret	0
??_Gbad_array_new_length@std@@UEAAPEAXI@Z ENDP		; std::bad_array_new_length::`scalar deleting destructor'
_TEXT	ENDS
; Function compile flags: /Ogtpy
; File C:\Program Files\Microsoft Visual Studio\2022\Community\VC\Tools\MSVC\14.40.33807\include\vcruntime_exception.h
;	COMDAT ??1bad_array_new_length@std@@UEAA@XZ
_TEXT	SEGMENT
this$ = 8
??1bad_array_new_length@std@@UEAA@XZ PROC		; std::bad_array_new_length::~bad_array_new_length, COMDAT

; 90   :     {

	lea	rax, OFFSET FLAT:??_7exception@std@@6B@
	mov	QWORD PTR [rcx], rax

; 91   :         __std_exception_destroy(&_Data);

	add	rcx, 8
	jmp	__std_exception_destroy
??1bad_array_new_length@std@@UEAA@XZ ENDP		; std::bad_array_new_length::~bad_array_new_length
_TEXT	ENDS
; Function compile flags: /Ogtpy
; File C:\Program Files\Microsoft Visual Studio\2022\Community\VC\Tools\MSVC\14.40.33807\include\xmemory
;	COMDAT ?_Throw_bad_array_new_length@std@@YAXXZ
_TEXT	SEGMENT
$T1 = 32
?_Throw_bad_array_new_length@std@@YAXXZ PROC		; std::_Throw_bad_array_new_length, COMDAT

; 74   : [[noreturn]] inline void _Throw_bad_array_new_length() {

$LN4:
	sub	rsp, 72					; 00000048H

; 75   :     _THROW(bad_array_new_length{});

	lea	rcx, QWORD PTR $T1[rsp]
	call	??0bad_array_new_length@std@@QEAA@XZ	; std::bad_array_new_length::bad_array_new_length
	lea	rdx, OFFSET FLAT:_TI3?AVbad_array_new_length@std@@
	lea	rcx, QWORD PTR $T1[rsp]
	call	_CxxThrowException
	int	3
$LN3@Throw_bad_:
?_Throw_bad_array_new_length@std@@YAXXZ ENDP		; std::_Throw_bad_array_new_length
_TEXT	ENDS
; Function compile flags: /Ogtpy
; File C:\Program Files\Microsoft Visual Studio\2022\Community\VC\Tools\MSVC\14.40.33807\include\vcruntime_exception.h
;	COMDAT ??0bad_array_new_length@std@@QEAA@AEBV01@@Z
_TEXT	SEGMENT
this$ = 48
__that$ = 56
??0bad_array_new_length@std@@QEAA@AEBV01@@Z PROC	; std::bad_array_new_length::bad_array_new_length, COMDAT
$LN14:
	push	rbx
	sub	rsp, 32					; 00000020H
	mov	rbx, rcx
	mov	rax, rdx

; 73   :     {

	lea	rcx, OFFSET FLAT:??_7exception@std@@6B@
	xorps	xmm0, xmm0

; 72   :         : _Data()

	lea	rdx, QWORD PTR [rbx+8]

; 73   :     {

	mov	QWORD PTR [rbx], rcx

; 74   :         __std_exception_copy(&_Other._Data, &_Data);

	lea	rcx, QWORD PTR [rax+8]
	movups	XMMWORD PTR [rdx], xmm0
	call	__std_exception_copy
	lea	rax, OFFSET FLAT:??_7bad_array_new_length@std@@6B@
	mov	QWORD PTR [rbx], rax
	mov	rax, rbx
	add	rsp, 32					; 00000020H
	pop	rbx
	ret	0
??0bad_array_new_length@std@@QEAA@AEBV01@@Z ENDP	; std::bad_array_new_length::bad_array_new_length
_TEXT	ENDS
; Function compile flags: /Ogtpy
; File C:\Program Files\Microsoft Visual Studio\2022\Community\VC\Tools\MSVC\14.40.33807\include\vcruntime_exception.h
;	COMDAT ??0bad_alloc@std@@QEAA@AEBV01@@Z
_TEXT	SEGMENT
this$ = 48
__that$ = 56
??0bad_alloc@std@@QEAA@AEBV01@@Z PROC			; std::bad_alloc::bad_alloc, COMDAT
$LN9:
	push	rbx
	sub	rsp, 32					; 00000020H
	mov	rbx, rcx
	mov	rax, rdx

; 73   :     {

	lea	rcx, OFFSET FLAT:??_7exception@std@@6B@
	xorps	xmm0, xmm0

; 72   :         : _Data()

	lea	rdx, QWORD PTR [rbx+8]

; 73   :     {

	mov	QWORD PTR [rbx], rcx

; 74   :         __std_exception_copy(&_Other._Data, &_Data);

	lea	rcx, QWORD PTR [rax+8]
	movups	XMMWORD PTR [rdx], xmm0
	call	__std_exception_copy
	lea	rax, OFFSET FLAT:??_7bad_alloc@std@@6B@
	mov	QWORD PTR [rbx], rax
	mov	rax, rbx
	add	rsp, 32					; 00000020H
	pop	rbx
	ret	0
??0bad_alloc@std@@QEAA@AEBV01@@Z ENDP			; std::bad_alloc::bad_alloc
_TEXT	ENDS
; Function compile flags: /Ogtpy
; File C:\Program Files\Microsoft Visual Studio\2022\Community\VC\Tools\MSVC\14.40.33807\include\xmemory
;	COMDAT ?_Allocate@_Default_allocate_traits@std@@SAPEAX_K@Z
_TEXT	SEGMENT
_Bytes$ = 8
?_Allocate@_Default_allocate_traits@std@@SAPEAX_K@Z PROC ; std::_Default_allocate_traits::_Allocate, COMDAT

; 101  :         return ::operator new(_Bytes);

	jmp	??2@YAPEAX_K@Z				; operator new
?_Allocate@_Default_allocate_traits@std@@SAPEAX_K@Z ENDP ; std::_Default_allocate_traits::_Allocate
_TEXT	ENDS
; Function compile flags: /Ogtpy
; File C:\Program Files\Microsoft Visual Studio\2022\Community\VC\Tools\MSVC\14.40.33807\include\xmemory
;	COMDAT ?_Adjust_manually_vector_aligned@std@@YAXAEAPEAXAEA_K@Z
_TEXT	SEGMENT
_Ptr$ = 48
_Bytes$ = 56
?_Adjust_manually_vector_aligned@std@@YAXAEAPEAXAEA_K@Z PROC ; std::_Adjust_manually_vector_aligned, COMDAT

; 169  : inline void _Adjust_manually_vector_aligned(void*& _Ptr, size_t& _Bytes) {

$LN13:
	sub	rsp, 40					; 00000028H

; 170  :     // adjust parameters from _Allocate_manually_vector_aligned to pass to operator delete
; 171  :     _Bytes += _Non_user_size;

	add	QWORD PTR [rdx], 39			; 00000027H

; 172  : 
; 173  :     const uintptr_t* const _Ptr_user = static_cast<uintptr_t*>(_Ptr);
; 174  :     const uintptr_t _Ptr_container   = _Ptr_user[-1];

	mov	rax, QWORD PTR [rcx]
	mov	rdx, QWORD PTR [rax-8]

; 175  : 
; 176  :     // If the following asserts, it likely means that we are performing
; 177  :     // an aligned delete on memory coming from an unaligned allocation.
; 178  :     _STL_ASSERT(_Ptr_user[-2] == _Big_allocation_sentinel, "invalid argument");
; 179  : 
; 180  :     // Extra paranoia on aligned allocation/deallocation; ensure _Ptr_container is
; 181  :     // in range [_Min_back_shift, _Non_user_size]
; 182  : #ifdef _DEBUG
; 183  :     constexpr uintptr_t _Min_back_shift = 2 * sizeof(void*);
; 184  : #else // ^^^ defined(_DEBUG) / !defined(_DEBUG) vvv
; 185  :     constexpr uintptr_t _Min_back_shift = sizeof(void*);
; 186  : #endif // ^^^ !defined(_DEBUG) ^^^
; 187  :     const uintptr_t _Back_shift = reinterpret_cast<uintptr_t>(_Ptr) - _Ptr_container;

	sub	rax, rdx

; 188  :     _STL_VERIFY(_Back_shift >= _Min_back_shift && _Back_shift <= _Non_user_size, "invalid argument");

	add	rax, -8
	cmp	rax, 31
	ja	SHORT $LN7@Adjust_man

; 189  :     _Ptr = reinterpret_cast<void*>(_Ptr_container);

	mov	QWORD PTR [rcx], rdx

; 190  : }

	add	rsp, 40					; 00000028H
	ret	0
$LN7@Adjust_man:

; 188  :     _STL_VERIFY(_Back_shift >= _Min_back_shift && _Back_shift <= _Non_user_size, "invalid argument");

	call	_invalid_parameter_noinfo_noreturn
	int	3
$LN11@Adjust_man:
?_Adjust_manually_vector_aligned@std@@YAXAEAPEAXAEA_K@Z ENDP ; std::_Adjust_manually_vector_aligned
_TEXT	ENDS
; Function compile flags: /Ogtpy
; File C:\Program Files\Microsoft Visual Studio\2022\Community\VC\Tools\MSVC\14.40.33807\include\xmemory
;	COMDAT ?_Orphan_all@_Container_base0@std@@QEAAXXZ
_TEXT	SEGMENT
this$dead$ = 8
?_Orphan_all@_Container_base0@std@@QEAAXXZ PROC		; std::_Container_base0::_Orphan_all, COMDAT

; 1149 :     _CONSTEXPR20 void _Orphan_all() noexcept {}

	ret	0
?_Orphan_all@_Container_base0@std@@QEAAXXZ ENDP		; std::_Container_base0::_Orphan_all
_TEXT	ENDS
; Function compile flags: /Ogtpy
; File C:\Program Files\Microsoft Visual Studio\2022\Community\VC\Tools\MSVC\14.40.33807\include\xmemory
;	COMDAT ?_Swap_proxy_and_iterators@_Container_base0@std@@QEAAXAEAU12@@Z
_TEXT	SEGMENT
this$dead$ = 8
__formal$dead$ = 16
?_Swap_proxy_and_iterators@_Container_base0@std@@QEAAXAEAU12@@Z PROC ; std::_Container_base0::_Swap_proxy_and_iterators, COMDAT

; 1150 :     _CONSTEXPR20 void _Swap_proxy_and_iterators(_Container_base0&) noexcept {}

	ret	0
?_Swap_proxy_and_iterators@_Container_base0@std@@QEAAXAEAU12@@Z ENDP ; std::_Container_base0::_Swap_proxy_and_iterators
_TEXT	ENDS
; Function compile flags: /Ogtpy
; File C:\Program Files\Microsoft Visual Studio\2022\Community\VC\Tools\MSVC\14.40.33807\include\xmemory
;	COMDAT ?_Alloc_proxy@_Container_base0@std@@QEAAXAEBU_Fake_allocator@2@@Z
_TEXT	SEGMENT
this$dead$ = 8
__formal$dead$ = 16
?_Alloc_proxy@_Container_base0@std@@QEAAXAEBU_Fake_allocator@2@@Z PROC ; std::_Container_base0::_Alloc_proxy, COMDAT

; 1151 :     _CONSTEXPR20 void _Alloc_proxy(const _Fake_allocator&) noexcept {}

	ret	0
?_Alloc_proxy@_Container_base0@std@@QEAAXAEBU_Fake_allocator@2@@Z ENDP ; std::_Container_base0::_Alloc_proxy
_TEXT	ENDS
; Function compile flags: /Ogtpy
; File C:\Program Files\Microsoft Visual Studio\2022\Community\VC\Tools\MSVC\14.40.33807\include\xmemory
;	COMDAT ??0_Fake_proxy_ptr_impl@std@@QEAA@AEBU_Fake_allocator@1@AEBU_Container_base0@1@@Z
_TEXT	SEGMENT
this$ = 8
__formal$dead$ = 16
__formal$dead$ = 24
??0_Fake_proxy_ptr_impl@std@@QEAA@AEBU_Fake_allocator@1@AEBU_Container_base0@1@@Z PROC ; std::_Fake_proxy_ptr_impl::_Fake_proxy_ptr_impl, COMDAT

; 1415 :     _CONSTEXPR20 _Fake_proxy_ptr_impl(const _Fake_allocator&, const _Container_base0&) noexcept {}

	mov	rax, rcx
	ret	0
??0_Fake_proxy_ptr_impl@std@@QEAA@AEBU_Fake_allocator@1@AEBU_Container_base0@1@@Z ENDP ; std::_Fake_proxy_ptr_impl::_Fake_proxy_ptr_impl
_TEXT	ENDS
; Function compile flags: /Ogtpy
; File C:\Program Files\Microsoft Visual Studio\2022\Community\VC\Tools\MSVC\14.40.33807\include\xmemory
;	COMDAT ?_Release@_Fake_proxy_ptr_impl@std@@QEAAXXZ
_TEXT	SEGMENT
this$dead$ = 8
?_Release@_Fake_proxy_ptr_impl@std@@QEAAXXZ PROC	; std::_Fake_proxy_ptr_impl::_Release, COMDAT

; 1418 :     _CONSTEXPR20 void _Release() noexcept {}

	ret	0
?_Release@_Fake_proxy_ptr_impl@std@@QEAAXXZ ENDP	; std::_Fake_proxy_ptr_impl::_Release
_TEXT	ENDS
; Function compile flags: /Ogtpy
; File C:\Program Files\Microsoft Visual Studio\2022\Community\VC\Tools\MSVC\14.40.33807\include\xstring
;	COMDAT ?_Xlen_string@std@@YAXXZ
_TEXT	SEGMENT
?_Xlen_string@std@@YAXXZ PROC				; std::_Xlen_string, COMDAT

; 2326 : [[noreturn]] inline void _Xlen_string() {

$LN4:
	sub	rsp, 40					; 00000028H

; 2327 :     _Xlength_error("string too long");

	lea	rcx, OFFSET FLAT:??_C@_0BA@JFNIOLAK@string?5too?5long@
	call	?_Xlength_error@std@@YAXPEBD@Z		; std::_Xlength_error
	int	3
$LN3@Xlen_strin:
?_Xlen_string@std@@YAXXZ ENDP				; std::_Xlen_string
_TEXT	ENDS
; Function compile flags: /Ogtpy
; File C:\Users\ethan\source\repos\DLL\DLL\Headers\net_common.h
; File C:\Program Files\Microsoft Visual Studio\2022\Community\VC\Tools\MSVC\14.40.33807\include\vector
; File C:\Users\ethan\source\repos\DLL\DLL\Headers\net_common.h
; File C:\Program Files\Microsoft Visual Studio\2022\Community\VC\Tools\MSVC\14.40.33807\include\xstring
; File C:\Users\ethan\source\repos\DLL\DLL\Headers\net_common.h
; File C:\Program Files\Microsoft Visual Studio\2022\Community\VC\Tools\MSVC\14.40.33807\include\vector
; File C:\Users\ethan\source\repos\DLL\DLL\Headers\net_common.h
; File C:\Program Files\Microsoft Visual Studio\2022\Community\VC\Tools\MSVC\14.40.33807\include\xstring
; File C:\Program Files\Microsoft Visual Studio\2022\Community\VC\Tools\MSVC\14.40.33807\include\xmemory
; File C:\Program Files\Microsoft Visual Studio\2022\Community\VC\Tools\MSVC\14.40.33807\include\xstring
; File C:\Users\ethan\source\repos\DLL\DLL\Headers\net_common.h
; File C:\Program Files\Microsoft Visual Studio\2022\Community\VC\Tools\MSVC\14.40.33807\include\xmemory
; File C:\Users\ethan\source\repos\DLL\DLL\Headers\net_common.h
;	COMDAT ?SerializeString@NetCommon@@YA?AV?$vector@EV?$allocator@E@std@@@std@@V?$basic_string@DU?$char_traits@D@std@@V?$allocator@D@2@@3@@Z
_TEXT	SEGMENT
c$1 = 32
$T2 = 36
__$ReturnUdt$GSCopy$ = 40
s$GSCopy$ = 48
__$ArrayPad$ = 56
__$ReturnUdt$ = 96
s$ = 104
?SerializeString@NetCommon@@YA?AV?$vector@EV?$allocator@E@std@@@std@@V?$basic_string@DU?$char_traits@D@std@@V?$allocator@D@2@@3@@Z PROC ; NetCommon::SerializeString, COMDAT

; 59   :     inline BYTESTRING SerializeString(std::string s) {

$LN96:
	mov	QWORD PTR [rsp+24], rbx
	mov	QWORD PTR [rsp+32], rbp
	push	rsi
	push	rdi
	push	r14
	sub	rsp, 64					; 00000040H
	mov	rax, QWORD PTR __security_cookie
	xor	rax, rsp
	mov	QWORD PTR __$ArrayPad$[rsp], rax
	mov	rsi, rdx
	mov	rbx, rcx
	mov	QWORD PTR __$ReturnUdt$GSCopy$[rsp], rcx
	mov	QWORD PTR s$GSCopy$[rsp], rdx
	xor	r14d, r14d
	mov	DWORD PTR $T2[rsp], r14d
	xorps	xmm0, xmm0
	movups	XMMWORD PTR [rcx], xmm0
; File C:\Program Files\Microsoft Visual Studio\2022\Community\VC\Tools\MSVC\14.40.33807\include\vector

; 400  :     _CONSTEXPR20 _Vector_val() noexcept : _Myfirst(), _Mylast(), _Myend() {}

	mov	QWORD PTR [rcx], r14
	mov	QWORD PTR [rcx+8], r14
	mov	QWORD PTR [rcx+16], r14
; File C:\Users\ethan\source\repos\DLL\DLL\Headers\net_common.h

; 60   :         BYTESTRING bs;

	mov	DWORD PTR $T2[rsp], 1
; File C:\Program Files\Microsoft Visual Studio\2022\Community\VC\Tools\MSVC\14.40.33807\include\xstring

; 2244 :         return _Myres > _Small_string_capacity;

	cmp	QWORD PTR [rdx+24], 15

; 2227 :         if (_Large_mode_engaged()) {

	jbe	SHORT $LN90@SerializeS

; 2228 :             _Result = _Unfancy(_Bx._Ptr);

	mov	rdi, QWORD PTR [rdx]
	mov	rcx, rdi
	mov	rdx, rdi
	jmp	SHORT $LN35@SerializeS
$LN90@SerializeS:
	mov	rdi, rsi
	mov	rcx, rsi
$LN35@SerializeS:

; 3987 :         return _Mypair._Myval2._Myptr() + _Mypair._Myval2._Mysize;

	mov	rbp, QWORD PTR [rsi+16]
	add	rbp, rcx
; File C:\Users\ethan\source\repos\DLL\DLL\Headers\net_common.h

; 61   :         for ( BYTE c : s )

	cmp	rdx, rbp
	je	SHORT $LN3@SerializeS
	npad	10
$LL4@SerializeS:
	movzx	eax, BYTE PTR [rdi]
	mov	BYTE PTR c$1[rsp], al
; File C:\Program Files\Microsoft Visual Studio\2022\Community\VC\Tools\MSVC\14.40.33807\include\vector

; 775  :         if (_Mylast != _My_data._Myend) {

	mov	rdx, QWORD PTR [rbx+8]
	cmp	rdx, QWORD PTR [rbx+16]
	je	SHORT $LN44@SerializeS

; 791  :             _Construct_in_place(*_Mylast, _STD forward<_Valty>(_Val)...);

	mov	BYTE PTR [rdx], al

; 792  :         } else {
; 793  :             _ASAN_VECTOR_EXTEND_GUARD(static_cast<size_type>(_Mylast - _My_data._Myfirst) + 1);
; 794  :             _Alty_traits::construct(_Getal(), _Unfancy(_Mylast), _STD forward<_Valty>(_Val)...);
; 795  :             _ASAN_VECTOR_RELEASE_GUARD;
; 796  :         }
; 797  : 
; 798  :         _Orphan_range(_Mylast, _Mylast);
; 799  :         _Ty& _Result = *_Mylast;
; 800  :         ++_Mylast;

	inc	QWORD PTR [rbx+8]

; 776  :             return _Emplace_back_with_unused_capacity(_STD forward<_Valty>(_Val)...);

	jmp	SHORT $LN2@SerializeS
$LN44@SerializeS:

; 777  :         }
; 778  : 
; 779  :         return *_Emplace_reallocate(_Mylast, _STD forward<_Valty>(_Val)...);

	lea	r8, QWORD PTR c$1[rsp]
	mov	rcx, rbx
	call	??$_Emplace_reallocate@AEBE@?$vector@EV?$allocator@E@std@@@std@@AEAAPEAEQEAEAEBE@Z ; std::vector<unsigned char,std::allocator<unsigned char> >::_Emplace_reallocate<unsigned char const &>
$LN2@SerializeS:
; File C:\Users\ethan\source\repos\DLL\DLL\Headers\net_common.h

; 61   :         for ( BYTE c : s )

	inc	rdi
	cmp	rdi, rbp
	jne	SHORT $LL4@SerializeS
$LN3@SerializeS:
; File C:\Program Files\Microsoft Visual Studio\2022\Community\VC\Tools\MSVC\14.40.33807\include\xstring

; 2244 :         return _Myres > _Small_string_capacity;

	mov	rdx, QWORD PTR [rsi+24]
	cmp	rdx, 15

; 4868 :         if (_My_data._Large_mode_engaged()) {

	jbe	SHORT $LN65@SerializeS

; 2643 :         _Al.deallocate(_Old_ptr, _Capacity + 1); // +1 for null terminator

	inc	rdx
; File C:\Program Files\Microsoft Visual Studio\2022\Community\VC\Tools\MSVC\14.40.33807\include\xmemory

; 950  :         _STD _Deallocate<_New_alignof<_Ty>>(_Ptr, sizeof(_Ty) * _Count);

	mov	rcx, QWORD PTR [rsi]

; 253  :         if (_Bytes >= _Big_allocation_threshold) {

	cmp	rdx, 4096				; 00001000H
	jb	SHORT $LN79@SerializeS

; 171  :     _Bytes += _Non_user_size;

	add	rdx, 39					; 00000027H

; 172  : 
; 173  :     const uintptr_t* const _Ptr_user = static_cast<uintptr_t*>(_Ptr);
; 174  :     const uintptr_t _Ptr_container   = _Ptr_user[-1];

	mov	r8, QWORD PTR [rcx-8]

; 175  : 
; 176  :     // If the following asserts, it likely means that we are performing
; 177  :     // an aligned delete on memory coming from an unaligned allocation.
; 178  :     _STL_ASSERT(_Ptr_user[-2] == _Big_allocation_sentinel, "invalid argument");
; 179  : 
; 180  :     // Extra paranoia on aligned allocation/deallocation; ensure _Ptr_container is
; 181  :     // in range [_Min_back_shift, _Non_user_size]
; 182  : #ifdef _DEBUG
; 183  :     constexpr uintptr_t _Min_back_shift = 2 * sizeof(void*);
; 184  : #else // ^^^ defined(_DEBUG) / !defined(_DEBUG) vvv
; 185  :     constexpr uintptr_t _Min_back_shift = sizeof(void*);
; 186  : #endif // ^^^ !defined(_DEBUG) ^^^
; 187  :     const uintptr_t _Back_shift = reinterpret_cast<uintptr_t>(_Ptr) - _Ptr_container;

	sub	rcx, r8

; 188  :     _STL_VERIFY(_Back_shift >= _Min_back_shift && _Back_shift <= _Non_user_size, "invalid argument");

	lea	rax, QWORD PTR [rcx-8]
	cmp	rax, 31
	ja	SHORT $LN76@SerializeS

; 189  :     _Ptr = reinterpret_cast<void*>(_Ptr_container);

	mov	rcx, r8
$LN79@SerializeS:

; 258  :         ::operator delete(_Ptr, _Bytes);

	call	??3@YAXPEAX_K@Z				; operator delete
$LN65@SerializeS:
; File C:\Program Files\Microsoft Visual Studio\2022\Community\VC\Tools\MSVC\14.40.33807\include\xstring

; 4875 :         _My_data._Mysize = 0;

	mov	QWORD PTR [rsi+16], r14

; 4876 :         _My_data._Myres  = _Small_string_capacity;

	mov	QWORD PTR [rsi+24], 15

; 4877 :         // the _Traits::assign is last so the codegen doesn't think the char write can alias this
; 4878 :         _Traits::assign(_My_data._Bx._Buf[0], _Elem());

	mov	BYTE PTR [rsi], 0
; File C:\Users\ethan\source\repos\DLL\DLL\Headers\net_common.h

; 63   :         return bs;

	mov	rax, rbx

; 64   :     }

	mov	rcx, QWORD PTR __$ArrayPad$[rsp]
	xor	rcx, rsp
	call	__security_check_cookie
	mov	rbx, QWORD PTR [rsp+112]
	mov	rbp, QWORD PTR [rsp+120]
	add	rsp, 64					; 00000040H
	pop	r14
	pop	rdi
	pop	rsi
	ret	0
$LN76@SerializeS:
; File C:\Program Files\Microsoft Visual Studio\2022\Community\VC\Tools\MSVC\14.40.33807\include\xmemory

; 188  :     _STL_VERIFY(_Back_shift >= _Min_back_shift && _Back_shift <= _Non_user_size, "invalid argument");

	call	_invalid_parameter_noinfo_noreturn
	int	3
$LN93@SerializeS:
?SerializeString@NetCommon@@YA?AV?$vector@EV?$allocator@E@std@@@std@@V?$basic_string@DU?$char_traits@D@std@@V?$allocator@D@2@@3@@Z ENDP ; NetCommon::SerializeString
_TEXT	ENDS
; Function compile flags: /Ogtpy
;	COMDAT text$x
text$x	SEGMENT
c$1 = 32
$T2 = 36
__$ReturnUdt$GSCopy$ = 40
s$GSCopy$ = 48
__$ArrayPad$ = 56
__$ReturnUdt$ = 96
s$ = 104
?dtor$0@?0??SerializeString@NetCommon@@YA?AV?$vector@EV?$allocator@E@std@@@std@@V?$basic_string@DU?$char_traits@D@std@@V?$allocator@D@2@@3@@Z@4HA PROC ; `NetCommon::SerializeString'::`1'::dtor$0
	mov	rcx, QWORD PTR s$GSCopy$[rdx]
	jmp	??1?$basic_string@DU?$char_traits@D@std@@V?$allocator@D@2@@std@@QEAA@XZ ; std::basic_string<char,std::char_traits<char>,std::allocator<char> >::~basic_string<char,std::char_traits<char>,std::allocator<char> >
?dtor$0@?0??SerializeString@NetCommon@@YA?AV?$vector@EV?$allocator@E@std@@@std@@V?$basic_string@DU?$char_traits@D@std@@V?$allocator@D@2@@3@@Z@4HA ENDP ; `NetCommon::SerializeString'::`1'::dtor$0
text$x	ENDS
; Function compile flags: /Ogtpy
;	COMDAT text$x
text$x	SEGMENT
c$1 = 32
$T2 = 36
__$ReturnUdt$GSCopy$ = 40
s$GSCopy$ = 48
__$ArrayPad$ = 56
__$ReturnUdt$ = 96
s$ = 104
?dtor$1@?0??SerializeString@NetCommon@@YA?AV?$vector@EV?$allocator@E@std@@@std@@V?$basic_string@DU?$char_traits@D@std@@V?$allocator@D@2@@3@@Z@4HA PROC ; `NetCommon::SerializeString'::`1'::dtor$1
	push	rbp
	sub	rsp, 32					; 00000020H
	mov	rbp, rdx
	mov	eax, DWORD PTR $T2[rbp]
	and	eax, 1
	test	eax, eax
	je	SHORT $LN8@dtor$1
	and	DWORD PTR $T2[rbp], -2
	mov	rcx, QWORD PTR __$ReturnUdt$GSCopy$[rbp]
	call	??1?$vector@EV?$allocator@E@std@@@std@@QEAA@XZ ; std::vector<unsigned char,std::allocator<unsigned char> >::~vector<unsigned char,std::allocator<unsigned char> >
$LN8@dtor$1:
	add	rsp, 32					; 00000020H
	pop	rbp
	ret	0
?dtor$1@?0??SerializeString@NetCommon@@YA?AV?$vector@EV?$allocator@E@std@@@std@@V?$basic_string@DU?$char_traits@D@std@@V?$allocator@D@2@@3@@Z@4HA ENDP ; `NetCommon::SerializeString'::`1'::dtor$1
text$x	ENDS
; Function compile flags: /Ogtpy
;	COMDAT ?__autoclassinit2@?$vector@EV?$allocator@E@std@@@std@@QEAAX_K@Z
_TEXT	SEGMENT
this$ = 8
classSize$dead$ = 16
?__autoclassinit2@?$vector@EV?$allocator@E@std@@@std@@QEAAX_K@Z PROC ; std::vector<unsigned char,std::allocator<unsigned char> >::__autoclassinit2, COMDAT
	xorps	xmm0, xmm0
	xor	eax, eax
	movups	XMMWORD PTR [rcx], xmm0
	mov	QWORD PTR [rcx+16], rax
	ret	0
?__autoclassinit2@?$vector@EV?$allocator@E@std@@@std@@QEAAX_K@Z ENDP ; std::vector<unsigned char,std::allocator<unsigned char> >::__autoclassinit2
_TEXT	ENDS
; Function compile flags: /Ogtpy
; File C:\Users\ethan\source\repos\DLL\DLL\Headers\net_common.h
; File C:\Users\ethan\source\repos\DLL\DLL\Headers\aes.hpp
; File C:\Users\ethan\source\repos\DLL\DLL\Headers\net_common.h
; File C:\Users\ethan\source\repos\DLL\DLL\Headers\aes.hpp
; File C:\Users\ethan\source\repos\DLL\DLL\Headers\net_common.h
; File C:\Users\ethan\source\repos\DLL\DLL\Headers\aes.hpp
; File C:\Program Files\Microsoft Visual Studio\2022\Community\VC\Tools\MSVC\14.40.33807\include\vector
; File C:\Program Files\Microsoft Visual Studio\2022\Community\VC\Tools\MSVC\14.40.33807\include\xmemory
; File C:\Program Files\Microsoft Visual Studio\2022\Community\VC\Tools\MSVC\14.40.33807\include\vector
; File C:\Program Files\Microsoft Visual Studio\2022\Community\VC\Tools\MSVC\14.40.33807\include\xstring
; File C:\Program Files\Microsoft Visual Studio\2022\Community\VC\Tools\MSVC\14.40.33807\include\xmemory
; File C:\Program Files\Microsoft Visual Studio\2022\Community\VC\Tools\MSVC\14.40.33807\include\xstring
; File C:\Users\ethan\source\repos\DLL\DLL\Headers\net_common.h
; File C:\Program Files\Microsoft Visual Studio\2022\Community\VC\Tools\MSVC\14.40.33807\include\xmemory
; File C:\Users\ethan\source\repos\DLL\DLL\Headers\net_common.h
;	COMDAT ?DecryptByteString@NetCommon@@YAXAEAV?$vector@EV?$allocator@E@std@@@std@@V?$basic_string@DU?$char_traits@D@std@@V?$allocator@D@2@@3@@Z
_TEXT	SEGMENT
$T1 = 40
key$GSCopy$ = 72
byteKey$ = 80
aes$ = 112
__$ArrayPad$ = 352
string$ = 384
key$ = 392
?DecryptByteString@NetCommon@@YAXAEAV?$vector@EV?$allocator@E@std@@@std@@V?$basic_string@DU?$char_traits@D@std@@V?$allocator@D@2@@3@@Z PROC ; NetCommon::DecryptByteString, COMDAT

; 78   :     inline void DecryptByteString(BYTESTRING& string, std::string key) {

$LN94:
	mov	QWORD PTR [rsp+24], rbx
	push	rdi
	sub	rsp, 368				; 00000170H
	mov	rax, QWORD PTR __security_cookie
	xor	rax, rsp
	mov	QWORD PTR __$ArrayPad$[rsp], rax
	mov	rdi, rdx
	mov	rbx, rcx
	mov	QWORD PTR key$GSCopy$[rsp], rdx
	xorps	xmm0, xmm0
	xor	eax, eax
	movups	XMMWORD PTR byteKey$[rsp], xmm0
	mov	QWORD PTR byteKey$[rsp+16], rax

; 79   :         BYTESTRING byteKey = NetCommon::SerializeString(key);

	lea	rcx, QWORD PTR $T1[rsp]
	call	??0?$basic_string@DU?$char_traits@D@std@@V?$allocator@D@2@@std@@QEAA@AEBV01@@Z ; std::basic_string<char,std::char_traits<char>,std::allocator<char> >::basic_string<char,std::char_traits<char>,std::allocator<char> >
	mov	rdx, rax
	lea	rcx, QWORD PTR byteKey$[rsp]
	call	?SerializeString@NetCommon@@YA?AV?$vector@EV?$allocator@E@std@@@std@@V?$basic_string@DU?$char_traits@D@std@@V?$allocator@D@2@@3@@Z ; NetCommon::SerializeString
; File C:\Users\ethan\source\repos\DLL\DLL\Headers\aes.hpp

; 608  :         Aes(unsigned char key[key_bits]) : round_keys() {

	xor	edx, edx
	mov	r8d, 240				; 000000f0H
	lea	rcx, QWORD PTR aes$[rsp]
	call	memset

; 609  :             constexpr bool invalid_aes_key_bit_size = key_bits == 128 || key_bits == 192 || key_bits == 256;
; 610  :             static_assert( invalid_aes_key_bit_size, "The valid values are only: 128, 192 & 256" );
; 611  : 
; 612  : #ifdef HARDWARE_ACCELERATION_INTEL_AESNI
; 613  :             if constexpr ( key_bits == 128 ) {
; 614  :                 AES_128_Key_Expansion(key, round_keys);
; 615  :             }
; 616  :             else if constexpr ( key_bits == 192 ) {
; 617  :                 AES_192_Key_Expansion(key, round_keys);
; 618  :             }
; 619  :             else if constexpr ( key_bits == 256 ) {
; 620  :                 AES_256_Key_Expansion(key, round_keys);

	lea	r8, QWORD PTR aes$[rsp]
	mov	rdx, QWORD PTR byteKey$[rsp]
	call	?AES_256_Key_Expansion@?$Aes@$0BAA@@Cipher@@AEAAXPEBEPEAE@Z ; Cipher::Aes<256>::AES_256_Key_Expansion
; File C:\Users\ethan\source\repos\DLL\DLL\Headers\net_common.h

; 81   :         aes.decrypt_block(string.data());

	mov	rdx, QWORD PTR [rbx]
; File C:\Users\ethan\source\repos\DLL\DLL\Headers\aes.hpp

; 778  :             state = _mm_xor_si128(state, xmm_round_keys[Nr]);

	movdqu	xmm5, XMMWORD PTR [rdx]
	xorps	xmm5, XMMWORD PTR aes$[rsp+224]
; File C:\Users\ethan\source\repos\DLL\DLL\Headers\net_common.h

; 78   :     inline void DecryptByteString(BYTESTRING& string, std::string key) {

	lea	rax, QWORD PTR aes$[rsp+208]
	mov	ecx, 6
	npad	3
$LL15@DecryptByt:
; File C:\Users\ethan\source\repos\DLL\DLL\Headers\aes.hpp

; 782  :                 state = _mm_aesdec_si128(state, _mm_aesimc_si128(xmm_round_keys[i]));

	aesimc	xmm0, XMMWORD PTR [rax]

; 783  :                 state = _mm_aesdec_si128(state, _mm_aesimc_si128(xmm_round_keys[i - 1]));

	aesimc	xmm1, XMMWORD PTR [rax-16]

; 782  :                 state = _mm_aesdec_si128(state, _mm_aesimc_si128(xmm_round_keys[i]));

	aesdec	xmm5, xmm0

; 783  :                 state = _mm_aesdec_si128(state, _mm_aesimc_si128(xmm_round_keys[i - 1]));

	aesdec	xmm5, xmm1

; 779  : 
; 780  :             // usual rounds
; 781  :             for ( size_t i = Nr - 1; i > 1; i -= 2 ) {

	lea	rax, QWORD PTR [rax-32]
	sub	rcx, 1
	jne	SHORT $LL15@DecryptByt

; 784  :             }
; 785  : 
; 786  :             // last round
; 787  :             state = _mm_aesdec_si128(state, _mm_aesimc_si128(xmm_round_keys[1]));

	aesimc	xmm0, XMMWORD PTR aes$[rsp+16]
	aesdec	xmm5, xmm0

; 788  :             state = _mm_aesdeclast_si128(state, xmm_round_keys[0]);

	aesdeclast xmm5, XMMWORD PTR aes$[rsp]

; 789  : 
; 790  :             // store from register to array
; 791  :             _mm_storeu_si128(( __m128i* ) block, state);

	movdqu	XMMWORD PTR [rdx], xmm5
; File C:\Program Files\Microsoft Visual Studio\2022\Community\VC\Tools\MSVC\14.40.33807\include\vector

; 2048 :         if (_Myfirst) { // destroy and deallocate old array

	xor	ebx, ebx
	mov	rcx, QWORD PTR byteKey$[rsp]
	test	rcx, rcx
	je	SHORT $LN24@DecryptByt

; 2049 :             _STD _Destroy_range(_Myfirst, _Mylast, _Al);
; 2050 :             _ASAN_VECTOR_REMOVE;
; 2051 :             _Al.deallocate(_Myfirst, static_cast<size_type>(_Myend - _Myfirst));

	mov	rdx, QWORD PTR byteKey$[rsp+16]
	sub	rdx, rcx
; File C:\Program Files\Microsoft Visual Studio\2022\Community\VC\Tools\MSVC\14.40.33807\include\xmemory

; 950  :         _STD _Deallocate<_New_alignof<_Ty>>(_Ptr, sizeof(_Ty) * _Count);

	mov	rax, rcx

; 253  :         if (_Bytes >= _Big_allocation_threshold) {

	cmp	rdx, 4096				; 00001000H
	jb	SHORT $LN43@DecryptByt

; 171  :     _Bytes += _Non_user_size;

	add	rdx, 39					; 00000027H

; 172  : 
; 173  :     const uintptr_t* const _Ptr_user = static_cast<uintptr_t*>(_Ptr);
; 174  :     const uintptr_t _Ptr_container   = _Ptr_user[-1];

	mov	rcx, QWORD PTR [rcx-8]
	sub	rax, rcx

; 188  :     _STL_VERIFY(_Back_shift >= _Min_back_shift && _Back_shift <= _Non_user_size, "invalid argument");

	add	rax, -8
	cmp	rax, 31
	ja	SHORT $LN92@DecryptByt
$LN43@DecryptByt:

; 258  :         ::operator delete(_Ptr, _Bytes);

	call	??3@YAXPEAX_K@Z				; operator delete
	xorps	xmm0, xmm0
; File C:\Program Files\Microsoft Visual Studio\2022\Community\VC\Tools\MSVC\14.40.33807\include\vector

; 2053 :             _Myfirst = nullptr;

	movdqu	XMMWORD PTR byteKey$[rsp], xmm0

; 2054 :             _Mylast  = nullptr;
; 2055 :             _Myend   = nullptr;

	mov	QWORD PTR byteKey$[rsp+16], rbx
$LN24@DecryptByt:
; File C:\Program Files\Microsoft Visual Studio\2022\Community\VC\Tools\MSVC\14.40.33807\include\xstring

; 2244 :         return _Myres > _Small_string_capacity;

	mov	rdx, QWORD PTR [rdi+24]
	cmp	rdx, 15

; 4868 :         if (_My_data._Large_mode_engaged()) {

	jbe	SHORT $LN66@DecryptByt

; 2643 :         _Al.deallocate(_Old_ptr, _Capacity + 1); // +1 for null terminator

	inc	rdx
; File C:\Program Files\Microsoft Visual Studio\2022\Community\VC\Tools\MSVC\14.40.33807\include\xmemory

; 950  :         _STD _Deallocate<_New_alignof<_Ty>>(_Ptr, sizeof(_Ty) * _Count);

	mov	rcx, QWORD PTR [rdi]

; 253  :         if (_Bytes >= _Big_allocation_threshold) {

	cmp	rdx, 4096				; 00001000H
	jb	SHORT $LN80@DecryptByt

; 171  :     _Bytes += _Non_user_size;

	add	rdx, 39					; 00000027H

; 172  : 
; 173  :     const uintptr_t* const _Ptr_user = static_cast<uintptr_t*>(_Ptr);
; 174  :     const uintptr_t _Ptr_container   = _Ptr_user[-1];

	mov	r8, QWORD PTR [rcx-8]

; 175  : 
; 176  :     // If the following asserts, it likely means that we are performing
; 177  :     // an aligned delete on memory coming from an unaligned allocation.
; 178  :     _STL_ASSERT(_Ptr_user[-2] == _Big_allocation_sentinel, "invalid argument");
; 179  : 
; 180  :     // Extra paranoia on aligned allocation/deallocation; ensure _Ptr_container is
; 181  :     // in range [_Min_back_shift, _Non_user_size]
; 182  : #ifdef _DEBUG
; 183  :     constexpr uintptr_t _Min_back_shift = 2 * sizeof(void*);
; 184  : #else // ^^^ defined(_DEBUG) / !defined(_DEBUG) vvv
; 185  :     constexpr uintptr_t _Min_back_shift = sizeof(void*);
; 186  : #endif // ^^^ !defined(_DEBUG) ^^^
; 187  :     const uintptr_t _Back_shift = reinterpret_cast<uintptr_t>(_Ptr) - _Ptr_container;

	sub	rcx, r8

; 188  :     _STL_VERIFY(_Back_shift >= _Min_back_shift && _Back_shift <= _Non_user_size, "invalid argument");

	lea	rax, QWORD PTR [rcx-8]
	cmp	rax, 31
	ja	SHORT $LN77@DecryptByt

; 189  :     _Ptr = reinterpret_cast<void*>(_Ptr_container);

	mov	rcx, r8
$LN80@DecryptByt:

; 258  :         ::operator delete(_Ptr, _Bytes);

	call	??3@YAXPEAX_K@Z				; operator delete
$LN66@DecryptByt:
; File C:\Program Files\Microsoft Visual Studio\2022\Community\VC\Tools\MSVC\14.40.33807\include\xstring

; 4875 :         _My_data._Mysize = 0;

	mov	QWORD PTR [rdi+16], rbx

; 4876 :         _My_data._Myres  = _Small_string_capacity;

	mov	QWORD PTR [rdi+24], 15

; 4877 :         // the _Traits::assign is last so the codegen doesn't think the char write can alias this
; 4878 :         _Traits::assign(_My_data._Bx._Buf[0], _Elem());

	mov	BYTE PTR [rdi], 0
; File C:\Users\ethan\source\repos\DLL\DLL\Headers\net_common.h

; 82   :     }

	mov	rcx, QWORD PTR __$ArrayPad$[rsp]
	xor	rcx, rsp
	call	__security_check_cookie
	mov	rbx, QWORD PTR [rsp+400]
	add	rsp, 368				; 00000170H
	pop	rdi
	ret	0
$LN92@DecryptByt:
; File C:\Program Files\Microsoft Visual Studio\2022\Community\VC\Tools\MSVC\14.40.33807\include\xmemory

; 188  :     _STL_VERIFY(_Back_shift >= _Min_back_shift && _Back_shift <= _Non_user_size, "invalid argument");

	call	_invalid_parameter_noinfo_noreturn
	npad	1
$LN77@DecryptByt:
	call	_invalid_parameter_noinfo_noreturn
	int	3
$LN90@DecryptByt:
?DecryptByteString@NetCommon@@YAXAEAV?$vector@EV?$allocator@E@std@@@std@@V?$basic_string@DU?$char_traits@D@std@@V?$allocator@D@2@@3@@Z ENDP ; NetCommon::DecryptByteString
_TEXT	ENDS
; Function compile flags: /Ogtpy
;	COMDAT text$x
text$x	SEGMENT
$T1 = 40
key$GSCopy$ = 72
byteKey$ = 80
aes$ = 112
__$ArrayPad$ = 352
string$ = 384
key$ = 392
?dtor$0@?0??DecryptByteString@NetCommon@@YAXAEAV?$vector@EV?$allocator@E@std@@@std@@V?$basic_string@DU?$char_traits@D@std@@V?$allocator@D@2@@3@@Z@4HA PROC ; `NetCommon::DecryptByteString'::`1'::dtor$0
	mov	rcx, QWORD PTR key$GSCopy$[rdx]
	jmp	??1?$basic_string@DU?$char_traits@D@std@@V?$allocator@D@2@@std@@QEAA@XZ ; std::basic_string<char,std::char_traits<char>,std::allocator<char> >::~basic_string<char,std::char_traits<char>,std::allocator<char> >
?dtor$0@?0??DecryptByteString@NetCommon@@YAXAEAV?$vector@EV?$allocator@E@std@@@std@@V?$basic_string@DU?$char_traits@D@std@@V?$allocator@D@2@@3@@Z@4HA ENDP ; `NetCommon::DecryptByteString'::`1'::dtor$0
text$x	ENDS
; Function compile flags: /Ogtpy
; File C:\Program Files\Microsoft Visual Studio\2022\Community\VC\Tools\MSVC\14.40.33807\include\xstring
; File C:\Program Files\Microsoft Visual Studio\2022\Community\VC\Tools\MSVC\14.40.33807\include\xmemory
; File C:\Program Files\Microsoft Visual Studio\2022\Community\VC\Tools\MSVC\14.40.33807\include\xstring
; File C:\Program Files\Microsoft Visual Studio\2022\Community\VC\Tools\MSVC\14.40.33807\include\xmemory
; File C:\Program Files\Microsoft Visual Studio\2022\Community\VC\Tools\MSVC\14.40.33807\include\xstring
; File C:\Program Files\Microsoft Visual Studio\2022\Community\VC\Tools\MSVC\14.40.33807\include\xmemory
; File C:\Program Files\Microsoft Visual Studio\2022\Community\VC\Tools\MSVC\14.40.33807\include\xstring
; File C:\Program Files\Microsoft Visual Studio\2022\Community\VC\Tools\MSVC\14.40.33807\include\xmemory
; File C:\Program Files\Microsoft Visual Studio\2022\Community\VC\Tools\MSVC\14.40.33807\include\xstring
; File C:\Program Files\Microsoft Visual Studio\2022\Community\VC\Tools\MSVC\14.40.33807\include\xmemory
;	COMDAT ??1NET_BLOB@@QEAA@XZ
_TEXT	SEGMENT
this$ = 48
??1NET_BLOB@@QEAA@XZ PROC				; NET_BLOB::~NET_BLOB, COMDAT
$LN94:
	push	rbx
	sub	rsp, 32					; 00000020H
; File C:\Program Files\Microsoft Visual Studio\2022\Community\VC\Tools\MSVC\14.40.33807\include\xstring

; 2244 :         return _Myres > _Small_string_capacity;

	mov	rdx, QWORD PTR [rcx+240]
	mov	rbx, rcx
	cmp	rdx, 15

; 4868 :         if (_My_data._Large_mode_engaged()) {

	jbe	SHORT $LN21@NET_BLOB
; File C:\Program Files\Microsoft Visual Studio\2022\Community\VC\Tools\MSVC\14.40.33807\include\xmemory

; 950  :         _STD _Deallocate<_New_alignof<_Ty>>(_Ptr, sizeof(_Ty) * _Count);

	mov	rcx, QWORD PTR [rcx+216]
; File C:\Program Files\Microsoft Visual Studio\2022\Community\VC\Tools\MSVC\14.40.33807\include\xstring

; 2643 :         _Al.deallocate(_Old_ptr, _Capacity + 1); // +1 for null terminator

	inc	rdx
; File C:\Program Files\Microsoft Visual Studio\2022\Community\VC\Tools\MSVC\14.40.33807\include\xmemory

; 253  :         if (_Bytes >= _Big_allocation_threshold) {

	cmp	rdx, 4096				; 00001000H
	jb	SHORT $LN35@NET_BLOB

; 174  :     const uintptr_t _Ptr_container   = _Ptr_user[-1];

	mov	r8, QWORD PTR [rcx-8]
	add	rdx, 39					; 00000027H

; 175  : 
; 176  :     // If the following asserts, it likely means that we are performing
; 177  :     // an aligned delete on memory coming from an unaligned allocation.
; 178  :     _STL_ASSERT(_Ptr_user[-2] == _Big_allocation_sentinel, "invalid argument");
; 179  : 
; 180  :     // Extra paranoia on aligned allocation/deallocation; ensure _Ptr_container is
; 181  :     // in range [_Min_back_shift, _Non_user_size]
; 182  : #ifdef _DEBUG
; 183  :     constexpr uintptr_t _Min_back_shift = 2 * sizeof(void*);
; 184  : #else // ^^^ defined(_DEBUG) / !defined(_DEBUG) vvv
; 185  :     constexpr uintptr_t _Min_back_shift = sizeof(void*);
; 186  : #endif // ^^^ !defined(_DEBUG) ^^^
; 187  :     const uintptr_t _Back_shift = reinterpret_cast<uintptr_t>(_Ptr) - _Ptr_container;

	sub	rcx, r8

; 188  :     _STL_VERIFY(_Back_shift >= _Min_back_shift && _Back_shift <= _Non_user_size, "invalid argument");

	lea	rax, QWORD PTR [rcx-8]
	cmp	rax, 31
	ja	SHORT $LN75@NET_BLOB

; 189  :     _Ptr = reinterpret_cast<void*>(_Ptr_container);

	mov	rcx, r8
$LN35@NET_BLOB:

; 258  :         ::operator delete(_Ptr, _Bytes);

	call	??3@YAXPEAX_K@Z				; operator delete
$LN21@NET_BLOB:
	lea	rcx, QWORD PTR [rbx+48]
; File C:\Program Files\Microsoft Visual Studio\2022\Community\VC\Tools\MSVC\14.40.33807\include\xstring

; 4875 :         _My_data._Mysize = 0;

	mov	QWORD PTR [rbx+232], 0

; 4876 :         _My_data._Myres  = _Small_string_capacity;

	mov	QWORD PTR [rbx+240], 15

; 4877 :         // the _Traits::assign is last so the codegen doesn't think the char write can alias this
; 4878 :         _Traits::assign(_My_data._Bx._Buf[0], _Elem());

	mov	BYTE PTR [rbx+216], 0
	call	??1ServerCommand@@QEAA@XZ

; 2244 :         return _Myres > _Small_string_capacity;

	mov	rdx, QWORD PTR [rbx+40]
	cmp	rdx, 15

; 4868 :         if (_My_data._Large_mode_engaged()) {

	jbe	SHORT $LN64@NET_BLOB
; File C:\Program Files\Microsoft Visual Studio\2022\Community\VC\Tools\MSVC\14.40.33807\include\xmemory

; 950  :         _STD _Deallocate<_New_alignof<_Ty>>(_Ptr, sizeof(_Ty) * _Count);

	mov	rcx, QWORD PTR [rbx+16]
; File C:\Program Files\Microsoft Visual Studio\2022\Community\VC\Tools\MSVC\14.40.33807\include\xstring

; 2643 :         _Al.deallocate(_Old_ptr, _Capacity + 1); // +1 for null terminator

	inc	rdx
; File C:\Program Files\Microsoft Visual Studio\2022\Community\VC\Tools\MSVC\14.40.33807\include\xmemory

; 253  :         if (_Bytes >= _Big_allocation_threshold) {

	cmp	rdx, 4096				; 00001000H
	jb	SHORT $LN78@NET_BLOB

; 174  :     const uintptr_t _Ptr_container   = _Ptr_user[-1];

	mov	r8, QWORD PTR [rcx-8]
	add	rdx, 39					; 00000027H

; 175  : 
; 176  :     // If the following asserts, it likely means that we are performing
; 177  :     // an aligned delete on memory coming from an unaligned allocation.
; 178  :     _STL_ASSERT(_Ptr_user[-2] == _Big_allocation_sentinel, "invalid argument");
; 179  : 
; 180  :     // Extra paranoia on aligned allocation/deallocation; ensure _Ptr_container is
; 181  :     // in range [_Min_back_shift, _Non_user_size]
; 182  : #ifdef _DEBUG
; 183  :     constexpr uintptr_t _Min_back_shift = 2 * sizeof(void*);
; 184  : #else // ^^^ defined(_DEBUG) / !defined(_DEBUG) vvv
; 185  :     constexpr uintptr_t _Min_back_shift = sizeof(void*);
; 186  : #endif // ^^^ !defined(_DEBUG) ^^^
; 187  :     const uintptr_t _Back_shift = reinterpret_cast<uintptr_t>(_Ptr) - _Ptr_container;

	sub	rcx, r8

; 188  :     _STL_VERIFY(_Back_shift >= _Min_back_shift && _Back_shift <= _Non_user_size, "invalid argument");

	lea	rax, QWORD PTR [rcx-8]
	cmp	rax, 31
	ja	SHORT $LN75@NET_BLOB

; 189  :     _Ptr = reinterpret_cast<void*>(_Ptr_container);

	mov	rcx, r8
$LN78@NET_BLOB:

; 258  :         ::operator delete(_Ptr, _Bytes);

	call	??3@YAXPEAX_K@Z				; operator delete
$LN64@NET_BLOB:
; File C:\Program Files\Microsoft Visual Studio\2022\Community\VC\Tools\MSVC\14.40.33807\include\xstring

; 4875 :         _My_data._Mysize = 0;

	mov	QWORD PTR [rbx+32], 0

; 4876 :         _My_data._Myres  = _Small_string_capacity;

	mov	QWORD PTR [rbx+40], 15

; 4877 :         // the _Traits::assign is last so the codegen doesn't think the char write can alias this
; 4878 :         _Traits::assign(_My_data._Bx._Buf[0], _Elem());

	mov	BYTE PTR [rbx+16], 0
	add	rsp, 32					; 00000020H
	pop	rbx
	ret	0
$LN75@NET_BLOB:
; File C:\Program Files\Microsoft Visual Studio\2022\Community\VC\Tools\MSVC\14.40.33807\include\xmemory

; 188  :     _STL_VERIFY(_Back_shift >= _Min_back_shift && _Back_shift <= _Non_user_size, "invalid argument");

	call	_invalid_parameter_noinfo_noreturn
	int	3
$LN91@NET_BLOB:
??1NET_BLOB@@QEAA@XZ ENDP				; NET_BLOB::~NET_BLOB
_TEXT	ENDS
; Function compile flags: /Ogtpy
; File C:\Program Files\Microsoft Visual Studio\2022\Community\VC\Tools\MSVC\14.40.33807\include\xstring
; File C:\Program Files\Microsoft Visual Studio\2022\Community\VC\Tools\MSVC\14.40.33807\include\xmemory
; File C:\Program Files\Microsoft Visual Studio\2022\Community\VC\Tools\MSVC\14.40.33807\include\xstring
; File C:\Program Files\Microsoft Visual Studio\2022\Community\VC\Tools\MSVC\14.40.33807\include\xmemory
; File C:\Program Files\Microsoft Visual Studio\2022\Community\VC\Tools\MSVC\14.40.33807\include\xstring
; File C:\Program Files\Microsoft Visual Studio\2022\Community\VC\Tools\MSVC\14.40.33807\include\xmemory
;	COMDAT ??1ClientRequest@@QEAA@XZ
_TEXT	SEGMENT
this$ = 48
??1ClientRequest@@QEAA@XZ PROC				; ClientRequest::~ClientRequest, COMDAT
$LN48:
	push	rbx
	sub	rsp, 32					; 00000020H
; File C:\Program Files\Microsoft Visual Studio\2022\Community\VC\Tools\MSVC\14.40.33807\include\xstring

; 2244 :         return _Myres > _Small_string_capacity;

	mov	rdx, QWORD PTR [rcx+40]
	mov	rbx, rcx
	cmp	rdx, 15

; 4868 :         if (_My_data._Large_mode_engaged()) {

	jbe	SHORT $LN21@ClientRequ
; File C:\Program Files\Microsoft Visual Studio\2022\Community\VC\Tools\MSVC\14.40.33807\include\xmemory

; 950  :         _STD _Deallocate<_New_alignof<_Ty>>(_Ptr, sizeof(_Ty) * _Count);

	mov	rcx, QWORD PTR [rcx+16]
; File C:\Program Files\Microsoft Visual Studio\2022\Community\VC\Tools\MSVC\14.40.33807\include\xstring

; 2643 :         _Al.deallocate(_Old_ptr, _Capacity + 1); // +1 for null terminator

	inc	rdx
; File C:\Program Files\Microsoft Visual Studio\2022\Community\VC\Tools\MSVC\14.40.33807\include\xmemory

; 253  :         if (_Bytes >= _Big_allocation_threshold) {

	cmp	rdx, 4096				; 00001000H
	jb	SHORT $LN35@ClientRequ

; 174  :     const uintptr_t _Ptr_container   = _Ptr_user[-1];

	mov	r8, QWORD PTR [rcx-8]
	add	rdx, 39					; 00000027H

; 175  : 
; 176  :     // If the following asserts, it likely means that we are performing
; 177  :     // an aligned delete on memory coming from an unaligned allocation.
; 178  :     _STL_ASSERT(_Ptr_user[-2] == _Big_allocation_sentinel, "invalid argument");
; 179  : 
; 180  :     // Extra paranoia on aligned allocation/deallocation; ensure _Ptr_container is
; 181  :     // in range [_Min_back_shift, _Non_user_size]
; 182  : #ifdef _DEBUG
; 183  :     constexpr uintptr_t _Min_back_shift = 2 * sizeof(void*);
; 184  : #else // ^^^ defined(_DEBUG) / !defined(_DEBUG) vvv
; 185  :     constexpr uintptr_t _Min_back_shift = sizeof(void*);
; 186  : #endif // ^^^ !defined(_DEBUG) ^^^
; 187  :     const uintptr_t _Back_shift = reinterpret_cast<uintptr_t>(_Ptr) - _Ptr_container;

	sub	rcx, r8

; 188  :     _STL_VERIFY(_Back_shift >= _Min_back_shift && _Back_shift <= _Non_user_size, "invalid argument");

	lea	rax, QWORD PTR [rcx-8]
	cmp	rax, 31
	ja	SHORT $LN32@ClientRequ

; 189  :     _Ptr = reinterpret_cast<void*>(_Ptr_container);

	mov	rcx, r8
$LN35@ClientRequ:

; 258  :         ::operator delete(_Ptr, _Bytes);

	call	??3@YAXPEAX_K@Z				; operator delete
$LN21@ClientRequ:
; File C:\Program Files\Microsoft Visual Studio\2022\Community\VC\Tools\MSVC\14.40.33807\include\xstring

; 4875 :         _My_data._Mysize = 0;

	mov	QWORD PTR [rbx+32], 0

; 4876 :         _My_data._Myres  = _Small_string_capacity;

	mov	QWORD PTR [rbx+40], 15

; 4877 :         // the _Traits::assign is last so the codegen doesn't think the char write can alias this
; 4878 :         _Traits::assign(_My_data._Bx._Buf[0], _Elem());

	mov	BYTE PTR [rbx+16], 0
	add	rsp, 32					; 00000020H
	pop	rbx
	ret	0
$LN32@ClientRequ:
; File C:\Program Files\Microsoft Visual Studio\2022\Community\VC\Tools\MSVC\14.40.33807\include\xmemory

; 188  :     _STL_VERIFY(_Back_shift >= _Min_back_shift && _Back_shift <= _Non_user_size, "invalid argument");

	call	_invalid_parameter_noinfo_noreturn
	int	3
$LN45@ClientRequ:
??1ClientRequest@@QEAA@XZ ENDP				; ClientRequest::~ClientRequest
_TEXT	ENDS
; Function compile flags: /Ogtpy
; File C:\Program Files\Microsoft Visual Studio\2022\Community\VC\Tools\MSVC\14.40.33807\include\xstring
; File C:\Program Files\Microsoft Visual Studio\2022\Community\VC\Tools\MSVC\14.40.33807\include\xmemory
; File C:\Program Files\Microsoft Visual Studio\2022\Community\VC\Tools\MSVC\14.40.33807\include\xstring
; File C:\Program Files\Microsoft Visual Studio\2022\Community\VC\Tools\MSVC\14.40.33807\include\xmemory
; File C:\Program Files\Microsoft Visual Studio\2022\Community\VC\Tools\MSVC\14.40.33807\include\xstring
; File C:\Program Files\Microsoft Visual Studio\2022\Community\VC\Tools\MSVC\14.40.33807\include\xmemory
; File C:\Program Files\Microsoft Visual Studio\2022\Community\VC\Tools\MSVC\14.40.33807\include\xstring
; File C:\Program Files\Microsoft Visual Studio\2022\Community\VC\Tools\MSVC\14.40.33807\include\xmemory
; File C:\Program Files\Microsoft Visual Studio\2022\Community\VC\Tools\MSVC\14.40.33807\include\xstring
; File C:\Program Files\Microsoft Visual Studio\2022\Community\VC\Tools\MSVC\14.40.33807\include\xmemory
; File C:\Program Files\Microsoft Visual Studio\2022\Community\VC\Tools\MSVC\14.40.33807\include\xstring
; File C:\Program Files\Microsoft Visual Studio\2022\Community\VC\Tools\MSVC\14.40.33807\include\xmemory
; File C:\Program Files\Microsoft Visual Studio\2022\Community\VC\Tools\MSVC\14.40.33807\include\xstring
; File C:\Program Files\Microsoft Visual Studio\2022\Community\VC\Tools\MSVC\14.40.33807\include\xmemory
;	COMDAT ??1ServerCommand@@QEAA@XZ
_TEXT	SEGMENT
this$ = 48
??1ServerCommand@@QEAA@XZ PROC				; ServerCommand::~ServerCommand, COMDAT
$LN134:
	push	rbx
	sub	rsp, 32					; 00000020H
; File C:\Program Files\Microsoft Visual Studio\2022\Community\VC\Tools\MSVC\14.40.33807\include\xstring

; 2244 :         return _Myres > _Small_string_capacity;

	mov	rdx, QWORD PTR [rcx+112]
	mov	rbx, rcx
	cmp	rdx, 15

; 4868 :         if (_My_data._Large_mode_engaged()) {

	jbe	SHORT $LN21@ServerComm
; File C:\Program Files\Microsoft Visual Studio\2022\Community\VC\Tools\MSVC\14.40.33807\include\xmemory

; 950  :         _STD _Deallocate<_New_alignof<_Ty>>(_Ptr, sizeof(_Ty) * _Count);

	mov	rcx, QWORD PTR [rcx+88]
; File C:\Program Files\Microsoft Visual Studio\2022\Community\VC\Tools\MSVC\14.40.33807\include\xstring

; 2643 :         _Al.deallocate(_Old_ptr, _Capacity + 1); // +1 for null terminator

	inc	rdx
; File C:\Program Files\Microsoft Visual Studio\2022\Community\VC\Tools\MSVC\14.40.33807\include\xmemory

; 253  :         if (_Bytes >= _Big_allocation_threshold) {

	cmp	rdx, 4096				; 00001000H
	jb	SHORT $LN35@ServerComm

; 174  :     const uintptr_t _Ptr_container   = _Ptr_user[-1];

	mov	r8, QWORD PTR [rcx-8]
	add	rdx, 39					; 00000027H

; 175  : 
; 176  :     // If the following asserts, it likely means that we are performing
; 177  :     // an aligned delete on memory coming from an unaligned allocation.
; 178  :     _STL_ASSERT(_Ptr_user[-2] == _Big_allocation_sentinel, "invalid argument");
; 179  : 
; 180  :     // Extra paranoia on aligned allocation/deallocation; ensure _Ptr_container is
; 181  :     // in range [_Min_back_shift, _Non_user_size]
; 182  : #ifdef _DEBUG
; 183  :     constexpr uintptr_t _Min_back_shift = 2 * sizeof(void*);
; 184  : #else // ^^^ defined(_DEBUG) / !defined(_DEBUG) vvv
; 185  :     constexpr uintptr_t _Min_back_shift = sizeof(void*);
; 186  : #endif // ^^^ !defined(_DEBUG) ^^^
; 187  :     const uintptr_t _Back_shift = reinterpret_cast<uintptr_t>(_Ptr) - _Ptr_container;

	sub	rcx, r8

; 188  :     _STL_VERIFY(_Back_shift >= _Min_back_shift && _Back_shift <= _Non_user_size, "invalid argument");

	lea	rax, QWORD PTR [rcx-8]
	cmp	rax, 31
	ja	$LN112@ServerComm

; 189  :     _Ptr = reinterpret_cast<void*>(_Ptr_container);

	mov	rcx, r8
$LN35@ServerComm:

; 258  :         ::operator delete(_Ptr, _Bytes);

	call	??3@YAXPEAX_K@Z				; operator delete
$LN21@ServerComm:
; File C:\Program Files\Microsoft Visual Studio\2022\Community\VC\Tools\MSVC\14.40.33807\include\xstring

; 4875 :         _My_data._Mysize = 0;

	mov	QWORD PTR [rbx+104], 0

; 4876 :         _My_data._Myres  = _Small_string_capacity;

	mov	QWORD PTR [rbx+112], 15

; 4877 :         // the _Traits::assign is last so the codegen doesn't think the char write can alias this
; 4878 :         _Traits::assign(_My_data._Bx._Buf[0], _Elem());

	mov	BYTE PTR [rbx+88], 0

; 2244 :         return _Myres > _Small_string_capacity;

	mov	rdx, QWORD PTR [rbx+80]
	cmp	rdx, 15

; 4868 :         if (_My_data._Large_mode_engaged()) {

	jbe	SHORT $LN59@ServerComm
; File C:\Program Files\Microsoft Visual Studio\2022\Community\VC\Tools\MSVC\14.40.33807\include\xmemory

; 950  :         _STD _Deallocate<_New_alignof<_Ty>>(_Ptr, sizeof(_Ty) * _Count);

	mov	rcx, QWORD PTR [rbx+56]
; File C:\Program Files\Microsoft Visual Studio\2022\Community\VC\Tools\MSVC\14.40.33807\include\xstring

; 2643 :         _Al.deallocate(_Old_ptr, _Capacity + 1); // +1 for null terminator

	inc	rdx
; File C:\Program Files\Microsoft Visual Studio\2022\Community\VC\Tools\MSVC\14.40.33807\include\xmemory

; 253  :         if (_Bytes >= _Big_allocation_threshold) {

	cmp	rdx, 4096				; 00001000H
	jb	SHORT $LN73@ServerComm

; 174  :     const uintptr_t _Ptr_container   = _Ptr_user[-1];

	mov	r8, QWORD PTR [rcx-8]
	add	rdx, 39					; 00000027H

; 175  : 
; 176  :     // If the following asserts, it likely means that we are performing
; 177  :     // an aligned delete on memory coming from an unaligned allocation.
; 178  :     _STL_ASSERT(_Ptr_user[-2] == _Big_allocation_sentinel, "invalid argument");
; 179  : 
; 180  :     // Extra paranoia on aligned allocation/deallocation; ensure _Ptr_container is
; 181  :     // in range [_Min_back_shift, _Non_user_size]
; 182  : #ifdef _DEBUG
; 183  :     constexpr uintptr_t _Min_back_shift = 2 * sizeof(void*);
; 184  : #else // ^^^ defined(_DEBUG) / !defined(_DEBUG) vvv
; 185  :     constexpr uintptr_t _Min_back_shift = sizeof(void*);
; 186  : #endif // ^^^ !defined(_DEBUG) ^^^
; 187  :     const uintptr_t _Back_shift = reinterpret_cast<uintptr_t>(_Ptr) - _Ptr_container;

	sub	rcx, r8

; 188  :     _STL_VERIFY(_Back_shift >= _Min_back_shift && _Back_shift <= _Non_user_size, "invalid argument");

	lea	rax, QWORD PTR [rcx-8]
	cmp	rax, 31
	ja	SHORT $LN112@ServerComm

; 189  :     _Ptr = reinterpret_cast<void*>(_Ptr_container);

	mov	rcx, r8
$LN73@ServerComm:

; 258  :         ::operator delete(_Ptr, _Bytes);

	call	??3@YAXPEAX_K@Z				; operator delete
$LN59@ServerComm:
; File C:\Program Files\Microsoft Visual Studio\2022\Community\VC\Tools\MSVC\14.40.33807\include\xstring

; 4875 :         _My_data._Mysize = 0;

	mov	QWORD PTR [rbx+72], 0

; 4876 :         _My_data._Myres  = _Small_string_capacity;

	mov	QWORD PTR [rbx+80], 15

; 4877 :         // the _Traits::assign is last so the codegen doesn't think the char write can alias this
; 4878 :         _Traits::assign(_My_data._Bx._Buf[0], _Elem());

	mov	BYTE PTR [rbx+56], 0

; 2244 :         return _Myres > _Small_string_capacity;

	mov	rdx, QWORD PTR [rbx+48]
	cmp	rdx, 15

; 4868 :         if (_My_data._Large_mode_engaged()) {

	jbe	SHORT $LN101@ServerComm
; File C:\Program Files\Microsoft Visual Studio\2022\Community\VC\Tools\MSVC\14.40.33807\include\xmemory

; 950  :         _STD _Deallocate<_New_alignof<_Ty>>(_Ptr, sizeof(_Ty) * _Count);

	mov	rcx, QWORD PTR [rbx+24]
; File C:\Program Files\Microsoft Visual Studio\2022\Community\VC\Tools\MSVC\14.40.33807\include\xstring

; 2643 :         _Al.deallocate(_Old_ptr, _Capacity + 1); // +1 for null terminator

	inc	rdx
; File C:\Program Files\Microsoft Visual Studio\2022\Community\VC\Tools\MSVC\14.40.33807\include\xmemory

; 253  :         if (_Bytes >= _Big_allocation_threshold) {

	cmp	rdx, 4096				; 00001000H
	jb	SHORT $LN115@ServerComm

; 174  :     const uintptr_t _Ptr_container   = _Ptr_user[-1];

	mov	r8, QWORD PTR [rcx-8]
	add	rdx, 39					; 00000027H

; 175  : 
; 176  :     // If the following asserts, it likely means that we are performing
; 177  :     // an aligned delete on memory coming from an unaligned allocation.
; 178  :     _STL_ASSERT(_Ptr_user[-2] == _Big_allocation_sentinel, "invalid argument");
; 179  : 
; 180  :     // Extra paranoia on aligned allocation/deallocation; ensure _Ptr_container is
; 181  :     // in range [_Min_back_shift, _Non_user_size]
; 182  : #ifdef _DEBUG
; 183  :     constexpr uintptr_t _Min_back_shift = 2 * sizeof(void*);
; 184  : #else // ^^^ defined(_DEBUG) / !defined(_DEBUG) vvv
; 185  :     constexpr uintptr_t _Min_back_shift = sizeof(void*);
; 186  : #endif // ^^^ !defined(_DEBUG) ^^^
; 187  :     const uintptr_t _Back_shift = reinterpret_cast<uintptr_t>(_Ptr) - _Ptr_container;

	sub	rcx, r8

; 188  :     _STL_VERIFY(_Back_shift >= _Min_back_shift && _Back_shift <= _Non_user_size, "invalid argument");

	lea	rax, QWORD PTR [rcx-8]
	cmp	rax, 31
	ja	SHORT $LN112@ServerComm

; 189  :     _Ptr = reinterpret_cast<void*>(_Ptr_container);

	mov	rcx, r8
$LN115@ServerComm:

; 258  :         ::operator delete(_Ptr, _Bytes);

	call	??3@YAXPEAX_K@Z				; operator delete
$LN101@ServerComm:
; File C:\Program Files\Microsoft Visual Studio\2022\Community\VC\Tools\MSVC\14.40.33807\include\xstring

; 4875 :         _My_data._Mysize = 0;

	mov	QWORD PTR [rbx+40], 0

; 4876 :         _My_data._Myres  = _Small_string_capacity;

	mov	QWORD PTR [rbx+48], 15

; 4877 :         // the _Traits::assign is last so the codegen doesn't think the char write can alias this
; 4878 :         _Traits::assign(_My_data._Bx._Buf[0], _Elem());

	mov	BYTE PTR [rbx+24], 0
	add	rsp, 32					; 00000020H
	pop	rbx
	ret	0
$LN112@ServerComm:
; File C:\Program Files\Microsoft Visual Studio\2022\Community\VC\Tools\MSVC\14.40.33807\include\xmemory

; 188  :     _STL_VERIFY(_Back_shift >= _Min_back_shift && _Back_shift <= _Non_user_size, "invalid argument");

	call	_invalid_parameter_noinfo_noreturn
	int	3
$LN131@ServerComm:
??1ServerCommand@@QEAA@XZ ENDP				; ServerCommand::~ServerCommand
_TEXT	ENDS
; Function compile flags: /Ogtpy
; File C:\Program Files\Microsoft Visual Studio\2022\Community\VC\Tools\MSVC\14.40.33807\include\xstring
; File C:\Program Files\Microsoft Visual Studio\2022\Community\VC\Tools\MSVC\14.40.33807\include\xmemory
; File C:\Program Files\Microsoft Visual Studio\2022\Community\VC\Tools\MSVC\14.40.33807\include\xstring
; File C:\Program Files\Microsoft Visual Studio\2022\Community\VC\Tools\MSVC\14.40.33807\include\xmemory
; File C:\Program Files\Microsoft Visual Studio\2022\Community\VC\Tools\MSVC\14.40.33807\include\xstring
; File C:\Program Files\Microsoft Visual Studio\2022\Community\VC\Tools\MSVC\14.40.33807\include\xmemory
;	COMDAT ??1ProcessInformation@@QEAA@XZ
_TEXT	SEGMENT
this$ = 48
??1ProcessInformation@@QEAA@XZ PROC			; ProcessInformation::~ProcessInformation, COMDAT
$LN48:
	push	rbx
	sub	rsp, 32					; 00000020H
; File C:\Program Files\Microsoft Visual Studio\2022\Community\VC\Tools\MSVC\14.40.33807\include\xstring

; 2244 :         return _Myres > _Small_string_capacity;

	mov	rdx, QWORD PTR [rcx+40]
	mov	rbx, rcx
	cmp	rdx, 15

; 4868 :         if (_My_data._Large_mode_engaged()) {

	jbe	SHORT $LN21@ProcessInf
; File C:\Program Files\Microsoft Visual Studio\2022\Community\VC\Tools\MSVC\14.40.33807\include\xmemory

; 950  :         _STD _Deallocate<_New_alignof<_Ty>>(_Ptr, sizeof(_Ty) * _Count);

	mov	rcx, QWORD PTR [rcx+16]
; File C:\Program Files\Microsoft Visual Studio\2022\Community\VC\Tools\MSVC\14.40.33807\include\xstring

; 2643 :         _Al.deallocate(_Old_ptr, _Capacity + 1); // +1 for null terminator

	inc	rdx
; File C:\Program Files\Microsoft Visual Studio\2022\Community\VC\Tools\MSVC\14.40.33807\include\xmemory

; 253  :         if (_Bytes >= _Big_allocation_threshold) {

	cmp	rdx, 4096				; 00001000H
	jb	SHORT $LN35@ProcessInf

; 174  :     const uintptr_t _Ptr_container   = _Ptr_user[-1];

	mov	r8, QWORD PTR [rcx-8]
	add	rdx, 39					; 00000027H

; 175  : 
; 176  :     // If the following asserts, it likely means that we are performing
; 177  :     // an aligned delete on memory coming from an unaligned allocation.
; 178  :     _STL_ASSERT(_Ptr_user[-2] == _Big_allocation_sentinel, "invalid argument");
; 179  : 
; 180  :     // Extra paranoia on aligned allocation/deallocation; ensure _Ptr_container is
; 181  :     // in range [_Min_back_shift, _Non_user_size]
; 182  : #ifdef _DEBUG
; 183  :     constexpr uintptr_t _Min_back_shift = 2 * sizeof(void*);
; 184  : #else // ^^^ defined(_DEBUG) / !defined(_DEBUG) vvv
; 185  :     constexpr uintptr_t _Min_back_shift = sizeof(void*);
; 186  : #endif // ^^^ !defined(_DEBUG) ^^^
; 187  :     const uintptr_t _Back_shift = reinterpret_cast<uintptr_t>(_Ptr) - _Ptr_container;

	sub	rcx, r8

; 188  :     _STL_VERIFY(_Back_shift >= _Min_back_shift && _Back_shift <= _Non_user_size, "invalid argument");

	lea	rax, QWORD PTR [rcx-8]
	cmp	rax, 31
	ja	SHORT $LN32@ProcessInf

; 189  :     _Ptr = reinterpret_cast<void*>(_Ptr_container);

	mov	rcx, r8
$LN35@ProcessInf:

; 258  :         ::operator delete(_Ptr, _Bytes);

	call	??3@YAXPEAX_K@Z				; operator delete
$LN21@ProcessInf:
; File C:\Program Files\Microsoft Visual Studio\2022\Community\VC\Tools\MSVC\14.40.33807\include\xstring

; 4875 :         _My_data._Mysize = 0;

	mov	QWORD PTR [rbx+32], 0

; 4876 :         _My_data._Myres  = _Small_string_capacity;

	mov	QWORD PTR [rbx+40], 15

; 4877 :         // the _Traits::assign is last so the codegen doesn't think the char write can alias this
; 4878 :         _Traits::assign(_My_data._Bx._Buf[0], _Elem());

	mov	BYTE PTR [rbx+16], 0
	add	rsp, 32					; 00000020H
	pop	rbx
	ret	0
$LN32@ProcessInf:
; File C:\Program Files\Microsoft Visual Studio\2022\Community\VC\Tools\MSVC\14.40.33807\include\xmemory

; 188  :     _STL_VERIFY(_Back_shift >= _Min_back_shift && _Back_shift <= _Non_user_size, "invalid argument");

	call	_invalid_parameter_noinfo_noreturn
	int	3
$LN45@ProcessInf:
??1ProcessInformation@@QEAA@XZ ENDP			; ProcessInformation::~ProcessInformation
_TEXT	ENDS
; Function compile flags: /Ogtpy
;	COMDAT ??0ServerCommand@@QEAA@AEBU0@@Z
_TEXT	SEGMENT
this$ = 48
__that$ = 56
??0ServerCommand@@QEAA@AEBU0@@Z PROC			; ServerCommand::ServerCommand, COMDAT
$LN11:
	mov	QWORD PTR [rsp+16], rbx
	mov	QWORD PTR [rsp+8], rcx
	push	rdi
	sub	rsp, 32					; 00000020H
	mov	rbx, rdx
	mov	rdi, rcx
	movzx	eax, BYTE PTR [rdx]
	mov	BYTE PTR [rcx], al
	mov	eax, DWORD PTR [rdx+8]
	mov	DWORD PTR [rcx+8], eax
	mov	eax, DWORD PTR [rdx+12]
	mov	DWORD PTR [rcx+12], eax
	mov	eax, DWORD PTR [rdx+16]
	mov	DWORD PTR [rcx+16], eax
	add	rcx, 24
	add	rdx, 24
	call	??0?$basic_string@DU?$char_traits@D@std@@V?$allocator@D@2@@std@@QEAA@AEBV01@@Z ; std::basic_string<char,std::char_traits<char>,std::allocator<char> >::basic_string<char,std::char_traits<char>,std::allocator<char> >
	npad	1
	lea	rcx, QWORD PTR [rdi+56]
	lea	rdx, QWORD PTR [rbx+56]
	call	??0?$basic_string@DU?$char_traits@D@std@@V?$allocator@D@2@@std@@QEAA@AEBV01@@Z ; std::basic_string<char,std::char_traits<char>,std::allocator<char> >::basic_string<char,std::char_traits<char>,std::allocator<char> >
	npad	1
	lea	rcx, QWORD PTR [rdi+88]
	lea	rdx, QWORD PTR [rbx+88]
	call	??0?$basic_string@DU?$char_traits@D@std@@V?$allocator@D@2@@std@@QEAA@AEBV01@@Z ; std::basic_string<char,std::char_traits<char>,std::allocator<char> >::basic_string<char,std::char_traits<char>,std::allocator<char> >
	mov	eax, DWORD PTR [rbx+120]
	mov	DWORD PTR [rdi+120], eax
	mov	rax, rdi
	mov	rbx, QWORD PTR [rsp+56]
	add	rsp, 32					; 00000020H
	pop	rdi
	ret	0
??0ServerCommand@@QEAA@AEBU0@@Z ENDP			; ServerCommand::ServerCommand
_TEXT	ENDS
; Function compile flags: /Ogtpy
;	COMDAT text$x
text$x	SEGMENT
this$ = 48
__that$ = 56
?dtor$0@?0???0ServerCommand@@QEAA@AEBU0@@Z@4HA PROC	; `ServerCommand::ServerCommand'::`1'::dtor$0
	mov	rcx, QWORD PTR this$[rdx]
	add	rcx, 8
	jmp	??1ProcessInformation@@QEAA@XZ
?dtor$0@?0???0ServerCommand@@QEAA@AEBU0@@Z@4HA ENDP	; `ServerCommand::ServerCommand'::`1'::dtor$0
text$x	ENDS
; Function compile flags: /Ogtpy
;	COMDAT text$x
text$x	SEGMENT
this$ = 48
__that$ = 56
?dtor$1@?0???0ServerCommand@@QEAA@AEBU0@@Z@4HA PROC	; `ServerCommand::ServerCommand'::`1'::dtor$1
	mov	rcx, QWORD PTR this$[rdx]
	add	rcx, 56					; 00000038H
	jmp	??1?$basic_string@DU?$char_traits@D@std@@V?$allocator@D@2@@std@@QEAA@XZ ; std::basic_string<char,std::char_traits<char>,std::allocator<char> >::~basic_string<char,std::char_traits<char>,std::allocator<char> >
?dtor$1@?0???0ServerCommand@@QEAA@AEBU0@@Z@4HA ENDP	; `ServerCommand::ServerCommand'::`1'::dtor$1
text$x	ENDS
; Function compile flags: /Ogtpy
;	COMDAT ??0ProcessInformation@@QEAA@AEBU0@@Z
_TEXT	SEGMENT
this$ = 48
__that$ = 56
??0ProcessInformation@@QEAA@AEBU0@@Z PROC		; ProcessInformation::ProcessInformation, COMDAT
$LN6:
	push	rbx
	sub	rsp, 32					; 00000020H
	mov	eax, DWORD PTR [rdx]
	mov	rbx, rcx
	mov	DWORD PTR [rcx], eax
	mov	eax, DWORD PTR [rdx+4]
	mov	DWORD PTR [rcx+4], eax
	mov	eax, DWORD PTR [rdx+8]
	add	rdx, 16
	mov	DWORD PTR [rcx+8], eax
	add	rcx, 16
	call	??0?$basic_string@DU?$char_traits@D@std@@V?$allocator@D@2@@std@@QEAA@AEBV01@@Z ; std::basic_string<char,std::char_traits<char>,std::allocator<char> >::basic_string<char,std::char_traits<char>,std::allocator<char> >
	mov	rax, rbx
	add	rsp, 32					; 00000020H
	pop	rbx
	ret	0
??0ProcessInformation@@QEAA@AEBU0@@Z ENDP		; ProcessInformation::ProcessInformation
_TEXT	ENDS
; Function compile flags: /Ogtpy
; File C:\Users\ethan\source\repos\DLL\DLL\Headers\net_common.h
; File C:\Program Files\Microsoft Visual Studio\2022\Community\VC\Tools\MSVC\14.40.33807\include\xstring
; File C:\Users\ethan\source\repos\DLL\DLL\Headers\net_common.h
; File C:\Program Files\Microsoft Visual Studio\2022\Community\VC\Tools\MSVC\14.40.33807\include\xstring
; File C:\Program Files\Microsoft Visual Studio\2022\Community\VC\Tools\MSVC\14.40.33807\include\xmemory
; File C:\Program Files\Microsoft Visual Studio\2022\Community\VC\Tools\MSVC\14.40.33807\include\xstring
; File C:\Program Files\Microsoft Visual Studio\2022\Community\VC\Tools\MSVC\14.40.33807\include\xmemory
; File C:\Program Files\Microsoft Visual Studio\2022\Community\VC\Tools\MSVC\14.40.33807\include\xstring
; File C:\Users\ethan\source\repos\DLL\DLL\Headers\net_common.h
; File C:\Program Files\Microsoft Visual Studio\2022\Community\VC\Tools\MSVC\14.40.33807\include\xmemory
; File C:\Users\ethan\source\repos\DLL\DLL\Headers\net_common.h
;	COMDAT ?RequestToBlob@NetCommon@@YA?AUNET_BLOB@@UClientRequest@@V?$basic_string@DU?$char_traits@D@std@@V?$allocator@D@2@@std@@@Z
_TEXT	SEGMENT
__$ReturnUdt$GSCopy$ = 48
request$GSCopy$ = 64
aesKey$GSCopy$ = 72
__$ArrayPad$ = 80
__$ReturnUdt$ = 128
request$ = 136
aesKey$ = 144
?RequestToBlob@NetCommon@@YA?AUNET_BLOB@@UClientRequest@@V?$basic_string@DU?$char_traits@D@std@@V?$allocator@D@2@@std@@@Z PROC ; NetCommon::RequestToBlob, COMDAT

; 117  :     inline NET_BLOB RequestToBlob(ClientRequest request, std::string aesKey) {

$LN161:
	mov	QWORD PTR [rsp+32], rbx
	push	rbp
	push	rsi
	push	rdi
	sub	rsp, 96					; 00000060H
	mov	rax, QWORD PTR __security_cookie
	xor	rax, rsp
	mov	QWORD PTR __$ArrayPad$[rsp], rax
	mov	rbx, r8
	mov	rsi, rcx
	mov	QWORD PTR __$ReturnUdt$GSCopy$[rsp], rcx
	mov	QWORD PTR request$GSCopy$[rsp], rdx
	mov	QWORD PTR aesKey$GSCopy$[rsp], rbx
	xor	ebp, ebp
	mov	eax, DWORD PTR [rdx]
	mov	DWORD PTR [rcx], eax
	mov	eax, DWORD PTR [rdx+4]
	mov	DWORD PTR [rcx+4], eax
	mov	rax, QWORD PTR [rdx+8]
	mov	QWORD PTR [rcx+8], rax
	add	rcx, 16
	lea	rdi, QWORD PTR [rdx+16]
	mov	rdx, rdi
	call	??0?$basic_string@DU?$char_traits@D@std@@V?$allocator@D@2@@std@@QEAA@AEBV01@@Z ; std::basic_string<char,std::char_traits<char>,std::allocator<char> >::basic_string<char,std::char_traits<char>,std::allocator<char> >
	npad	1

; 118  :         return NET_BLOB{ request, {0}, {0}, aesKey };

	xor	eax, eax
	mov	QWORD PTR [rsi+48], rax
	mov	QWORD PTR [rsi+168], rax
	xorps	xmm0, xmm0
	movups	XMMWORD PTR [rsi+56], xmm0
	xorps	xmm1, xmm1
; File C:\Program Files\Microsoft Visual Studio\2022\Community\VC\Tools\MSVC\14.40.33807\include\xstring

; 2284 :         _CONSTEXPR20 _Bxty() noexcept : _Buf() {} // user-provided, for fancy pointers

	movups	XMMWORD PTR [rsi+72], xmm1

; 2651 :         _My_data._Mysize = 0;

	mov	QWORD PTR [rsi+88], rbp

; 2652 :         _My_data._Myres  = _Small_string_capacity;

	mov	QWORD PTR [rsi+96], 15

; 2653 :         _My_data._Activate_SSO_buffer();
; 2654 : 
; 2655 :         // the _Traits::assign is last so the codegen doesn't think the char write can alias this
; 2656 :         _Traits::assign(_My_data._Bx._Buf[0], _Elem());

	mov	BYTE PTR [rsi+72], al

; 2284 :         _CONSTEXPR20 _Bxty() noexcept : _Buf() {} // user-provided, for fancy pointers

	movups	XMMWORD PTR [rsi+104], xmm0

; 2651 :         _My_data._Mysize = 0;

	mov	QWORD PTR [rsi+120], rbp

; 2652 :         _My_data._Myres  = _Small_string_capacity;

	mov	QWORD PTR [rsi+128], 15

; 2653 :         _My_data._Activate_SSO_buffer();
; 2654 : 
; 2655 :         // the _Traits::assign is last so the codegen doesn't think the char write can alias this
; 2656 :         _Traits::assign(_My_data._Bx._Buf[0], _Elem());

	mov	BYTE PTR [rsi+104], al

; 2284 :         _CONSTEXPR20 _Bxty() noexcept : _Buf() {} // user-provided, for fancy pointers

	movups	XMMWORD PTR [rsi+136], xmm0

; 2651 :         _My_data._Mysize = 0;

	mov	QWORD PTR [rsi+152], rbp

; 2652 :         _My_data._Myres  = _Small_string_capacity;

	mov	QWORD PTR [rsi+160], 15

; 2653 :         _My_data._Activate_SSO_buffer();
; 2654 : 
; 2655 :         // the _Traits::assign is last so the codegen doesn't think the char write can alias this
; 2656 :         _Traits::assign(_My_data._Bx._Buf[0], _Elem());

	mov	BYTE PTR [rsi+136], al
; File C:\Users\ethan\source\repos\DLL\DLL\Headers\net_common.h

; 118  :         return NET_BLOB{ request, {0}, {0}, aesKey };

	mov	DWORD PTR [rsi+176], ebp
	movups	XMMWORD PTR [rsi+180], xmm0
	movups	XMMWORD PTR [rsi+196], xmm0
	mov	DWORD PTR [rsi+212], eax
	lea	rcx, QWORD PTR [rsi+216]
	mov	rdx, rbx
	call	??0?$basic_string@DU?$char_traits@D@std@@V?$allocator@D@2@@std@@QEAA@AEBV01@@Z ; std::basic_string<char,std::char_traits<char>,std::allocator<char> >::basic_string<char,std::char_traits<char>,std::allocator<char> >
	npad	1
; File C:\Program Files\Microsoft Visual Studio\2022\Community\VC\Tools\MSVC\14.40.33807\include\xstring

; 2244 :         return _Myres > _Small_string_capacity;

	mov	rdx, QWORD PTR [rdi+24]
	cmp	rdx, 15

; 4868 :         if (_My_data._Large_mode_engaged()) {

	jbe	SHORT $LN99@RequestToB

; 4869 :             _ASAN_STRING_REMOVE(*this);
; 4870 :             auto& _Al = _Getal();
; 4871 :             _Deallocate_for_capacity(_Al, _My_data._Bx._Ptr, _My_data._Myres);

	mov	rcx, QWORD PTR [rdi]

; 2643 :         _Al.deallocate(_Old_ptr, _Capacity + 1); // +1 for null terminator

	inc	rdx
; File C:\Program Files\Microsoft Visual Studio\2022\Community\VC\Tools\MSVC\14.40.33807\include\xmemory

; 253  :         if (_Bytes >= _Big_allocation_threshold) {

	cmp	rdx, 4096				; 00001000H
	jb	SHORT $LN113@RequestToB

; 171  :     _Bytes += _Non_user_size;

	add	rdx, 39					; 00000027H

; 172  : 
; 173  :     const uintptr_t* const _Ptr_user = static_cast<uintptr_t*>(_Ptr);
; 174  :     const uintptr_t _Ptr_container   = _Ptr_user[-1];

	mov	r8, QWORD PTR [rcx-8]

; 175  : 
; 176  :     // If the following asserts, it likely means that we are performing
; 177  :     // an aligned delete on memory coming from an unaligned allocation.
; 178  :     _STL_ASSERT(_Ptr_user[-2] == _Big_allocation_sentinel, "invalid argument");
; 179  : 
; 180  :     // Extra paranoia on aligned allocation/deallocation; ensure _Ptr_container is
; 181  :     // in range [_Min_back_shift, _Non_user_size]
; 182  : #ifdef _DEBUG
; 183  :     constexpr uintptr_t _Min_back_shift = 2 * sizeof(void*);
; 184  : #else // ^^^ defined(_DEBUG) / !defined(_DEBUG) vvv
; 185  :     constexpr uintptr_t _Min_back_shift = sizeof(void*);
; 186  : #endif // ^^^ !defined(_DEBUG) ^^^
; 187  :     const uintptr_t _Back_shift = reinterpret_cast<uintptr_t>(_Ptr) - _Ptr_container;

	sub	rcx, r8

; 188  :     _STL_VERIFY(_Back_shift >= _Min_back_shift && _Back_shift <= _Non_user_size, "invalid argument");

	lea	rax, QWORD PTR [rcx-8]
	cmp	rax, 31
	ja	SHORT $LN110@RequestToB

; 189  :     _Ptr = reinterpret_cast<void*>(_Ptr_container);

	mov	rcx, r8
$LN113@RequestToB:

; 258  :         ::operator delete(_Ptr, _Bytes);

	call	??3@YAXPEAX_K@Z				; operator delete
$LN99@RequestToB:
; File C:\Program Files\Microsoft Visual Studio\2022\Community\VC\Tools\MSVC\14.40.33807\include\xstring

; 4875 :         _My_data._Mysize = 0;

	mov	QWORD PTR [rdi+16], rbp

; 4876 :         _My_data._Myres  = _Small_string_capacity;

	mov	QWORD PTR [rdi+24], 15

; 4877 :         // the _Traits::assign is last so the codegen doesn't think the char write can alias this
; 4878 :         _Traits::assign(_My_data._Bx._Buf[0], _Elem());

	mov	BYTE PTR [rdi], 0

; 2244 :         return _Myres > _Small_string_capacity;

	mov	rdx, QWORD PTR [rbx+24]
	cmp	rdx, 15

; 4868 :         if (_My_data._Large_mode_engaged()) {

	jbe	SHORT $LN138@RequestToB

; 2643 :         _Al.deallocate(_Old_ptr, _Capacity + 1); // +1 for null terminator

	inc	rdx
; File C:\Program Files\Microsoft Visual Studio\2022\Community\VC\Tools\MSVC\14.40.33807\include\xmemory

; 950  :         _STD _Deallocate<_New_alignof<_Ty>>(_Ptr, sizeof(_Ty) * _Count);

	mov	rcx, QWORD PTR [rbx]

; 253  :         if (_Bytes >= _Big_allocation_threshold) {

	cmp	rdx, 4096				; 00001000H
	jb	SHORT $LN152@RequestToB

; 171  :     _Bytes += _Non_user_size;

	add	rdx, 39					; 00000027H

; 172  : 
; 173  :     const uintptr_t* const _Ptr_user = static_cast<uintptr_t*>(_Ptr);
; 174  :     const uintptr_t _Ptr_container   = _Ptr_user[-1];

	mov	r8, QWORD PTR [rcx-8]

; 175  : 
; 176  :     // If the following asserts, it likely means that we are performing
; 177  :     // an aligned delete on memory coming from an unaligned allocation.
; 178  :     _STL_ASSERT(_Ptr_user[-2] == _Big_allocation_sentinel, "invalid argument");
; 179  : 
; 180  :     // Extra paranoia on aligned allocation/deallocation; ensure _Ptr_container is
; 181  :     // in range [_Min_back_shift, _Non_user_size]
; 182  : #ifdef _DEBUG
; 183  :     constexpr uintptr_t _Min_back_shift = 2 * sizeof(void*);
; 184  : #else // ^^^ defined(_DEBUG) / !defined(_DEBUG) vvv
; 185  :     constexpr uintptr_t _Min_back_shift = sizeof(void*);
; 186  : #endif // ^^^ !defined(_DEBUG) ^^^
; 187  :     const uintptr_t _Back_shift = reinterpret_cast<uintptr_t>(_Ptr) - _Ptr_container;

	sub	rcx, r8

; 188  :     _STL_VERIFY(_Back_shift >= _Min_back_shift && _Back_shift <= _Non_user_size, "invalid argument");

	lea	rax, QWORD PTR [rcx-8]
	cmp	rax, 31
	ja	SHORT $LN149@RequestToB

; 189  :     _Ptr = reinterpret_cast<void*>(_Ptr_container);

	mov	rcx, r8
$LN152@RequestToB:

; 258  :         ::operator delete(_Ptr, _Bytes);

	call	??3@YAXPEAX_K@Z				; operator delete
$LN138@RequestToB:
; File C:\Program Files\Microsoft Visual Studio\2022\Community\VC\Tools\MSVC\14.40.33807\include\xstring

; 4875 :         _My_data._Mysize = 0;

	mov	QWORD PTR [rbx+16], rbp

; 4876 :         _My_data._Myres  = _Small_string_capacity;

	mov	QWORD PTR [rbx+24], 15

; 4877 :         // the _Traits::assign is last so the codegen doesn't think the char write can alias this
; 4878 :         _Traits::assign(_My_data._Bx._Buf[0], _Elem());

	mov	BYTE PTR [rbx], 0
; File C:\Users\ethan\source\repos\DLL\DLL\Headers\net_common.h

; 118  :         return NET_BLOB{ request, {0}, {0}, aesKey };

	mov	rax, rsi

; 119  :     }

	mov	rcx, QWORD PTR __$ArrayPad$[rsp]
	xor	rcx, rsp
	call	__security_check_cookie
	mov	rbx, QWORD PTR [rsp+152]
	add	rsp, 96					; 00000060H
	pop	rdi
	pop	rsi
	pop	rbp
	ret	0
$LN110@RequestToB:
; File C:\Program Files\Microsoft Visual Studio\2022\Community\VC\Tools\MSVC\14.40.33807\include\xmemory

; 188  :     _STL_VERIFY(_Back_shift >= _Min_back_shift && _Back_shift <= _Non_user_size, "invalid argument");

	call	_invalid_parameter_noinfo_noreturn
	npad	1
$LN149@RequestToB:
	call	_invalid_parameter_noinfo_noreturn
	int	3
$LN158@RequestToB:
?RequestToBlob@NetCommon@@YA?AUNET_BLOB@@UClientRequest@@V?$basic_string@DU?$char_traits@D@std@@V?$allocator@D@2@@std@@@Z ENDP ; NetCommon::RequestToBlob
_TEXT	ENDS
; Function compile flags: /Ogtpy
;	COMDAT text$x
text$x	SEGMENT
__$ReturnUdt$GSCopy$ = 48
request$GSCopy$ = 64
aesKey$GSCopy$ = 72
__$ArrayPad$ = 80
__$ReturnUdt$ = 128
request$ = 136
aesKey$ = 144
?dtor$0@?0??RequestToBlob@NetCommon@@YA?AUNET_BLOB@@UClientRequest@@V?$basic_string@DU?$char_traits@D@std@@V?$allocator@D@2@@std@@@Z@4HA PROC ; `NetCommon::RequestToBlob'::`1'::dtor$0
	mov	rcx, QWORD PTR aesKey$GSCopy$[rdx]
	jmp	??1?$basic_string@DU?$char_traits@D@std@@V?$allocator@D@2@@std@@QEAA@XZ ; std::basic_string<char,std::char_traits<char>,std::allocator<char> >::~basic_string<char,std::char_traits<char>,std::allocator<char> >
?dtor$0@?0??RequestToBlob@NetCommon@@YA?AUNET_BLOB@@UClientRequest@@V?$basic_string@DU?$char_traits@D@std@@V?$allocator@D@2@@std@@@Z@4HA ENDP ; `NetCommon::RequestToBlob'::`1'::dtor$0
text$x	ENDS
; Function compile flags: /Ogtpy
;	COMDAT text$x
text$x	SEGMENT
__$ReturnUdt$GSCopy$ = 48
request$GSCopy$ = 64
aesKey$GSCopy$ = 72
__$ArrayPad$ = 80
__$ReturnUdt$ = 128
request$ = 136
aesKey$ = 144
?dtor$1@?0??RequestToBlob@NetCommon@@YA?AUNET_BLOB@@UClientRequest@@V?$basic_string@DU?$char_traits@D@std@@V?$allocator@D@2@@std@@@Z@4HA PROC ; `NetCommon::RequestToBlob'::`1'::dtor$1
	mov	rcx, QWORD PTR request$GSCopy$[rdx]
	jmp	??1ClientRequest@@QEAA@XZ
?dtor$1@?0??RequestToBlob@NetCommon@@YA?AUNET_BLOB@@UClientRequest@@V?$basic_string@DU?$char_traits@D@std@@V?$allocator@D@2@@std@@@Z@4HA ENDP ; `NetCommon::RequestToBlob'::`1'::dtor$1
text$x	ENDS
; Function compile flags: /Ogtpy
;	COMDAT text$x
text$x	SEGMENT
__$ReturnUdt$GSCopy$ = 48
request$GSCopy$ = 64
aesKey$GSCopy$ = 72
__$ArrayPad$ = 80
__$ReturnUdt$ = 128
request$ = 136
aesKey$ = 144
?dtor$2@?0??RequestToBlob@NetCommon@@YA?AUNET_BLOB@@UClientRequest@@V?$basic_string@DU?$char_traits@D@std@@V?$allocator@D@2@@std@@@Z@4HA PROC ; `NetCommon::RequestToBlob'::`1'::dtor$2
	mov	rcx, QWORD PTR __$ReturnUdt$GSCopy$[rdx]
	jmp	??1ClientRequest@@QEAA@XZ
?dtor$2@?0??RequestToBlob@NetCommon@@YA?AUNET_BLOB@@UClientRequest@@V?$basic_string@DU?$char_traits@D@std@@V?$allocator@D@2@@std@@@Z@4HA ENDP ; `NetCommon::RequestToBlob'::`1'::dtor$2
text$x	ENDS
; Function compile flags: /Ogtpy
;	COMDAT text$x
text$x	SEGMENT
__$ReturnUdt$GSCopy$ = 48
request$GSCopy$ = 64
aesKey$GSCopy$ = 72
__$ArrayPad$ = 80
__$ReturnUdt$ = 128
request$ = 136
aesKey$ = 144
?dtor$7@?0??RequestToBlob@NetCommon@@YA?AUNET_BLOB@@UClientRequest@@V?$basic_string@DU?$char_traits@D@std@@V?$allocator@D@2@@std@@@Z@4HA PROC ; `NetCommon::RequestToBlob'::`1'::dtor$7
	mov	rcx, QWORD PTR __$ReturnUdt$GSCopy$[rdx]
	add	rcx, 48					; 00000030H
	jmp	??1ServerCommand@@QEAA@XZ
?dtor$7@?0??RequestToBlob@NetCommon@@YA?AUNET_BLOB@@UClientRequest@@V?$basic_string@DU?$char_traits@D@std@@V?$allocator@D@2@@std@@@Z@4HA ENDP ; `NetCommon::RequestToBlob'::`1'::dtor$7
text$x	ENDS
; Function compile flags: /Ogtpy
;	COMDAT ??0ClientRequest@@QEAA@AEBU0@@Z
_TEXT	SEGMENT
this$ = 48
__that$ = 56
??0ClientRequest@@QEAA@AEBU0@@Z PROC			; ClientRequest::ClientRequest, COMDAT
$LN6:
	push	rbx
	sub	rsp, 32					; 00000020H
	mov	eax, DWORD PTR [rdx]
	mov	rbx, rcx
	mov	DWORD PTR [rcx], eax
	mov	eax, DWORD PTR [rdx+4]
	mov	DWORD PTR [rcx+4], eax
	mov	rax, QWORD PTR [rdx+8]
	add	rdx, 16
	mov	QWORD PTR [rcx+8], rax
	add	rcx, 16
	call	??0?$basic_string@DU?$char_traits@D@std@@V?$allocator@D@2@@std@@QEAA@AEBV01@@Z ; std::basic_string<char,std::char_traits<char>,std::allocator<char> >::basic_string<char,std::char_traits<char>,std::allocator<char> >
	mov	rax, rbx
	add	rsp, 32					; 00000020H
	pop	rbx
	ret	0
??0ClientRequest@@QEAA@AEBU0@@Z ENDP			; ClientRequest::ClientRequest
_TEXT	ENDS
; Function compile flags: /Ogtpy
; File C:\Users\ethan\source\repos\DLL\DLL\Headers\obfuscate.h
;	COMDAT ??$cipher@D@ay@@YAXPEAD_K1@Z
_TEXT	SEGMENT
data$ = 16
size$ = 24
key$ = 32
??$cipher@D@ay@@YAXPEAD_K1@Z PROC			; ay::cipher<char>, COMDAT

; 66   : 	{

$LN29:
	sub	rsp, 8

; 67   : 		// Obfuscate with a simple XOR cipher based on key
; 68   : 		for ( size_type i = 0; i < size; i++ )

	xor	eax, eax
	movq	xmm2, r8
	punpcklqdq xmm2, xmm2
	mov	r9, rdx
	mov	r10, rcx
	test	rdx, rdx
	je	$LN3@cipher
	cmp	rdx, 8
	jb	$LL22@cipher
	cmp	DWORD PTR __isa_available, 5
	jl	$LL22@cipher
	movdqa	xmm3, XMMWORD PTR __xmm@00000000000000010000000000000000

; 69   : 		{
; 70   : 			data[i] ^= CHAR_TYPE(( key >> ( ( i % 8 ) * 8 ) ) & 0xFF);

	mov	r11, rdx
	movdqa	xmm4, XMMWORD PTR __xmm@00000000000000070000000000000007
	lea	rdx, QWORD PTR [rcx+4]
	movdqa	xmm5, XMMWORD PTR __xmm@00000000000008000000000000000800
	and	r11, -8
	mov	QWORD PTR [rsp+16], rbx
	mov	rbx, -2
	mov	QWORD PTR [rsp], rdi
	sub	rbx, rcx
	mov	edi, 2
	sub	rdi, rcx
$LL4@cipher:
	movzx	ecx, WORD PTR [rdx-4]
	movq	xmm0, rax
	punpcklqdq xmm0, xmm0
	add	rax, 8
	paddq	xmm0, xmm3
	andps	xmm0, xmm4
	psllq	xmm0, 3
	vpsrlvq	xmm1, xmm2, xmm0
	movd	xmm0, ecx
	pshufb	xmm1, xmm5
	xorps	xmm1, xmm0
	movd	ecx, xmm1
	mov	WORD PTR [rdx-4], cx
	lea	rcx, QWORD PTR [rbx+rdx]
	movq	xmm0, rcx
	movzx	ecx, WORD PTR [rdx-2]
	punpcklqdq xmm0, xmm0
	paddq	xmm0, xmm3
	andps	xmm0, xmm4
	psllq	xmm0, 3
	vpsrlvq	xmm1, xmm2, xmm0
	movd	xmm0, ecx
	pshufb	xmm1, xmm5
	xorps	xmm1, xmm0
	movd	ecx, xmm1
	mov	WORD PTR [rdx-2], cx
	mov	rcx, rdx
	sub	rcx, r10
	movq	xmm0, rcx
	movzx	ecx, WORD PTR [rdx]
	punpcklqdq xmm0, xmm0
	paddq	xmm0, xmm3
	andps	xmm0, xmm4
	psllq	xmm0, 3
	vpsrlvq	xmm1, xmm2, xmm0
	movd	xmm0, ecx
	pshufb	xmm1, xmm5
	xorps	xmm1, xmm0
	movd	ecx, xmm1
	mov	WORD PTR [rdx], cx
	lea	rcx, QWORD PTR [rdi+rdx]
	movq	xmm0, rcx
	movzx	ecx, WORD PTR [rdx+2]
	punpcklqdq xmm0, xmm0
	paddq	xmm0, xmm3
	andps	xmm0, xmm4
	psllq	xmm0, 3
	vpsrlvq	xmm1, xmm2, xmm0
	movd	xmm0, ecx
	pshufb	xmm1, xmm5
	xorps	xmm1, xmm0
	movd	ecx, xmm1
	mov	WORD PTR [rdx+2], cx
	add	rdx, 8
	cmp	rax, r11
	jb	$LL4@cipher

; 67   : 		// Obfuscate with a simple XOR cipher based on key
; 68   : 		for ( size_type i = 0; i < size; i++ )

	mov	rdi, QWORD PTR [rsp]
	mov	rbx, QWORD PTR [rsp+16]
	cmp	rax, r9
	jae	SHORT $LN3@cipher
	npad	10
$LL22@cipher:

; 69   : 		{
; 70   : 			data[i] ^= CHAR_TYPE(( key >> ( ( i % 8 ) * 8 ) ) & 0xFF);

	movzx	ecx, al
	mov	rdx, r8
	and	cl, 7
	shl	cl, 3
	shr	rdx, cl
	xor	BYTE PTR [r10+rax], dl
	inc	rax
	cmp	rax, r9
	jb	SHORT $LL22@cipher
$LN3@cipher:

; 71   : 		}
; 72   : 	}

	add	rsp, 8
	ret	0
??$cipher@D@ay@@YAXPEAD_K1@Z ENDP			; ay::cipher<char>
_TEXT	ENDS
; Function compile flags: /Ogtpy
; File C:\Users\ethan\source\repos\DLL\DLL\Headers\procutils.h
; File C:\Users\ethan\source\repos\DLL\DLL\Headers\obfuscate.h
; File C:\Users\ethan\source\repos\DLL\DLL\Headers\procutils.h
;	COMDAT ??R<lambda_1>@freqDLLS@ProcessUtilities@@QEBAAEAV?$obfuscated_data@$0N@$0GPFFMNJFHLKDFJAP@D@ay@@XZ
_TEXT	SEGMENT
this$dead$ = 48
??R<lambda_1>@freqDLLS@ProcessUtilities@@QEBAAEAV?$obfuscated_data@$0N@$0GPFFMNJFHLKDFJAP@D@ay@@XZ PROC ; ProcessUtilities::freqDLLS::<lambda_1>::operator(), COMDAT

; 33   : 		static const std::string kernel32 = std::string(HIDE("kernel32.dll"));	

	push	rbx
	sub	rsp, 32					; 00000020H
	mov	ecx, DWORD PTR _tls_index
	mov	rax, QWORD PTR gs:88
	mov	rdx, QWORD PTR [rax+rcx*8]
	mov	ecx, OFFSET FLAT:??__J?1???R<lambda_1>@freqDLLS@ProcessUtilities@@QEBAAEAV?$obfuscated_data@$0N@$0GPFFMNJFHLKDFJAP@D@ay@@XZ@51
	mov	eax, DWORD PTR [rcx+rdx]
	mov	r8d, OFFSET FLAT:?obfuscated_data@?1???R<lambda_1>@freqDLLS@ProcessUtilities@@QEBAAEAV?$obfuscated_data@$0N@$0GPFFMNJFHLKDFJAP@D@ay@@XZ@4V45@A
	test	al, 1
	jne	SHORT $LN26@operator
	or	eax, 1
	mov	DWORD PTR [rcx+rdx], eax
	lea	rbx, QWORD PTR [rdx+r8]
; File C:\Users\ethan\source\repos\DLL\DLL\Headers\obfuscate.h

; 123  : 				m_data[i] = obfuscator.data()[i];

	mov	DWORD PTR [rbx+10], 26548175		; 019517cfH
	mov	DWORD PTR [rbx], 366034020		; 15d13c64H
	mov	DWORD PTR [rbx+4], 1567007216		; 5d66a1f0H
	mov	WORD PTR [rbx+8], 15649			; 00003d21H
; File C:\Users\ethan\source\repos\DLL\DLL\Headers\procutils.h

; 33   : 		static const std::string kernel32 = std::string(HIDE("kernel32.dll"));	

	lea	rcx, OFFSET FLAT:??__Fobfuscated_data@?1???R<lambda_1>@freqDLLS@ProcessUtilities@@QEBAAEAV?$obfuscated_data@$0N@$0GPFFMNJFHLKDFJAP@D@ay@@XZ@YAXXZ ; `ProcessUtilities::freqDLLS::<lambda_1>::operator()'::`2'::`dynamic atexit destructor for 'obfuscated_data''
	call	__tlregdtor
	npad	1
	mov	rax, rbx
	add	rsp, 32					; 00000020H
	pop	rbx
	ret	0
$LN26@operator:
	lea	rax, QWORD PTR [rdx+r8]
	add	rsp, 32					; 00000020H
	pop	rbx
	ret	0
??R<lambda_1>@freqDLLS@ProcessUtilities@@QEBAAEAV?$obfuscated_data@$0N@$0GPFFMNJFHLKDFJAP@D@ay@@XZ ENDP ; ProcessUtilities::freqDLLS::<lambda_1>::operator()
_TEXT	ENDS
; Function compile flags: /Ogtpy
;	COMDAT text$x
text$x	SEGMENT
this$dead$ = 48
?dtor$0@?0???R<lambda_1>@freqDLLS@ProcessUtilities@@QEBAAEAV?$obfuscated_data@$0N@$0GPFFMNJFHLKDFJAP@D@ay@@XZ@4HA PROC ; `ProcessUtilities::freqDLLS::<lambda_1>::operator()'::`1'::dtor$0
	push	rbp
	mov	rbp, rdx
	mov	eax, OFFSET FLAT:??__J?1???R<lambda_1>@freqDLLS@ProcessUtilities@@QEBAAEAV?$obfuscated_data@$0N@$0GPFFMNJFHLKDFJAP@D@ay@@XZ@51
	mov	ecx, eax
	mov	eax, DWORD PTR _tls_index
	imul	rax, rax, 8
	mov	r8, QWORD PTR gs:88
	add	r8, rax
	mov	r8, QWORD PTR [r8]
	add	r8, rcx
	mov	r8d, DWORD PTR [r8]
	and	r8d, -2					; fffffffeH
	mov	eax, DWORD PTR _tls_index
	imul	rax, rax, 8
	mov	rdx, QWORD PTR gs:88
	add	rdx, rax
	mov	eax, OFFSET FLAT:??__J?1???R<lambda_1>@freqDLLS@ProcessUtilities@@QEBAAEAV?$obfuscated_data@$0N@$0GPFFMNJFHLKDFJAP@D@ay@@XZ@51
	mov	ecx, eax
	mov	rax, QWORD PTR [rdx]
	add	rax, rcx
	mov	DWORD PTR [rax], r8d
	pop	rbp
	ret	0
?dtor$0@?0???R<lambda_1>@freqDLLS@ProcessUtilities@@QEBAAEAV?$obfuscated_data@$0N@$0GPFFMNJFHLKDFJAP@D@ay@@XZ@4HA ENDP ; `ProcessUtilities::freqDLLS::<lambda_1>::operator()'::`1'::dtor$0
text$x	ENDS
; Function compile flags: /Ogtpy
; File C:\Users\ethan\source\repos\DLL\DLL\Headers\procutils.h
; File C:\Users\ethan\source\repos\DLL\DLL\Headers\obfuscate.h
; File C:\Users\ethan\source\repos\DLL\DLL\Headers\procutils.h
; File C:\Users\ethan\source\repos\DLL\DLL\Headers\obfuscate.h
; File C:\Users\ethan\source\repos\DLL\DLL\Headers\procutils.h
;	COMDAT ??__Ekernel32@freqDLLS@ProcessUtilities@@YAXXZ
text$di	SEGMENT
??__Ekernel32@freqDLLS@ProcessUtilities@@YAXXZ PROC	; ProcessUtilities::freqDLLS::`dynamic initializer for 'kernel32'', COMDAT

; 33   : 		static const std::string kernel32 = std::string(HIDE("kernel32.dll"));	

	push	rbx
	sub	rsp, 32					; 00000020H
	mov	ecx, DWORD PTR _tls_index
	mov	rax, QWORD PTR gs:88
	mov	rdx, QWORD PTR [rax+rcx*8]
	mov	ecx, OFFSET FLAT:??__J?1???R<lambda_1>@freqDLLS@ProcessUtilities@@QEBAAEAV?$obfuscated_data@$0N@$0GPFFMNJFHLKDFJAP@D@ay@@XZ@51
	mov	eax, DWORD PTR [rcx+rdx]
	mov	ebx, OFFSET FLAT:?obfuscated_data@?1???R<lambda_1>@freqDLLS@ProcessUtilities@@QEBAAEAV?$obfuscated_data@$0N@$0GPFFMNJFHLKDFJAP@D@ay@@XZ@4V45@A
	add	rbx, rdx
	test	al, 1
	jne	SHORT $LN47@dynamic
	or	eax, 1
	mov	DWORD PTR [rcx+rdx], eax
; File C:\Users\ethan\source\repos\DLL\DLL\Headers\obfuscate.h

; 123  : 				m_data[i] = obfuscator.data()[i];

	mov	DWORD PTR [rbx+10], 26548175		; 019517cfH
	mov	DWORD PTR [rbx], 366034020		; 15d13c64H
	mov	DWORD PTR [rbx+4], 1567007216		; 5d66a1f0H
	mov	WORD PTR [rbx+8], 15649			; 00003d21H
; File C:\Users\ethan\source\repos\DLL\DLL\Headers\procutils.h

; 33   : 		static const std::string kernel32 = std::string(HIDE("kernel32.dll"));	

	lea	rcx, OFFSET FLAT:??__Fobfuscated_data@?1???R<lambda_1>@freqDLLS@ProcessUtilities@@QEBAAEAV?$obfuscated_data@$0N@$0GPFFMNJFHLKDFJAP@D@ay@@XZ@YAXXZ ; `ProcessUtilities::freqDLLS::<lambda_1>::operator()'::`2'::`dynamic atexit destructor for 'obfuscated_data''
	call	__tlregdtor
	npad	1
$LN47@dynamic:
; File C:\Users\ethan\source\repos\DLL\DLL\Headers\obfuscate.h

; 147  : 			if ( m_encrypted )

	cmp	BYTE PTR [rbx+13], 0
	je	$LN15@dynamic

; 148  : 			{
; 149  : 				cipher(m_data, N, KEY);

	xor	r8d, r8d
	cmp	DWORD PTR __isa_available, 5
	jl	$LN56@dynamic

; 70   : 			data[i] ^= CHAR_TYPE(( key >> ( ( i % 8 ) * 8 ) ) & 0xFF);

	movdqa	xmm3, XMMWORD PTR __xmm@6f55cd957ba3590f6f55cd957ba3590f
	movdqa	xmm0, XMMWORD PTR __xmm@00000000000000010000000000000000
	psllq	xmm0, 3
	vpsrlvq	xmm1, xmm3, xmm0
	movdqa	xmm2, XMMWORD PTR __xmm@00000000000008000000000000000800
	pshufb	xmm1, xmm2
	movzx	eax, WORD PTR [rbx]
	movd	xmm0, eax
	xorps	xmm1, xmm0
	movd	eax, xmm1
	mov	WORD PTR [rbx], ax
	movdqa	xmm0, XMMWORD PTR __xmm@00000000000000030000000000000002
	psllq	xmm0, 3
	vpsrlvq	xmm1, xmm3, xmm0
	pshufb	xmm1, xmm2
	movzx	eax, WORD PTR [rbx+2]
	movd	xmm0, eax
	xorps	xmm1, xmm0
	movd	eax, xmm1
	mov	WORD PTR [rbx+2], ax
	movdqa	xmm0, XMMWORD PTR __xmm@00000000000000050000000000000004
	psllq	xmm0, 3
	vpsrlvq	xmm1, xmm3, xmm0
	pshufb	xmm1, xmm2
	movzx	eax, WORD PTR [rbx+4]
	movd	xmm0, eax
	xorps	xmm1, xmm0
	movd	eax, xmm1
	mov	WORD PTR [rbx+4], ax
	movdqa	xmm0, XMMWORD PTR __xmm@00000000000000070000000000000006
	psllq	xmm0, 3
	vpsrlvq	xmm1, xmm3, xmm0
	pshufb	xmm1, xmm2
	movzx	eax, WORD PTR [rbx+6]
	movd	xmm0, eax
	xorps	xmm1, xmm0
	movd	eax, xmm1
	mov	WORD PTR [rbx+6], ax

; 68   : 		for ( size_type i = 0; i < size; i++ )

	mov	r8d, 8
$LN56@dynamic:
	mov	r9, 8022544353138530575			; 6f55cd957ba3590fH
	npad	6
$LL55@dynamic:

; 69   : 		{
; 70   : 			data[i] ^= CHAR_TYPE(( key >> ( ( i % 8 ) * 8 ) ) & 0xFF);

	movzx	ecx, r8b
	and	cl, 7
	shl	cl, 3
	mov	rdx, r9
	shr	rdx, cl
	xor	BYTE PTR [rbx+r8], dl

; 68   : 		for ( size_type i = 0; i < size; i++ )

	inc	r8
	cmp	r8, 13
	jb	SHORT $LL55@dynamic

; 150  : 				m_encrypted = false;

	mov	BYTE PTR [rbx+13], 0
$LN15@dynamic:
; File C:\Users\ethan\source\repos\DLL\DLL\Headers\procutils.h

; 33   : 		static const std::string kernel32 = std::string(HIDE("kernel32.dll"));	

	mov	rdx, rbx
	lea	rcx, OFFSET FLAT:?kernel32@freqDLLS@ProcessUtilities@@3V?$basic_string@DU?$char_traits@D@std@@V?$allocator@D@2@@std@@B
	call	??0?$basic_string@DU?$char_traits@D@std@@V?$allocator@D@2@@std@@QEAA@QEBD@Z ; std::basic_string<char,std::char_traits<char>,std::allocator<char> >::basic_string<char,std::char_traits<char>,std::allocator<char> >
	lea	rcx, OFFSET FLAT:??__Fkernel32@freqDLLS@ProcessUtilities@@YAXXZ ; ProcessUtilities::freqDLLS::`dynamic atexit destructor for 'kernel32''
	add	rsp, 32					; 00000020H
	pop	rbx
	jmp	atexit
??__Ekernel32@freqDLLS@ProcessUtilities@@YAXXZ ENDP	; ProcessUtilities::freqDLLS::`dynamic initializer for 'kernel32''
text$di	ENDS
; Function compile flags: /Ogtpy
;	COMDAT text$x
text$x	SEGMENT
?dtor$0@?0???__Ekernel32@freqDLLS@ProcessUtilities@@YAXXZ@4HA PROC ; `ProcessUtilities::freqDLLS::`dynamic initializer for 'kernel32'''::`1'::dtor$0
	push	rbp
	mov	rbp, rdx
	mov	eax, OFFSET FLAT:??__J?1???R<lambda_1>@freqDLLS@ProcessUtilities@@QEBAAEAV?$obfuscated_data@$0N@$0GPFFMNJFHLKDFJAP@D@ay@@XZ@51
	mov	ecx, eax
	mov	eax, DWORD PTR _tls_index
	imul	rax, rax, 8
	mov	r8, QWORD PTR gs:88
	add	r8, rax
	mov	r8, QWORD PTR [r8]
	add	r8, rcx
	mov	r8d, DWORD PTR [r8]
	and	r8d, -2					; fffffffeH
	mov	eax, DWORD PTR _tls_index
	imul	rax, rax, 8
	mov	rdx, QWORD PTR gs:88
	add	rdx, rax
	mov	eax, OFFSET FLAT:??__J?1???R<lambda_1>@freqDLLS@ProcessUtilities@@QEBAAEAV?$obfuscated_data@$0N@$0GPFFMNJFHLKDFJAP@D@ay@@XZ@51
	mov	ecx, eax
	mov	rax, QWORD PTR [rdx]
	add	rax, rcx
	mov	DWORD PTR [rax], r8d
	pop	rbp
	ret	0
?dtor$0@?0???__Ekernel32@freqDLLS@ProcessUtilities@@YAXXZ@4HA ENDP ; `ProcessUtilities::freqDLLS::`dynamic initializer for 'kernel32'''::`1'::dtor$0
text$x	ENDS
; Function compile flags: /Ogtpy
; File C:\Program Files\Microsoft Visual Studio\2022\Community\VC\Tools\MSVC\14.40.33807\include\xstring
; File C:\Program Files\Microsoft Visual Studio\2022\Community\VC\Tools\MSVC\14.40.33807\include\xmemory
; File C:\Program Files\Microsoft Visual Studio\2022\Community\VC\Tools\MSVC\14.40.33807\include\xstring
; File C:\Program Files\Microsoft Visual Studio\2022\Community\VC\Tools\MSVC\14.40.33807\include\xmemory
; File C:\Program Files\Microsoft Visual Studio\2022\Community\VC\Tools\MSVC\14.40.33807\include\xstring
; File C:\Program Files\Microsoft Visual Studio\2022\Community\VC\Tools\MSVC\14.40.33807\include\xmemory
;	COMDAT ??__Fkernel32@freqDLLS@ProcessUtilities@@YAXXZ
text$yd	SEGMENT
??__Fkernel32@freqDLLS@ProcessUtilities@@YAXXZ PROC	; ProcessUtilities::freqDLLS::`dynamic atexit destructor for 'kernel32'', COMDAT
	sub	rsp, 40					; 00000028H
; File C:\Program Files\Microsoft Visual Studio\2022\Community\VC\Tools\MSVC\14.40.33807\include\xstring

; 2244 :         return _Myres > _Small_string_capacity;

	mov	rdx, QWORD PTR ?kernel32@freqDLLS@ProcessUtilities@@3V?$basic_string@DU?$char_traits@D@std@@V?$allocator@D@2@@std@@B+24
	cmp	rdx, 15

; 4868 :         if (_My_data._Large_mode_engaged()) {

	jbe	SHORT $LN20@dynamic
; File C:\Program Files\Microsoft Visual Studio\2022\Community\VC\Tools\MSVC\14.40.33807\include\xmemory

; 950  :         _STD _Deallocate<_New_alignof<_Ty>>(_Ptr, sizeof(_Ty) * _Count);

	mov	rcx, QWORD PTR ?kernel32@freqDLLS@ProcessUtilities@@3V?$basic_string@DU?$char_traits@D@std@@V?$allocator@D@2@@std@@B
; File C:\Program Files\Microsoft Visual Studio\2022\Community\VC\Tools\MSVC\14.40.33807\include\xstring

; 2643 :         _Al.deallocate(_Old_ptr, _Capacity + 1); // +1 for null terminator

	inc	rdx
; File C:\Program Files\Microsoft Visual Studio\2022\Community\VC\Tools\MSVC\14.40.33807\include\xmemory

; 950  :         _STD _Deallocate<_New_alignof<_Ty>>(_Ptr, sizeof(_Ty) * _Count);

	mov	rax, rcx

; 253  :         if (_Bytes >= _Big_allocation_threshold) {

	cmp	rdx, 4096				; 00001000H
	jb	SHORT $LN34@dynamic

; 174  :     const uintptr_t _Ptr_container   = _Ptr_user[-1];

	mov	rcx, QWORD PTR [rcx-8]
	add	rdx, 39					; 00000027H
	sub	rax, rcx

; 188  :     _STL_VERIFY(_Back_shift >= _Min_back_shift && _Back_shift <= _Non_user_size, "invalid argument");

	add	rax, -8
	cmp	rax, 31
	ja	SHORT $LN43@dynamic
$LN34@dynamic:

; 258  :         ::operator delete(_Ptr, _Bytes);

	call	??3@YAXPEAX_K@Z				; operator delete
$LN20@dynamic:
; File C:\Program Files\Microsoft Visual Studio\2022\Community\VC\Tools\MSVC\14.40.33807\include\xstring

; 4875 :         _My_data._Mysize = 0;

	movdqa	xmm0, XMMWORD PTR __xmm@000000000000000f0000000000000000
	movdqa	XMMWORD PTR ?kernel32@freqDLLS@ProcessUtilities@@3V?$basic_string@DU?$char_traits@D@std@@V?$allocator@D@2@@std@@B+16, xmm0

; 4876 :         _My_data._Myres  = _Small_string_capacity;
; 4877 :         // the _Traits::assign is last so the codegen doesn't think the char write can alias this
; 4878 :         _Traits::assign(_My_data._Bx._Buf[0], _Elem());

	mov	BYTE PTR ?kernel32@freqDLLS@ProcessUtilities@@3V?$basic_string@DU?$char_traits@D@std@@V?$allocator@D@2@@std@@B, 0
	add	rsp, 40					; 00000028H
	ret	0
$LN43@dynamic:
; File C:\Program Files\Microsoft Visual Studio\2022\Community\VC\Tools\MSVC\14.40.33807\include\xmemory

; 188  :     _STL_VERIFY(_Back_shift >= _Min_back_shift && _Back_shift <= _Non_user_size, "invalid argument");

	call	_invalid_parameter_noinfo_noreturn
	int	3
$LN41@dynamic:
??__Fkernel32@freqDLLS@ProcessUtilities@@YAXXZ ENDP	; ProcessUtilities::freqDLLS::`dynamic atexit destructor for 'kernel32''
text$yd	ENDS
; Function compile flags: /Ogtpy
; File C:\Users\ethan\source\repos\DLL\DLL\Headers\obfuscate.h
;	COMDAT ??__Fobfuscated_data@?1???R<lambda_1>@freqDLLS@ProcessUtilities@@QEBAAEAV?$obfuscated_data@$0N@$0GPFFMNJFHLKDFJAP@D@ay@@XZ@YAXXZ
text$yd	SEGMENT
??__Fobfuscated_data@?1???R<lambda_1>@freqDLLS@ProcessUtilities@@QEBAAEAV?$obfuscated_data@$0N@$0GPFFMNJFHLKDFJAP@D@ay@@XZ@YAXXZ PROC ; `ProcessUtilities::freqDLLS::<lambda_1>::operator()'::`2'::`dynamic atexit destructor for 'obfuscated_data'', COMDAT
	mov	rax, QWORD PTR gs:88
	mov	ecx, DWORD PTR _tls_index
	mov	edx, OFFSET FLAT:?obfuscated_data@?1???R<lambda_1>@freqDLLS@ProcessUtilities@@QEBAAEAV?$obfuscated_data@$0N@$0GPFFMNJFHLKDFJAP@D@ay@@XZ@4V45@A
	add	rdx, QWORD PTR [rax+rcx*8]

; 130  : 			for ( size_type i = 0; i < N; i++ )

	xor	eax, eax
	mov	QWORD PTR [rdx], rax
	mov	DWORD PTR [rdx+8], eax
	mov	BYTE PTR [rdx+12], al
	ret	0
??__Fobfuscated_data@?1???R<lambda_1>@freqDLLS@ProcessUtilities@@QEBAAEAV?$obfuscated_data@$0N@$0GPFFMNJFHLKDFJAP@D@ay@@XZ@YAXXZ ENDP ; `ProcessUtilities::freqDLLS::<lambda_1>::operator()'::`2'::`dynamic atexit destructor for 'obfuscated_data''
text$yd	ENDS
; Function compile flags: /Ogtpy
; File C:\Users\ethan\source\repos\DLL\DLL\Headers\procutils.h
; File C:\Users\ethan\source\repos\DLL\DLL\Headers\obfuscate.h
; File C:\Users\ethan\source\repos\DLL\DLL\Headers\procutils.h
;	COMDAT ??R<lambda_2>@freqDLLS@ProcessUtilities@@QEBAAEAV?$obfuscated_data@$09$0?BMGONCACNKPGIEIF@D@ay@@XZ
_TEXT	SEGMENT
this$dead$ = 48
??R<lambda_2>@freqDLLS@ProcessUtilities@@QEBAAEAV?$obfuscated_data@$09$0?BMGONCACNKPGIEIF@D@ay@@XZ PROC ; ProcessUtilities::freqDLLS::<lambda_2>::operator(), COMDAT

; 34   : 		static const std::string ntdll    = std::string(HIDE("ntdll.dll"));

	push	rbx
	sub	rsp, 32					; 00000020H
	mov	ecx, DWORD PTR _tls_index
	mov	rax, QWORD PTR gs:88
	mov	rdx, QWORD PTR [rax+rcx*8]
	mov	ecx, OFFSET FLAT:??__J?1???R<lambda_2>@freqDLLS@ProcessUtilities@@QEBAAEAV?$obfuscated_data@$09$0?BMGONCACNKPGIEIF@D@ay@@XZ@51
	mov	eax, DWORD PTR [rcx+rdx]
	mov	r8d, OFFSET FLAT:?obfuscated_data@?1???R<lambda_2>@freqDLLS@ProcessUtilities@@QEBAAEAV?$obfuscated_data@$09$0?BMGONCACNKPGIEIF@D@ay@@XZ@4V45@A
	test	al, 1
	jne	SHORT $LN21@operator
	or	eax, 1
	mov	DWORD PTR [rcx+rdx], eax
	lea	rbx, QWORD PTR [rdx+r8]
; File C:\Users\ethan\source\repos\DLL\DLL\Headers\obfuscate.h

; 123  : 				m_data[i] = obfuscator.data()[i];

	mov	WORD PTR [rbx+9], 379			; 0000017bH
	mov	DWORD PTR [rbx], 1231884053		; 496d0f15H
	mov	DWORD PTR [rbx+4], -1879768175		; 8ff50391H
	mov	BYTE PTR [rbx+8], 23
; File C:\Users\ethan\source\repos\DLL\DLL\Headers\procutils.h

; 34   : 		static const std::string ntdll    = std::string(HIDE("ntdll.dll"));

	lea	rcx, OFFSET FLAT:??__Fobfuscated_data@?1???R<lambda_2>@freqDLLS@ProcessUtilities@@QEBAAEAV?$obfuscated_data@$09$0?BMGONCACNKPGIEIF@D@ay@@XZ@YAXXZ ; `ProcessUtilities::freqDLLS::<lambda_2>::operator()'::`2'::`dynamic atexit destructor for 'obfuscated_data''
	call	__tlregdtor
	npad	1
	mov	rax, rbx
	add	rsp, 32					; 00000020H
	pop	rbx
	ret	0
$LN21@operator:
	lea	rax, QWORD PTR [rdx+r8]
	add	rsp, 32					; 00000020H
	pop	rbx
	ret	0
??R<lambda_2>@freqDLLS@ProcessUtilities@@QEBAAEAV?$obfuscated_data@$09$0?BMGONCACNKPGIEIF@D@ay@@XZ ENDP ; ProcessUtilities::freqDLLS::<lambda_2>::operator()
_TEXT	ENDS
; Function compile flags: /Ogtpy
;	COMDAT text$x
text$x	SEGMENT
this$dead$ = 48
?dtor$0@?0???R<lambda_2>@freqDLLS@ProcessUtilities@@QEBAAEAV?$obfuscated_data@$09$0?BMGONCACNKPGIEIF@D@ay@@XZ@4HA PROC ; `ProcessUtilities::freqDLLS::<lambda_2>::operator()'::`1'::dtor$0
	push	rbp
	mov	rbp, rdx
	mov	eax, OFFSET FLAT:??__J?1???R<lambda_2>@freqDLLS@ProcessUtilities@@QEBAAEAV?$obfuscated_data@$09$0?BMGONCACNKPGIEIF@D@ay@@XZ@51
	mov	ecx, eax
	mov	eax, DWORD PTR _tls_index
	imul	rax, rax, 8
	mov	r8, QWORD PTR gs:88
	add	r8, rax
	mov	r8, QWORD PTR [r8]
	add	r8, rcx
	mov	r8d, DWORD PTR [r8]
	and	r8d, -2					; fffffffeH
	mov	eax, DWORD PTR _tls_index
	imul	rax, rax, 8
	mov	rdx, QWORD PTR gs:88
	add	rdx, rax
	mov	eax, OFFSET FLAT:??__J?1???R<lambda_2>@freqDLLS@ProcessUtilities@@QEBAAEAV?$obfuscated_data@$09$0?BMGONCACNKPGIEIF@D@ay@@XZ@51
	mov	ecx, eax
	mov	rax, QWORD PTR [rdx]
	add	rax, rcx
	mov	DWORD PTR [rax], r8d
	pop	rbp
	ret	0
?dtor$0@?0???R<lambda_2>@freqDLLS@ProcessUtilities@@QEBAAEAV?$obfuscated_data@$09$0?BMGONCACNKPGIEIF@D@ay@@XZ@4HA ENDP ; `ProcessUtilities::freqDLLS::<lambda_2>::operator()'::`1'::dtor$0
text$x	ENDS
; Function compile flags: /Ogtpy
; File C:\Users\ethan\source\repos\DLL\DLL\Headers\procutils.h
; File C:\Users\ethan\source\repos\DLL\DLL\Headers\obfuscate.h
; File C:\Users\ethan\source\repos\DLL\DLL\Headers\procutils.h
; File C:\Users\ethan\source\repos\DLL\DLL\Headers\obfuscate.h
; File C:\Users\ethan\source\repos\DLL\DLL\Headers\procutils.h
;	COMDAT ??__Entdll@freqDLLS@ProcessUtilities@@YAXXZ
text$di	SEGMENT
??__Entdll@freqDLLS@ProcessUtilities@@YAXXZ PROC	; ProcessUtilities::freqDLLS::`dynamic initializer for 'ntdll'', COMDAT

; 34   : 		static const std::string ntdll    = std::string(HIDE("ntdll.dll"));

	push	rbx
	sub	rsp, 32					; 00000020H
	mov	ecx, DWORD PTR _tls_index
	mov	rax, QWORD PTR gs:88
	mov	rdx, QWORD PTR [rax+rcx*8]
	mov	ecx, OFFSET FLAT:??__J?1???R<lambda_2>@freqDLLS@ProcessUtilities@@QEBAAEAV?$obfuscated_data@$09$0?BMGONCACNKPGIEIF@D@ay@@XZ@51
	mov	eax, DWORD PTR [rcx+rdx]
	mov	ebx, OFFSET FLAT:?obfuscated_data@?1???R<lambda_2>@freqDLLS@ProcessUtilities@@QEBAAEAV?$obfuscated_data@$09$0?BMGONCACNKPGIEIF@D@ay@@XZ@4V45@A
	add	rbx, rdx
	test	al, 1
	jne	SHORT $LN42@dynamic
	or	eax, 1
	mov	DWORD PTR [rcx+rdx], eax
; File C:\Users\ethan\source\repos\DLL\DLL\Headers\obfuscate.h

; 123  : 				m_data[i] = obfuscator.data()[i];

	mov	WORD PTR [rbx+9], 379			; 0000017bH
	mov	DWORD PTR [rbx], 1231884053		; 496d0f15H
	mov	DWORD PTR [rbx+4], -1879768175		; 8ff50391H
	mov	BYTE PTR [rbx+8], 23
; File C:\Users\ethan\source\repos\DLL\DLL\Headers\procutils.h

; 34   : 		static const std::string ntdll    = std::string(HIDE("ntdll.dll"));

	lea	rcx, OFFSET FLAT:??__Fobfuscated_data@?1???R<lambda_2>@freqDLLS@ProcessUtilities@@QEBAAEAV?$obfuscated_data@$09$0?BMGONCACNKPGIEIF@D@ay@@XZ@YAXXZ ; `ProcessUtilities::freqDLLS::<lambda_2>::operator()'::`2'::`dynamic atexit destructor for 'obfuscated_data''
	call	__tlregdtor
	npad	1
$LN42@dynamic:
; File C:\Users\ethan\source\repos\DLL\DLL\Headers\obfuscate.h

; 147  : 			if ( m_encrypted )

	cmp	BYTE PTR [rbx+10], 0
	je	$LN15@dynamic

; 148  : 			{
; 149  : 				cipher(m_data, N, KEY);

	xor	r8d, r8d
	cmp	DWORD PTR __isa_available, 5
	jl	$LN51@dynamic

; 70   : 			data[i] ^= CHAR_TYPE(( key >> ( ( i % 8 ) * 8 ) ) & 0xFF);

	movdqa	xmm3, XMMWORD PTR __xmm@e3912dfd25097b7be3912dfd25097b7b
	movdqa	xmm0, XMMWORD PTR __xmm@00000000000000010000000000000000
	psllq	xmm0, 3
	vpsrlvq	xmm1, xmm3, xmm0
	movdqa	xmm2, XMMWORD PTR __xmm@00000000000008000000000000000800
	pshufb	xmm1, xmm2
	movzx	eax, WORD PTR [rbx]
	movd	xmm0, eax
	xorps	xmm1, xmm0
	movd	eax, xmm1
	mov	WORD PTR [rbx], ax
	movdqa	xmm0, XMMWORD PTR __xmm@00000000000000030000000000000002
	psllq	xmm0, 3
	vpsrlvq	xmm1, xmm3, xmm0
	pshufb	xmm1, xmm2
	movzx	eax, WORD PTR [rbx+2]
	movd	xmm0, eax
	xorps	xmm1, xmm0
	movd	eax, xmm1
	mov	WORD PTR [rbx+2], ax
	movdqa	xmm0, XMMWORD PTR __xmm@00000000000000050000000000000004
	psllq	xmm0, 3
	vpsrlvq	xmm1, xmm3, xmm0
	pshufb	xmm1, xmm2
	movzx	eax, WORD PTR [rbx+4]
	movd	xmm0, eax
	xorps	xmm1, xmm0
	movd	eax, xmm1
	mov	WORD PTR [rbx+4], ax
	movdqa	xmm0, XMMWORD PTR __xmm@00000000000000070000000000000006
	psllq	xmm0, 3
	vpsrlvq	xmm1, xmm3, xmm0
	pshufb	xmm1, xmm2
	movzx	eax, WORD PTR [rbx+6]
	movd	xmm0, eax
	xorps	xmm1, xmm0
	movd	eax, xmm1
	mov	WORD PTR [rbx+6], ax

; 68   : 		for ( size_type i = 0; i < size; i++ )

	mov	r8d, 8
$LN51@dynamic:
	mov	r9, -2048805790205510789		; e3912dfd25097b7bH
	npad	9
$LL50@dynamic:

; 69   : 		{
; 70   : 			data[i] ^= CHAR_TYPE(( key >> ( ( i % 8 ) * 8 ) ) & 0xFF);

	movzx	ecx, r8b
	and	cl, 7
	shl	cl, 3
	mov	rdx, r9
	shr	rdx, cl
	xor	BYTE PTR [rbx+r8], dl

; 68   : 		for ( size_type i = 0; i < size; i++ )

	inc	r8
	cmp	r8, 10
	jb	SHORT $LL50@dynamic

; 150  : 				m_encrypted = false;

	mov	BYTE PTR [rbx+10], 0
$LN15@dynamic:
; File C:\Users\ethan\source\repos\DLL\DLL\Headers\procutils.h

; 34   : 		static const std::string ntdll    = std::string(HIDE("ntdll.dll"));

	mov	rdx, rbx
	lea	rcx, OFFSET FLAT:?ntdll@freqDLLS@ProcessUtilities@@3V?$basic_string@DU?$char_traits@D@std@@V?$allocator@D@2@@std@@B
	call	??0?$basic_string@DU?$char_traits@D@std@@V?$allocator@D@2@@std@@QEAA@QEBD@Z ; std::basic_string<char,std::char_traits<char>,std::allocator<char> >::basic_string<char,std::char_traits<char>,std::allocator<char> >
	lea	rcx, OFFSET FLAT:??__Fntdll@freqDLLS@ProcessUtilities@@YAXXZ ; ProcessUtilities::freqDLLS::`dynamic atexit destructor for 'ntdll''
	add	rsp, 32					; 00000020H
	pop	rbx
	jmp	atexit
??__Entdll@freqDLLS@ProcessUtilities@@YAXXZ ENDP	; ProcessUtilities::freqDLLS::`dynamic initializer for 'ntdll''
text$di	ENDS
; Function compile flags: /Ogtpy
;	COMDAT text$x
text$x	SEGMENT
?dtor$0@?0???__Entdll@freqDLLS@ProcessUtilities@@YAXXZ@4HA PROC ; `ProcessUtilities::freqDLLS::`dynamic initializer for 'ntdll'''::`1'::dtor$0
	push	rbp
	mov	rbp, rdx
	mov	eax, OFFSET FLAT:??__J?1???R<lambda_2>@freqDLLS@ProcessUtilities@@QEBAAEAV?$obfuscated_data@$09$0?BMGONCACNKPGIEIF@D@ay@@XZ@51
	mov	ecx, eax
	mov	eax, DWORD PTR _tls_index
	imul	rax, rax, 8
	mov	r8, QWORD PTR gs:88
	add	r8, rax
	mov	r8, QWORD PTR [r8]
	add	r8, rcx
	mov	r8d, DWORD PTR [r8]
	and	r8d, -2					; fffffffeH
	mov	eax, DWORD PTR _tls_index
	imul	rax, rax, 8
	mov	rdx, QWORD PTR gs:88
	add	rdx, rax
	mov	eax, OFFSET FLAT:??__J?1???R<lambda_2>@freqDLLS@ProcessUtilities@@QEBAAEAV?$obfuscated_data@$09$0?BMGONCACNKPGIEIF@D@ay@@XZ@51
	mov	ecx, eax
	mov	rax, QWORD PTR [rdx]
	add	rax, rcx
	mov	DWORD PTR [rax], r8d
	pop	rbp
	ret	0
?dtor$0@?0???__Entdll@freqDLLS@ProcessUtilities@@YAXXZ@4HA ENDP ; `ProcessUtilities::freqDLLS::`dynamic initializer for 'ntdll'''::`1'::dtor$0
text$x	ENDS
; Function compile flags: /Ogtpy
; File C:\Program Files\Microsoft Visual Studio\2022\Community\VC\Tools\MSVC\14.40.33807\include\xstring
; File C:\Program Files\Microsoft Visual Studio\2022\Community\VC\Tools\MSVC\14.40.33807\include\xmemory
; File C:\Program Files\Microsoft Visual Studio\2022\Community\VC\Tools\MSVC\14.40.33807\include\xstring
; File C:\Program Files\Microsoft Visual Studio\2022\Community\VC\Tools\MSVC\14.40.33807\include\xmemory
; File C:\Program Files\Microsoft Visual Studio\2022\Community\VC\Tools\MSVC\14.40.33807\include\xstring
; File C:\Program Files\Microsoft Visual Studio\2022\Community\VC\Tools\MSVC\14.40.33807\include\xmemory
;	COMDAT ??__Fntdll@freqDLLS@ProcessUtilities@@YAXXZ
text$yd	SEGMENT
??__Fntdll@freqDLLS@ProcessUtilities@@YAXXZ PROC	; ProcessUtilities::freqDLLS::`dynamic atexit destructor for 'ntdll'', COMDAT
	sub	rsp, 40					; 00000028H
; File C:\Program Files\Microsoft Visual Studio\2022\Community\VC\Tools\MSVC\14.40.33807\include\xstring

; 2244 :         return _Myres > _Small_string_capacity;

	mov	rdx, QWORD PTR ?ntdll@freqDLLS@ProcessUtilities@@3V?$basic_string@DU?$char_traits@D@std@@V?$allocator@D@2@@std@@B+24
	cmp	rdx, 15

; 4868 :         if (_My_data._Large_mode_engaged()) {

	jbe	SHORT $LN20@dynamic
; File C:\Program Files\Microsoft Visual Studio\2022\Community\VC\Tools\MSVC\14.40.33807\include\xmemory

; 950  :         _STD _Deallocate<_New_alignof<_Ty>>(_Ptr, sizeof(_Ty) * _Count);

	mov	rcx, QWORD PTR ?ntdll@freqDLLS@ProcessUtilities@@3V?$basic_string@DU?$char_traits@D@std@@V?$allocator@D@2@@std@@B
; File C:\Program Files\Microsoft Visual Studio\2022\Community\VC\Tools\MSVC\14.40.33807\include\xstring

; 2643 :         _Al.deallocate(_Old_ptr, _Capacity + 1); // +1 for null terminator

	inc	rdx
; File C:\Program Files\Microsoft Visual Studio\2022\Community\VC\Tools\MSVC\14.40.33807\include\xmemory

; 950  :         _STD _Deallocate<_New_alignof<_Ty>>(_Ptr, sizeof(_Ty) * _Count);

	mov	rax, rcx

; 253  :         if (_Bytes >= _Big_allocation_threshold) {

	cmp	rdx, 4096				; 00001000H
	jb	SHORT $LN34@dynamic

; 174  :     const uintptr_t _Ptr_container   = _Ptr_user[-1];

	mov	rcx, QWORD PTR [rcx-8]
	add	rdx, 39					; 00000027H
	sub	rax, rcx

; 188  :     _STL_VERIFY(_Back_shift >= _Min_back_shift && _Back_shift <= _Non_user_size, "invalid argument");

	add	rax, -8
	cmp	rax, 31
	ja	SHORT $LN43@dynamic
$LN34@dynamic:

; 258  :         ::operator delete(_Ptr, _Bytes);

	call	??3@YAXPEAX_K@Z				; operator delete
$LN20@dynamic:
; File C:\Program Files\Microsoft Visual Studio\2022\Community\VC\Tools\MSVC\14.40.33807\include\xstring

; 4875 :         _My_data._Mysize = 0;

	movdqa	xmm0, XMMWORD PTR __xmm@000000000000000f0000000000000000
	movdqa	XMMWORD PTR ?ntdll@freqDLLS@ProcessUtilities@@3V?$basic_string@DU?$char_traits@D@std@@V?$allocator@D@2@@std@@B+16, xmm0

; 4876 :         _My_data._Myres  = _Small_string_capacity;
; 4877 :         // the _Traits::assign is last so the codegen doesn't think the char write can alias this
; 4878 :         _Traits::assign(_My_data._Bx._Buf[0], _Elem());

	mov	BYTE PTR ?ntdll@freqDLLS@ProcessUtilities@@3V?$basic_string@DU?$char_traits@D@std@@V?$allocator@D@2@@std@@B, 0
	add	rsp, 40					; 00000028H
	ret	0
$LN43@dynamic:
; File C:\Program Files\Microsoft Visual Studio\2022\Community\VC\Tools\MSVC\14.40.33807\include\xmemory

; 188  :     _STL_VERIFY(_Back_shift >= _Min_back_shift && _Back_shift <= _Non_user_size, "invalid argument");

	call	_invalid_parameter_noinfo_noreturn
	int	3
$LN41@dynamic:
??__Fntdll@freqDLLS@ProcessUtilities@@YAXXZ ENDP	; ProcessUtilities::freqDLLS::`dynamic atexit destructor for 'ntdll''
text$yd	ENDS
; Function compile flags: /Ogtpy
; File C:\Users\ethan\source\repos\DLL\DLL\Headers\obfuscate.h
;	COMDAT ??__Fobfuscated_data@?1???R<lambda_2>@freqDLLS@ProcessUtilities@@QEBAAEAV?$obfuscated_data@$09$0?BMGONCACNKPGIEIF@D@ay@@XZ@YAXXZ
text$yd	SEGMENT
??__Fobfuscated_data@?1???R<lambda_2>@freqDLLS@ProcessUtilities@@QEBAAEAV?$obfuscated_data@$09$0?BMGONCACNKPGIEIF@D@ay@@XZ@YAXXZ PROC ; `ProcessUtilities::freqDLLS::<lambda_2>::operator()'::`2'::`dynamic atexit destructor for 'obfuscated_data'', COMDAT
	mov	ecx, DWORD PTR _tls_index
	mov	rax, QWORD PTR gs:88
	mov	edx, OFFSET FLAT:?obfuscated_data@?1???R<lambda_2>@freqDLLS@ProcessUtilities@@QEBAAEAV?$obfuscated_data@$09$0?BMGONCACNKPGIEIF@D@ay@@XZ@4V45@A
	mov	rax, QWORD PTR [rax+rcx*8]

; 132  : 				m_data[i] = 0;

	mov	QWORD PTR [rax+rdx], 0
	mov	WORD PTR [rax+rdx+8], 0
	ret	0
??__Fobfuscated_data@?1???R<lambda_2>@freqDLLS@ProcessUtilities@@QEBAAEAV?$obfuscated_data@$09$0?BMGONCACNKPGIEIF@D@ay@@XZ@YAXXZ ENDP ; `ProcessUtilities::freqDLLS::<lambda_2>::operator()'::`2'::`dynamic atexit destructor for 'obfuscated_data''
text$yd	ENDS
; Function compile flags: /Ogtpy
; File C:\Users\ethan\source\repos\DLL\DLL\Headers\procutils.h
; File C:\Users\ethan\source\repos\DLL\DLL\Headers\obfuscate.h
; File C:\Users\ethan\source\repos\DLL\DLL\Headers\procutils.h
;	COMDAT ??R<lambda_3>@freqDLLS@ProcessUtilities@@QEBAAEAV?$obfuscated_data@$0N@$0FHPLCBONHLGFABKJ@D@ay@@XZ
_TEXT	SEGMENT
this$dead$ = 48
??R<lambda_3>@freqDLLS@ProcessUtilities@@QEBAAEAV?$obfuscated_data@$0N@$0FHPLCBONHLGFABKJ@D@ay@@XZ PROC ; ProcessUtilities::freqDLLS::<lambda_3>::operator(), COMDAT

; 35   : 		static const std::string advapi32 = std::string(HIDE("advapi32.dll"));

	push	rbx
	sub	rsp, 32					; 00000020H
	mov	ecx, DWORD PTR _tls_index
	mov	rax, QWORD PTR gs:88
	mov	rdx, QWORD PTR [rax+rcx*8]
	mov	ecx, OFFSET FLAT:??__J?1???R<lambda_3>@freqDLLS@ProcessUtilities@@QEBAAEAV?$obfuscated_data@$0N@$0FHPLCBONHLGFABKJ@D@ay@@XZ@51
	mov	eax, DWORD PTR [rcx+rdx]
	mov	r8d, OFFSET FLAT:?obfuscated_data@?1???R<lambda_3>@freqDLLS@ProcessUtilities@@QEBAAEAV?$obfuscated_data@$0N@$0FHPLCBONHLGFABKJ@D@ay@@XZ@4V45@A
	test	al, 1
	jne	SHORT $LN26@operator
	or	eax, 1
	mov	DWORD PTR [rcx+rdx], eax
	lea	rbx, QWORD PTR [rdx+r8]
; File C:\Users\ethan\source\repos\DLL\DLL\Headers\obfuscate.h

; 123  : 				m_data[i] = obfuscator.data()[i];

	mov	DWORD PTR [rbx+10], 32315145		; 01ed1709H
	mov	DWORD PTR [rbx], 437478856		; 1a1365c8H
	mov	DWORD PTR [rbx+4], 1707624605		; 65c8489dH
	mov	WORD PTR [rbx+8], 25991			; 00006587H
; File C:\Users\ethan\source\repos\DLL\DLL\Headers\procutils.h

; 35   : 		static const std::string advapi32 = std::string(HIDE("advapi32.dll"));

	lea	rcx, OFFSET FLAT:??__Fobfuscated_data@?1???R<lambda_3>@freqDLLS@ProcessUtilities@@QEBAAEAV?$obfuscated_data@$0N@$0FHPLCBONHLGFABKJ@D@ay@@XZ@YAXXZ ; `ProcessUtilities::freqDLLS::<lambda_3>::operator()'::`2'::`dynamic atexit destructor for 'obfuscated_data''
	call	__tlregdtor
	npad	1
	mov	rax, rbx
	add	rsp, 32					; 00000020H
	pop	rbx
	ret	0
$LN26@operator:
	lea	rax, QWORD PTR [rdx+r8]
	add	rsp, 32					; 00000020H
	pop	rbx
	ret	0
??R<lambda_3>@freqDLLS@ProcessUtilities@@QEBAAEAV?$obfuscated_data@$0N@$0FHPLCBONHLGFABKJ@D@ay@@XZ ENDP ; ProcessUtilities::freqDLLS::<lambda_3>::operator()
_TEXT	ENDS
; Function compile flags: /Ogtpy
;	COMDAT text$x
text$x	SEGMENT
this$dead$ = 48
?dtor$0@?0???R<lambda_3>@freqDLLS@ProcessUtilities@@QEBAAEAV?$obfuscated_data@$0N@$0FHPLCBONHLGFABKJ@D@ay@@XZ@4HA PROC ; `ProcessUtilities::freqDLLS::<lambda_3>::operator()'::`1'::dtor$0
	push	rbp
	mov	rbp, rdx
	mov	eax, OFFSET FLAT:??__J?1???R<lambda_3>@freqDLLS@ProcessUtilities@@QEBAAEAV?$obfuscated_data@$0N@$0FHPLCBONHLGFABKJ@D@ay@@XZ@51
	mov	ecx, eax
	mov	eax, DWORD PTR _tls_index
	imul	rax, rax, 8
	mov	r8, QWORD PTR gs:88
	add	r8, rax
	mov	r8, QWORD PTR [r8]
	add	r8, rcx
	mov	r8d, DWORD PTR [r8]
	and	r8d, -2					; fffffffeH
	mov	eax, DWORD PTR _tls_index
	imul	rax, rax, 8
	mov	rdx, QWORD PTR gs:88
	add	rdx, rax
	mov	eax, OFFSET FLAT:??__J?1???R<lambda_3>@freqDLLS@ProcessUtilities@@QEBAAEAV?$obfuscated_data@$0N@$0FHPLCBONHLGFABKJ@D@ay@@XZ@51
	mov	ecx, eax
	mov	rax, QWORD PTR [rdx]
	add	rax, rcx
	mov	DWORD PTR [rax], r8d
	pop	rbp
	ret	0
?dtor$0@?0???R<lambda_3>@freqDLLS@ProcessUtilities@@QEBAAEAV?$obfuscated_data@$0N@$0FHPLCBONHLGFABKJ@D@ay@@XZ@4HA ENDP ; `ProcessUtilities::freqDLLS::<lambda_3>::operator()'::`1'::dtor$0
text$x	ENDS
; Function compile flags: /Ogtpy
; File C:\Users\ethan\source\repos\DLL\DLL\Headers\procutils.h
; File C:\Users\ethan\source\repos\DLL\DLL\Headers\obfuscate.h
; File C:\Users\ethan\source\repos\DLL\DLL\Headers\procutils.h
; File C:\Users\ethan\source\repos\DLL\DLL\Headers\obfuscate.h
; File C:\Users\ethan\source\repos\DLL\DLL\Headers\procutils.h
;	COMDAT ??__Eadvapi32@freqDLLS@ProcessUtilities@@YAXXZ
text$di	SEGMENT
??__Eadvapi32@freqDLLS@ProcessUtilities@@YAXXZ PROC	; ProcessUtilities::freqDLLS::`dynamic initializer for 'advapi32'', COMDAT

; 35   : 		static const std::string advapi32 = std::string(HIDE("advapi32.dll"));

	push	rbx
	sub	rsp, 32					; 00000020H
	mov	ecx, DWORD PTR _tls_index
	mov	rax, QWORD PTR gs:88
	mov	rdx, QWORD PTR [rax+rcx*8]
	mov	ecx, OFFSET FLAT:??__J?1???R<lambda_3>@freqDLLS@ProcessUtilities@@QEBAAEAV?$obfuscated_data@$0N@$0FHPLCBONHLGFABKJ@D@ay@@XZ@51
	mov	eax, DWORD PTR [rcx+rdx]
	mov	ebx, OFFSET FLAT:?obfuscated_data@?1???R<lambda_3>@freqDLLS@ProcessUtilities@@QEBAAEAV?$obfuscated_data@$0N@$0FHPLCBONHLGFABKJ@D@ay@@XZ@4V45@A
	add	rbx, rdx
	test	al, 1
	jne	SHORT $LN47@dynamic
	or	eax, 1
	mov	DWORD PTR [rcx+rdx], eax
; File C:\Users\ethan\source\repos\DLL\DLL\Headers\obfuscate.h

; 123  : 				m_data[i] = obfuscator.data()[i];

	mov	DWORD PTR [rbx+10], 32315145		; 01ed1709H
	mov	DWORD PTR [rbx], 437478856		; 1a1365c8H
	mov	DWORD PTR [rbx+4], 1707624605		; 65c8489dH
	mov	WORD PTR [rbx+8], 25991			; 00006587H
; File C:\Users\ethan\source\repos\DLL\DLL\Headers\procutils.h

; 35   : 		static const std::string advapi32 = std::string(HIDE("advapi32.dll"));

	lea	rcx, OFFSET FLAT:??__Fobfuscated_data@?1???R<lambda_3>@freqDLLS@ProcessUtilities@@QEBAAEAV?$obfuscated_data@$0N@$0FHPLCBONHLGFABKJ@D@ay@@XZ@YAXXZ ; `ProcessUtilities::freqDLLS::<lambda_3>::operator()'::`2'::`dynamic atexit destructor for 'obfuscated_data''
	call	__tlregdtor
	npad	1
$LN47@dynamic:
; File C:\Users\ethan\source\repos\DLL\DLL\Headers\obfuscate.h

; 147  : 			if ( m_encrypted )

	cmp	BYTE PTR [rbx+13], 0
	je	$LN15@dynamic

; 148  : 			{
; 149  : 				cipher(m_data, N, KEY);

	xor	r8d, r8d
	cmp	DWORD PTR __isa_available, 5
	jl	$LN56@dynamic

; 70   : 			data[i] ^= CHAR_TYPE(( key >> ( ( i % 8 ) * 8 ) ) & 0xFF);

	movdqa	xmm3, XMMWORD PTR __xmm@57fb21ed7b6501a957fb21ed7b6501a9
	movdqa	xmm0, XMMWORD PTR __xmm@00000000000000010000000000000000
	psllq	xmm0, 3
	vpsrlvq	xmm1, xmm3, xmm0
	movdqa	xmm2, XMMWORD PTR __xmm@00000000000008000000000000000800
	pshufb	xmm1, xmm2
	movzx	eax, WORD PTR [rbx]
	movd	xmm0, eax
	xorps	xmm1, xmm0
	movd	eax, xmm1
	mov	WORD PTR [rbx], ax
	movdqa	xmm0, XMMWORD PTR __xmm@00000000000000030000000000000002
	psllq	xmm0, 3
	vpsrlvq	xmm1, xmm3, xmm0
	pshufb	xmm1, xmm2
	movzx	eax, WORD PTR [rbx+2]
	movd	xmm0, eax
	xorps	xmm1, xmm0
	movd	eax, xmm1
	mov	WORD PTR [rbx+2], ax
	movdqa	xmm0, XMMWORD PTR __xmm@00000000000000050000000000000004
	psllq	xmm0, 3
	vpsrlvq	xmm1, xmm3, xmm0
	pshufb	xmm1, xmm2
	movzx	eax, WORD PTR [rbx+4]
	movd	xmm0, eax
	xorps	xmm1, xmm0
	movd	eax, xmm1
	mov	WORD PTR [rbx+4], ax
	movdqa	xmm0, XMMWORD PTR __xmm@00000000000000070000000000000006
	psllq	xmm0, 3
	vpsrlvq	xmm1, xmm3, xmm0
	pshufb	xmm1, xmm2
	movzx	eax, WORD PTR [rbx+6]
	movd	xmm0, eax
	xorps	xmm1, xmm0
	movd	eax, xmm1
	mov	WORD PTR [rbx+6], ax

; 68   : 		for ( size_type i = 0; i < size; i++ )

	mov	r8d, 8
$LN56@dynamic:
	mov	r9, 6339698204315287977			; 57fb21ed7b6501a9H
	npad	6
$LL55@dynamic:

; 69   : 		{
; 70   : 			data[i] ^= CHAR_TYPE(( key >> ( ( i % 8 ) * 8 ) ) & 0xFF);

	movzx	ecx, r8b
	and	cl, 7
	shl	cl, 3
	mov	rdx, r9
	shr	rdx, cl
	xor	BYTE PTR [rbx+r8], dl

; 68   : 		for ( size_type i = 0; i < size; i++ )

	inc	r8
	cmp	r8, 13
	jb	SHORT $LL55@dynamic

; 150  : 				m_encrypted = false;

	mov	BYTE PTR [rbx+13], 0
$LN15@dynamic:
; File C:\Users\ethan\source\repos\DLL\DLL\Headers\procutils.h

; 35   : 		static const std::string advapi32 = std::string(HIDE("advapi32.dll"));

	mov	rdx, rbx
	lea	rcx, OFFSET FLAT:?advapi32@freqDLLS@ProcessUtilities@@3V?$basic_string@DU?$char_traits@D@std@@V?$allocator@D@2@@std@@B
	call	??0?$basic_string@DU?$char_traits@D@std@@V?$allocator@D@2@@std@@QEAA@QEBD@Z ; std::basic_string<char,std::char_traits<char>,std::allocator<char> >::basic_string<char,std::char_traits<char>,std::allocator<char> >
	lea	rcx, OFFSET FLAT:??__Fadvapi32@freqDLLS@ProcessUtilities@@YAXXZ ; ProcessUtilities::freqDLLS::`dynamic atexit destructor for 'advapi32''
	add	rsp, 32					; 00000020H
	pop	rbx
	jmp	atexit
??__Eadvapi32@freqDLLS@ProcessUtilities@@YAXXZ ENDP	; ProcessUtilities::freqDLLS::`dynamic initializer for 'advapi32''
text$di	ENDS
; Function compile flags: /Ogtpy
;	COMDAT text$x
text$x	SEGMENT
?dtor$0@?0???__Eadvapi32@freqDLLS@ProcessUtilities@@YAXXZ@4HA PROC ; `ProcessUtilities::freqDLLS::`dynamic initializer for 'advapi32'''::`1'::dtor$0
	push	rbp
	mov	rbp, rdx
	mov	eax, OFFSET FLAT:??__J?1???R<lambda_3>@freqDLLS@ProcessUtilities@@QEBAAEAV?$obfuscated_data@$0N@$0FHPLCBONHLGFABKJ@D@ay@@XZ@51
	mov	ecx, eax
	mov	eax, DWORD PTR _tls_index
	imul	rax, rax, 8
	mov	r8, QWORD PTR gs:88
	add	r8, rax
	mov	r8, QWORD PTR [r8]
	add	r8, rcx
	mov	r8d, DWORD PTR [r8]
	and	r8d, -2					; fffffffeH
	mov	eax, DWORD PTR _tls_index
	imul	rax, rax, 8
	mov	rdx, QWORD PTR gs:88
	add	rdx, rax
	mov	eax, OFFSET FLAT:??__J?1???R<lambda_3>@freqDLLS@ProcessUtilities@@QEBAAEAV?$obfuscated_data@$0N@$0FHPLCBONHLGFABKJ@D@ay@@XZ@51
	mov	ecx, eax
	mov	rax, QWORD PTR [rdx]
	add	rax, rcx
	mov	DWORD PTR [rax], r8d
	pop	rbp
	ret	0
?dtor$0@?0???__Eadvapi32@freqDLLS@ProcessUtilities@@YAXXZ@4HA ENDP ; `ProcessUtilities::freqDLLS::`dynamic initializer for 'advapi32'''::`1'::dtor$0
text$x	ENDS
; Function compile flags: /Ogtpy
; File C:\Program Files\Microsoft Visual Studio\2022\Community\VC\Tools\MSVC\14.40.33807\include\xstring
; File C:\Program Files\Microsoft Visual Studio\2022\Community\VC\Tools\MSVC\14.40.33807\include\xmemory
; File C:\Program Files\Microsoft Visual Studio\2022\Community\VC\Tools\MSVC\14.40.33807\include\xstring
; File C:\Program Files\Microsoft Visual Studio\2022\Community\VC\Tools\MSVC\14.40.33807\include\xmemory
; File C:\Program Files\Microsoft Visual Studio\2022\Community\VC\Tools\MSVC\14.40.33807\include\xstring
; File C:\Program Files\Microsoft Visual Studio\2022\Community\VC\Tools\MSVC\14.40.33807\include\xmemory
;	COMDAT ??__Fadvapi32@freqDLLS@ProcessUtilities@@YAXXZ
text$yd	SEGMENT
??__Fadvapi32@freqDLLS@ProcessUtilities@@YAXXZ PROC	; ProcessUtilities::freqDLLS::`dynamic atexit destructor for 'advapi32'', COMDAT
	sub	rsp, 40					; 00000028H
; File C:\Program Files\Microsoft Visual Studio\2022\Community\VC\Tools\MSVC\14.40.33807\include\xstring

; 2244 :         return _Myres > _Small_string_capacity;

	mov	rdx, QWORD PTR ?advapi32@freqDLLS@ProcessUtilities@@3V?$basic_string@DU?$char_traits@D@std@@V?$allocator@D@2@@std@@B+24
	cmp	rdx, 15

; 4868 :         if (_My_data._Large_mode_engaged()) {

	jbe	SHORT $LN20@dynamic
; File C:\Program Files\Microsoft Visual Studio\2022\Community\VC\Tools\MSVC\14.40.33807\include\xmemory

; 950  :         _STD _Deallocate<_New_alignof<_Ty>>(_Ptr, sizeof(_Ty) * _Count);

	mov	rcx, QWORD PTR ?advapi32@freqDLLS@ProcessUtilities@@3V?$basic_string@DU?$char_traits@D@std@@V?$allocator@D@2@@std@@B
; File C:\Program Files\Microsoft Visual Studio\2022\Community\VC\Tools\MSVC\14.40.33807\include\xstring

; 2643 :         _Al.deallocate(_Old_ptr, _Capacity + 1); // +1 for null terminator

	inc	rdx
; File C:\Program Files\Microsoft Visual Studio\2022\Community\VC\Tools\MSVC\14.40.33807\include\xmemory

; 950  :         _STD _Deallocate<_New_alignof<_Ty>>(_Ptr, sizeof(_Ty) * _Count);

	mov	rax, rcx

; 253  :         if (_Bytes >= _Big_allocation_threshold) {

	cmp	rdx, 4096				; 00001000H
	jb	SHORT $LN34@dynamic

; 174  :     const uintptr_t _Ptr_container   = _Ptr_user[-1];

	mov	rcx, QWORD PTR [rcx-8]
	add	rdx, 39					; 00000027H
	sub	rax, rcx

; 188  :     _STL_VERIFY(_Back_shift >= _Min_back_shift && _Back_shift <= _Non_user_size, "invalid argument");

	add	rax, -8
	cmp	rax, 31
	ja	SHORT $LN43@dynamic
$LN34@dynamic:

; 258  :         ::operator delete(_Ptr, _Bytes);

	call	??3@YAXPEAX_K@Z				; operator delete
$LN20@dynamic:
; File C:\Program Files\Microsoft Visual Studio\2022\Community\VC\Tools\MSVC\14.40.33807\include\xstring

; 4875 :         _My_data._Mysize = 0;

	movdqa	xmm0, XMMWORD PTR __xmm@000000000000000f0000000000000000
	movdqa	XMMWORD PTR ?advapi32@freqDLLS@ProcessUtilities@@3V?$basic_string@DU?$char_traits@D@std@@V?$allocator@D@2@@std@@B+16, xmm0

; 4876 :         _My_data._Myres  = _Small_string_capacity;
; 4877 :         // the _Traits::assign is last so the codegen doesn't think the char write can alias this
; 4878 :         _Traits::assign(_My_data._Bx._Buf[0], _Elem());

	mov	BYTE PTR ?advapi32@freqDLLS@ProcessUtilities@@3V?$basic_string@DU?$char_traits@D@std@@V?$allocator@D@2@@std@@B, 0
	add	rsp, 40					; 00000028H
	ret	0
$LN43@dynamic:
; File C:\Program Files\Microsoft Visual Studio\2022\Community\VC\Tools\MSVC\14.40.33807\include\xmemory

; 188  :     _STL_VERIFY(_Back_shift >= _Min_back_shift && _Back_shift <= _Non_user_size, "invalid argument");

	call	_invalid_parameter_noinfo_noreturn
	int	3
$LN41@dynamic:
??__Fadvapi32@freqDLLS@ProcessUtilities@@YAXXZ ENDP	; ProcessUtilities::freqDLLS::`dynamic atexit destructor for 'advapi32''
text$yd	ENDS
; Function compile flags: /Ogtpy
; File C:\Users\ethan\source\repos\DLL\DLL\Headers\obfuscate.h
;	COMDAT ??__Fobfuscated_data@?1???R<lambda_3>@freqDLLS@ProcessUtilities@@QEBAAEAV?$obfuscated_data@$0N@$0FHPLCBONHLGFABKJ@D@ay@@XZ@YAXXZ
text$yd	SEGMENT
??__Fobfuscated_data@?1???R<lambda_3>@freqDLLS@ProcessUtilities@@QEBAAEAV?$obfuscated_data@$0N@$0FHPLCBONHLGFABKJ@D@ay@@XZ@YAXXZ PROC ; `ProcessUtilities::freqDLLS::<lambda_3>::operator()'::`2'::`dynamic atexit destructor for 'obfuscated_data'', COMDAT
	mov	rax, QWORD PTR gs:88
	mov	ecx, DWORD PTR _tls_index
	mov	edx, OFFSET FLAT:?obfuscated_data@?1???R<lambda_3>@freqDLLS@ProcessUtilities@@QEBAAEAV?$obfuscated_data@$0N@$0FHPLCBONHLGFABKJ@D@ay@@XZ@4V45@A
	add	rdx, QWORD PTR [rax+rcx*8]

