; Listing generated by Microsoft (R) Optimizing Compiler Version 19.40.33811.0 

include listing.inc

INCLUDELIB OLDNAMES

PUBLIC	??_C@_0BA@FOIKENOD@vector?5too?5long@		; `string'
PUBLIC	?BindSocket@@3P6AH_KPEBUsockaddr@@H@ZEA		; BindSocket
PUBLIC	?SocketListen@@3P6AH_KH@ZEA			; SocketListen
PUBLIC	?CleanWSA@@3P6AHXZEA				; CleanWSA
PUBLIC	?StartWSA@@3P6AHGPEAUWSAData@@@ZEA		; StartWSA
PUBLIC	?CreateSocket@@3P6A_KHHH@ZEA			; CreateSocket
PUBLIC	?WSAInitialized@NetCommon@@3HA			; NetCommon::WSAInitialized
;	COMDAT ?BindSocket@@3P6AH_KPEBUsockaddr@@H@ZEA
_BSS	SEGMENT
?BindSocket@@3P6AH_KPEBUsockaddr@@H@ZEA DQ 01H DUP (?)	; BindSocket
_BSS	ENDS
;	COMDAT ?SocketListen@@3P6AH_KH@ZEA
_BSS	SEGMENT
?SocketListen@@3P6AH_KH@ZEA DQ 01H DUP (?)		; SocketListen
_BSS	ENDS
;	COMDAT ?CleanWSA@@3P6AHXZEA
_BSS	SEGMENT
?CleanWSA@@3P6AHXZEA DQ 01H DUP (?)			; CleanWSA
_BSS	ENDS
;	COMDAT ?StartWSA@@3P6AHGPEAUWSAData@@@ZEA
_BSS	SEGMENT
?StartWSA@@3P6AHGPEAUWSAData@@@ZEA DQ 01H DUP (?)	; StartWSA
_BSS	ENDS
;	COMDAT ?CreateSocket@@3P6A_KHHH@ZEA
_BSS	SEGMENT
?CreateSocket@@3P6A_KHHH@ZEA DQ 01H DUP (?)		; CreateSocket
_BSS	ENDS
;	COMDAT ?WSAInitialized@NetCommon@@3HA
_BSS	SEGMENT
?WSAInitialized@NetCommon@@3HA DD 01H DUP (?)		; NetCommon::WSAInitialized
_BSS	ENDS
;	COMDAT ??_C@_0BA@FOIKENOD@vector?5too?5long@
CONST	SEGMENT
??_C@_0BA@FOIKENOD@vector?5too?5long@ DB 'vector too long', 00H ; `string'
PUBLIC	??$construct_at@EE$0A@@std@@YAPEAEQEAE$$QEAE@Z	; std::construct_at<unsigned char,unsigned char,0>
PUBLIC	??$construct_at@E$$V$0A@@std@@YAPEAEQEAE@Z	; std::construct_at<unsigned char,0>
PUBLIC	??$construct@EE@?$_Default_allocator_traits@V?$allocator@E@std@@@std@@SAXAEAV?$allocator@E@1@QEAE$$QEAE@Z ; std::_Default_allocator_traits<std::allocator<unsigned char> >::construct<unsigned char,unsigned char>
PUBLIC	??$forward@E@std@@YA$$QEAEAEAE@Z		; std::forward<unsigned char>
PUBLIC	??$construct_at@EAEBE$0A@@std@@YAPEAEQEAEAEBE@Z	; std::construct_at<unsigned char,unsigned char const &,0>
PUBLIC	??$addressof@E@std@@YAPEAEAEAE@Z		; std::addressof<unsigned char>
PUBLIC	??$construct@E$$V@?$_Default_allocator_traits@V?$allocator@E@std@@@std@@SAXAEAV?$allocator@E@1@QEAE@Z ; std::_Default_allocator_traits<std::allocator<unsigned char> >::construct<unsigned char>
PUBLIC	??$_Emplace_back@E@?$_Uninitialized_backout_al@V?$allocator@E@std@@@std@@QEAAX$$QEAE@Z ; std::_Uninitialized_backout_al<std::allocator<unsigned char> >::_Emplace_back<unsigned char>
PUBLIC	??$_Copy_memmove@PEAEPEAE@std@@YAPEAEPEAE00@Z	; std::_Copy_memmove<unsigned char *,unsigned char *>
PUBLIC	??$move@AEAE@std@@YA$$QEAEAEAE@Z		; std::move<unsigned char &>
PUBLIC	??$to_address@E@std@@YAPEAEQEAE@Z		; std::to_address<unsigned char>
PUBLIC	??$to_address@D@std@@YAPEADQEAD@Z		; std::to_address<char>
PUBLIC	?allocate@?$allocator@E@std@@QEAAPEAE_K@Z	; std::allocator<unsigned char>::allocate
PUBLIC	??$_Refancy_maybe_null@PEAE$0A@@std@@YAPEAEPEAE@Z ; std::_Refancy_maybe_null<unsigned char *,0>
PUBLIC	??$construct@EAEBE@?$_Default_allocator_traits@V?$allocator@E@std@@@std@@SAXAEAV?$allocator@E@1@QEAEAEBE@Z ; std::_Default_allocator_traits<std::allocator<unsigned char> >::construct<unsigned char,unsigned char const &>
PUBLIC	??$_Construct_in_place@EAEBE@std@@YAXAEAEAEBE@Z	; std::_Construct_in_place<unsigned char,unsigned char const &>
PUBLIC	??$_Emplace_back@$$V@?$_Uninitialized_backout_al@V?$allocator@E@std@@@std@@QEAAXXZ ; std::_Uninitialized_backout_al<std::allocator<unsigned char> >::_Emplace_back<>
PUBLIC	??$_Zero_range@PEAE@std@@YAPEAEQEAE0@Z		; std::_Zero_range<unsigned char *>
PUBLIC	??$_Unfancy@E@std@@YAPEAEPEAE@Z			; std::_Unfancy<unsigned char>
PUBLIC	??$_Uninitialized_move@PEAEV?$allocator@E@std@@@std@@YAPEAEQEAE0PEAEAEAV?$allocator@E@0@@Z ; std::_Uninitialized_move<unsigned char *,std::allocator<unsigned char> >
PUBLIC	??$_Get_unwrapped@AEBQEAE@std@@YA?A_TAEBQEAE@Z	; std::_Get_unwrapped<unsigned char * const &>
PUBLIC	??$_Allocate_at_least_helper@V?$allocator@E@std@@@std@@YAPEAEAEAV?$allocator@E@0@AEA_K@Z ; std::_Allocate_at_least_helper<std::allocator<unsigned char> >
PUBLIC	??$_To_address@PEAE@std@@YA?A_PAEBQEAE@Z	; std::_To_address<unsigned char *>
PUBLIC	??$_To_address@PEAD@std@@YA?A_PAEBQEAD@Z	; std::_To_address<char *>
PUBLIC	??$_Copy_memmove@PEADPEAE@std@@YAPEAEPEAD0PEAE@Z ; std::_Copy_memmove<char *,unsigned char *>
PUBLIC	?_Get_first@?$_Compressed_pair@V?$allocator@E@std@@V?$_Vector_val@U?$_Simple_types@E@std@@@2@$00@std@@QEBAAEBV?$allocator@E@2@XZ ; std::_Compressed_pair<std::allocator<unsigned char>,std::_Vector_val<std::_Simple_types<unsigned char> >,1>::_Get_first
PUBLIC	?max_size@?$_Default_allocator_traits@V?$allocator@E@std@@@std@@SA_KAEBV?$allocator@E@2@@Z ; std::_Default_allocator_traits<std::allocator<unsigned char> >::max_size
PUBLIC	?capacity@?$vector@EV?$allocator@E@std@@@std@@QEBA_KXZ ; std::vector<unsigned char,std::allocator<unsigned char> >::capacity
PUBLIC	?_Getal@?$vector@EV?$allocator@E@std@@@std@@AEBAAEBV?$allocator@E@2@XZ ; std::vector<unsigned char,std::allocator<unsigned char> >::_Getal
PUBLIC	?max_size@?$vector@EV?$allocator@E@std@@@std@@QEBA_KXZ ; std::vector<unsigned char,std::allocator<unsigned char> >::max_size
PUBLIC	?_Calculate_growth@?$vector@EV?$allocator@E@std@@@std@@AEBA_K_K@Z ; std::vector<unsigned char,std::allocator<unsigned char> >::_Calculate_growth
PUBLIC	?_Change_array@?$vector@EV?$allocator@E@std@@@std@@AEAAXQEAE_K1@Z ; std::vector<unsigned char,std::allocator<unsigned char> >::_Change_array
PUBLIC	?_Xlength@?$vector@EV?$allocator@E@std@@@std@@CAXXZ ; std::vector<unsigned char,std::allocator<unsigned char> >::_Xlength
PUBLIC	?_Seek_to@?$_Vector_const_iterator@V?$_Vector_val@U?$_Simple_types@E@std@@@std@@@std@@QEAAXPEBE@Z ; std::_Vector_const_iterator<std::_Vector_val<std::_Simple_types<unsigned char> > >::_Seek_to
PUBLIC	??0?$_Uninitialized_backout_al@V?$allocator@E@std@@@std@@QEAA@PEAEAEAV?$allocator@E@1@@Z ; std::_Uninitialized_backout_al<std::allocator<unsigned char> >::_Uninitialized_backout_al<std::allocator<unsigned char> >
PUBLIC	??1?$_Uninitialized_backout_al@V?$allocator@E@std@@@std@@QEAA@XZ ; std::_Uninitialized_backout_al<std::allocator<unsigned char> >::~_Uninitialized_backout_al<std::allocator<unsigned char> >
PUBLIC	?_Release@?$_Uninitialized_backout_al@V?$allocator@E@std@@@std@@QEAAPEAEXZ ; std::_Uninitialized_backout_al<std::allocator<unsigned char> >::_Release
PUBLIC	?__autoclassinit2@?$_Uninitialized_backout_al@V?$allocator@E@std@@@std@@QEAAX_K@Z ; std::_Uninitialized_backout_al<std::allocator<unsigned char> >::__autoclassinit2
PUBLIC	??$forward@V?$allocator@D@std@@@std@@YA$$QEAV?$allocator@D@0@AEAV10@@Z ; std::forward<std::allocator<char> >
PUBLIC	??$forward@PEAE@std@@YA$$QEAPEAEAEAPEAE@Z	; std::forward<unsigned char *>
PUBLIC	??$forward@V?$allocator@E@std@@@std@@YA$$QEAV?$allocator@E@0@AEAV10@@Z ; std::forward<std::allocator<unsigned char> >
PUBLIC	??$_Emplace_reallocate@AEBE@?$vector@EV?$allocator@E@std@@@std@@AEAAPEAEQEAEAEBE@Z ; std::vector<unsigned char,std::allocator<unsigned char> >::_Emplace_reallocate<unsigned char const &>
PUBLIC	??$_Emplace_back_with_unused_capacity@AEBE@?$vector@EV?$allocator@E@std@@@std@@AEAAAEAEAEBE@Z ; std::vector<unsigned char,std::allocator<unsigned char> >::_Emplace_back_with_unused_capacity<unsigned char const &>
PUBLIC	??$forward@AEBE@std@@YAAEBEAEBE@Z		; std::forward<unsigned char const &>
PUBLIC	??$_Uninitialized_value_construct_n@V?$allocator@E@std@@@std@@YAPEAEPEAE_KAEAV?$allocator@E@0@@Z ; std::_Uninitialized_value_construct_n<std::allocator<unsigned char> >
PUBLIC	??$_Resize_reallocate@U_Value_init_tag@std@@@?$vector@EV?$allocator@E@std@@@std@@AEAAX_KAEBU_Value_init_tag@1@@Z ; std::vector<unsigned char,std::allocator<unsigned char> >::_Resize_reallocate<std::_Value_init_tag>
PUBLIC	??$_Seek_wrapped@V?$_Vector_iterator@V?$_Vector_val@U?$_Simple_types@E@std@@@std@@@std@@PEAE@std@@YAXAEAV?$_Vector_iterator@V?$_Vector_val@U?$_Simple_types@E@std@@@std@@@0@$$QEAPEAE@Z ; std::_Seek_wrapped<std::_Vector_iterator<std::_Vector_val<std::_Simple_types<unsigned char> > >,unsigned char *>
PUBLIC	??$_Copy_unchecked@PEADPEADPEAE@std@@YAPEAEPEAD0PEAE@Z ; std::_Copy_unchecked<char *,char *,unsigned char *>
PUBLIC	??0?$allocator@E@std@@QEAA@XZ			; std::allocator<unsigned char>::allocator<unsigned char>
PUBLIC	?_Orphan_range@?$vector@EV?$allocator@E@std@@@std@@AEBAXPEAE0@Z ; std::vector<unsigned char,std::allocator<unsigned char> >::_Orphan_range
PUBLIC	??0?$_Vector_val@U?$_Simple_types@E@std@@@std@@QEAA@XZ ; std::_Vector_val<std::_Simple_types<unsigned char> >::_Vector_val<std::_Simple_types<unsigned char> >
PUBLIC	??0?$_Vector_val@U?$_Simple_types@E@std@@@std@@QEAA@PEAE00@Z ; std::_Vector_val<std::_Simple_types<unsigned char> >::_Vector_val<std::_Simple_types<unsigned char> >
PUBLIC	?_Verify_offset@?$_Vector_const_iterator@V?$_Vector_val@U?$_Simple_types@E@std@@@std@@@std@@QEBAX_J@Z ; std::_Vector_const_iterator<std::_Vector_val<std::_Simple_types<unsigned char> > >::_Verify_offset
PUBLIC	?_Unwrapped@?$_Vector_iterator@V?$_Vector_val@U?$_Simple_types@E@std@@@std@@@std@@QEBAPEAEXZ ; std::_Vector_iterator<std::_Vector_val<std::_Simple_types<unsigned char> > >::_Unwrapped
PUBLIC	??$_Destroy_range@V?$allocator@E@std@@@std@@YAXPEAEQEAEAEAV?$allocator@E@0@@Z ; std::_Destroy_range<std::allocator<unsigned char> >
PUBLIC	??$_Construct@$01PEBD@?$basic_string@DU?$char_traits@D@std@@V?$allocator@D@2@@std@@AEAAXQEBD_K@Z ; std::basic_string<char,std::char_traits<char>,std::allocator<char> >::_Construct<2,char const *>
PUBLIC	??$?0V?$allocator@D@std@@$$V@?$_Compressed_pair@V?$allocator@D@std@@V?$_String_val@U?$_Simple_types@D@std@@@2@$00@std@@QEAA@U_One_then_variadic_args_t@1@$$QEAV?$allocator@D@1@@Z ; std::_Compressed_pair<std::allocator<char>,std::_String_val<std::_Simple_types<char> >,1>::_Compressed_pair<std::allocator<char>,std::_String_val<std::_Simple_types<char> >,1><std::allocator<char> >
PUBLIC	??$?0$$V@?$_Compressed_pair@V?$allocator@E@std@@V?$_Vector_val@U?$_Simple_types@E@std@@@2@$00@std@@QEAA@U_Zero_then_variadic_args_t@1@@Z ; std::_Compressed_pair<std::allocator<unsigned char>,std::_Vector_val<std::_Simple_types<unsigned char> >,1>::_Compressed_pair<std::allocator<unsigned char>,std::_Vector_val<std::_Simple_types<unsigned char> >,1><>
PUBLIC	??$?0V?$allocator@E@std@@PEAEPEAEPEAE@?$_Compressed_pair@V?$allocator@E@std@@V?$_Vector_val@U?$_Simple_types@E@std@@@2@$00@std@@QEAA@U_One_then_variadic_args_t@1@$$QEAV?$allocator@E@1@$$QEAPEAE22@Z ; std::_Compressed_pair<std::allocator<unsigned char>,std::_Vector_val<std::_Simple_types<unsigned char> >,1>::_Compressed_pair<std::allocator<unsigned char>,std::_Vector_val<std::_Simple_types<unsigned char> >,1><std::allocator<unsigned char>,unsigned char *,unsigned char *,unsigned char *>
PUBLIC	??$exchange@PEAE$$T@std@@YAPEAEAEAPEAE$$QEA$$T@Z ; std::exchange<unsigned char *,std::nullptr_t>
PUBLIC	??$move@AEAV?$allocator@E@std@@@std@@YA$$QEAV?$allocator@E@0@AEAV10@@Z ; std::move<std::allocator<unsigned char> &>
PUBLIC	??$_Emplace_one_at_back@AEBE@?$vector@EV?$allocator@E@std@@@std@@AEAAAEAEAEBE@Z ; std::vector<unsigned char,std::allocator<unsigned char> >::_Emplace_one_at_back<unsigned char const &>
PUBLIC	??$_Resize@U_Value_init_tag@std@@@?$vector@EV?$allocator@E@std@@@std@@AEAAX_KAEBU_Value_init_tag@1@@Z ; std::vector<unsigned char,std::allocator<unsigned char> >::_Resize<std::_Value_init_tag>
PUBLIC	??$_Unfancy_maybe_null@E@std@@YAPEAEPEAE@Z	; std::_Unfancy_maybe_null<unsigned char>
PUBLIC	??$addressof@V?$_Vector_val@U?$_Simple_types@E@std@@@std@@@std@@YAPEAV?$_Vector_val@U?$_Simple_types@E@std@@@0@AEAV10@@Z ; std::addressof<std::_Vector_val<std::_Simple_types<unsigned char> > >
PUBLIC	??$_Get_unwrapped_n@AEAV?$_Vector_iterator@V?$_Vector_val@U?$_Simple_types@E@std@@@std@@@std@@_J@std@@YA?A_TAEAV?$_Vector_iterator@V?$_Vector_val@U?$_Simple_types@E@std@@@std@@@0@_J@Z ; std::_Get_unwrapped_n<std::_Vector_iterator<std::_Vector_val<std::_Simple_types<unsigned char> > > &,__int64>
PUBLIC	??$_Idl_distance@PEADPEAD@std@@YA?A_PAEBQEAD0@Z	; std::_Idl_distance<char *,char *>
PUBLIC	??$_Get_unwrapped@AEAPEAD@std@@YA?A_TAEAPEAD@Z	; std::_Get_unwrapped<char * &>
PUBLIC	??$copy@PEADV?$_Vector_iterator@V?$_Vector_val@U?$_Simple_types@E@std@@@std@@@std@@@std@@YA?AV?$_Vector_iterator@V?$_Vector_val@U?$_Simple_types@E@std@@@std@@@0@PEAD0V10@@Z ; std::copy<char *,std::_Vector_iterator<std::_Vector_val<std::_Simple_types<unsigned char> > > >
PUBLIC	??$GetFunctionAddress@P6AH_KH@Z@ProcessUtilities@@YAP6AH_KH@ZPEAUHINSTANCE__@@V?$basic_string@DU?$char_traits@D@std@@V?$allocator@D@2@@std@@@Z ; ProcessUtilities::GetFunctionAddress<int (__cdecl*)(unsigned __int64,int)>
PUBLIC	??$GetFunctionAddress@P6AHXZ@ProcessUtilities@@YAP6AHXZPEAUHINSTANCE__@@V?$basic_string@DU?$char_traits@D@std@@V?$allocator@D@2@@std@@@Z ; ProcessUtilities::GetFunctionAddress<int (__cdecl*)(void)>
PUBLIC	??$GetFunctionAddress@P6AH_KPEBDHH@Z@ProcessUtilities@@YAP6AH_KPEBDHH@ZPEAUHINSTANCE__@@V?$basic_string@DU?$char_traits@D@std@@V?$allocator@D@2@@std@@@Z ; ProcessUtilities::GetFunctionAddress<int (__cdecl*)(unsigned __int64,char const *,int,int)>
PUBLIC	??$GetFunctionAddress@P6AH_KPEADHHPEAUsockaddr@@PEAH@Z@ProcessUtilities@@YAP6AH_KPEADHHPEAUsockaddr@@PEAH@ZPEAUHINSTANCE__@@V?$basic_string@DU?$char_traits@D@std@@V?$allocator@D@2@@std@@@Z ; ProcessUtilities::GetFunctionAddress<int (__cdecl*)(unsigned __int64,char *,int,int,sockaddr *,int *)>
PUBLIC	??$GetFunctionAddress@P6AH_KPEBDHHPEBUsockaddr@@H@Z@ProcessUtilities@@YAP6AH_KPEBDHHPEBUsockaddr@@H@ZPEAUHINSTANCE__@@V?$basic_string@DU?$char_traits@D@std@@V?$allocator@D@2@@std@@@Z ; ProcessUtilities::GetFunctionAddress<int (__cdecl*)(unsigned __int64,char const *,int,int,sockaddr const *,int)>
PUBLIC	??$GetFunctionAddress@P6AH_KPEADHH@Z@ProcessUtilities@@YAP6AH_KPEADHH@ZPEAUHINSTANCE__@@V?$basic_string@DU?$char_traits@D@std@@V?$allocator@D@2@@std@@@Z ; ProcessUtilities::GetFunctionAddress<int (__cdecl*)(unsigned __int64,char *,int,int)>
PUBLIC	??$GetFunctionAddress@P6A_KHHH@Z@ProcessUtilities@@YAP6A_KHHH@ZPEAUHINSTANCE__@@V?$basic_string@DU?$char_traits@D@std@@V?$allocator@D@2@@std@@@Z ; ProcessUtilities::GetFunctionAddress<unsigned __int64 (__cdecl*)(int,int,int)>
PUBLIC	??$GetFunctionAddress@P6AH_K@Z@ProcessUtilities@@YAP6AH_K@ZPEAUHINSTANCE__@@V?$basic_string@DU?$char_traits@D@std@@V?$allocator@D@2@@std@@@Z ; ProcessUtilities::GetFunctionAddress<int (__cdecl*)(unsigned __int64)>
PUBLIC	??$GetFunctionAddress@P6AH_KPEBUsockaddr@@H@Z@ProcessUtilities@@YAP6AH_KPEBUsockaddr@@H@ZPEAUHINSTANCE__@@V?$basic_string@DU?$char_traits@D@std@@V?$allocator@D@2@@std@@@Z ; ProcessUtilities::GetFunctionAddress<int (__cdecl*)(unsigned __int64,sockaddr const *,int)>
PUBLIC	??$GetFunctionAddress@P6AHGPEAUWSAData@@@Z@ProcessUtilities@@YAP6AHGPEAUWSAData@@@ZPEAUHINSTANCE__@@V?$basic_string@DU?$char_traits@D@std@@V?$allocator@D@2@@std@@@Z ; ProcessUtilities::GetFunctionAddress<int (__cdecl*)(unsigned short,WSAData *)>
PUBLIC	??$GetFunctionAddress@P6APEAUHINSTANCE__@@PEBD@Z@ProcessUtilities@@YAP6APEAUHINSTANCE__@@PEBD@ZPEAU1@V?$basic_string@DU?$char_traits@D@std@@V?$allocator@D@2@@std@@@Z ; ProcessUtilities::GetFunctionAddress<HINSTANCE__ * (__cdecl*)(char const *)>
PUBLIC	??$_Adl_verify_range@PEADPEAD@std@@YAXAEBQEAD0@Z ; std::_Adl_verify_range<char *,char *>
PUBLIC	?deallocate@?$allocator@E@std@@QEAAXQEAE_K@Z	; std::allocator<unsigned char>::deallocate
PUBLIC	?_Get_first@?$_Compressed_pair@V?$allocator@E@std@@V?$_Vector_val@U?$_Simple_types@E@std@@@2@$00@std@@QEAAAEAV?$allocator@E@2@XZ ; std::_Compressed_pair<std::allocator<unsigned char>,std::_Vector_val<std::_Simple_types<unsigned char> >,1>::_Get_first
PUBLIC	?KEY_256_ASSIST_1@?$Aes@$0BAA@@Cipher@@AEAAXPEAT__m128i@@0@Z ; Cipher::Aes<256>::KEY_256_ASSIST_1
PUBLIC	?KEY_256_ASSIST_2@?$Aes@$0BAA@@Cipher@@AEAAXPEAT__m128i@@0@Z ; Cipher::Aes<256>::KEY_256_ASSIST_2
PUBLIC	?select_on_container_copy_construction@?$_Default_allocator_traits@V?$allocator@D@std@@@std@@SA?AV?$allocator@D@2@AEBV32@@Z ; std::_Default_allocator_traits<std::allocator<char> >::select_on_container_copy_construction
PUBLIC	?_Myptr@?$_String_val@U?$_Simple_types@D@std@@@std@@QEAAPEADXZ ; std::_String_val<std::_Simple_types<char> >::_Myptr
PUBLIC	?_Myptr@?$_String_val@U?$_Simple_types@D@std@@@std@@QEBAPEBDXZ ; std::_String_val<std::_Simple_types<char> >::_Myptr
PUBLIC	?_Tidy@?$vector@EV?$allocator@E@std@@@std@@AEAAXXZ ; std::vector<unsigned char,std::allocator<unsigned char> >::_Tidy
PUBLIC	?_Getal@?$vector@EV?$allocator@E@std@@@std@@AEAAAEAV?$allocator@E@2@XZ ; std::vector<unsigned char,std::allocator<unsigned char> >::_Getal
PUBLIC	?AES_256_Key_Expansion@?$Aes@$0BAA@@Cipher@@AEAAXPEBEPEAE@Z ; Cipher::Aes<256>::AES_256_Key_Expansion
PUBLIC	?data@?$obfuscator@$0N@$0?HGAKNEMGLKFGEOML@D@ay@@QEBAPEBDXZ ; ay::obfuscator<13,-8505844796237434571,char>::data
PUBLIC	?decrypt@?$obfuscated_data@$0N@$0?HGAKNEMGLKFGEOML@D@ay@@QEAAXXZ ; ay::obfuscated_data<13,-8505844796237434571,char>::decrypt
PUBLIC	?data@?$obfuscator@$0L@$0?EENOPMEAPELCIIOD@D@ay@@QEBAPEBDXZ ; ay::obfuscator<11,-4962681195322312931,char>::data
PUBLIC	?decrypt@?$obfuscated_data@$0L@$0?EENOPMEAPELCIIOD@D@ay@@QEAAXXZ ; ay::obfuscated_data<11,-4962681195322312931,char>::decrypt
PUBLIC	?data@?$obfuscator@$0L@$0?BENIGEJGOAAMAEMJ@D@ay@@QEBAPEBDXZ ; ay::obfuscator<11,-1502061074894816457,char>::data
PUBLIC	?decrypt@?$obfuscated_data@$0L@$0?BENIGEJGOAAMAEMJ@D@ay@@QEAAXXZ ; ay::obfuscated_data<11,-1502061074894816457,char>::decrypt
PUBLIC	?data@?$obfuscator@$04$0?KKMBKJIJMJIOKML@D@ay@@QEBAPEBDXZ ; ay::obfuscator<5,-769018879138130635,char>::data
PUBLIC	?decrypt@?$obfuscated_data@$04$0?KKMBKJIJMJIOKML@D@ay@@QEAAXXZ ; ay::obfuscated_data<5,-769018879138130635,char>::decrypt
PUBLIC	?data@?$obfuscator@$0M@$0?DMGIHEDGHAKMGH@D@ay@@QEBAPEBDXZ ; ay::obfuscator<12,-17003346941488231,char>::data
PUBLIC	?decrypt@?$obfuscated_data@$0M@$0?DMGIHEDGHAKMGH@D@ay@@QEAAXXZ ; ay::obfuscated_data<12,-17003346941488231,char>::decrypt
PUBLIC	?data@?$obfuscator@$06$0?GECKGKFAHKOCHEBJ@D@ay@@QEBAPEBDXZ ; ay::obfuscator<7,-7217698246706230297,char>::data
PUBLIC	?decrypt@?$obfuscated_data@$06$0?GECKGKFAHKOCHEBJ@D@ay@@QEAAXXZ ; ay::obfuscated_data<7,-7217698246706230297,char>::decrypt
PUBLIC	?data@?$obfuscator@$04$0DJODMBJLLLJDFDHD@D@ay@@QEBAPEBDXZ ; ay::obfuscator<5,4171390554486297459,char>::data
PUBLIC	?decrypt@?$obfuscated_data@$04$0DJODMBJLLLJDFDHD@D@ay@@QEAAXXZ ; ay::obfuscated_data<5,4171390554486297459,char>::decrypt
PUBLIC	?data@?$obfuscator@$06$0?GIOGLOCGPCIABIMJ@D@ay@@QEBAPEBDXZ ; ay::obfuscator<7,-7558938099074472137,char>::data
PUBLIC	?decrypt@?$obfuscated_data@$06$0?GIOGLOCGPCIABIMJ@D@ay@@QEAAXXZ ; ay::obfuscated_data<7,-7558938099074472137,char>::decrypt
PUBLIC	?data@?$obfuscator@$08$0?DIIAIINMJEFCLIGH@D@ay@@QEBAPEBDXZ ; ay::obfuscator<9,-4071404544105560167,char>::data
PUBLIC	?decrypt@?$obfuscated_data@$08$0?DIIAIINMJEFCLIGH@D@ay@@QEAAXXZ ; ay::obfuscated_data<9,-4071404544105560167,char>::decrypt
PUBLIC	?data@?$obfuscator@$04$0?DGIIOELKAGGOMEHJ@D@ay@@QEBAPEBDXZ ; ay::obfuscator<5,-3929642162503730297,char>::data
PUBLIC	?decrypt@?$obfuscated_data@$04$0?DGIIOELKAGGOMEHJ@D@ay@@QEAAXXZ ; ay::obfuscated_data<5,-3929642162503730297,char>::decrypt
PUBLIC	?data@?$obfuscator@$0L@$0HNABEJKPKLAFGLNN@D@ay@@QEBAPEBDXZ ; ay::obfuscator<11,9007561748555066333,char>::data
PUBLIC	?decrypt@?$obfuscated_data@$0L@$0HNABEJKPKLAFGLNN@D@ay@@QEAAXXZ ; ay::obfuscated_data<11,9007561748555066333,char>::decrypt
PUBLIC	?data@?$obfuscator@$07$0?HIPICCNMEODGEKBB@D@ay@@QEBAPEBDXZ ; ay::obfuscator<8,-8716755408375925265,char>::data
PUBLIC	?decrypt@?$obfuscated_data@$07$0?HIPICCNMEODGEKBB@D@ay@@QEAAXXZ ; ay::obfuscated_data<8,-8716755408375925265,char>::decrypt
PUBLIC	?data@?$obfuscator@$06$0HPNDKNLBIBOBFLON@D@ay@@QEBAPEBDXZ ; ay::obfuscator<7,9210896640802642925,char>::data
PUBLIC	?decrypt@?$obfuscated_data@$06$0HPNDKNLBIBOBFLON@D@ay@@QEAAXXZ ; ay::obfuscated_data<7,9210896640802642925,char>::decrypt
PUBLIC	??0?$_Vector_const_iterator@V?$_Vector_val@U?$_Simple_types@E@std@@@std@@@std@@QEAA@PEAEPEBU_Container_base0@1@@Z ; std::_Vector_const_iterator<std::_Vector_val<std::_Simple_types<unsigned char> > >::_Vector_const_iterator<std::_Vector_val<std::_Simple_types<unsigned char> > >
PUBLIC	??0?$basic_string@DU?$char_traits@D@std@@V?$allocator@D@2@@std@@QEAA@AEBV01@@Z ; std::basic_string<char,std::char_traits<char>,std::allocator<char> >::basic_string<char,std::char_traits<char>,std::allocator<char> >
PUBLIC	?_Unchecked_begin@?$basic_string@DU?$char_traits@D@std@@V?$allocator@D@2@@std@@QEAAPEADXZ ; std::basic_string<char,std::char_traits<char>,std::allocator<char> >::_Unchecked_begin
PUBLIC	?_Unchecked_end@?$basic_string@DU?$char_traits@D@std@@V?$allocator@D@2@@std@@QEAAPEADXZ ; std::basic_string<char,std::char_traits<char>,std::allocator<char> >::_Unchecked_end
PUBLIC	?c_str@?$basic_string@DU?$char_traits@D@std@@V?$allocator@D@2@@std@@QEBAPEBDXZ ; std::basic_string<char,std::char_traits<char>,std::allocator<char> >::c_str
PUBLIC	?empty@?$basic_string@DU?$char_traits@D@std@@V?$allocator@D@2@@std@@QEBA_NXZ ; std::basic_string<char,std::char_traits<char>,std::allocator<char> >::empty
PUBLIC	??0?$vector@EV?$allocator@E@std@@@std@@QEAA@XZ	; std::vector<unsigned char,std::allocator<unsigned char> >::vector<unsigned char,std::allocator<unsigned char> >
PUBLIC	??0?$vector@EV?$allocator@E@std@@@std@@QEAA@$$QEAV01@@Z ; std::vector<unsigned char,std::allocator<unsigned char> >::vector<unsigned char,std::allocator<unsigned char> >
PUBLIC	??1?$vector@EV?$allocator@E@std@@@std@@QEAA@XZ	; std::vector<unsigned char,std::allocator<unsigned char> >::~vector<unsigned char,std::allocator<unsigned char> >
PUBLIC	?push_back@?$vector@EV?$allocator@E@std@@@std@@QEAAXAEBE@Z ; std::vector<unsigned char,std::allocator<unsigned char> >::push_back
PUBLIC	?resize@?$vector@EV?$allocator@E@std@@@std@@QEAAX_K@Z ; std::vector<unsigned char,std::allocator<unsigned char> >::resize
PUBLIC	?data@?$vector@EV?$allocator@E@std@@@std@@QEAAPEAEXZ ; std::vector<unsigned char,std::allocator<unsigned char> >::data
PUBLIC	??0?$_Vector_iterator@V?$_Vector_val@U?$_Simple_types@E@std@@@std@@@std@@QEAA@PEAEPEBU_Container_base0@1@@Z ; std::_Vector_iterator<std::_Vector_val<std::_Simple_types<unsigned char> > >::_Vector_iterator<std::_Vector_val<std::_Simple_types<unsigned char> > >
PUBLIC	?begin@?$vector@EV?$allocator@E@std@@@std@@QEAA?AV?$_Vector_iterator@V?$_Vector_val@U?$_Simple_types@E@std@@@std@@@2@XZ ; std::vector<unsigned char,std::allocator<unsigned char> >::begin
PUBLIC	??0?$Aes@$0BAA@@Cipher@@QEAA@QEAE@Z		; Cipher::Aes<256>::Aes<256>
PUBLIC	??1?$Aes@$0BAA@@Cipher@@QEAA@XZ			; Cipher::Aes<256>::~Aes<256>
PUBLIC	?encrypt_block@?$Aes@$0BAA@@Cipher@@QEAAXPEAE@Z	; Cipher::Aes<256>::encrypt_block
PUBLIC	??0?$obfuscated_data@$0N@$0?HGAKNEMGLKFGEOML@D@ay@@QEAA@AEBV?$obfuscator@$0N@$0?HGAKNEMGLKFGEOML@D@1@@Z ; ay::obfuscated_data<13,-8505844796237434571,char>::obfuscated_data<13,-8505844796237434571,char>
PUBLIC	??1?$obfuscated_data@$0N@$0?HGAKNEMGLKFGEOML@D@ay@@QEAA@XZ ; ay::obfuscated_data<13,-8505844796237434571,char>::~obfuscated_data<13,-8505844796237434571,char>
PUBLIC	??B?$obfuscated_data@$0N@$0?HGAKNEMGLKFGEOML@D@ay@@QEAAPEADXZ ; ay::obfuscated_data<13,-8505844796237434571,char>::operator char *
PUBLIC	??0?$obfuscated_data@$0L@$0?EENOPMEAPELCIIOD@D@ay@@QEAA@AEBV?$obfuscator@$0L@$0?EENOPMEAPELCIIOD@D@1@@Z ; ay::obfuscated_data<11,-4962681195322312931,char>::obfuscated_data<11,-4962681195322312931,char>
PUBLIC	??1?$obfuscated_data@$0L@$0?EENOPMEAPELCIIOD@D@ay@@QEAA@XZ ; ay::obfuscated_data<11,-4962681195322312931,char>::~obfuscated_data<11,-4962681195322312931,char>
PUBLIC	??B?$obfuscated_data@$0L@$0?EENOPMEAPELCIIOD@D@ay@@QEAAPEADXZ ; ay::obfuscated_data<11,-4962681195322312931,char>::operator char *
PUBLIC	??0?$obfuscated_data@$0L@$0?BENIGEJGOAAMAEMJ@D@ay@@QEAA@AEBV?$obfuscator@$0L@$0?BENIGEJGOAAMAEMJ@D@1@@Z ; ay::obfuscated_data<11,-1502061074894816457,char>::obfuscated_data<11,-1502061074894816457,char>
PUBLIC	??1?$obfuscated_data@$0L@$0?BENIGEJGOAAMAEMJ@D@ay@@QEAA@XZ ; ay::obfuscated_data<11,-1502061074894816457,char>::~obfuscated_data<11,-1502061074894816457,char>
PUBLIC	??B?$obfuscated_data@$0L@$0?BENIGEJGOAAMAEMJ@D@ay@@QEAAPEADXZ ; ay::obfuscated_data<11,-1502061074894816457,char>::operator char *
PUBLIC	??0?$obfuscated_data@$04$0?KKMBKJIJMJIOKML@D@ay@@QEAA@AEBV?$obfuscator@$04$0?KKMBKJIJMJIOKML@D@1@@Z ; ay::obfuscated_data<5,-769018879138130635,char>::obfuscated_data<5,-769018879138130635,char>
PUBLIC	??1?$obfuscated_data@$04$0?KKMBKJIJMJIOKML@D@ay@@QEAA@XZ ; ay::obfuscated_data<5,-769018879138130635,char>::~obfuscated_data<5,-769018879138130635,char>
PUBLIC	??B?$obfuscated_data@$04$0?KKMBKJIJMJIOKML@D@ay@@QEAAPEADXZ ; ay::obfuscated_data<5,-769018879138130635,char>::operator char *
PUBLIC	??0?$obfuscated_data@$0M@$0?DMGIHEDGHAKMGH@D@ay@@QEAA@AEBV?$obfuscator@$0M@$0?DMGIHEDGHAKMGH@D@1@@Z ; ay::obfuscated_data<12,-17003346941488231,char>::obfuscated_data<12,-17003346941488231,char>
PUBLIC	??1?$obfuscated_data@$0M@$0?DMGIHEDGHAKMGH@D@ay@@QEAA@XZ ; ay::obfuscated_data<12,-17003346941488231,char>::~obfuscated_data<12,-17003346941488231,char>
PUBLIC	??B?$obfuscated_data@$0M@$0?DMGIHEDGHAKMGH@D@ay@@QEAAPEADXZ ; ay::obfuscated_data<12,-17003346941488231,char>::operator char *
PUBLIC	??0?$obfuscated_data@$06$0?GECKGKFAHKOCHEBJ@D@ay@@QEAA@AEBV?$obfuscator@$06$0?GECKGKFAHKOCHEBJ@D@1@@Z ; ay::obfuscated_data<7,-7217698246706230297,char>::obfuscated_data<7,-7217698246706230297,char>
PUBLIC	??1?$obfuscated_data@$06$0?GECKGKFAHKOCHEBJ@D@ay@@QEAA@XZ ; ay::obfuscated_data<7,-7217698246706230297,char>::~obfuscated_data<7,-7217698246706230297,char>
PUBLIC	??B?$obfuscated_data@$06$0?GECKGKFAHKOCHEBJ@D@ay@@QEAAPEADXZ ; ay::obfuscated_data<7,-7217698246706230297,char>::operator char *
PUBLIC	??0?$obfuscated_data@$04$0DJODMBJLLLJDFDHD@D@ay@@QEAA@AEBV?$obfuscator@$04$0DJODMBJLLLJDFDHD@D@1@@Z ; ay::obfuscated_data<5,4171390554486297459,char>::obfuscated_data<5,4171390554486297459,char>
PUBLIC	??1?$obfuscated_data@$04$0DJODMBJLLLJDFDHD@D@ay@@QEAA@XZ ; ay::obfuscated_data<5,4171390554486297459,char>::~obfuscated_data<5,4171390554486297459,char>
PUBLIC	??B?$obfuscated_data@$04$0DJODMBJLLLJDFDHD@D@ay@@QEAAPEADXZ ; ay::obfuscated_data<5,4171390554486297459,char>::operator char *
PUBLIC	??0?$obfuscated_data@$06$0?GIOGLOCGPCIABIMJ@D@ay@@QEAA@AEBV?$obfuscator@$06$0?GIOGLOCGPCIABIMJ@D@1@@Z ; ay::obfuscated_data<7,-7558938099074472137,char>::obfuscated_data<7,-7558938099074472137,char>
PUBLIC	??1?$obfuscated_data@$06$0?GIOGLOCGPCIABIMJ@D@ay@@QEAA@XZ ; ay::obfuscated_data<7,-7558938099074472137,char>::~obfuscated_data<7,-7558938099074472137,char>
PUBLIC	??B?$obfuscated_data@$06$0?GIOGLOCGPCIABIMJ@D@ay@@QEAAPEADXZ ; ay::obfuscated_data<7,-7558938099074472137,char>::operator char *
PUBLIC	??0?$obfuscated_data@$08$0?DIIAIINMJEFCLIGH@D@ay@@QEAA@AEBV?$obfuscator@$08$0?DIIAIINMJEFCLIGH@D@1@@Z ; ay::obfuscated_data<9,-4071404544105560167,char>::obfuscated_data<9,-4071404544105560167,char>
PUBLIC	??1?$obfuscated_data@$08$0?DIIAIINMJEFCLIGH@D@ay@@QEAA@XZ ; ay::obfuscated_data<9,-4071404544105560167,char>::~obfuscated_data<9,-4071404544105560167,char>
PUBLIC	??B?$obfuscated_data@$08$0?DIIAIINMJEFCLIGH@D@ay@@QEAAPEADXZ ; ay::obfuscated_data<9,-4071404544105560167,char>::operator char *
PUBLIC	??0?$obfuscated_data@$04$0?DGIIOELKAGGOMEHJ@D@ay@@QEAA@AEBV?$obfuscator@$04$0?DGIIOELKAGGOMEHJ@D@1@@Z ; ay::obfuscated_data<5,-3929642162503730297,char>::obfuscated_data<5,-3929642162503730297,char>
PUBLIC	??1?$obfuscated_data@$04$0?DGIIOELKAGGOMEHJ@D@ay@@QEAA@XZ ; ay::obfuscated_data<5,-3929642162503730297,char>::~obfuscated_data<5,-3929642162503730297,char>
PUBLIC	??B?$obfuscated_data@$04$0?DGIIOELKAGGOMEHJ@D@ay@@QEAAPEADXZ ; ay::obfuscated_data<5,-3929642162503730297,char>::operator char *
PUBLIC	??0?$obfuscated_data@$0L@$0HNABEJKPKLAFGLNN@D@ay@@QEAA@AEBV?$obfuscator@$0L@$0HNABEJKPKLAFGLNN@D@1@@Z ; ay::obfuscated_data<11,9007561748555066333,char>::obfuscated_data<11,9007561748555066333,char>
PUBLIC	??1?$obfuscated_data@$0L@$0HNABEJKPKLAFGLNN@D@ay@@QEAA@XZ ; ay::obfuscated_data<11,9007561748555066333,char>::~obfuscated_data<11,9007561748555066333,char>
PUBLIC	??B?$obfuscated_data@$0L@$0HNABEJKPKLAFGLNN@D@ay@@QEAAPEADXZ ; ay::obfuscated_data<11,9007561748555066333,char>::operator char *
PUBLIC	??0?$obfuscated_data@$07$0?HIPICCNMEODGEKBB@D@ay@@QEAA@AEBV?$obfuscator@$07$0?HIPICCNMEODGEKBB@D@1@@Z ; ay::obfuscated_data<8,-8716755408375925265,char>::obfuscated_data<8,-8716755408375925265,char>
PUBLIC	??1?$obfuscated_data@$07$0?HIPICCNMEODGEKBB@D@ay@@QEAA@XZ ; ay::obfuscated_data<8,-8716755408375925265,char>::~obfuscated_data<8,-8716755408375925265,char>
PUBLIC	??B?$obfuscated_data@$07$0?HIPICCNMEODGEKBB@D@ay@@QEAAPEADXZ ; ay::obfuscated_data<8,-8716755408375925265,char>::operator char *
PUBLIC	??0?$obfuscated_data@$06$0HPNDKNLBIBOBFLON@D@ay@@QEAA@AEBV?$obfuscator@$06$0HPNDKNLBIBOBFLON@D@1@@Z ; ay::obfuscated_data<7,9210896640802642925,char>::obfuscated_data<7,9210896640802642925,char>
PUBLIC	??1?$obfuscated_data@$06$0HPNDKNLBIBOBFLON@D@ay@@QEAA@XZ ; ay::obfuscated_data<7,9210896640802642925,char>::~obfuscated_data<7,9210896640802642925,char>
PUBLIC	??B?$obfuscated_data@$06$0HPNDKNLBIBOBFLON@D@ay@@QEAAPEADXZ ; ay::obfuscated_data<7,9210896640802642925,char>::operator char *
PUBLIC	??0NET_BLOB@@QEAA@AEBU0@@Z			; NET_BLOB::NET_BLOB
PUBLIC	?AESEncryptBlob@NetCommon@@YA?AV?$vector@EV?$allocator@E@std@@@std@@UNET_BLOB@@@Z ; NetCommon::AESEncryptBlob
PUBLIC	??__Fobfuscated_data@?1???R<lambda_1>@?1??LoadWSAFunctions@NetCommon@@YAXXZ@QEBAAEAV?$obfuscated_data@$0N@$0?HGAKNEMGLKFGEOML@D@ay@@XZ@YAXXZ ; ``NetCommon::LoadWSAFunctions'::`2'::<lambda_1>::operator()'::`2'::`dynamic atexit destructor for 'obfuscated_data''
PUBLIC	??__Fobfuscated_data@?1???R<lambda_2>@?1??LoadWSAFunctions@NetCommon@@YAXXZ@QEBAAEAV?$obfuscated_data@$0L@$0?EENOPMEAPELCIIOD@D@ay@@XZ@YAXXZ ; ``NetCommon::LoadWSAFunctions'::`2'::<lambda_2>::operator()'::`2'::`dynamic atexit destructor for 'obfuscated_data''
PUBLIC	??__Fobfuscated_data@?1???R<lambda_3>@?1??LoadWSAFunctions@NetCommon@@YAXXZ@QEBAAEAV?$obfuscated_data@$0L@$0?BENIGEJGOAAMAEMJ@D@ay@@XZ@YAXXZ ; ``NetCommon::LoadWSAFunctions'::`2'::<lambda_3>::operator()'::`2'::`dynamic atexit destructor for 'obfuscated_data''
PUBLIC	??__Fobfuscated_data@?1???R<lambda_4>@?1??LoadWSAFunctions@NetCommon@@YAXXZ@QEBAAEAV?$obfuscated_data@$04$0?KKMBKJIJMJIOKML@D@ay@@XZ@YAXXZ ; ``NetCommon::LoadWSAFunctions'::`2'::<lambda_4>::operator()'::`2'::`dynamic atexit destructor for 'obfuscated_data''
PUBLIC	??__Fobfuscated_data@?1???R<lambda_5>@?1??LoadWSAFunctions@NetCommon@@YAXXZ@QEBAAEAV?$obfuscated_data@$0M@$0?DMGIHEDGHAKMGH@D@ay@@XZ@YAXXZ ; ``NetCommon::LoadWSAFunctions'::`2'::<lambda_5>::operator()'::`2'::`dynamic atexit destructor for 'obfuscated_data''
PUBLIC	??__Fobfuscated_data@?1???R<lambda_6>@?1??LoadWSAFunctions@NetCommon@@YAXXZ@QEBAAEAV?$obfuscated_data@$06$0?GECKGKFAHKOCHEBJ@D@ay@@XZ@YAXXZ ; ``NetCommon::LoadWSAFunctions'::`2'::<lambda_6>::operator()'::`2'::`dynamic atexit destructor for 'obfuscated_data''
PUBLIC	??__Fobfuscated_data@?1???R<lambda_7>@?1??LoadWSAFunctions@NetCommon@@YAXXZ@QEBAAEAV?$obfuscated_data@$04$0DJODMBJLLLJDFDHD@D@ay@@XZ@YAXXZ ; ``NetCommon::LoadWSAFunctions'::`2'::<lambda_7>::operator()'::`2'::`dynamic atexit destructor for 'obfuscated_data''
PUBLIC	??__Fobfuscated_data@?1???R<lambda_8>@?1??LoadWSAFunctions@NetCommon@@YAXXZ@QEBAAEAV?$obfuscated_data@$06$0?GIOGLOCGPCIABIMJ@D@ay@@XZ@YAXXZ ; ``NetCommon::LoadWSAFunctions'::`2'::<lambda_8>::operator()'::`2'::`dynamic atexit destructor for 'obfuscated_data''
PUBLIC	??__Fobfuscated_data@?1???R<lambda_9>@?1??LoadWSAFunctions@NetCommon@@YAXXZ@QEBAAEAV?$obfuscated_data@$08$0?DIIAIINMJEFCLIGH@D@ay@@XZ@YAXXZ ; ``NetCommon::LoadWSAFunctions'::`2'::<lambda_9>::operator()'::`2'::`dynamic atexit destructor for 'obfuscated_data''
PUBLIC	??__Fobfuscated_data@?1???R<lambda_10>@?1??LoadWSAFunctions@NetCommon@@YAXXZ@QEBAAEAV?$obfuscated_data@$04$0?DGIIOELKAGGOMEHJ@D@ay@@XZ@YAXXZ ; ``NetCommon::LoadWSAFunctions'::`2'::<lambda_10>::operator()'::`2'::`dynamic atexit destructor for 'obfuscated_data''
PUBLIC	??__Fobfuscated_data@?1???R<lambda_11>@?1??LoadWSAFunctions@NetCommon@@YAXXZ@QEBAAEAV?$obfuscated_data@$0L@$0HNABEJKPKLAFGLNN@D@ay@@XZ@YAXXZ ; ``NetCommon::LoadWSAFunctions'::`2'::<lambda_11>::operator()'::`2'::`dynamic atexit destructor for 'obfuscated_data''
PUBLIC	??__Fobfuscated_data@?1???R<lambda_12>@?1??LoadWSAFunctions@NetCommon@@YAXXZ@QEBAAEAV?$obfuscated_data@$07$0?HIPICCNMEODGEKBB@D@ay@@XZ@YAXXZ ; ``NetCommon::LoadWSAFunctions'::`2'::<lambda_12>::operator()'::`2'::`dynamic atexit destructor for 'obfuscated_data''
PUBLIC	??__Fobfuscated_data@?1???R<lambda_13>@?1??LoadWSAFunctions@NetCommon@@YAXXZ@QEBAAEAV?$obfuscated_data@$06$0HPNDKNLBIBOBFLON@D@ay@@XZ@YAXXZ ; ``NetCommon::LoadWSAFunctions'::`2'::<lambda_13>::operator()'::`2'::`dynamic atexit destructor for 'obfuscated_data''
PUBLIC	?LoadWSAFunctions@NetCommon@@YAXXZ		; NetCommon::LoadWSAFunctions
PUBLIC	??0ClientRequest@@QEAA@AEBU0@@Z			; ClientRequest::ClientRequest
PUBLIC	??0ProcessInformation@@QEAA@AEBU0@@Z		; ProcessInformation::ProcessInformation
PUBLIC	??0ServerCommand@@QEAA@AEBU0@@Z			; ServerCommand::ServerCommand
PUBLIC	??1ProcessInformation@@QEAA@XZ			; ProcessInformation::~ProcessInformation
PUBLIC	??1ServerCommand@@QEAA@XZ			; ServerCommand::~ServerCommand
PUBLIC	??1ClientRequest@@QEAA@XZ			; ClientRequest::~ClientRequest
PUBLIC	??1NET_BLOB@@QEAA@XZ				; NET_BLOB::~NET_BLOB
PUBLIC	?IsBlobValid@NetCommon@@YAHUNET_BLOB@@@Z	; NetCommon::IsBlobValid
PUBLIC	?__autoclassinit2@?$vector@EV?$allocator@E@std@@@std@@QEAAX_K@Z ; std::vector<unsigned char,std::allocator<unsigned char> >::__autoclassinit2
PUBLIC	?SerializeString@NetCommon@@YA?AV?$vector@EV?$allocator@E@std@@@std@@V?$basic_string@DU?$char_traits@D@std@@V?$allocator@D@2@@3@@Z ; NetCommon::SerializeString
PUBLIC	?_Adopt@_Iterator_base0@std@@QEAAXPEBX@Z	; std::_Iterator_base0::_Adopt
PUBLIC	?_Alloc_proxy@_Container_base0@std@@QEAAXAEBU_Fake_allocator@2@@Z ; std::_Container_base0::_Alloc_proxy
PUBLIC	?_Swap_proxy_and_iterators@_Container_base0@std@@QEAAXAEAU12@@Z ; std::_Container_base0::_Swap_proxy_and_iterators
;	COMDAT ?obfuscated_data@?1???R<lambda_6>@?1??LoadWSAFunctions@NetCommon@@YAXXZ@QEBAAEAV?$obfuscated_data@$06$0?GECKGKFAHKOCHEBJ@D@ay@@XZ@4V45@A
_TLS	SEGMENT
?obfuscated_data@?1???R<lambda_6>@?1??LoadWSAFunctions@NetCommon@@YAXXZ@QEBAAEAV?$obfuscated_data@$06$0?GECKGKFAHKOCHEBJ@D@ay@@XZ@4V45@A DQ 01H DUP (?) ; ``NetCommon::LoadWSAFunctions'::`2'::<lambda_6>::operator()'::`2'::obfuscated_data
_TLS	ENDS
;	COMDAT ??__J?1???R<lambda_2>@freqDLLS@ProcessUtilities@@QEBAAEAV?$obfuscated_data@$09$0?BMGONCACNKPGIEIF@D@ay@@XZ@51
_TLS	SEGMENT
??__J?1???R<lambda_2>@freqDLLS@ProcessUtilities@@QEBAAEAV?$obfuscated_data@$09$0?BMGONCACNKPGIEIF@D@ay@@XZ@51 DD 01H DUP (?) ; `ProcessUtilities::freqDLLS::<lambda_2>::operator()'::`2'::`local static thread guard'
_TLS	ENDS
;	COMDAT ?obfuscated_data@?1???R<lambda_3>@freqDLLS@ProcessUtilities@@QEBAAEAV?$obfuscated_data@$0N@$0FHPLCBONHLGFABKJ@D@ay@@XZ@4V45@A
_TLS	SEGMENT
?obfuscated_data@?1???R<lambda_3>@freqDLLS@ProcessUtilities@@QEBAAEAV?$obfuscated_data@$0N@$0FHPLCBONHLGFABKJ@D@ay@@XZ@4V45@A DB 0eH DUP (?) ; `ProcessUtilities::freqDLLS::<lambda_3>::operator()'::`2'::obfuscated_data
_TLS	ENDS
;	COMDAT ?obfuscated_data@?1???R<lambda_2>@?1??LoadWSAFunctions@NetCommon@@YAXXZ@QEBAAEAV?$obfuscated_data@$0L@$0?EENOPMEAPELCIIOD@D@ay@@XZ@4V45@A
_TLS	SEGMENT
?obfuscated_data@?1???R<lambda_2>@?1??LoadWSAFunctions@NetCommon@@YAXXZ@QEBAAEAV?$obfuscated_data@$0L@$0?EENOPMEAPELCIIOD@D@ay@@XZ@4V45@A DB 0cH DUP (?) ; ``NetCommon::LoadWSAFunctions'::`2'::<lambda_2>::operator()'::`2'::obfuscated_data
_TLS	ENDS
;	COMDAT ?obfuscated_data@?1???R<lambda_1>@freqDLLS@ProcessUtilities@@QEBAAEAV?$obfuscated_data@$0N@$0GPFFMNJFHLKDFJAP@D@ay@@XZ@4V45@A
_TLS	SEGMENT
?obfuscated_data@?1???R<lambda_1>@freqDLLS@ProcessUtilities@@QEBAAEAV?$obfuscated_data@$0N@$0GPFFMNJFHLKDFJAP@D@ay@@XZ@4V45@A DB 0eH DUP (?) ; `ProcessUtilities::freqDLLS::<lambda_1>::operator()'::`2'::obfuscated_data
_TLS	ENDS
;	COMDAT ??__J?1???R<lambda_3>@freqDLLS@ProcessUtilities@@QEBAAEAV?$obfuscated_data@$0N@$0FHPLCBONHLGFABKJ@D@ay@@XZ@51
_TLS	SEGMENT
??__J?1???R<lambda_3>@freqDLLS@ProcessUtilities@@QEBAAEAV?$obfuscated_data@$0N@$0FHPLCBONHLGFABKJ@D@ay@@XZ@51 DD 01H DUP (?) ; `ProcessUtilities::freqDLLS::<lambda_3>::operator()'::`2'::`local static thread guard'
_TLS	ENDS
;	COMDAT ??__J?1???R<lambda_5>@?1??LoadWSAFunctions@NetCommon@@YAXXZ@QEBAAEAV?$obfuscated_data@$0M@$0?DMGIHEDGHAKMGH@D@ay@@XZ@51
_TLS	SEGMENT
??__J?1???R<lambda_5>@?1??LoadWSAFunctions@NetCommon@@YAXXZ@QEBAAEAV?$obfuscated_data@$0M@$0?DMGIHEDGHAKMGH@D@ay@@XZ@51 DD 01H DUP (?) ; ``NetCommon::LoadWSAFunctions'::`2'::<lambda_5>::operator()'::`2'::`local static thread guard'
_TLS	ENDS
;	COMDAT ?obfuscated_data@?1???R<lambda_7>@?1??LoadWSAFunctions@NetCommon@@YAXXZ@QEBAAEAV?$obfuscated_data@$04$0DJODMBJLLLJDFDHD@D@ay@@XZ@4V45@A
_TLS	SEGMENT
?obfuscated_data@?1???R<lambda_7>@?1??LoadWSAFunctions@NetCommon@@YAXXZ@QEBAAEAV?$obfuscated_data@$04$0DJODMBJLLLJDFDHD@D@ay@@XZ@4V45@A DB 06H DUP (?) ; ``NetCommon::LoadWSAFunctions'::`2'::<lambda_7>::operator()'::`2'::obfuscated_data
_TLS	ENDS
;	COMDAT ??__J?1???R<lambda_1>@?1??LoadWSAFunctions@NetCommon@@YAXXZ@QEBAAEAV?$obfuscated_data@$0N@$0?HGAKNEMGLKFGEOML@D@ay@@XZ@51
_TLS	SEGMENT
??__J?1???R<lambda_1>@?1??LoadWSAFunctions@NetCommon@@YAXXZ@QEBAAEAV?$obfuscated_data@$0N@$0?HGAKNEMGLKFGEOML@D@ay@@XZ@51 DD 01H DUP (?) ; ``NetCommon::LoadWSAFunctions'::`2'::<lambda_1>::operator()'::`2'::`local static thread guard'
_TLS	ENDS
;	COMDAT ??__J?1???R<lambda_7>@?1??LoadWSAFunctions@NetCommon@@YAXXZ@QEBAAEAV?$obfuscated_data@$04$0DJODMBJLLLJDFDHD@D@ay@@XZ@51
_TLS	SEGMENT
??__J?1???R<lambda_7>@?1??LoadWSAFunctions@NetCommon@@YAXXZ@QEBAAEAV?$obfuscated_data@$04$0DJODMBJLLLJDFDHD@D@ay@@XZ@51 DD 01H DUP (?) ; ``NetCommon::LoadWSAFunctions'::`2'::<lambda_7>::operator()'::`2'::`local static thread guard'
_TLS	ENDS
;	COMDAT ?obfuscated_data@?1???R<lambda_10>@?1??LoadWSAFunctions@NetCommon@@YAXXZ@QEBAAEAV?$obfuscated_data@$04$0?DGIIOELKAGGOMEHJ@D@ay@@XZ@4V45@A
_TLS	SEGMENT
?obfuscated_data@?1???R<lambda_10>@?1??LoadWSAFunctions@NetCommon@@YAXXZ@QEBAAEAV?$obfuscated_data@$04$0?DGIIOELKAGGOMEHJ@D@ay@@XZ@4V45@A DB 06H DUP (?) ; ``NetCommon::LoadWSAFunctions'::`2'::<lambda_10>::operator()'::`2'::obfuscated_data
_TLS	ENDS
;	COMDAT ??__J?1???R<lambda_9>@?1??LoadWSAFunctions@NetCommon@@YAXXZ@QEBAAEAV?$obfuscated_data@$08$0?DIIAIINMJEFCLIGH@D@ay@@XZ@51
_TLS	SEGMENT
??__J?1???R<lambda_9>@?1??LoadWSAFunctions@NetCommon@@YAXXZ@QEBAAEAV?$obfuscated_data@$08$0?DIIAIINMJEFCLIGH@D@ay@@XZ@51 DD 01H DUP (?) ; ``NetCommon::LoadWSAFunctions'::`2'::<lambda_9>::operator()'::`2'::`local static thread guard'
_TLS	ENDS
;	COMDAT ??__J?1???R<lambda_3>@?1??LoadWSAFunctions@NetCommon@@YAXXZ@QEBAAEAV?$obfuscated_data@$0L@$0?BENIGEJGOAAMAEMJ@D@ay@@XZ@51
_TLS	SEGMENT
??__J?1???R<lambda_3>@?1??LoadWSAFunctions@NetCommon@@YAXXZ@QEBAAEAV?$obfuscated_data@$0L@$0?BENIGEJGOAAMAEMJ@D@ay@@XZ@51 DD 01H DUP (?) ; ``NetCommon::LoadWSAFunctions'::`2'::<lambda_3>::operator()'::`2'::`local static thread guard'
_TLS	ENDS
;	COMDAT ?obfuscated_data@?1???R<lambda_2>@freqDLLS@ProcessUtilities@@QEBAAEAV?$obfuscated_data@$09$0?BMGONCACNKPGIEIF@D@ay@@XZ@4V45@A
_TLS	SEGMENT
?obfuscated_data@?1???R<lambda_2>@freqDLLS@ProcessUtilities@@QEBAAEAV?$obfuscated_data@$09$0?BMGONCACNKPGIEIF@D@ay@@XZ@4V45@A DB 0bH DUP (?) ; `ProcessUtilities::freqDLLS::<lambda_2>::operator()'::`2'::obfuscated_data
_TLS	ENDS
;	COMDAT ??__J?1???R<lambda_6>@?1??LoadWSAFunctions@NetCommon@@YAXXZ@QEBAAEAV?$obfuscated_data@$06$0?GECKGKFAHKOCHEBJ@D@ay@@XZ@51
_TLS	SEGMENT
??__J?1???R<lambda_6>@?1??LoadWSAFunctions@NetCommon@@YAXXZ@QEBAAEAV?$obfuscated_data@$06$0?GECKGKFAHKOCHEBJ@D@ay@@XZ@51 DD 01H DUP (?) ; ``NetCommon::LoadWSAFunctions'::`2'::<lambda_6>::operator()'::`2'::`local static thread guard'
_TLS	ENDS
;	COMDAT ??__J?1???R<lambda_11>@?1??LoadWSAFunctions@NetCommon@@YAXXZ@QEBAAEAV?$obfuscated_data@$0L@$0HNABEJKPKLAFGLNN@D@ay@@XZ@51
_TLS	SEGMENT
??__J?1???R<lambda_11>@?1??LoadWSAFunctions@NetCommon@@YAXXZ@QEBAAEAV?$obfuscated_data@$0L@$0HNABEJKPKLAFGLNN@D@ay@@XZ@51 DD 01H DUP (?) ; ``NetCommon::LoadWSAFunctions'::`2'::<lambda_11>::operator()'::`2'::`local static thread guard'
_TLS	ENDS
;	COMDAT ??__J?1???R<lambda_1>@freqDLLS@ProcessUtilities@@QEBAAEAV?$obfuscated_data@$0N@$0GPFFMNJFHLKDFJAP@D@ay@@XZ@51
_TLS	SEGMENT
??__J?1???R<lambda_1>@freqDLLS@ProcessUtilities@@QEBAAEAV?$obfuscated_data@$0N@$0GPFFMNJFHLKDFJAP@D@ay@@XZ@51 DD 01H DUP (?) ; `ProcessUtilities::freqDLLS::<lambda_1>::operator()'::`2'::`local static thread guard'
_TLS	ENDS
;	COMDAT ??__J?1???R<lambda_13>@?1??LoadWSAFunctions@NetCommon@@YAXXZ@QEBAAEAV?$obfuscated_data@$06$0HPNDKNLBIBOBFLON@D@ay@@XZ@51
_TLS	SEGMENT
??__J?1???R<lambda_13>@?1??LoadWSAFunctions@NetCommon@@YAXXZ@QEBAAEAV?$obfuscated_data@$06$0HPNDKNLBIBOBFLON@D@ay@@XZ@51 DD 01H DUP (?) ; ``NetCommon::LoadWSAFunctions'::`2'::<lambda_13>::operator()'::`2'::`local static thread guard'
_TLS	ENDS
;	COMDAT ?obfuscated_data@?1???R<lambda_4>@?1??LoadWSAFunctions@NetCommon@@YAXXZ@QEBAAEAV?$obfuscated_data@$04$0?KKMBKJIJMJIOKML@D@ay@@XZ@4V45@A
_TLS	SEGMENT
?obfuscated_data@?1???R<lambda_4>@?1??LoadWSAFunctions@NetCommon@@YAXXZ@QEBAAEAV?$obfuscated_data@$04$0?KKMBKJIJMJIOKML@D@ay@@XZ@4V45@A DB 06H DUP (?) ; ``NetCommon::LoadWSAFunctions'::`2'::<lambda_4>::operator()'::`2'::obfuscated_data
_TLS	ENDS
;	COMDAT ?obfuscated_data@?1???R<lambda_12>@?1??LoadWSAFunctions@NetCommon@@YAXXZ@QEBAAEAV?$obfuscated_data@$07$0?HIPICCNMEODGEKBB@D@ay@@XZ@4V45@A
_TLS	SEGMENT
?obfuscated_data@?1???R<lambda_12>@?1??LoadWSAFunctions@NetCommon@@YAXXZ@QEBAAEAV?$obfuscated_data@$07$0?HIPICCNMEODGEKBB@D@ay@@XZ@4V45@A DB 09H DUP (?) ; ``NetCommon::LoadWSAFunctions'::`2'::<lambda_12>::operator()'::`2'::obfuscated_data
_TLS	ENDS
;	COMDAT ?obfuscated_data@?1???R<lambda_13>@?1??LoadWSAFunctions@NetCommon@@YAXXZ@QEBAAEAV?$obfuscated_data@$06$0HPNDKNLBIBOBFLON@D@ay@@XZ@4V45@A
_TLS	SEGMENT
?obfuscated_data@?1???R<lambda_13>@?1??LoadWSAFunctions@NetCommon@@YAXXZ@QEBAAEAV?$obfuscated_data@$06$0HPNDKNLBIBOBFLON@D@ay@@XZ@4V45@A DQ 01H DUP (?) ; ``NetCommon::LoadWSAFunctions'::`2'::<lambda_13>::operator()'::`2'::obfuscated_data
_TLS	ENDS
;	COMDAT ?obfuscated_data@?1???R<lambda_11>@?1??LoadWSAFunctions@NetCommon@@YAXXZ@QEBAAEAV?$obfuscated_data@$0L@$0HNABEJKPKLAFGLNN@D@ay@@XZ@4V45@A
_TLS	SEGMENT
?obfuscated_data@?1???R<lambda_11>@?1??LoadWSAFunctions@NetCommon@@YAXXZ@QEBAAEAV?$obfuscated_data@$0L@$0HNABEJKPKLAFGLNN@D@ay@@XZ@4V45@A DB 0cH DUP (?) ; ``NetCommon::LoadWSAFunctions'::`2'::<lambda_11>::operator()'::`2'::obfuscated_data
_TLS	ENDS
;	COMDAT ??__J?1???R<lambda_8>@?1??LoadWSAFunctions@NetCommon@@YAXXZ@QEBAAEAV?$obfuscated_data@$06$0?GIOGLOCGPCIABIMJ@D@ay@@XZ@51
_TLS	SEGMENT
??__J?1???R<lambda_8>@?1??LoadWSAFunctions@NetCommon@@YAXXZ@QEBAAEAV?$obfuscated_data@$06$0?GIOGLOCGPCIABIMJ@D@ay@@XZ@51 DD 01H DUP (?) ; ``NetCommon::LoadWSAFunctions'::`2'::<lambda_8>::operator()'::`2'::`local static thread guard'
_TLS	ENDS
;	COMDAT ??__J?1???R<lambda_10>@?1??LoadWSAFunctions@NetCommon@@YAXXZ@QEBAAEAV?$obfuscated_data@$04$0?DGIIOELKAGGOMEHJ@D@ay@@XZ@51
_TLS	SEGMENT
??__J?1???R<lambda_10>@?1??LoadWSAFunctions@NetCommon@@YAXXZ@QEBAAEAV?$obfuscated_data@$04$0?DGIIOELKAGGOMEHJ@D@ay@@XZ@51 DD 01H DUP (?) ; ``NetCommon::LoadWSAFunctions'::`2'::<lambda_10>::operator()'::`2'::`local static thread guard'
_TLS	ENDS
;	COMDAT ?obfuscated_data@?1???R<lambda_9>@?1??LoadWSAFunctions@NetCommon@@YAXXZ@QEBAAEAV?$obfuscated_data@$08$0?DIIAIINMJEFCLIGH@D@ay@@XZ@4V45@A
_TLS	SEGMENT
?obfuscated_data@?1???R<lambda_9>@?1??LoadWSAFunctions@NetCommon@@YAXXZ@QEBAAEAV?$obfuscated_data@$08$0?DIIAIINMJEFCLIGH@D@ay@@XZ@4V45@A DB 0aH DUP (?) ; ``NetCommon::LoadWSAFunctions'::`2'::<lambda_9>::operator()'::`2'::obfuscated_data
_TLS	ENDS
;	COMDAT ??__J?1???R<lambda_2>@?1??LoadWSAFunctions@NetCommon@@YAXXZ@QEBAAEAV?$obfuscated_data@$0L@$0?EENOPMEAPELCIIOD@D@ay@@XZ@51
_TLS	SEGMENT
??__J?1???R<lambda_2>@?1??LoadWSAFunctions@NetCommon@@YAXXZ@QEBAAEAV?$obfuscated_data@$0L@$0?EENOPMEAPELCIIOD@D@ay@@XZ@51 DD 01H DUP (?) ; ``NetCommon::LoadWSAFunctions'::`2'::<lambda_2>::operator()'::`2'::`local static thread guard'
_TLS	ENDS
;	COMDAT ??__J?1???R<lambda_4>@?1??LoadWSAFunctions@NetCommon@@YAXXZ@QEBAAEAV?$obfuscated_data@$04$0?KKMBKJIJMJIOKML@D@ay@@XZ@51
_TLS	SEGMENT
??__J?1???R<lambda_4>@?1??LoadWSAFunctions@NetCommon@@YAXXZ@QEBAAEAV?$obfuscated_data@$04$0?KKMBKJIJMJIOKML@D@ay@@XZ@51 DD 01H DUP (?) ; ``NetCommon::LoadWSAFunctions'::`2'::<lambda_4>::operator()'::`2'::`local static thread guard'
_TLS	ENDS
;	COMDAT ?obfuscated_data@?1???R<lambda_3>@?1??LoadWSAFunctions@NetCommon@@YAXXZ@QEBAAEAV?$obfuscated_data@$0L@$0?BENIGEJGOAAMAEMJ@D@ay@@XZ@4V45@A
_TLS	SEGMENT
?obfuscated_data@?1???R<lambda_3>@?1??LoadWSAFunctions@NetCommon@@YAXXZ@QEBAAEAV?$obfuscated_data@$0L@$0?BENIGEJGOAAMAEMJ@D@ay@@XZ@4V45@A DB 0cH DUP (?) ; ``NetCommon::LoadWSAFunctions'::`2'::<lambda_3>::operator()'::`2'::obfuscated_data
_TLS	ENDS
;	COMDAT ?obfuscated_data@?1???R<lambda_1>@?1??LoadWSAFunctions@NetCommon@@YAXXZ@QEBAAEAV?$obfuscated_data@$0N@$0?HGAKNEMGLKFGEOML@D@ay@@XZ@4V45@A
_TLS	SEGMENT
?obfuscated_data@?1???R<lambda_1>@?1??LoadWSAFunctions@NetCommon@@YAXXZ@QEBAAEAV?$obfuscated_data@$0N@$0?HGAKNEMGLKFGEOML@D@ay@@XZ@4V45@A DB 0eH DUP (?) ; ``NetCommon::LoadWSAFunctions'::`2'::<lambda_1>::operator()'::`2'::obfuscated_data
_TLS	ENDS
;	COMDAT ?obfuscated_data@?1???R<lambda_8>@?1??LoadWSAFunctions@NetCommon@@YAXXZ@QEBAAEAV?$obfuscated_data@$06$0?GIOGLOCGPCIABIMJ@D@ay@@XZ@4V45@A
_TLS	SEGMENT
?obfuscated_data@?1???R<lambda_8>@?1??LoadWSAFunctions@NetCommon@@YAXXZ@QEBAAEAV?$obfuscated_data@$06$0?GIOGLOCGPCIABIMJ@D@ay@@XZ@4V45@A DQ 01H DUP (?) ; ``NetCommon::LoadWSAFunctions'::`2'::<lambda_8>::operator()'::`2'::obfuscated_data
_TLS	ENDS
;	COMDAT ??__J?1???R<lambda_12>@?1??LoadWSAFunctions@NetCommon@@YAXXZ@QEBAAEAV?$obfuscated_data@$07$0?HIPICCNMEODGEKBB@D@ay@@XZ@51
_TLS	SEGMENT
??__J?1???R<lambda_12>@?1??LoadWSAFunctions@NetCommon@@YAXXZ@QEBAAEAV?$obfuscated_data@$07$0?HIPICCNMEODGEKBB@D@ay@@XZ@51 DD 01H DUP (?) ; ``NetCommon::LoadWSAFunctions'::`2'::<lambda_12>::operator()'::`2'::`local static thread guard'
_TLS	ENDS
;	COMDAT ?obfuscated_data@?1???R<lambda_5>@?1??LoadWSAFunctions@NetCommon@@YAXXZ@QEBAAEAV?$obfuscated_data@$0M@$0?DMGIHEDGHAKMGH@D@ay@@XZ@4V45@A
_TLS	SEGMENT
?obfuscated_data@?1???R<lambda_5>@?1??LoadWSAFunctions@NetCommon@@YAXXZ@QEBAAEAV?$obfuscated_data@$0M@$0?DMGIHEDGHAKMGH@D@ay@@XZ@4V45@A DB 0dH DUP (?) ; ``NetCommon::LoadWSAFunctions'::`2'::<lambda_5>::operator()'::`2'::obfuscated_data
?kernel32@freqDLLS@ProcessUtilities@@3V?$basic_string@DU?$char_traits@D@std@@V?$allocator@D@2@@std@@B DB 020H DUP (?) ; ProcessUtilities::freqDLLS::kernel32
?ntdll@freqDLLS@ProcessUtilities@@3V?$basic_string@DU?$char_traits@D@std@@V?$allocator@D@2@@std@@B DB 020H DUP (?) ; ProcessUtilities::freqDLLS::ntdll
?advapi32@freqDLLS@ProcessUtilities@@3V?$basic_string@DU?$char_traits@D@std@@V?$allocator@D@2@@std@@B DB 020H DUP (?) ; ProcessUtilities::freqDLLS::advapi32
_BSS	ENDS
;	COMDAT pdata
pdata	SEGMENT
$pdata$??$_Copy_memmove@PEAEPEAE@std@@YAPEAEPEAE00@Z DD imagerel $LN4
	DD	imagerel $LN4+48
	DD	imagerel $unwind$??$_Copy_memmove@PEAEPEAE@std@@YAPEAEPEAE00@Z
pdata	ENDS
;	COMDAT pdata
pdata	SEGMENT
$pdata$?allocate@?$allocator@E@std@@QEAAPEAE_K@Z DD imagerel $LN30
	DD	imagerel $LN30+88
	DD	imagerel $unwind$?allocate@?$allocator@E@std@@QEAAPEAE_K@Z
pdata	ENDS
;	COMDAT pdata
pdata	SEGMENT
$pdata$??$_Zero_range@PEAE@std@@YAPEAEQEAE0@Z DD imagerel $LN4
	DD	imagerel $LN4+31
	DD	imagerel $unwind$??$_Zero_range@PEAE@std@@YAPEAEQEAE0@Z
pdata	ENDS
;	COMDAT pdata
pdata	SEGMENT
$pdata$??$_Uninitialized_move@PEAEV?$allocator@E@std@@@std@@YAPEAEQEAE0PEAEAEAV?$allocator@E@0@@Z DD imagerel $LN24
	DD	imagerel $LN24+49
	DD	imagerel $unwind$??$_Uninitialized_move@PEAEV?$allocator@E@std@@@std@@YAPEAEQEAE0PEAEAEAV?$allocator@E@0@@Z
pdata	ENDS
;	COMDAT pdata
pdata	SEGMENT
$pdata$??$_Allocate_at_least_helper@V?$allocator@E@std@@@std@@YAPEAEAEAV?$allocator@E@0@AEA_K@Z DD imagerel $LN33
	DD	imagerel $LN33+91
	DD	imagerel $unwind$??$_Allocate_at_least_helper@V?$allocator@E@std@@@std@@YAPEAEAEAV?$allocator@E@0@AEA_K@Z
pdata	ENDS
;	COMDAT pdata
pdata	SEGMENT
$pdata$??$_Copy_memmove@PEADPEAE@std@@YAPEAEPEAD0PEAE@Z DD imagerel $LN4
	DD	imagerel $LN4+48
	DD	imagerel $unwind$??$_Copy_memmove@PEADPEAE@std@@YAPEAEPEAD0PEAE@Z
pdata	ENDS
;	COMDAT pdata
pdata	SEGMENT
$pdata$?_Change_array@?$vector@EV?$allocator@E@std@@@std@@AEAAXQEAE_K1@Z DD imagerel $LN30
	DD	imagerel $LN30+131
	DD	imagerel $unwind$?_Change_array@?$vector@EV?$allocator@E@std@@@std@@AEAAXQEAE_K1@Z
pdata	ENDS
;	COMDAT pdata
pdata	SEGMENT
$pdata$?_Xlength@?$vector@EV?$allocator@E@std@@@std@@CAXXZ DD imagerel $LN4
	DD	imagerel $LN4+17
	DD	imagerel $unwind$?_Xlength@?$vector@EV?$allocator@E@std@@@std@@CAXXZ
pdata	ENDS
;	COMDAT pdata
pdata	SEGMENT
$pdata$??$_Emplace_reallocate@AEBE@?$vector@EV?$allocator@E@std@@@std@@AEAAPEAEQEAEAEBE@Z DD imagerel $LN128
	DD	imagerel $LN128+64
	DD	imagerel $unwind$??$_Emplace_reallocate@AEBE@?$vector@EV?$allocator@E@std@@@std@@AEAAPEAEQEAEAEBE@Z
pdata	ENDS
;	COMDAT pdata
pdata	SEGMENT
$pdata$2$??$_Emplace_reallocate@AEBE@?$vector@EV?$allocator@E@std@@@std@@AEAAPEAEQEAEAEBE@Z DD imagerel $LN128+64
	DD	imagerel $LN128+305
	DD	imagerel $chain$2$??$_Emplace_reallocate@AEBE@?$vector@EV?$allocator@E@std@@@std@@AEAAPEAEQEAEAEBE@Z
pdata	ENDS
;	COMDAT pdata
pdata	SEGMENT
$pdata$4$??$_Emplace_reallocate@AEBE@?$vector@EV?$allocator@E@std@@@std@@AEAAPEAEQEAEAEBE@Z DD imagerel $LN128+305
	DD	imagerel $LN128+317
	DD	imagerel $chain$4$??$_Emplace_reallocate@AEBE@?$vector@EV?$allocator@E@std@@@std@@AEAAPEAEQEAEAEBE@Z
pdata	ENDS
;	COMDAT pdata
pdata	SEGMENT
$pdata$5$??$_Emplace_reallocate@AEBE@?$vector@EV?$allocator@E@std@@@std@@AEAAPEAEQEAEAEBE@Z DD imagerel $LN128+317
	DD	imagerel $LN128+323
	DD	imagerel $chain$5$??$_Emplace_reallocate@AEBE@?$vector@EV?$allocator@E@std@@@std@@AEAAPEAEQEAEAEBE@Z
pdata	ENDS
;	COMDAT pdata
pdata	SEGMENT
$pdata$??$_Uninitialized_value_construct_n@V?$allocator@E@std@@@std@@YAPEAEPEAE_KAEAV?$allocator@E@0@@Z DD imagerel $LN29
	DD	imagerel $LN29+41
	DD	imagerel $unwind$??$_Uninitialized_value_construct_n@V?$allocator@E@std@@@std@@YAPEAEPEAE_KAEAV?$allocator@E@0@@Z
pdata	ENDS
;	COMDAT pdata
pdata	SEGMENT
$pdata$??$_Resize_reallocate@U_Value_init_tag@std@@@?$vector@EV?$allocator@E@std@@@std@@AEAAX_KAEBU_Value_init_tag@1@@Z DD imagerel $LN108
	DD	imagerel $LN108+34
	DD	imagerel $unwind$??$_Resize_reallocate@U_Value_init_tag@std@@@?$vector@EV?$allocator@E@std@@@std@@AEAAX_KAEBU_Value_init_tag@1@@Z
pdata	ENDS
;	COMDAT pdata
pdata	SEGMENT
$pdata$2$??$_Resize_reallocate@U_Value_init_tag@std@@@?$vector@EV?$allocator@E@std@@@std@@AEAAX_KAEBU_Value_init_tag@1@@Z DD imagerel $LN108+34
	DD	imagerel $LN108+244
	DD	imagerel $chain$2$??$_Resize_reallocate@U_Value_init_tag@std@@@?$vector@EV?$allocator@E@std@@@std@@AEAAX_KAEBU_Value_init_tag@1@@Z
pdata	ENDS
;	COMDAT pdata
pdata	SEGMENT
$pdata$4$??$_Resize_reallocate@U_Value_init_tag@std@@@?$vector@EV?$allocator@E@std@@@std@@AEAAX_KAEBU_Value_init_tag@1@@Z DD imagerel $LN108+244
	DD	imagerel $LN108+256
	DD	imagerel $chain$4$??$_Resize_reallocate@U_Value_init_tag@std@@@?$vector@EV?$allocator@E@std@@@std@@AEAAX_KAEBU_Value_init_tag@1@@Z
pdata	ENDS
;	COMDAT pdata
pdata	SEGMENT
$pdata$5$??$_Resize_reallocate@U_Value_init_tag@std@@@?$vector@EV?$allocator@E@std@@@std@@AEAAX_KAEBU_Value_init_tag@1@@Z DD imagerel $LN108+256
	DD	imagerel $LN108+262
	DD	imagerel $chain$5$??$_Resize_reallocate@U_Value_init_tag@std@@@?$vector@EV?$allocator@E@std@@@std@@AEAAX_KAEBU_Value_init_tag@1@@Z
pdata	ENDS
;	COMDAT pdata
pdata	SEGMENT
$pdata$??$_Copy_unchecked@PEADPEADPEAE@std@@YAPEAEPEAD0PEAE@Z DD imagerel $LN16
	DD	imagerel $LN16+48
	DD	imagerel $unwind$??$_Copy_unchecked@PEADPEADPEAE@std@@YAPEAEPEAD0PEAE@Z
pdata	ENDS
;	COMDAT pdata
pdata	SEGMENT
$pdata$??$_Construct@$01PEBD@?$basic_string@DU?$char_traits@D@std@@V?$allocator@D@2@@std@@AEAAXQEBD_K@Z DD imagerel $LN99
	DD	imagerel $LN99+242
	DD	imagerel $unwind$??$_Construct@$01PEBD@?$basic_string@DU?$char_traits@D@std@@V?$allocator@D@2@@std@@AEAAXQEBD_K@Z
pdata	ENDS
;	COMDAT pdata
pdata	SEGMENT
$pdata$??$_Resize@U_Value_init_tag@std@@@?$vector@EV?$allocator@E@std@@@std@@AEAAX_KAEBU_Value_init_tag@1@@Z DD imagerel $LN38
	DD	imagerel $LN38+125
	DD	imagerel $unwind$??$_Resize@U_Value_init_tag@std@@@?$vector@EV?$allocator@E@std@@@std@@AEAAX_KAEBU_Value_init_tag@1@@Z
pdata	ENDS
;	COMDAT pdata
pdata	SEGMENT
$pdata$??$copy@PEADV?$_Vector_iterator@V?$_Vector_val@U?$_Simple_types@E@std@@@std@@@std@@@std@@YA?AV?$_Vector_iterator@V?$_Vector_val@U?$_Simple_types@E@std@@@std@@@0@PEAD0V10@@Z DD imagerel $LN20
	DD	imagerel $LN20+49
	DD	imagerel $unwind$??$copy@PEADV?$_Vector_iterator@V?$_Vector_val@U?$_Simple_types@E@std@@@std@@@std@@@std@@YA?AV?$_Vector_iterator@V?$_Vector_val@U?$_Simple_types@E@std@@@std@@@0@PEAD0V10@@Z
pdata	ENDS
;	COMDAT pdata
pdata	SEGMENT
$pdata$??$GetFunctionAddress@P6AH_KH@Z@ProcessUtilities@@YAP6AH_KH@ZPEAUHINSTANCE__@@V?$basic_string@DU?$char_traits@D@std@@V?$allocator@D@2@@std@@@Z DD imagerel $LN46
	DD	imagerel $LN46+169
	DD	imagerel $unwind$??$GetFunctionAddress@P6AH_KH@Z@ProcessUtilities@@YAP6AH_KH@ZPEAUHINSTANCE__@@V?$basic_string@DU?$char_traits@D@std@@V?$allocator@D@2@@std@@@Z
pdata	ENDS
;	COMDAT pdata
pdata	SEGMENT
$pdata$??$GetFunctionAddress@P6AHXZ@ProcessUtilities@@YAP6AHXZPEAUHINSTANCE__@@V?$basic_string@DU?$char_traits@D@std@@V?$allocator@D@2@@std@@@Z DD imagerel $LN46
	DD	imagerel $LN46+169
	DD	imagerel $unwind$??$GetFunctionAddress@P6AHXZ@ProcessUtilities@@YAP6AHXZPEAUHINSTANCE__@@V?$basic_string@DU?$char_traits@D@std@@V?$allocator@D@2@@std@@@Z
pdata	ENDS
;	COMDAT pdata
pdata	SEGMENT
$pdata$??$GetFunctionAddress@P6AH_KPEBDHH@Z@ProcessUtilities@@YAP6AH_KPEBDHH@ZPEAUHINSTANCE__@@V?$basic_string@DU?$char_traits@D@std@@V?$allocator@D@2@@std@@@Z DD imagerel $LN46
	DD	imagerel $LN46+169
	DD	imagerel $unwind$??$GetFunctionAddress@P6AH_KPEBDHH@Z@ProcessUtilities@@YAP6AH_KPEBDHH@ZPEAUHINSTANCE__@@V?$basic_string@DU?$char_traits@D@std@@V?$allocator@D@2@@std@@@Z
pdata	ENDS
;	COMDAT pdata
pdata	SEGMENT
$pdata$??$GetFunctionAddress@P6AH_KPEADHHPEAUsockaddr@@PEAH@Z@ProcessUtilities@@YAP6AH_KPEADHHPEAUsockaddr@@PEAH@ZPEAUHINSTANCE__@@V?$basic_string@DU?$char_traits@D@std@@V?$allocator@D@2@@std@@@Z DD imagerel $LN46
	DD	imagerel $LN46+169
	DD	imagerel $unwind$??$GetFunctionAddress@P6AH_KPEADHHPEAUsockaddr@@PEAH@Z@ProcessUtilities@@YAP6AH_KPEADHHPEAUsockaddr@@PEAH@ZPEAUHINSTANCE__@@V?$basic_string@DU?$char_traits@D@std@@V?$allocator@D@2@@std@@@Z
pdata	ENDS
;	COMDAT pdata
pdata	SEGMENT
$pdata$??$GetFunctionAddress@P6AH_KPEBDHHPEBUsockaddr@@H@Z@ProcessUtilities@@YAP6AH_KPEBDHHPEBUsockaddr@@H@ZPEAUHINSTANCE__@@V?$basic_string@DU?$char_traits@D@std@@V?$allocator@D@2@@std@@@Z DD imagerel $LN46
	DD	imagerel $LN46+169
	DD	imagerel $unwind$??$GetFunctionAddress@P6AH_KPEBDHHPEBUsockaddr@@H@Z@ProcessUtilities@@YAP6AH_KPEBDHHPEBUsockaddr@@H@ZPEAUHINSTANCE__@@V?$basic_string@DU?$char_traits@D@std@@V?$allocator@D@2@@std@@@Z
pdata	ENDS
;	COMDAT pdata
pdata	SEGMENT
$pdata$??$GetFunctionAddress@P6AH_KPEADHH@Z@ProcessUtilities@@YAP6AH_KPEADHH@ZPEAUHINSTANCE__@@V?$basic_string@DU?$char_traits@D@std@@V?$allocator@D@2@@std@@@Z DD imagerel $LN46
	DD	imagerel $LN46+169
	DD	imagerel $unwind$??$GetFunctionAddress@P6AH_KPEADHH@Z@ProcessUtilities@@YAP6AH_KPEADHH@ZPEAUHINSTANCE__@@V?$basic_string@DU?$char_traits@D@std@@V?$allocator@D@2@@std@@@Z
pdata	ENDS
;	COMDAT pdata
pdata	SEGMENT
$pdata$??$GetFunctionAddress@P6A_KHHH@Z@ProcessUtilities@@YAP6A_KHHH@ZPEAUHINSTANCE__@@V?$basic_string@DU?$char_traits@D@std@@V?$allocator@D@2@@std@@@Z DD imagerel $LN46
	DD	imagerel $LN46+169
	DD	imagerel $unwind$??$GetFunctionAddress@P6A_KHHH@Z@ProcessUtilities@@YAP6A_KHHH@ZPEAUHINSTANCE__@@V?$basic_string@DU?$char_traits@D@std@@V?$allocator@D@2@@std@@@Z
pdata	ENDS
;	COMDAT pdata
pdata	SEGMENT
$pdata$??$GetFunctionAddress@P6AH_K@Z@ProcessUtilities@@YAP6AH_K@ZPEAUHINSTANCE__@@V?$basic_string@DU?$char_traits@D@std@@V?$allocator@D@2@@std@@@Z DD imagerel $LN46
	DD	imagerel $LN46+169
	DD	imagerel $unwind$??$GetFunctionAddress@P6AH_K@Z@ProcessUtilities@@YAP6AH_K@ZPEAUHINSTANCE__@@V?$basic_string@DU?$char_traits@D@std@@V?$allocator@D@2@@std@@@Z
pdata	ENDS
;	COMDAT pdata
pdata	SEGMENT
$pdata$??$GetFunctionAddress@P6AH_KPEBUsockaddr@@H@Z@ProcessUtilities@@YAP6AH_KPEBUsockaddr@@H@ZPEAUHINSTANCE__@@V?$basic_string@DU?$char_traits@D@std@@V?$allocator@D@2@@std@@@Z DD imagerel $LN46
	DD	imagerel $LN46+169
	DD	imagerel $unwind$??$GetFunctionAddress@P6AH_KPEBUsockaddr@@H@Z@ProcessUtilities@@YAP6AH_KPEBUsockaddr@@H@ZPEAUHINSTANCE__@@V?$basic_string@DU?$char_traits@D@std@@V?$allocator@D@2@@std@@@Z
pdata	ENDS
;	COMDAT pdata
pdata	SEGMENT
$pdata$??$GetFunctionAddress@P6AHGPEAUWSAData@@@Z@ProcessUtilities@@YAP6AHGPEAUWSAData@@@ZPEAUHINSTANCE__@@V?$basic_string@DU?$char_traits@D@std@@V?$allocator@D@2@@std@@@Z DD imagerel $LN46
	DD	imagerel $LN46+169
	DD	imagerel $unwind$??$GetFunctionAddress@P6AHGPEAUWSAData@@@Z@ProcessUtilities@@YAP6AHGPEAUWSAData@@@ZPEAUHINSTANCE__@@V?$basic_string@DU?$char_traits@D@std@@V?$allocator@D@2@@std@@@Z
pdata	ENDS
;	COMDAT pdata
pdata	SEGMENT
$pdata$??$GetFunctionAddress@P6APEAUHINSTANCE__@@PEBD@Z@ProcessUtilities@@YAP6APEAUHINSTANCE__@@PEBD@ZPEAU1@V?$basic_string@DU?$char_traits@D@std@@V?$allocator@D@2@@std@@@Z DD imagerel $LN46
	DD	imagerel $LN46+169
	DD	imagerel $unwind$??$GetFunctionAddress@P6APEAUHINSTANCE__@@PEBD@Z@ProcessUtilities@@YAP6APEAUHINSTANCE__@@PEBD@ZPEAU1@V?$basic_string@DU?$char_traits@D@std@@V?$allocator@D@2@@std@@@Z
pdata	ENDS
;	COMDAT pdata
pdata	SEGMENT
$pdata$?deallocate@?$allocator@E@std@@QEAAXQEAE_K@Z DD imagerel $LN23
	DD	imagerel $LN23+61
	DD	imagerel $unwind$?deallocate@?$allocator@E@std@@QEAAXQEAE_K@Z
pdata	ENDS
;	COMDAT pdata
pdata	SEGMENT
$pdata$?_Tidy@?$vector@EV?$allocator@E@std@@@std@@AEAAXXZ DD imagerel $LN31
	DD	imagerel $LN31+87
	DD	imagerel $unwind$?_Tidy@?$vector@EV?$allocator@E@std@@@std@@AEAAXXZ
pdata	ENDS
;	COMDAT pdata
pdata	SEGMENT
$pdata$?decrypt@?$obfuscated_data@$0N@$0?HGAKNEMGLKFGEOML@D@ay@@QEAAXXZ DD imagerel $LN6
	DD	imagerel $LN6+45
	DD	imagerel $unwind$?decrypt@?$obfuscated_data@$0N@$0?HGAKNEMGLKFGEOML@D@ay@@QEAAXXZ
pdata	ENDS
;	COMDAT pdata
pdata	SEGMENT
$pdata$?decrypt@?$obfuscated_data@$0L@$0?EENOPMEAPELCIIOD@D@ay@@QEAAXXZ DD imagerel $LN6
	DD	imagerel $LN6+45
	DD	imagerel $unwind$?decrypt@?$obfuscated_data@$0L@$0?EENOPMEAPELCIIOD@D@ay@@QEAAXXZ
pdata	ENDS
;	COMDAT pdata
pdata	SEGMENT
$pdata$?decrypt@?$obfuscated_data@$0L@$0?BENIGEJGOAAMAEMJ@D@ay@@QEAAXXZ DD imagerel $LN6
	DD	imagerel $LN6+45
	DD	imagerel $unwind$?decrypt@?$obfuscated_data@$0L@$0?BENIGEJGOAAMAEMJ@D@ay@@QEAAXXZ
pdata	ENDS
;	COMDAT pdata
pdata	SEGMENT
$pdata$?decrypt@?$obfuscated_data@$0M@$0?DMGIHEDGHAKMGH@D@ay@@QEAAXXZ DD imagerel $LN6
	DD	imagerel $LN6+45
	DD	imagerel $unwind$?decrypt@?$obfuscated_data@$0M@$0?DMGIHEDGHAKMGH@D@ay@@QEAAXXZ
pdata	ENDS
;	COMDAT pdata
pdata	SEGMENT
$pdata$?decrypt@?$obfuscated_data@$08$0?DIIAIINMJEFCLIGH@D@ay@@QEAAXXZ DD imagerel $LN6
	DD	imagerel $LN6+45
	DD	imagerel $unwind$?decrypt@?$obfuscated_data@$08$0?DIIAIINMJEFCLIGH@D@ay@@QEAAXXZ
pdata	ENDS
;	COMDAT pdata
pdata	SEGMENT
$pdata$?decrypt@?$obfuscated_data@$0L@$0HNABEJKPKLAFGLNN@D@ay@@QEAAXXZ DD imagerel $LN6
	DD	imagerel $LN6+45
	DD	imagerel $unwind$?decrypt@?$obfuscated_data@$0L@$0HNABEJKPKLAFGLNN@D@ay@@QEAAXXZ
pdata	ENDS
;	COMDAT pdata
pdata	SEGMENT
$pdata$?decrypt@?$obfuscated_data@$07$0?HIPICCNMEODGEKBB@D@ay@@QEAAXXZ DD imagerel $LN6
	DD	imagerel $LN6+45
	DD	imagerel $unwind$?decrypt@?$obfuscated_data@$07$0?HIPICCNMEODGEKBB@D@ay@@QEAAXXZ
pdata	ENDS
;	COMDAT pdata
pdata	SEGMENT
$pdata$??0?$basic_string@DU?$char_traits@D@std@@V?$allocator@D@2@@std@@QEAA@AEBV01@@Z DD imagerel $LN123
	DD	imagerel $LN123+276
	DD	imagerel $unwind$??0?$basic_string@DU?$char_traits@D@std@@V?$allocator@D@2@@std@@QEAA@AEBV01@@Z
pdata	ENDS
;	COMDAT pdata
pdata	SEGMENT
$pdata$??1?$vector@EV?$allocator@E@std@@@std@@QEAA@XZ DD imagerel $LN35
	DD	imagerel $LN35+87
	DD	imagerel $unwind$??1?$vector@EV?$allocator@E@std@@@std@@QEAA@XZ
pdata	ENDS
;	COMDAT pdata
pdata	SEGMENT
$pdata$?resize@?$vector@EV?$allocator@E@std@@@std@@QEAAX_K@Z DD imagerel $LN40
	DD	imagerel $LN40+125
	DD	imagerel $unwind$?resize@?$vector@EV?$allocator@E@std@@@std@@QEAAX_K@Z
pdata	ENDS
;	COMDAT pdata
pdata	SEGMENT
$pdata$??0?$Aes@$0BAA@@Cipher@@QEAA@QEAE@Z DD imagerel $LN4
	DD	imagerel $LN4+54
	DD	imagerel $unwind$??0?$Aes@$0BAA@@Cipher@@QEAA@QEAE@Z
pdata	ENDS
;	COMDAT pdata
pdata	SEGMENT
$pdata$??B?$obfuscated_data@$0N@$0?HGAKNEMGLKFGEOML@D@ay@@QEAAPEADXZ DD imagerel $LN9
	DD	imagerel $LN9+48
	DD	imagerel $unwind$??B?$obfuscated_data@$0N@$0?HGAKNEMGLKFGEOML@D@ay@@QEAAPEADXZ
pdata	ENDS
;	COMDAT pdata
pdata	SEGMENT
$pdata$??B?$obfuscated_data@$0L@$0?EENOPMEAPELCIIOD@D@ay@@QEAAPEADXZ DD imagerel $LN9
	DD	imagerel $LN9+48
	DD	imagerel $unwind$??B?$obfuscated_data@$0L@$0?EENOPMEAPELCIIOD@D@ay@@QEAAPEADXZ
pdata	ENDS
;	COMDAT pdata
pdata	SEGMENT
$pdata$??B?$obfuscated_data@$0L@$0?BENIGEJGOAAMAEMJ@D@ay@@QEAAPEADXZ DD imagerel $LN9
	DD	imagerel $LN9+48
	DD	imagerel $unwind$??B?$obfuscated_data@$0L@$0?BENIGEJGOAAMAEMJ@D@ay@@QEAAPEADXZ
pdata	ENDS
;	COMDAT pdata
pdata	SEGMENT
$pdata$??B?$obfuscated_data@$0M@$0?DMGIHEDGHAKMGH@D@ay@@QEAAPEADXZ DD imagerel $LN9
	DD	imagerel $LN9+48
	DD	imagerel $unwind$??B?$obfuscated_data@$0M@$0?DMGIHEDGHAKMGH@D@ay@@QEAAPEADXZ
pdata	ENDS
;	COMDAT pdata
pdata	SEGMENT
$pdata$??B?$obfuscated_data@$08$0?DIIAIINMJEFCLIGH@D@ay@@QEAAPEADXZ DD imagerel $LN9
	DD	imagerel $LN9+48
	DD	imagerel $unwind$??B?$obfuscated_data@$08$0?DIIAIINMJEFCLIGH@D@ay@@QEAAPEADXZ
pdata	ENDS
;	COMDAT pdata
pdata	SEGMENT
$pdata$??B?$obfuscated_data@$0L@$0HNABEJKPKLAFGLNN@D@ay@@QEAAPEADXZ DD imagerel $LN9
	DD	imagerel $LN9+48
	DD	imagerel $unwind$??B?$obfuscated_data@$0L@$0HNABEJKPKLAFGLNN@D@ay@@QEAAPEADXZ
pdata	ENDS
;	COMDAT pdata
pdata	SEGMENT
$pdata$??B?$obfuscated_data@$07$0?HIPICCNMEODGEKBB@D@ay@@QEAAPEADXZ DD imagerel $LN9
	DD	imagerel $LN9+48
	DD	imagerel $unwind$??B?$obfuscated_data@$07$0?HIPICCNMEODGEKBB@D@ay@@QEAAPEADXZ
pdata	ENDS
;	COMDAT pdata
pdata	SEGMENT
$pdata$??0NET_BLOB@@QEAA@AEBU0@@Z DD imagerel $LN19
	DD	imagerel $LN19+239
	DD	imagerel $unwind$??0NET_BLOB@@QEAA@AEBU0@@Z
pdata	ENDS
;	COMDAT pdata
pdata	SEGMENT
$pdata$?AESEncryptBlob@NetCommon@@YA?AV?$vector@EV?$allocator@E@std@@@std@@UNET_BLOB@@@Z DD imagerel $LN294
	DD	imagerel $LN294+662
	DD	imagerel $unwind$?AESEncryptBlob@NetCommon@@YA?AV?$vector@EV?$allocator@E@std@@@std@@UNET_BLOB@@@Z
pdata	ENDS
;	COMDAT pdata
pdata	SEGMENT
$pdata$??R<lambda_13>@?1??LoadWSAFunctions@NetCommon@@YAXXZ@QEBAAEAV?$obfuscated_data@$06$0HPNDKNLBIBOBFLON@D@ay@@XZ DD imagerel ??R<lambda_13>@?1??LoadWSAFunctions@NetCommon@@YAXXZ@QEBAAEAV?$obfuscated_data@$06$0HPNDKNLBIBOBFLON@D@ay@@XZ
	DD	imagerel ??R<lambda_13>@?1??LoadWSAFunctions@NetCommon@@YAXXZ@QEBAAEAV?$obfuscated_data@$06$0HPNDKNLBIBOBFLON@D@ay@@XZ+91
	DD	imagerel $unwind$??R<lambda_13>@?1??LoadWSAFunctions@NetCommon@@YAXXZ@QEBAAEAV?$obfuscated_data@$06$0HPNDKNLBIBOBFLON@D@ay@@XZ
pdata	ENDS
;	COMDAT pdata
pdata	SEGMENT
$pdata$?dtor$0@?0???R<lambda_13>@?1??LoadWSAFunctions@NetCommon@@YAXXZ@QEBAAEAV?$obfuscated_data@$06$0HPNDKNLBIBOBFLON@D@ay@@XZ@4HA DD imagerel ?dtor$0@?0???R<lambda_13>@?1??LoadWSAFunctions@NetCommon@@YAXXZ@QEBAAEAV?$obfuscated_data@$06$0HPNDKNLBIBOBFLON@D@ay@@XZ@4HA
	DD	imagerel ?dtor$0@?0???R<lambda_13>@?1??LoadWSAFunctions@NetCommon@@YAXXZ@QEBAAEAV?$obfuscated_data@$06$0HPNDKNLBIBOBFLON@D@ay@@XZ@4HA+59
	DD	imagerel $unwind$?dtor$0@?0???R<lambda_13>@?1??LoadWSAFunctions@NetCommon@@YAXXZ@QEBAAEAV?$obfuscated_data@$06$0HPNDKNLBIBOBFLON@D@ay@@XZ@4HA
pdata	ENDS
;	COMDAT pdata
pdata	SEGMENT
$pdata$??R<lambda_12>@?1??LoadWSAFunctions@NetCommon@@YAXXZ@QEBAAEAV?$obfuscated_data@$07$0?HIPICCNMEODGEKBB@D@ay@@XZ DD imagerel ??R<lambda_12>@?1??LoadWSAFunctions@NetCommon@@YAXXZ@QEBAAEAV?$obfuscated_data@$07$0?HIPICCNMEODGEKBB@D@ay@@XZ
	DD	imagerel ??R<lambda_12>@?1??LoadWSAFunctions@NetCommon@@YAXXZ@QEBAAEAV?$obfuscated_data@$07$0?HIPICCNMEODGEKBB@D@ay@@XZ+100
	DD	imagerel $unwind$??R<lambda_12>@?1??LoadWSAFunctions@NetCommon@@YAXXZ@QEBAAEAV?$obfuscated_data@$07$0?HIPICCNMEODGEKBB@D@ay@@XZ
pdata	ENDS
;	COMDAT pdata
pdata	SEGMENT
$pdata$?dtor$0@?0???R<lambda_12>@?1??LoadWSAFunctions@NetCommon@@YAXXZ@QEBAAEAV?$obfuscated_data@$07$0?HIPICCNMEODGEKBB@D@ay@@XZ@4HA DD imagerel ?dtor$0@?0???R<lambda_12>@?1??LoadWSAFunctions@NetCommon@@YAXXZ@QEBAAEAV?$obfuscated_data@$07$0?HIPICCNMEODGEKBB@D@ay@@XZ@4HA
	DD	imagerel ?dtor$0@?0???R<lambda_12>@?1??LoadWSAFunctions@NetCommon@@YAXXZ@QEBAAEAV?$obfuscated_data@$07$0?HIPICCNMEODGEKBB@D@ay@@XZ@4HA+59
	DD	imagerel $unwind$?dtor$0@?0???R<lambda_12>@?1??LoadWSAFunctions@NetCommon@@YAXXZ@QEBAAEAV?$obfuscated_data@$07$0?HIPICCNMEODGEKBB@D@ay@@XZ@4HA
pdata	ENDS
;	COMDAT pdata
pdata	SEGMENT
$pdata$??R<lambda_11>@?1??LoadWSAFunctions@NetCommon@@YAXXZ@QEBAAEAV?$obfuscated_data@$0L@$0HNABEJKPKLAFGLNN@D@ay@@XZ DD imagerel ??R<lambda_11>@?1??LoadWSAFunctions@NetCommon@@YAXXZ@QEBAAEAV?$obfuscated_data@$0L@$0HNABEJKPKLAFGLNN@D@ay@@XZ
	DD	imagerel ??R<lambda_11>@?1??LoadWSAFunctions@NetCommon@@YAXXZ@QEBAAEAV?$obfuscated_data@$0L@$0HNABEJKPKLAFGLNN@D@ay@@XZ+98
	DD	imagerel $unwind$??R<lambda_11>@?1??LoadWSAFunctions@NetCommon@@YAXXZ@QEBAAEAV?$obfuscated_data@$0L@$0HNABEJKPKLAFGLNN@D@ay@@XZ
pdata	ENDS
;	COMDAT pdata
pdata	SEGMENT
$pdata$?dtor$0@?0???R<lambda_11>@?1??LoadWSAFunctions@NetCommon@@YAXXZ@QEBAAEAV?$obfuscated_data@$0L@$0HNABEJKPKLAFGLNN@D@ay@@XZ@4HA DD imagerel ?dtor$0@?0???R<lambda_11>@?1??LoadWSAFunctions@NetCommon@@YAXXZ@QEBAAEAV?$obfuscated_data@$0L@$0HNABEJKPKLAFGLNN@D@ay@@XZ@4HA
	DD	imagerel ?dtor$0@?0???R<lambda_11>@?1??LoadWSAFunctions@NetCommon@@YAXXZ@QEBAAEAV?$obfuscated_data@$0L@$0HNABEJKPKLAFGLNN@D@ay@@XZ@4HA+59
	DD	imagerel $unwind$?dtor$0@?0???R<lambda_11>@?1??LoadWSAFunctions@NetCommon@@YAXXZ@QEBAAEAV?$obfuscated_data@$0L@$0HNABEJKPKLAFGLNN@D@ay@@XZ@4HA
pdata	ENDS
;	COMDAT pdata
pdata	SEGMENT
$pdata$??R<lambda_10>@?1??LoadWSAFunctions@NetCommon@@YAXXZ@QEBAAEAV?$obfuscated_data@$04$0?DGIIOELKAGGOMEHJ@D@ay@@XZ DD imagerel ??R<lambda_10>@?1??LoadWSAFunctions@NetCommon@@YAXXZ@QEBAAEAV?$obfuscated_data@$04$0?DGIIOELKAGGOMEHJ@D@ay@@XZ
	DD	imagerel ??R<lambda_10>@?1??LoadWSAFunctions@NetCommon@@YAXXZ@QEBAAEAV?$obfuscated_data@$04$0?DGIIOELKAGGOMEHJ@D@ay@@XZ+90
	DD	imagerel $unwind$??R<lambda_10>@?1??LoadWSAFunctions@NetCommon@@YAXXZ@QEBAAEAV?$obfuscated_data@$04$0?DGIIOELKAGGOMEHJ@D@ay@@XZ
pdata	ENDS
;	COMDAT pdata
pdata	SEGMENT
$pdata$?dtor$0@?0???R<lambda_10>@?1??LoadWSAFunctions@NetCommon@@YAXXZ@QEBAAEAV?$obfuscated_data@$04$0?DGIIOELKAGGOMEHJ@D@ay@@XZ@4HA DD imagerel ?dtor$0@?0???R<lambda_10>@?1??LoadWSAFunctions@NetCommon@@YAXXZ@QEBAAEAV?$obfuscated_data@$04$0?DGIIOELKAGGOMEHJ@D@ay@@XZ@4HA
	DD	imagerel ?dtor$0@?0???R<lambda_10>@?1??LoadWSAFunctions@NetCommon@@YAXXZ@QEBAAEAV?$obfuscated_data@$04$0?DGIIOELKAGGOMEHJ@D@ay@@XZ@4HA+59
	DD	imagerel $unwind$?dtor$0@?0???R<lambda_10>@?1??LoadWSAFunctions@NetCommon@@YAXXZ@QEBAAEAV?$obfuscated_data@$04$0?DGIIOELKAGGOMEHJ@D@ay@@XZ@4HA
pdata	ENDS
;	COMDAT pdata
pdata	SEGMENT
$pdata$??R<lambda_9>@?1??LoadWSAFunctions@NetCommon@@YAXXZ@QEBAAEAV?$obfuscated_data@$08$0?DIIAIINMJEFCLIGH@D@ay@@XZ DD imagerel ??R<lambda_9>@?1??LoadWSAFunctions@NetCommon@@YAXXZ@QEBAAEAV?$obfuscated_data@$08$0?DIIAIINMJEFCLIGH@D@ay@@XZ
	DD	imagerel ??R<lambda_9>@?1??LoadWSAFunctions@NetCommon@@YAXXZ@QEBAAEAV?$obfuscated_data@$08$0?DIIAIINMJEFCLIGH@D@ay@@XZ+97
	DD	imagerel $unwind$??R<lambda_9>@?1??LoadWSAFunctions@NetCommon@@YAXXZ@QEBAAEAV?$obfuscated_data@$08$0?DIIAIINMJEFCLIGH@D@ay@@XZ
pdata	ENDS
;	COMDAT pdata
pdata	SEGMENT
$pdata$?dtor$0@?0???R<lambda_9>@?1??LoadWSAFunctions@NetCommon@@YAXXZ@QEBAAEAV?$obfuscated_data@$08$0?DIIAIINMJEFCLIGH@D@ay@@XZ@4HA DD imagerel ?dtor$0@?0???R<lambda_9>@?1??LoadWSAFunctions@NetCommon@@YAXXZ@QEBAAEAV?$obfuscated_data@$08$0?DIIAIINMJEFCLIGH@D@ay@@XZ@4HA
	DD	imagerel ?dtor$0@?0???R<lambda_9>@?1??LoadWSAFunctions@NetCommon@@YAXXZ@QEBAAEAV?$obfuscated_data@$08$0?DIIAIINMJEFCLIGH@D@ay@@XZ@4HA+59
	DD	imagerel $unwind$?dtor$0@?0???R<lambda_9>@?1??LoadWSAFunctions@NetCommon@@YAXXZ@QEBAAEAV?$obfuscated_data@$08$0?DIIAIINMJEFCLIGH@D@ay@@XZ@4HA
pdata	ENDS
;	COMDAT pdata
pdata	SEGMENT
$pdata$??R<lambda_8>@?1??LoadWSAFunctions@NetCommon@@YAXXZ@QEBAAEAV?$obfuscated_data@$06$0?GIOGLOCGPCIABIMJ@D@ay@@XZ DD imagerel ??R<lambda_8>@?1??LoadWSAFunctions@NetCommon@@YAXXZ@QEBAAEAV?$obfuscated_data@$06$0?GIOGLOCGPCIABIMJ@D@ay@@XZ
	DD	imagerel ??R<lambda_8>@?1??LoadWSAFunctions@NetCommon@@YAXXZ@QEBAAEAV?$obfuscated_data@$06$0?GIOGLOCGPCIABIMJ@D@ay@@XZ+91
	DD	imagerel $unwind$??R<lambda_8>@?1??LoadWSAFunctions@NetCommon@@YAXXZ@QEBAAEAV?$obfuscated_data@$06$0?GIOGLOCGPCIABIMJ@D@ay@@XZ
pdata	ENDS
;	COMDAT pdata
pdata	SEGMENT
$pdata$?dtor$0@?0???R<lambda_8>@?1??LoadWSAFunctions@NetCommon@@YAXXZ@QEBAAEAV?$obfuscated_data@$06$0?GIOGLOCGPCIABIMJ@D@ay@@XZ@4HA DD imagerel ?dtor$0@?0???R<lambda_8>@?1??LoadWSAFunctions@NetCommon@@YAXXZ@QEBAAEAV?$obfuscated_data@$06$0?GIOGLOCGPCIABIMJ@D@ay@@XZ@4HA
	DD	imagerel ?dtor$0@?0???R<lambda_8>@?1??LoadWSAFunctions@NetCommon@@YAXXZ@QEBAAEAV?$obfuscated_data@$06$0?GIOGLOCGPCIABIMJ@D@ay@@XZ@4HA+59
	DD	imagerel $unwind$?dtor$0@?0???R<lambda_8>@?1??LoadWSAFunctions@NetCommon@@YAXXZ@QEBAAEAV?$obfuscated_data@$06$0?GIOGLOCGPCIABIMJ@D@ay@@XZ@4HA
pdata	ENDS
;	COMDAT pdata
pdata	SEGMENT
$pdata$??R<lambda_7>@?1??LoadWSAFunctions@NetCommon@@YAXXZ@QEBAAEAV?$obfuscated_data@$04$0DJODMBJLLLJDFDHD@D@ay@@XZ DD imagerel ??R<lambda_7>@?1??LoadWSAFunctions@NetCommon@@YAXXZ@QEBAAEAV?$obfuscated_data@$04$0DJODMBJLLLJDFDHD@D@ay@@XZ
	DD	imagerel ??R<lambda_7>@?1??LoadWSAFunctions@NetCommon@@YAXXZ@QEBAAEAV?$obfuscated_data@$04$0DJODMBJLLLJDFDHD@D@ay@@XZ+90
	DD	imagerel $unwind$??R<lambda_7>@?1??LoadWSAFunctions@NetCommon@@YAXXZ@QEBAAEAV?$obfuscated_data@$04$0DJODMBJLLLJDFDHD@D@ay@@XZ
pdata	ENDS
;	COMDAT pdata
pdata	SEGMENT
$pdata$?dtor$0@?0???R<lambda_7>@?1??LoadWSAFunctions@NetCommon@@YAXXZ@QEBAAEAV?$obfuscated_data@$04$0DJODMBJLLLJDFDHD@D@ay@@XZ@4HA DD imagerel ?dtor$0@?0???R<lambda_7>@?1??LoadWSAFunctions@NetCommon@@YAXXZ@QEBAAEAV?$obfuscated_data@$04$0DJODMBJLLLJDFDHD@D@ay@@XZ@4HA
	DD	imagerel ?dtor$0@?0???R<lambda_7>@?1??LoadWSAFunctions@NetCommon@@YAXXZ@QEBAAEAV?$obfuscated_data@$04$0DJODMBJLLLJDFDHD@D@ay@@XZ@4HA+59
	DD	imagerel $unwind$?dtor$0@?0???R<lambda_7>@?1??LoadWSAFunctions@NetCommon@@YAXXZ@QEBAAEAV?$obfuscated_data@$04$0DJODMBJLLLJDFDHD@D@ay@@XZ@4HA
pdata	ENDS
;	COMDAT pdata
pdata	SEGMENT
$pdata$??R<lambda_6>@?1??LoadWSAFunctions@NetCommon@@YAXXZ@QEBAAEAV?$obfuscated_data@$06$0?GECKGKFAHKOCHEBJ@D@ay@@XZ DD imagerel ??R<lambda_6>@?1??LoadWSAFunctions@NetCommon@@YAXXZ@QEBAAEAV?$obfuscated_data@$06$0?GECKGKFAHKOCHEBJ@D@ay@@XZ
	DD	imagerel ??R<lambda_6>@?1??LoadWSAFunctions@NetCommon@@YAXXZ@QEBAAEAV?$obfuscated_data@$06$0?GECKGKFAHKOCHEBJ@D@ay@@XZ+91
	DD	imagerel $unwind$??R<lambda_6>@?1??LoadWSAFunctions@NetCommon@@YAXXZ@QEBAAEAV?$obfuscated_data@$06$0?GECKGKFAHKOCHEBJ@D@ay@@XZ
pdata	ENDS
;	COMDAT pdata
pdata	SEGMENT
$pdata$?dtor$0@?0???R<lambda_6>@?1??LoadWSAFunctions@NetCommon@@YAXXZ@QEBAAEAV?$obfuscated_data@$06$0?GECKGKFAHKOCHEBJ@D@ay@@XZ@4HA DD imagerel ?dtor$0@?0???R<lambda_6>@?1??LoadWSAFunctions@NetCommon@@YAXXZ@QEBAAEAV?$obfuscated_data@$06$0?GECKGKFAHKOCHEBJ@D@ay@@XZ@4HA
	DD	imagerel ?dtor$0@?0???R<lambda_6>@?1??LoadWSAFunctions@NetCommon@@YAXXZ@QEBAAEAV?$obfuscated_data@$06$0?GECKGKFAHKOCHEBJ@D@ay@@XZ@4HA+59
	DD	imagerel $unwind$?dtor$0@?0???R<lambda_6>@?1??LoadWSAFunctions@NetCommon@@YAXXZ@QEBAAEAV?$obfuscated_data@$06$0?GECKGKFAHKOCHEBJ@D@ay@@XZ@4HA
pdata	ENDS
;	COMDAT pdata
pdata	SEGMENT
$pdata$??R<lambda_5>@?1??LoadWSAFunctions@NetCommon@@YAXXZ@QEBAAEAV?$obfuscated_data@$0M@$0?DMGIHEDGHAKMGH@D@ay@@XZ DD imagerel ??R<lambda_5>@?1??LoadWSAFunctions@NetCommon@@YAXXZ@QEBAAEAV?$obfuscated_data@$0M@$0?DMGIHEDGHAKMGH@D@ay@@XZ
	DD	imagerel ??R<lambda_5>@?1??LoadWSAFunctions@NetCommon@@YAXXZ@QEBAAEAV?$obfuscated_data@$0M@$0?DMGIHEDGHAKMGH@D@ay@@XZ+107
	DD	imagerel $unwind$??R<lambda_5>@?1??LoadWSAFunctions@NetCommon@@YAXXZ@QEBAAEAV?$obfuscated_data@$0M@$0?DMGIHEDGHAKMGH@D@ay@@XZ
pdata	ENDS
;	COMDAT pdata
pdata	SEGMENT
$pdata$?dtor$0@?0???R<lambda_5>@?1??LoadWSAFunctions@NetCommon@@YAXXZ@QEBAAEAV?$obfuscated_data@$0M@$0?DMGIHEDGHAKMGH@D@ay@@XZ@4HA DD imagerel ?dtor$0@?0???R<lambda_5>@?1??LoadWSAFunctions@NetCommon@@YAXXZ@QEBAAEAV?$obfuscated_data@$0M@$0?DMGIHEDGHAKMGH@D@ay@@XZ@4HA
	DD	imagerel ?dtor$0@?0???R<lambda_5>@?1??LoadWSAFunctions@NetCommon@@YAXXZ@QEBAAEAV?$obfuscated_data@$0M@$0?DMGIHEDGHAKMGH@D@ay@@XZ@4HA+59
	DD	imagerel $unwind$?dtor$0@?0???R<lambda_5>@?1??LoadWSAFunctions@NetCommon@@YAXXZ@QEBAAEAV?$obfuscated_data@$0M@$0?DMGIHEDGHAKMGH@D@ay@@XZ@4HA
pdata	ENDS
;	COMDAT pdata
pdata	SEGMENT
$pdata$??R<lambda_4>@?1??LoadWSAFunctions@NetCommon@@YAXXZ@QEBAAEAV?$obfuscated_data@$04$0?KKMBKJIJMJIOKML@D@ay@@XZ DD imagerel ??R<lambda_4>@?1??LoadWSAFunctions@NetCommon@@YAXXZ@QEBAAEAV?$obfuscated_data@$04$0?KKMBKJIJMJIOKML@D@ay@@XZ
	DD	imagerel ??R<lambda_4>@?1??LoadWSAFunctions@NetCommon@@YAXXZ@QEBAAEAV?$obfuscated_data@$04$0?KKMBKJIJMJIOKML@D@ay@@XZ+90
	DD	imagerel $unwind$??R<lambda_4>@?1??LoadWSAFunctions@NetCommon@@YAXXZ@QEBAAEAV?$obfuscated_data@$04$0?KKMBKJIJMJIOKML@D@ay@@XZ
pdata	ENDS
;	COMDAT pdata
pdata	SEGMENT
$pdata$?dtor$0@?0???R<lambda_4>@?1??LoadWSAFunctions@NetCommon@@YAXXZ@QEBAAEAV?$obfuscated_data@$04$0?KKMBKJIJMJIOKML@D@ay@@XZ@4HA DD imagerel ?dtor$0@?0???R<lambda_4>@?1??LoadWSAFunctions@NetCommon@@YAXXZ@QEBAAEAV?$obfuscated_data@$04$0?KKMBKJIJMJIOKML@D@ay@@XZ@4HA
	DD	imagerel ?dtor$0@?0???R<lambda_4>@?1??LoadWSAFunctions@NetCommon@@YAXXZ@QEBAAEAV?$obfuscated_data@$04$0?KKMBKJIJMJIOKML@D@ay@@XZ@4HA+59
	DD	imagerel $unwind$?dtor$0@?0???R<lambda_4>@?1??LoadWSAFunctions@NetCommon@@YAXXZ@QEBAAEAV?$obfuscated_data@$04$0?KKMBKJIJMJIOKML@D@ay@@XZ@4HA
pdata	ENDS
;	COMDAT pdata
pdata	SEGMENT
$pdata$??R<lambda_3>@?1??LoadWSAFunctions@NetCommon@@YAXXZ@QEBAAEAV?$obfuscated_data@$0L@$0?BENIGEJGOAAMAEMJ@D@ay@@XZ DD imagerel ??R<lambda_3>@?1??LoadWSAFunctions@NetCommon@@YAXXZ@QEBAAEAV?$obfuscated_data@$0L@$0?BENIGEJGOAAMAEMJ@D@ay@@XZ
	DD	imagerel ??R<lambda_3>@?1??LoadWSAFunctions@NetCommon@@YAXXZ@QEBAAEAV?$obfuscated_data@$0L@$0?BENIGEJGOAAMAEMJ@D@ay@@XZ+98
	DD	imagerel $unwind$??R<lambda_3>@?1??LoadWSAFunctions@NetCommon@@YAXXZ@QEBAAEAV?$obfuscated_data@$0L@$0?BENIGEJGOAAMAEMJ@D@ay@@XZ
pdata	ENDS
;	COMDAT pdata
pdata	SEGMENT
$pdata$?dtor$0@?0???R<lambda_3>@?1??LoadWSAFunctions@NetCommon@@YAXXZ@QEBAAEAV?$obfuscated_data@$0L@$0?BENIGEJGOAAMAEMJ@D@ay@@XZ@4HA DD imagerel ?dtor$0@?0???R<lambda_3>@?1??LoadWSAFunctions@NetCommon@@YAXXZ@QEBAAEAV?$obfuscated_data@$0L@$0?BENIGEJGOAAMAEMJ@D@ay@@XZ@4HA
	DD	imagerel ?dtor$0@?0???R<lambda_3>@?1??LoadWSAFunctions@NetCommon@@YAXXZ@QEBAAEAV?$obfuscated_data@$0L@$0?BENIGEJGOAAMAEMJ@D@ay@@XZ@4HA+59
	DD	imagerel $unwind$?dtor$0@?0???R<lambda_3>@?1??LoadWSAFunctions@NetCommon@@YAXXZ@QEBAAEAV?$obfuscated_data@$0L@$0?BENIGEJGOAAMAEMJ@D@ay@@XZ@4HA
pdata	ENDS
;	COMDAT pdata
pdata	SEGMENT
$pdata$??R<lambda_2>@?1??LoadWSAFunctions@NetCommon@@YAXXZ@QEBAAEAV?$obfuscated_data@$0L@$0?EENOPMEAPELCIIOD@D@ay@@XZ DD imagerel ??R<lambda_2>@?1??LoadWSAFunctions@NetCommon@@YAXXZ@QEBAAEAV?$obfuscated_data@$0L@$0?EENOPMEAPELCIIOD@D@ay@@XZ
	DD	imagerel ??R<lambda_2>@?1??LoadWSAFunctions@NetCommon@@YAXXZ@QEBAAEAV?$obfuscated_data@$0L@$0?EENOPMEAPELCIIOD@D@ay@@XZ+98
	DD	imagerel $unwind$??R<lambda_2>@?1??LoadWSAFunctions@NetCommon@@YAXXZ@QEBAAEAV?$obfuscated_data@$0L@$0?EENOPMEAPELCIIOD@D@ay@@XZ
pdata	ENDS
;	COMDAT pdata
pdata	SEGMENT
$pdata$?dtor$0@?0???R<lambda_2>@?1??LoadWSAFunctions@NetCommon@@YAXXZ@QEBAAEAV?$obfuscated_data@$0L@$0?EENOPMEAPELCIIOD@D@ay@@XZ@4HA DD imagerel ?dtor$0@?0???R<lambda_2>@?1??LoadWSAFunctions@NetCommon@@YAXXZ@QEBAAEAV?$obfuscated_data@$0L@$0?EENOPMEAPELCIIOD@D@ay@@XZ@4HA
	DD	imagerel ?dtor$0@?0???R<lambda_2>@?1??LoadWSAFunctions@NetCommon@@YAXXZ@QEBAAEAV?$obfuscated_data@$0L@$0?EENOPMEAPELCIIOD@D@ay@@XZ@4HA+59
	DD	imagerel $unwind$?dtor$0@?0???R<lambda_2>@?1??LoadWSAFunctions@NetCommon@@YAXXZ@QEBAAEAV?$obfuscated_data@$0L@$0?EENOPMEAPELCIIOD@D@ay@@XZ@4HA
pdata	ENDS
;	COMDAT pdata
pdata	SEGMENT
$pdata$??R<lambda_1>@?1??LoadWSAFunctions@NetCommon@@YAXXZ@QEBAAEAV?$obfuscated_data@$0N@$0?HGAKNEMGLKFGEOML@D@ay@@XZ DD imagerel ??R<lambda_1>@?1??LoadWSAFunctions@NetCommon@@YAXXZ@QEBAAEAV?$obfuscated_data@$0N@$0?HGAKNEMGLKFGEOML@D@ay@@XZ
	DD	imagerel ??R<lambda_1>@?1??LoadWSAFunctions@NetCommon@@YAXXZ@QEBAAEAV?$obfuscated_data@$0N@$0?HGAKNEMGLKFGEOML@D@ay@@XZ+104
	DD	imagerel $unwind$??R<lambda_1>@?1??LoadWSAFunctions@NetCommon@@YAXXZ@QEBAAEAV?$obfuscated_data@$0N@$0?HGAKNEMGLKFGEOML@D@ay@@XZ
pdata	ENDS
;	COMDAT pdata
pdata	SEGMENT
$pdata$?dtor$0@?0???R<lambda_1>@?1??LoadWSAFunctions@NetCommon@@YAXXZ@QEBAAEAV?$obfuscated_data@$0N@$0?HGAKNEMGLKFGEOML@D@ay@@XZ@4HA DD imagerel ?dtor$0@?0???R<lambda_1>@?1??LoadWSAFunctions@NetCommon@@YAXXZ@QEBAAEAV?$obfuscated_data@$0N@$0?HGAKNEMGLKFGEOML@D@ay@@XZ@4HA
	DD	imagerel ?dtor$0@?0???R<lambda_1>@?1??LoadWSAFunctions@NetCommon@@YAXXZ@QEBAAEAV?$obfuscated_data@$0N@$0?HGAKNEMGLKFGEOML@D@ay@@XZ@4HA+59
	DD	imagerel $unwind$?dtor$0@?0???R<lambda_1>@?1??LoadWSAFunctions@NetCommon@@YAXXZ@QEBAAEAV?$obfuscated_data@$0N@$0?HGAKNEMGLKFGEOML@D@ay@@XZ@4HA
pdata	ENDS
;	COMDAT pdata
pdata	SEGMENT
$pdata$?LoadWSAFunctions@NetCommon@@YAXXZ DD imagerel $LN1149
	DD	imagerel $LN1149+3314
	DD	imagerel $unwind$?LoadWSAFunctions@NetCommon@@YAXXZ
pdata	ENDS
;	COMDAT pdata
pdata	SEGMENT
$pdata$?dtor$14@?0??LoadWSAFunctions@NetCommon@@YAXXZ@4HA DD imagerel ?dtor$14@?0??LoadWSAFunctions@NetCommon@@YAXXZ@4HA
	DD	imagerel ?dtor$14@?0??LoadWSAFunctions@NetCommon@@YAXXZ@4HA+59
	DD	imagerel $unwind$?dtor$14@?0??LoadWSAFunctions@NetCommon@@YAXXZ@4HA
pdata	ENDS
;	COMDAT pdata
pdata	SEGMENT
$pdata$?dtor$20@?0??LoadWSAFunctions@NetCommon@@YAXXZ@4HA DD imagerel ?dtor$20@?0??LoadWSAFunctions@NetCommon@@YAXXZ@4HA
	DD	imagerel ?dtor$20@?0??LoadWSAFunctions@NetCommon@@YAXXZ@4HA+59
	DD	imagerel $unwind$?dtor$20@?0??LoadWSAFunctions@NetCommon@@YAXXZ@4HA
pdata	ENDS
;	COMDAT pdata
pdata	SEGMENT
$pdata$?dtor$24@?0??LoadWSAFunctions@NetCommon@@YAXXZ@4HA DD imagerel ?dtor$24@?0??LoadWSAFunctions@NetCommon@@YAXXZ@4HA
	DD	imagerel ?dtor$24@?0??LoadWSAFunctions@NetCommon@@YAXXZ@4HA+59
	DD	imagerel $unwind$?dtor$24@?0??LoadWSAFunctions@NetCommon@@YAXXZ@4HA
pdata	ENDS
;	COMDAT pdata
pdata	SEGMENT
$pdata$?dtor$30@?0??LoadWSAFunctions@NetCommon@@YAXXZ@4HA DD imagerel ?dtor$30@?0??LoadWSAFunctions@NetCommon@@YAXXZ@4HA
	DD	imagerel ?dtor$30@?0??LoadWSAFunctions@NetCommon@@YAXXZ@4HA+59
	DD	imagerel $unwind$?dtor$30@?0??LoadWSAFunctions@NetCommon@@YAXXZ@4HA
pdata	ENDS
;	COMDAT pdata
pdata	SEGMENT
$pdata$?dtor$33@?0??LoadWSAFunctions@NetCommon@@YAXXZ@4HA DD imagerel ?dtor$33@?0??LoadWSAFunctions@NetCommon@@YAXXZ@4HA
	DD	imagerel ?dtor$33@?0??LoadWSAFunctions@NetCommon@@YAXXZ@4HA+59
	DD	imagerel $unwind$?dtor$33@?0??LoadWSAFunctions@NetCommon@@YAXXZ@4HA
pdata	ENDS
;	COMDAT pdata
pdata	SEGMENT
$pdata$?dtor$39@?0??LoadWSAFunctions@NetCommon@@YAXXZ@4HA DD imagerel ?dtor$39@?0??LoadWSAFunctions@NetCommon@@YAXXZ@4HA
	DD	imagerel ?dtor$39@?0??LoadWSAFunctions@NetCommon@@YAXXZ@4HA+59
	DD	imagerel $unwind$?dtor$39@?0??LoadWSAFunctions@NetCommon@@YAXXZ@4HA
pdata	ENDS
;	COMDAT pdata
pdata	SEGMENT
$pdata$?dtor$45@?0??LoadWSAFunctions@NetCommon@@YAXXZ@4HA DD imagerel ?dtor$45@?0??LoadWSAFunctions@NetCommon@@YAXXZ@4HA
	DD	imagerel ?dtor$45@?0??LoadWSAFunctions@NetCommon@@YAXXZ@4HA+59
	DD	imagerel $unwind$?dtor$45@?0??LoadWSAFunctions@NetCommon@@YAXXZ@4HA
pdata	ENDS
;	COMDAT pdata
pdata	SEGMENT
$pdata$?dtor$51@?0??LoadWSAFunctions@NetCommon@@YAXXZ@4HA DD imagerel ?dtor$51@?0??LoadWSAFunctions@NetCommon@@YAXXZ@4HA
	DD	imagerel ?dtor$51@?0??LoadWSAFunctions@NetCommon@@YAXXZ@4HA+59
	DD	imagerel $unwind$?dtor$51@?0??LoadWSAFunctions@NetCommon@@YAXXZ@4HA
pdata	ENDS
;	COMDAT pdata
pdata	SEGMENT
$pdata$?dtor$57@?0??LoadWSAFunctions@NetCommon@@YAXXZ@4HA DD imagerel ?dtor$57@?0??LoadWSAFunctions@NetCommon@@YAXXZ@4HA
	DD	imagerel ?dtor$57@?0??LoadWSAFunctions@NetCommon@@YAXXZ@4HA+59
	DD	imagerel $unwind$?dtor$57@?0??LoadWSAFunctions@NetCommon@@YAXXZ@4HA
pdata	ENDS
;	COMDAT pdata
pdata	SEGMENT
$pdata$?dtor$63@?0??LoadWSAFunctions@NetCommon@@YAXXZ@4HA DD imagerel ?dtor$63@?0??LoadWSAFunctions@NetCommon@@YAXXZ@4HA
	DD	imagerel ?dtor$63@?0??LoadWSAFunctions@NetCommon@@YAXXZ@4HA+59
	DD	imagerel $unwind$?dtor$63@?0??LoadWSAFunctions@NetCommon@@YAXXZ@4HA
pdata	ENDS
;	COMDAT pdata
pdata	SEGMENT
$pdata$?dtor$69@?0??LoadWSAFunctions@NetCommon@@YAXXZ@4HA DD imagerel ?dtor$69@?0??LoadWSAFunctions@NetCommon@@YAXXZ@4HA
	DD	imagerel ?dtor$69@?0??LoadWSAFunctions@NetCommon@@YAXXZ@4HA+59
	DD	imagerel $unwind$?dtor$69@?0??LoadWSAFunctions@NetCommon@@YAXXZ@4HA
pdata	ENDS
;	COMDAT pdata
pdata	SEGMENT
$pdata$?dtor$75@?0??LoadWSAFunctions@NetCommon@@YAXXZ@4HA DD imagerel ?dtor$75@?0??LoadWSAFunctions@NetCommon@@YAXXZ@4HA
	DD	imagerel ?dtor$75@?0??LoadWSAFunctions@NetCommon@@YAXXZ@4HA+59
	DD	imagerel $unwind$?dtor$75@?0??LoadWSAFunctions@NetCommon@@YAXXZ@4HA
pdata	ENDS
;	COMDAT pdata
pdata	SEGMENT
$pdata$?dtor$78@?0??LoadWSAFunctions@NetCommon@@YAXXZ@4HA DD imagerel ?dtor$78@?0??LoadWSAFunctions@NetCommon@@YAXXZ@4HA
	DD	imagerel ?dtor$78@?0??LoadWSAFunctions@NetCommon@@YAXXZ@4HA+59
	DD	imagerel $unwind$?dtor$78@?0??LoadWSAFunctions@NetCommon@@YAXXZ@4HA
pdata	ENDS
;	COMDAT pdata
pdata	SEGMENT
$pdata$??__Fadvapi32@freqDLLS@ProcessUtilities@@YAXXZ DD imagerel ??__Fadvapi32@freqDLLS@ProcessUtilities@@YAXXZ
	DD	imagerel ??__Fadvapi32@freqDLLS@ProcessUtilities@@YAXXZ+99
	DD	imagerel $unwind$??__Fadvapi32@freqDLLS@ProcessUtilities@@YAXXZ
pdata	ENDS
;	COMDAT pdata
pdata	SEGMENT
$pdata$??__Eadvapi32@freqDLLS@ProcessUtilities@@YAXXZ DD imagerel ??__Eadvapi32@freqDLLS@ProcessUtilities@@YAXXZ
	DD	imagerel ??__Eadvapi32@freqDLLS@ProcessUtilities@@YAXXZ+202
	DD	imagerel $unwind$??__Eadvapi32@freqDLLS@ProcessUtilities@@YAXXZ
pdata	ENDS
;	COMDAT pdata
pdata	SEGMENT
$pdata$?dtor$0@?0???__Eadvapi32@freqDLLS@ProcessUtilities@@YAXXZ@4HA DD imagerel ?dtor$0@?0???__Eadvapi32@freqDLLS@ProcessUtilities@@YAXXZ@4HA
	DD	imagerel ?dtor$0@?0???__Eadvapi32@freqDLLS@ProcessUtilities@@YAXXZ@4HA+59
	DD	imagerel $unwind$?dtor$0@?0???__Eadvapi32@freqDLLS@ProcessUtilities@@YAXXZ@4HA
pdata	ENDS
;	COMDAT pdata
pdata	SEGMENT
$pdata$??R<lambda_3>@freqDLLS@ProcessUtilities@@QEBAAEAV?$obfuscated_data@$0N@$0FHPLCBONHLGFABKJ@D@ay@@XZ DD imagerel ??R<lambda_3>@freqDLLS@ProcessUtilities@@QEBAAEAV?$obfuscated_data@$0N@$0FHPLCBONHLGFABKJ@D@ay@@XZ
	DD	imagerel ??R<lambda_3>@freqDLLS@ProcessUtilities@@QEBAAEAV?$obfuscated_data@$0N@$0FHPLCBONHLGFABKJ@D@ay@@XZ+104
	DD	imagerel $unwind$??R<lambda_3>@freqDLLS@ProcessUtilities@@QEBAAEAV?$obfuscated_data@$0N@$0FHPLCBONHLGFABKJ@D@ay@@XZ
pdata	ENDS
;	COMDAT pdata
pdata	SEGMENT
$pdata$?dtor$0@?0???R<lambda_3>@freqDLLS@ProcessUtilities@@QEBAAEAV?$obfuscated_data@$0N@$0FHPLCBONHLGFABKJ@D@ay@@XZ@4HA DD imagerel ?dtor$0@?0???R<lambda_3>@freqDLLS@ProcessUtilities@@QEBAAEAV?$obfuscated_data@$0N@$0FHPLCBONHLGFABKJ@D@ay@@XZ@4HA
	DD	imagerel ?dtor$0@?0???R<lambda_3>@freqDLLS@ProcessUtilities@@QEBAAEAV?$obfuscated_data@$0N@$0FHPLCBONHLGFABKJ@D@ay@@XZ@4HA+59
	DD	imagerel $unwind$?dtor$0@?0???R<lambda_3>@freqDLLS@ProcessUtilities@@QEBAAEAV?$obfuscated_data@$0N@$0FHPLCBONHLGFABKJ@D@ay@@XZ@4HA
pdata	ENDS
;	COMDAT pdata
pdata	SEGMENT
$pdata$??__Fntdll@freqDLLS@ProcessUtilities@@YAXXZ DD imagerel ??__Fntdll@freqDLLS@ProcessUtilities@@YAXXZ
	DD	imagerel ??__Fntdll@freqDLLS@ProcessUtilities@@YAXXZ+99
	DD	imagerel $unwind$??__Fntdll@freqDLLS@ProcessUtilities@@YAXXZ
pdata	ENDS
;	COMDAT pdata
pdata	SEGMENT
$pdata$??__Entdll@freqDLLS@ProcessUtilities@@YAXXZ DD imagerel ??__Entdll@freqDLLS@ProcessUtilities@@YAXXZ
	DD	imagerel ??__Entdll@freqDLLS@ProcessUtilities@@YAXXZ+191
	DD	imagerel $unwind$??__Entdll@freqDLLS@ProcessUtilities@@YAXXZ
pdata	ENDS
;	COMDAT pdata
pdata	SEGMENT
$pdata$?dtor$0@?0???__Entdll@freqDLLS@ProcessUtilities@@YAXXZ@4HA DD imagerel ?dtor$0@?0???__Entdll@freqDLLS@ProcessUtilities@@YAXXZ@4HA
	DD	imagerel ?dtor$0@?0???__Entdll@freqDLLS@ProcessUtilities@@YAXXZ@4HA+59
	DD	imagerel $unwind$?dtor$0@?0???__Entdll@freqDLLS@ProcessUtilities@@YAXXZ@4HA
pdata	ENDS
;	COMDAT pdata
pdata	SEGMENT
$pdata$??R<lambda_2>@freqDLLS@ProcessUtilities@@QEBAAEAV?$obfuscated_data@$09$0?BMGONCACNKPGIEIF@D@ay@@XZ DD imagerel ??R<lambda_2>@freqDLLS@ProcessUtilities@@QEBAAEAV?$obfuscated_data@$09$0?BMGONCACNKPGIEIF@D@ay@@XZ
	DD	imagerel ??R<lambda_2>@freqDLLS@ProcessUtilities@@QEBAAEAV?$obfuscated_data@$09$0?BMGONCACNKPGIEIF@D@ay@@XZ+101
	DD	imagerel $unwind$??R<lambda_2>@freqDLLS@ProcessUtilities@@QEBAAEAV?$obfuscated_data@$09$0?BMGONCACNKPGIEIF@D@ay@@XZ
pdata	ENDS
;	COMDAT pdata
pdata	SEGMENT
$pdata$?dtor$0@?0???R<lambda_2>@freqDLLS@ProcessUtilities@@QEBAAEAV?$obfuscated_data@$09$0?BMGONCACNKPGIEIF@D@ay@@XZ@4HA DD imagerel ?dtor$0@?0???R<lambda_2>@freqDLLS@ProcessUtilities@@QEBAAEAV?$obfuscated_data@$09$0?BMGONCACNKPGIEIF@D@ay@@XZ@4HA
	DD	imagerel ?dtor$0@?0???R<lambda_2>@freqDLLS@ProcessUtilities@@QEBAAEAV?$obfuscated_data@$09$0?BMGONCACNKPGIEIF@D@ay@@XZ@4HA+59
	DD	imagerel $unwind$?dtor$0@?0???R<lambda_2>@freqDLLS@ProcessUtilities@@QEBAAEAV?$obfuscated_data@$09$0?BMGONCACNKPGIEIF@D@ay@@XZ@4HA
pdata	ENDS
;	COMDAT pdata
pdata	SEGMENT
$pdata$??__Fkernel32@freqDLLS@ProcessUtilities@@YAXXZ DD imagerel ??__Fkernel32@freqDLLS@ProcessUtilities@@YAXXZ
	DD	imagerel ??__Fkernel32@freqDLLS@ProcessUtilities@@YAXXZ+99
	DD	imagerel $unwind$??__Fkernel32@freqDLLS@ProcessUtilities@@YAXXZ
pdata	ENDS
;	COMDAT pdata
pdata	SEGMENT
$pdata$??__Ekernel32@freqDLLS@ProcessUtilities@@YAXXZ DD imagerel ??__Ekernel32@freqDLLS@ProcessUtilities@@YAXXZ
	DD	imagerel ??__Ekernel32@freqDLLS@ProcessUtilities@@YAXXZ+202
	DD	imagerel $unwind$??__Ekernel32@freqDLLS@ProcessUtilities@@YAXXZ
pdata	ENDS
;	COMDAT pdata
pdata	SEGMENT
$pdata$?dtor$0@?0???__Ekernel32@freqDLLS@ProcessUtilities@@YAXXZ@4HA DD imagerel ?dtor$0@?0???__Ekernel32@freqDLLS@ProcessUtilities@@YAXXZ@4HA
	DD	imagerel ?dtor$0@?0???__Ekernel32@freqDLLS@ProcessUtilities@@YAXXZ@4HA+59
	DD	imagerel $unwind$?dtor$0@?0???__Ekernel32@freqDLLS@ProcessUtilities@@YAXXZ@4HA
pdata	ENDS
;	COMDAT pdata
pdata	SEGMENT
$pdata$??R<lambda_1>@freqDLLS@ProcessUtilities@@QEBAAEAV?$obfuscated_data@$0N@$0GPFFMNJFHLKDFJAP@D@ay@@XZ DD imagerel ??R<lambda_1>@freqDLLS@ProcessUtilities@@QEBAAEAV?$obfuscated_data@$0N@$0GPFFMNJFHLKDFJAP@D@ay@@XZ
	DD	imagerel ??R<lambda_1>@freqDLLS@ProcessUtilities@@QEBAAEAV?$obfuscated_data@$0N@$0GPFFMNJFHLKDFJAP@D@ay@@XZ+104
	DD	imagerel $unwind$??R<lambda_1>@freqDLLS@ProcessUtilities@@QEBAAEAV?$obfuscated_data@$0N@$0GPFFMNJFHLKDFJAP@D@ay@@XZ
pdata	ENDS
;	COMDAT pdata
pdata	SEGMENT
$pdata$?dtor$0@?0???R<lambda_1>@freqDLLS@ProcessUtilities@@QEBAAEAV?$obfuscated_data@$0N@$0GPFFMNJFHLKDFJAP@D@ay@@XZ@4HA DD imagerel ?dtor$0@?0???R<lambda_1>@freqDLLS@ProcessUtilities@@QEBAAEAV?$obfuscated_data@$0N@$0GPFFMNJFHLKDFJAP@D@ay@@XZ@4HA
	DD	imagerel ?dtor$0@?0???R<lambda_1>@freqDLLS@ProcessUtilities@@QEBAAEAV?$obfuscated_data@$0N@$0GPFFMNJFHLKDFJAP@D@ay@@XZ@4HA+59
	DD	imagerel $unwind$?dtor$0@?0???R<lambda_1>@freqDLLS@ProcessUtilities@@QEBAAEAV?$obfuscated_data@$0N@$0GPFFMNJFHLKDFJAP@D@ay@@XZ@4HA
pdata	ENDS
;	COMDAT pdata
pdata	SEGMENT
$pdata$??0ClientRequest@@QEAA@AEBU0@@Z DD imagerel $LN6
	DD	imagerel $LN6+49
	DD	imagerel $unwind$??0ClientRequest@@QEAA@AEBU0@@Z
pdata	ENDS
;	COMDAT pdata
pdata	SEGMENT
$pdata$??0ProcessInformation@@QEAA@AEBU0@@Z DD imagerel $LN6
	DD	imagerel $LN6+47
	DD	imagerel $unwind$??0ProcessInformation@@QEAA@AEBU0@@Z
pdata	ENDS
;	COMDAT pdata
pdata	SEGMENT
$pdata$??0ServerCommand@@QEAA@AEBU0@@Z DD imagerel $LN11
	DD	imagerel $LN11+105
	DD	imagerel $unwind$??0ServerCommand@@QEAA@AEBU0@@Z
pdata	ENDS
;	COMDAT pdata
pdata	SEGMENT
$pdata$??1ProcessInformation@@QEAA@XZ DD imagerel $LN48
	DD	imagerel $LN48+96
	DD	imagerel $unwind$??1ProcessInformation@@QEAA@XZ
pdata	ENDS
;	COMDAT pdata
pdata	SEGMENT
$pdata$??1ServerCommand@@QEAA@XZ DD imagerel $LN134
	DD	imagerel $LN134+250
	DD	imagerel $unwind$??1ServerCommand@@QEAA@XZ
pdata	ENDS
;	COMDAT pdata
pdata	SEGMENT
$pdata$??1ClientRequest@@QEAA@XZ DD imagerel $LN48
	DD	imagerel $LN48+96
	DD	imagerel $unwind$??1ClientRequest@@QEAA@XZ
pdata	ENDS
;	COMDAT pdata
pdata	SEGMENT
$pdata$??1NET_BLOB@@QEAA@XZ DD imagerel $LN94
	DD	imagerel $LN94+195
	DD	imagerel $unwind$??1NET_BLOB@@QEAA@XZ
pdata	ENDS
;	COMDAT pdata
pdata	SEGMENT
$pdata$?IsBlobValid@NetCommon@@YAHUNET_BLOB@@@Z DD imagerel $LN14
	DD	imagerel $LN14+69
	DD	imagerel $unwind$?IsBlobValid@NetCommon@@YAHUNET_BLOB@@@Z
pdata	ENDS
;	COMDAT pdata
pdata	SEGMENT
$pdata$?SerializeString@NetCommon@@YA?AV?$vector@EV?$allocator@E@std@@@std@@V?$basic_string@DU?$char_traits@D@std@@V?$allocator@D@2@@3@@Z DD imagerel $LN96
	DD	imagerel $LN96+284
	DD	imagerel $unwind$?SerializeString@NetCommon@@YA?AV?$vector@EV?$allocator@E@std@@@std@@V?$basic_string@DU?$char_traits@D@std@@V?$allocator@D@2@@3@@Z
pdata	ENDS
;	COMDAT pdata
pdata	SEGMENT
$pdata$?dtor$1@?0??SerializeString@NetCommon@@YA?AV?$vector@EV?$allocator@E@std@@@std@@V?$basic_string@DU?$char_traits@D@std@@V?$allocator@D@2@@3@@Z@4HA DD imagerel ?dtor$1@?0??SerializeString@NetCommon@@YA?AV?$vector@EV?$allocator@E@std@@@std@@V?$basic_string@DU?$char_traits@D@std@@V?$allocator@D@2@@3@@Z@4HA
	DD	imagerel ?dtor$1@?0??SerializeString@NetCommon@@YA?AV?$vector@EV?$allocator@E@std@@@std@@V?$basic_string@DU?$char_traits@D@std@@V?$allocator@D@2@@3@@Z@4HA+38
	DD	imagerel $unwind$?dtor$1@?0??SerializeString@NetCommon@@YA?AV?$vector@EV?$allocator@E@std@@@std@@V?$basic_string@DU?$char_traits@D@std@@V?$allocator@D@2@@3@@Z@4HA
;	COMDAT xdata
xdata	SEGMENT
$unwind$?dtor$1@?0??SerializeString@NetCommon@@YA?AV?$vector@EV?$allocator@E@std@@@std@@V?$basic_string@DU?$char_traits@D@std@@V?$allocator@D@2@@3@@Z@4HA DD 020601H
	DD	050023206H
xdata	ENDS
;	COMDAT xdata
xdata	SEGMENT
$ip2state$?SerializeString@NetCommon@@YA?AV?$vector@EV?$allocator@E@std@@@std@@V?$basic_string@DU?$char_traits@D@std@@V?$allocator@D@2@@3@@Z DB 04H
	DB	085H, 02H
	DB	04H
	DB	0baH
	DB	02H
xdata	ENDS
;	COMDAT xdata
xdata	SEGMENT
$stateUnwindMap$?SerializeString@NetCommon@@YA?AV?$vector@EV?$allocator@E@std@@@std@@V?$basic_string@DU?$char_traits@D@std@@V?$allocator@D@2@@3@@Z DB 04H
	DB	0eH
	DD	imagerel ?dtor$1@?0??SerializeString@NetCommon@@YA?AV?$vector@EV?$allocator@E@std@@@std@@V?$basic_string@DU?$char_traits@D@std@@V?$allocator@D@2@@3@@Z@4HA
	DB	02cH
	DD	imagerel ??1?$basic_string@DU?$char_traits@D@std@@V?$allocator@D@2@@std@@QEAA@XZ
	DB	060H
xdata	ENDS
;	COMDAT xdata
xdata	SEGMENT
$cppxdata$?SerializeString@NetCommon@@YA?AV?$vector@EV?$allocator@E@std@@@std@@V?$basic_string@DU?$char_traits@D@std@@V?$allocator@D@2@@3@@Z DB 028H
	DD	imagerel $stateUnwindMap$?SerializeString@NetCommon@@YA?AV?$vector@EV?$allocator@E@std@@@std@@V?$basic_string@DU?$char_traits@D@std@@V?$allocator@D@2@@3@@Z
	DD	imagerel $ip2state$?SerializeString@NetCommon@@YA?AV?$vector@EV?$allocator@E@std@@@std@@V?$basic_string@DU?$char_traits@D@std@@V?$allocator@D@2@@3@@Z
xdata	ENDS
;	COMDAT xdata
xdata	SEGMENT
$unwind$?SerializeString@NetCommon@@YA?AV?$vector@EV?$allocator@E@std@@@std@@V?$basic_string@DU?$char_traits@D@std@@V?$allocator@D@2@@3@@Z DD 082119H
	DD	0f5412H
	DD	0e3412H
	DD	0e00e7212H
	DD	0600b700cH
	DD	imagerel __GSHandlerCheck_EH4
	DD	imagerel $cppxdata$?SerializeString@NetCommon@@YA?AV?$vector@EV?$allocator@E@std@@@std@@V?$basic_string@DU?$char_traits@D@std@@V?$allocator@D@2@@3@@Z
	DD	03aH
xdata	ENDS
;	COMDAT xdata
xdata	SEGMENT
$unwind$?IsBlobValid@NetCommon@@YAHUNET_BLOB@@@Z DD 020601H
	DD	030023206H
xdata	ENDS
;	COMDAT xdata
xdata	SEGMENT
$unwind$??1NET_BLOB@@QEAA@XZ DD 020601H
	DD	030023206H
xdata	ENDS
;	COMDAT xdata
xdata	SEGMENT
$unwind$??1ClientRequest@@QEAA@XZ DD 020601H
	DD	030023206H
xdata	ENDS
;	COMDAT xdata
xdata	SEGMENT
$unwind$??1ServerCommand@@QEAA@XZ DD 020601H
	DD	030023206H
xdata	ENDS
;	COMDAT xdata
xdata	SEGMENT
$unwind$??1ProcessInformation@@QEAA@XZ DD 020601H
	DD	030023206H
xdata	ENDS
;	COMDAT xdata
xdata	SEGMENT
$ip2state$??0ServerCommand@@QEAA@AEBU0@@Z DB 06H
	DB	'h'
	DB	00H
	DB	01cH
	DB	02H
	DB	01cH
	DB	04H
xdata	ENDS
;	COMDAT xdata
xdata	SEGMENT
$stateUnwindMap$??0ServerCommand@@QEAA@AEBU0@@Z DB 04H
	DB	0eH
	DD	imagerel ?dtor$0@?0???0ServerCommand@@QEAA@AEBU0@@Z@4HA
	DB	02eH
	DD	imagerel ?dtor$1@?0???0ServerCommand@@QEAA@AEBU0@@Z@4HA
xdata	ENDS
;	COMDAT xdata
xdata	SEGMENT
$cppxdata$??0ServerCommand@@QEAA@AEBU0@@Z DB 028H
	DD	imagerel $stateUnwindMap$??0ServerCommand@@QEAA@AEBU0@@Z
	DD	imagerel $ip2state$??0ServerCommand@@QEAA@AEBU0@@Z
xdata	ENDS
;	COMDAT xdata
xdata	SEGMENT
$unwind$??0ServerCommand@@QEAA@AEBU0@@Z DD 040f11H
	DD	07340fH
	DD	0700b320fH
	DD	imagerel __CxxFrameHandler4
	DD	imagerel $cppxdata$??0ServerCommand@@QEAA@AEBU0@@Z
xdata	ENDS
;	COMDAT xdata
xdata	SEGMENT
$unwind$??0ProcessInformation@@QEAA@AEBU0@@Z DD 020601H
	DD	030023206H
xdata	ENDS
;	COMDAT xdata
xdata	SEGMENT
$unwind$??0ClientRequest@@QEAA@AEBU0@@Z DD 020601H
	DD	030023206H
xdata	ENDS
;	COMDAT xdata
xdata	SEGMENT
$unwind$?dtor$0@?0???R<lambda_1>@freqDLLS@ProcessUtilities@@QEBAAEAV?$obfuscated_data@$0N@$0GPFFMNJFHLKDFJAP@D@ay@@XZ@4HA DD 010201H
	DD	05002H
xdata	ENDS
;	COMDAT xdata
xdata	SEGMENT
$ip2state$??R<lambda_1>@freqDLLS@ProcessUtilities@@QEBAAEAV?$obfuscated_data@$0N@$0GPFFMNJFHLKDFJAP@D@ay@@XZ DB 02H
	DB	09eH
	DB	02H
xdata	ENDS
;	COMDAT xdata
xdata	SEGMENT
$stateUnwindMap$??R<lambda_1>@freqDLLS@ProcessUtilities@@QEBAAEAV?$obfuscated_data@$0N@$0GPFFMNJFHLKDFJAP@D@ay@@XZ DB 02H
	DB	0eH
	DD	imagerel ?dtor$0@?0???R<lambda_1>@freqDLLS@ProcessUtilities@@QEBAAEAV?$obfuscated_data@$0N@$0GPFFMNJFHLKDFJAP@D@ay@@XZ@4HA
xdata	ENDS
;	COMDAT xdata
xdata	SEGMENT
$cppxdata$??R<lambda_1>@freqDLLS@ProcessUtilities@@QEBAAEAV?$obfuscated_data@$0N@$0GPFFMNJFHLKDFJAP@D@ay@@XZ DB 028H
	DD	imagerel $stateUnwindMap$??R<lambda_1>@freqDLLS@ProcessUtilities@@QEBAAEAV?$obfuscated_data@$0N@$0GPFFMNJFHLKDFJAP@D@ay@@XZ
	DD	imagerel $ip2state$??R<lambda_1>@freqDLLS@ProcessUtilities@@QEBAAEAV?$obfuscated_data@$0N@$0GPFFMNJFHLKDFJAP@D@ay@@XZ
xdata	ENDS
;	COMDAT xdata
xdata	SEGMENT
$unwind$??R<lambda_1>@freqDLLS@ProcessUtilities@@QEBAAEAV?$obfuscated_data@$0N@$0GPFFMNJFHLKDFJAP@D@ay@@XZ DD 020611H
	DD	030023206H
	DD	imagerel __CxxFrameHandler4
	DD	imagerel $cppxdata$??R<lambda_1>@freqDLLS@ProcessUtilities@@QEBAAEAV?$obfuscated_data@$0N@$0GPFFMNJFHLKDFJAP@D@ay@@XZ
xdata	ENDS
;	COMDAT xdata
xdata	SEGMENT
$unwind$?dtor$0@?0???__Ekernel32@freqDLLS@ProcessUtilities@@YAXXZ@4HA DD 010201H
	DD	05002H
xdata	ENDS
;	COMDAT xdata
xdata	SEGMENT
$ip2state$??__Ekernel32@freqDLLS@ProcessUtilities@@YAXXZ DB 04H
	DB	09eH
	DB	02H
	DB	0caH
	DB	00H
xdata	ENDS
;	COMDAT xdata
xdata	SEGMENT
$stateUnwindMap$??__Ekernel32@freqDLLS@ProcessUtilities@@YAXXZ DB 02H
	DB	0eH
	DD	imagerel ?dtor$0@?0???__Ekernel32@freqDLLS@ProcessUtilities@@YAXXZ@4HA
xdata	ENDS
;	COMDAT xdata
xdata	SEGMENT
$cppxdata$??__Ekernel32@freqDLLS@ProcessUtilities@@YAXXZ DB 028H
	DD	imagerel $stateUnwindMap$??__Ekernel32@freqDLLS@ProcessUtilities@@YAXXZ
	DD	imagerel $ip2state$??__Ekernel32@freqDLLS@ProcessUtilities@@YAXXZ
xdata	ENDS
;	COMDAT xdata
xdata	SEGMENT
$unwind$??__Ekernel32@freqDLLS@ProcessUtilities@@YAXXZ DD 020611H
	DD	030023206H
	DD	imagerel __CxxFrameHandler4
	DD	imagerel $cppxdata$??__Ekernel32@freqDLLS@ProcessUtilities@@YAXXZ
xdata	ENDS
;	COMDAT xdata
xdata	SEGMENT
$unwind$??__Fkernel32@freqDLLS@ProcessUtilities@@YAXXZ DD 010401H
	DD	04204H
xdata	ENDS
;	COMDAT xdata
xdata	SEGMENT
$unwind$?dtor$0@?0???R<lambda_2>@freqDLLS@ProcessUtilities@@QEBAAEAV?$obfuscated_data@$09$0?BMGONCACNKPGIEIF@D@ay@@XZ@4HA DD 010201H
	DD	05002H
xdata	ENDS
;	COMDAT xdata
xdata	SEGMENT
$ip2state$??R<lambda_2>@freqDLLS@ProcessUtilities@@QEBAAEAV?$obfuscated_data@$09$0?BMGONCACNKPGIEIF@D@ay@@XZ DB 02H
	DB	098H
	DB	02H
xdata	ENDS
;	COMDAT xdata
xdata	SEGMENT
$stateUnwindMap$??R<lambda_2>@freqDLLS@ProcessUtilities@@QEBAAEAV?$obfuscated_data@$09$0?BMGONCACNKPGIEIF@D@ay@@XZ DB 02H
	DB	0eH
	DD	imagerel ?dtor$0@?0???R<lambda_2>@freqDLLS@ProcessUtilities@@QEBAAEAV?$obfuscated_data@$09$0?BMGONCACNKPGIEIF@D@ay@@XZ@4HA
xdata	ENDS
;	COMDAT xdata
xdata	SEGMENT
$cppxdata$??R<lambda_2>@freqDLLS@ProcessUtilities@@QEBAAEAV?$obfuscated_data@$09$0?BMGONCACNKPGIEIF@D@ay@@XZ DB 028H
	DD	imagerel $stateUnwindMap$??R<lambda_2>@freqDLLS@ProcessUtilities@@QEBAAEAV?$obfuscated_data@$09$0?BMGONCACNKPGIEIF@D@ay@@XZ
	DD	imagerel $ip2state$??R<lambda_2>@freqDLLS@ProcessUtilities@@QEBAAEAV?$obfuscated_data@$09$0?BMGONCACNKPGIEIF@D@ay@@XZ
xdata	ENDS
;	COMDAT xdata
xdata	SEGMENT
$unwind$??R<lambda_2>@freqDLLS@ProcessUtilities@@QEBAAEAV?$obfuscated_data@$09$0?BMGONCACNKPGIEIF@D@ay@@XZ DD 020611H
	DD	030023206H
	DD	imagerel __CxxFrameHandler4
	DD	imagerel $cppxdata$??R<lambda_2>@freqDLLS@ProcessUtilities@@QEBAAEAV?$obfuscated_data@$09$0?BMGONCACNKPGIEIF@D@ay@@XZ
xdata	ENDS
;	COMDAT xdata
xdata	SEGMENT
$unwind$?dtor$0@?0???__Entdll@freqDLLS@ProcessUtilities@@YAXXZ@4HA DD 010201H
	DD	05002H
xdata	ENDS
;	COMDAT xdata
xdata	SEGMENT
$ip2state$??__Entdll@freqDLLS@ProcessUtilities@@YAXXZ DB 04H
	DB	098H
	DB	02H
	DB	0baH
	DB	00H
xdata	ENDS
;	COMDAT xdata
xdata	SEGMENT
$stateUnwindMap$??__Entdll@freqDLLS@ProcessUtilities@@YAXXZ DB 02H
	DB	0eH
	DD	imagerel ?dtor$0@?0???__Entdll@freqDLLS@ProcessUtilities@@YAXXZ@4HA
xdata	ENDS
;	COMDAT xdata
xdata	SEGMENT
$cppxdata$??__Entdll@freqDLLS@ProcessUtilities@@YAXXZ DB 028H
	DD	imagerel $stateUnwindMap$??__Entdll@freqDLLS@ProcessUtilities@@YAXXZ
	DD	imagerel $ip2state$??__Entdll@freqDLLS@ProcessUtilities@@YAXXZ
xdata	ENDS
;	COMDAT xdata
xdata	SEGMENT
$unwind$??__Entdll@freqDLLS@ProcessUtilities@@YAXXZ DD 020611H
	DD	030023206H
	DD	imagerel __CxxFrameHandler4
	DD	imagerel $cppxdata$??__Entdll@freqDLLS@ProcessUtilities@@YAXXZ
xdata	ENDS
;	COMDAT xdata
xdata	SEGMENT
$unwind$??__Fntdll@freqDLLS@ProcessUtilities@@YAXXZ DD 010401H
	DD	04204H
xdata	ENDS
;	COMDAT xdata
xdata	SEGMENT
$unwind$?dtor$0@?0???R<lambda_3>@freqDLLS@ProcessUtilities@@QEBAAEAV?$obfuscated_data@$0N@$0FHPLCBONHLGFABKJ@D@ay@@XZ@4HA DD 010201H
	DD	05002H
xdata	ENDS
;	COMDAT xdata
xdata	SEGMENT
$ip2state$??R<lambda_3>@freqDLLS@ProcessUtilities@@QEBAAEAV?$obfuscated_data@$0N@$0FHPLCBONHLGFABKJ@D@ay@@XZ DB 02H
	DB	09eH
	DB	02H
xdata	ENDS
;	COMDAT xdata
xdata	SEGMENT
$stateUnwindMap$??R<lambda_3>@freqDLLS@ProcessUtilities@@QEBAAEAV?$obfuscated_data@$0N@$0FHPLCBONHLGFABKJ@D@ay@@XZ DB 02H
	DB	0eH
	DD	imagerel ?dtor$0@?0???R<lambda_3>@freqDLLS@ProcessUtilities@@QEBAAEAV?$obfuscated_data@$0N@$0FHPLCBONHLGFABKJ@D@ay@@XZ@4HA
xdata	ENDS
;	COMDAT xdata
xdata	SEGMENT
$cppxdata$??R<lambda_3>@freqDLLS@ProcessUtilities@@QEBAAEAV?$obfuscated_data@$0N@$0FHPLCBONHLGFABKJ@D@ay@@XZ DB 028H
	DD	imagerel $stateUnwindMap$??R<lambda_3>@freqDLLS@ProcessUtilities@@QEBAAEAV?$obfuscated_data@$0N@$0FHPLCBONHLGFABKJ@D@ay@@XZ
	DD	imagerel $ip2state$??R<lambda_3>@freqDLLS@ProcessUtilities@@QEBAAEAV?$obfuscated_data@$0N@$0FHPLCBONHLGFABKJ@D@ay@@XZ
xdata	ENDS
;	COMDAT xdata
xdata	SEGMENT
$unwind$??R<lambda_3>@freqDLLS@ProcessUtilities@@QEBAAEAV?$obfuscated_data@$0N@$0FHPLCBONHLGFABKJ@D@ay@@XZ DD 020611H
	DD	030023206H
	DD	imagerel __CxxFrameHandler4
	DD	imagerel $cppxdata$??R<lambda_3>@freqDLLS@ProcessUtilities@@QEBAAEAV?$obfuscated_data@$0N@$0FHPLCBONHLGFABKJ@D@ay@@XZ
xdata	ENDS
;	COMDAT xdata
xdata	SEGMENT
$unwind$?dtor$0@?0???__Eadvapi32@freqDLLS@ProcessUtilities@@YAXXZ@4HA DD 010201H
	DD	05002H
xdata	ENDS
;	COMDAT xdata
xdata	SEGMENT
$ip2state$??__Eadvapi32@freqDLLS@ProcessUtilities@@YAXXZ DB 04H
	DB	09eH
	DB	02H
	DB	0caH
	DB	00H
xdata	ENDS
;	COMDAT xdata
xdata	SEGMENT
$stateUnwindMap$??__Eadvapi32@freqDLLS@ProcessUtilities@@YAXXZ DB 02H
	DB	0eH
	DD	imagerel ?dtor$0@?0???__Eadvapi32@freqDLLS@ProcessUtilities@@YAXXZ@4HA
xdata	ENDS
;	COMDAT xdata
xdata	SEGMENT
$cppxdata$??__Eadvapi32@freqDLLS@ProcessUtilities@@YAXXZ DB 028H
	DD	imagerel $stateUnwindMap$??__Eadvapi32@freqDLLS@ProcessUtilities@@YAXXZ
	DD	imagerel $ip2state$??__Eadvapi32@freqDLLS@ProcessUtilities@@YAXXZ
xdata	ENDS
;	COMDAT xdata
xdata	SEGMENT
$unwind$??__Eadvapi32@freqDLLS@ProcessUtilities@@YAXXZ DD 020611H
	DD	030023206H
	DD	imagerel __CxxFrameHandler4
	DD	imagerel $cppxdata$??__Eadvapi32@freqDLLS@ProcessUtilities@@YAXXZ
xdata	ENDS
;	COMDAT xdata
xdata	SEGMENT
$unwind$??__Fadvapi32@freqDLLS@ProcessUtilities@@YAXXZ DD 010401H
	DD	04204H
xdata	ENDS
;	COMDAT xdata
xdata	SEGMENT
$unwind$?dtor$78@?0??LoadWSAFunctions@NetCommon@@YAXXZ@4HA DD 010201H
	DD	05002H
xdata	ENDS
;	COMDAT xdata
xdata	SEGMENT
$unwind$?dtor$75@?0??LoadWSAFunctions@NetCommon@@YAXXZ@4HA DD 010201H
	DD	05002H
xdata	ENDS
;	COMDAT xdata
xdata	SEGMENT
$unwind$?dtor$69@?0??LoadWSAFunctions@NetCommon@@YAXXZ@4HA DD 010201H
	DD	05002H
xdata	ENDS
;	COMDAT xdata
xdata	SEGMENT
$unwind$?dtor$63@?0??LoadWSAFunctions@NetCommon@@YAXXZ@4HA DD 010201H
	DD	05002H
xdata	ENDS
;	COMDAT xdata
xdata	SEGMENT
$unwind$?dtor$57@?0??LoadWSAFunctions@NetCommon@@YAXXZ@4HA DD 010201H
	DD	05002H
xdata	ENDS
;	COMDAT xdata
xdata	SEGMENT
$unwind$?dtor$51@?0??LoadWSAFunctions@NetCommon@@YAXXZ@4HA DD 010201H
	DD	05002H
xdata	ENDS
;	COMDAT xdata
xdata	SEGMENT
$unwind$?dtor$45@?0??LoadWSAFunctions@NetCommon@@YAXXZ@4HA DD 010201H
	DD	05002H
xdata	ENDS
;	COMDAT xdata
xdata	SEGMENT
$unwind$?dtor$39@?0??LoadWSAFunctions@NetCommon@@YAXXZ@4HA DD 010201H
	DD	05002H
xdata	ENDS
;	COMDAT xdata
xdata	SEGMENT
$unwind$?dtor$33@?0??LoadWSAFunctions@NetCommon@@YAXXZ@4HA DD 010201H
	DD	05002H
xdata	ENDS
;	COMDAT xdata
xdata	SEGMENT
$unwind$?dtor$30@?0??LoadWSAFunctions@NetCommon@@YAXXZ@4HA DD 010201H
	DD	05002H
xdata	ENDS
;	COMDAT xdata
xdata	SEGMENT
$unwind$?dtor$24@?0??LoadWSAFunctions@NetCommon@@YAXXZ@4HA DD 010201H
	DD	05002H
xdata	ENDS
;	COMDAT xdata
xdata	SEGMENT
$unwind$?dtor$20@?0??LoadWSAFunctions@NetCommon@@YAXXZ@4HA DD 010201H
	DD	05002H
xdata	ENDS
;	COMDAT xdata
xdata	SEGMENT
$unwind$?dtor$14@?0??LoadWSAFunctions@NetCommon@@YAXXZ@4HA DD 010201H
	DD	05002H
xdata	ENDS
;	COMDAT xdata
xdata	SEGMENT
$ip2state$?LoadWSAFunctions@NetCommon@@YAXXZ DB 'R'
	DB	09aH
	DB	00H
	DB	'h'
	DB	02H
	DB	'V'
	DB	00H
	DB	0ccH
	DB	04H
	DB	':'
	DB	00H
	DB	019H, 02H
	DB	06H
	DB	0a4H
	DB	00H
	DB	','
	DB	08H
	DB	')', 02H
	DB	0aH
	DB	0b6H
	DB	00H
	DB	'2'
	DB	0cH
	DB	015H, 02H
	DB	0eH
	DB	0a4H
	DB	00H
	DB	'`'
	DB	010H
	DB	'\'
	DB	00H
	DB	0c2H
	DB	0cH
	DB	'6'
	DB	00H
	DB	0d8H
	DB	012H
	DB	0b4H
	DB	00H
	DB	'2'
	DB	0cH
	DB	015H, 02H
	DB	014H
	DB	0a4H
	DB	00H
	DB	'2'
	DB	0cH
	DB	0faH
	DB	016H
	DB	0b4H
	DB	00H
	DB	'2'
	DB	0cH
	DB	0dH, 02H
	DB	018H
	DB	0a8H
	DB	00H
	DB	'2'
	DB	0cH
	DB	0f8H
	DB	01aH
	DB	0a0H
	DB	00H
	DB	'2'
	DB	0cH
	DB	011H, 02H
	DB	01cH
	DB	0a8H
	DB	00H
	DB	'2'
	DB	0cH
	DB	'=', 02H
	DB	01eH
	DB	0a8H
	DB	00H
	DB	'R'
	DB	' '
	DB	'<'
	DB	00H
	DB	0d0H
	DB	0cH
	DB	':'
	DB	00H
xdata	ENDS
;	COMDAT xdata
xdata	SEGMENT
$stateUnwindMap$?LoadWSAFunctions@NetCommon@@YAXXZ DB 020H
	DB	0eH
	DD	imagerel ?dtor$14@?0??LoadWSAFunctions@NetCommon@@YAXXZ@4HA
	DB	034H
	DD	imagerel ??1?$basic_string@DU?$char_traits@D@std@@V?$allocator@D@2@@std@@QEAA@XZ
	DB	090H
	DB	066H
	DD	imagerel ?dtor$20@?0??LoadWSAFunctions@NetCommon@@YAXXZ@4HA
	DB	08aH
	DD	imagerel ??1?$basic_string@DU?$char_traits@D@std@@V?$allocator@D@2@@std@@QEAA@XZ
	DB	0e0H
	DB	0beH
	DD	imagerel ?dtor$24@?0??LoadWSAFunctions@NetCommon@@YAXXZ@4HA
	DB	0e4H
	DD	imagerel ??1?$basic_string@DU?$char_traits@D@std@@V?$allocator@D@2@@std@@QEAA@XZ
	DB	080H
	DB	02dH
	DB	02H
	DD	imagerel ?dtor$30@?0??LoadWSAFunctions@NetCommon@@YAXXZ@4HA
	DB	08dH
	DB	02H
	DD	imagerel ?dtor$33@?0??LoadWSAFunctions@NetCommon@@YAXXZ@4HA
	DB	0edH
	DB	02H
	DD	imagerel ?dtor$39@?0??LoadWSAFunctions@NetCommon@@YAXXZ@4HA
	DB	04dH
	DB	03H
	DD	imagerel ?dtor$45@?0??LoadWSAFunctions@NetCommon@@YAXXZ@4HA
	DB	0adH
	DB	03H
	DD	imagerel ?dtor$51@?0??LoadWSAFunctions@NetCommon@@YAXXZ@4HA
	DB	0dH
	DB	04H
	DD	imagerel ?dtor$57@?0??LoadWSAFunctions@NetCommon@@YAXXZ@4HA
	DB	06dH
	DB	04H
	DD	imagerel ?dtor$63@?0??LoadWSAFunctions@NetCommon@@YAXXZ@4HA
	DB	0cdH
	DB	04H
	DD	imagerel ?dtor$69@?0??LoadWSAFunctions@NetCommon@@YAXXZ@4HA
	DB	02dH
	DB	05H
	DD	imagerel ?dtor$75@?0??LoadWSAFunctions@NetCommon@@YAXXZ@4HA
	DB	08dH
	DB	05H
	DD	imagerel ?dtor$78@?0??LoadWSAFunctions@NetCommon@@YAXXZ@4HA
xdata	ENDS
;	COMDAT xdata
xdata	SEGMENT
$cppxdata$?LoadWSAFunctions@NetCommon@@YAXXZ DB 028H
	DD	imagerel $stateUnwindMap$?LoadWSAFunctions@NetCommon@@YAXXZ
	DD	imagerel $ip2state$?LoadWSAFunctions@NetCommon@@YAXXZ
xdata	ENDS
;	COMDAT xdata
xdata	SEGMENT
$unwind$?LoadWSAFunctions@NetCommon@@YAXXZ DD 0b3419H
	DD	04e7423H
	DD	04d6423H
	DD	04c3423H
	DD	0480123H
	DD	0e012f014H
	DD	05010H
	DD	imagerel __GSHandlerCheck_EH4
	DD	imagerel $cppxdata$?LoadWSAFunctions@NetCommon@@YAXXZ
	DD	0232H
xdata	ENDS
;	COMDAT xdata
xdata	SEGMENT
$unwind$?dtor$0@?0???R<lambda_1>@?1??LoadWSAFunctions@NetCommon@@YAXXZ@QEBAAEAV?$obfuscated_data@$0N@$0?HGAKNEMGLKFGEOML@D@ay@@XZ@4HA DD 010201H
	DD	05002H
xdata	ENDS
;	COMDAT xdata
xdata	SEGMENT
$ip2state$??R<lambda_1>@?1??LoadWSAFunctions@NetCommon@@YAXXZ@QEBAAEAV?$obfuscated_data@$0N@$0?HGAKNEMGLKFGEOML@D@ay@@XZ DB 02H
	DB	09eH
	DB	02H
xdata	ENDS
;	COMDAT xdata
xdata	SEGMENT
$stateUnwindMap$??R<lambda_1>@?1??LoadWSAFunctions@NetCommon@@YAXXZ@QEBAAEAV?$obfuscated_data@$0N@$0?HGAKNEMGLKFGEOML@D@ay@@XZ DB 02H
	DB	0eH
	DD	imagerel ?dtor$0@?0???R<lambda_1>@?1??LoadWSAFunctions@NetCommon@@YAXXZ@QEBAAEAV?$obfuscated_data@$0N@$0?HGAKNEMGLKFGEOML@D@ay@@XZ@4HA
xdata	ENDS
;	COMDAT xdata
xdata	SEGMENT
$cppxdata$??R<lambda_1>@?1??LoadWSAFunctions@NetCommon@@YAXXZ@QEBAAEAV?$obfuscated_data@$0N@$0?HGAKNEMGLKFGEOML@D@ay@@XZ DB 028H
	DD	imagerel $stateUnwindMap$??R<lambda_1>@?1??LoadWSAFunctions@NetCommon@@YAXXZ@QEBAAEAV?$obfuscated_data@$0N@$0?HGAKNEMGLKFGEOML@D@ay@@XZ
	DD	imagerel $ip2state$??R<lambda_1>@?1??LoadWSAFunctions@NetCommon@@YAXXZ@QEBAAEAV?$obfuscated_data@$0N@$0?HGAKNEMGLKFGEOML@D@ay@@XZ
xdata	ENDS
;	COMDAT xdata
xdata	SEGMENT
$unwind$??R<lambda_1>@?1??LoadWSAFunctions@NetCommon@@YAXXZ@QEBAAEAV?$obfuscated_data@$0N@$0?HGAKNEMGLKFGEOML@D@ay@@XZ DD 020611H
	DD	030023206H
	DD	imagerel __CxxFrameHandler4
	DD	imagerel $cppxdata$??R<lambda_1>@?1??LoadWSAFunctions@NetCommon@@YAXXZ@QEBAAEAV?$obfuscated_data@$0N@$0?HGAKNEMGLKFGEOML@D@ay@@XZ
xdata	ENDS
;	COMDAT xdata
xdata	SEGMENT
$unwind$?dtor$0@?0???R<lambda_2>@?1??LoadWSAFunctions@NetCommon@@YAXXZ@QEBAAEAV?$obfuscated_data@$0L@$0?EENOPMEAPELCIIOD@D@ay@@XZ@4HA DD 010201H
	DD	05002H
xdata	ENDS
;	COMDAT xdata
xdata	SEGMENT
$ip2state$??R<lambda_2>@?1??LoadWSAFunctions@NetCommon@@YAXXZ@QEBAAEAV?$obfuscated_data@$0L@$0?EENOPMEAPELCIIOD@D@ay@@XZ DB 02H
	DB	092H
	DB	02H
xdata	ENDS
;	COMDAT xdata
xdata	SEGMENT
$stateUnwindMap$??R<lambda_2>@?1??LoadWSAFunctions@NetCommon@@YAXXZ@QEBAAEAV?$obfuscated_data@$0L@$0?EENOPMEAPELCIIOD@D@ay@@XZ DB 02H
	DB	0eH
	DD	imagerel ?dtor$0@?0???R<lambda_2>@?1??LoadWSAFunctions@NetCommon@@YAXXZ@QEBAAEAV?$obfuscated_data@$0L@$0?EENOPMEAPELCIIOD@D@ay@@XZ@4HA
xdata	ENDS
;	COMDAT xdata
xdata	SEGMENT
$cppxdata$??R<lambda_2>@?1??LoadWSAFunctions@NetCommon@@YAXXZ@QEBAAEAV?$obfuscated_data@$0L@$0?EENOPMEAPELCIIOD@D@ay@@XZ DB 028H
	DD	imagerel $stateUnwindMap$??R<lambda_2>@?1??LoadWSAFunctions@NetCommon@@YAXXZ@QEBAAEAV?$obfuscated_data@$0L@$0?EENOPMEAPELCIIOD@D@ay@@XZ
	DD	imagerel $ip2state$??R<lambda_2>@?1??LoadWSAFunctions@NetCommon@@YAXXZ@QEBAAEAV?$obfuscated_data@$0L@$0?EENOPMEAPELCIIOD@D@ay@@XZ
xdata	ENDS
;	COMDAT xdata
xdata	SEGMENT
$unwind$??R<lambda_2>@?1??LoadWSAFunctions@NetCommon@@YAXXZ@QEBAAEAV?$obfuscated_data@$0L@$0?EENOPMEAPELCIIOD@D@ay@@XZ DD 020611H
	DD	030023206H
	DD	imagerel __CxxFrameHandler4
	DD	imagerel $cppxdata$??R<lambda_2>@?1??LoadWSAFunctions@NetCommon@@YAXXZ@QEBAAEAV?$obfuscated_data@$0L@$0?EENOPMEAPELCIIOD@D@ay@@XZ
xdata	ENDS
;	COMDAT xdata
xdata	SEGMENT
$unwind$?dtor$0@?0???R<lambda_3>@?1??LoadWSAFunctions@NetCommon@@YAXXZ@QEBAAEAV?$obfuscated_data@$0L@$0?BENIGEJGOAAMAEMJ@D@ay@@XZ@4HA DD 010201H
	DD	05002H
xdata	ENDS
;	COMDAT xdata
xdata	SEGMENT
$ip2state$??R<lambda_3>@?1??LoadWSAFunctions@NetCommon@@YAXXZ@QEBAAEAV?$obfuscated_data@$0L@$0?BENIGEJGOAAMAEMJ@D@ay@@XZ DB 02H
	DB	092H
	DB	02H
xdata	ENDS
;	COMDAT xdata
xdata	SEGMENT
$stateUnwindMap$??R<lambda_3>@?1??LoadWSAFunctions@NetCommon@@YAXXZ@QEBAAEAV?$obfuscated_data@$0L@$0?BENIGEJGOAAMAEMJ@D@ay@@XZ DB 02H
	DB	0eH
	DD	imagerel ?dtor$0@?0???R<lambda_3>@?1??LoadWSAFunctions@NetCommon@@YAXXZ@QEBAAEAV?$obfuscated_data@$0L@$0?BENIGEJGOAAMAEMJ@D@ay@@XZ@4HA
xdata	ENDS
;	COMDAT xdata
xdata	SEGMENT
$cppxdata$??R<lambda_3>@?1??LoadWSAFunctions@NetCommon@@YAXXZ@QEBAAEAV?$obfuscated_data@$0L@$0?BENIGEJGOAAMAEMJ@D@ay@@XZ DB 028H
	DD	imagerel $stateUnwindMap$??R<lambda_3>@?1??LoadWSAFunctions@NetCommon@@YAXXZ@QEBAAEAV?$obfuscated_data@$0L@$0?BENIGEJGOAAMAEMJ@D@ay@@XZ
	DD	imagerel $ip2state$??R<lambda_3>@?1??LoadWSAFunctions@NetCommon@@YAXXZ@QEBAAEAV?$obfuscated_data@$0L@$0?BENIGEJGOAAMAEMJ@D@ay@@XZ
xdata	ENDS
;	COMDAT xdata
xdata	SEGMENT
$unwind$??R<lambda_3>@?1??LoadWSAFunctions@NetCommon@@YAXXZ@QEBAAEAV?$obfuscated_data@$0L@$0?BENIGEJGOAAMAEMJ@D@ay@@XZ DD 020611H
	DD	030023206H
	DD	imagerel __CxxFrameHandler4
	DD	imagerel $cppxdata$??R<lambda_3>@?1??LoadWSAFunctions@NetCommon@@YAXXZ@QEBAAEAV?$obfuscated_data@$0L@$0?BENIGEJGOAAMAEMJ@D@ay@@XZ
xdata	ENDS
;	COMDAT xdata
xdata	SEGMENT
$unwind$?dtor$0@?0???R<lambda_4>@?1??LoadWSAFunctions@NetCommon@@YAXXZ@QEBAAEAV?$obfuscated_data@$04$0?KKMBKJIJMJIOKML@D@ay@@XZ@4HA DD 010201H
	DD	05002H
xdata	ENDS
;	COMDAT xdata
xdata	SEGMENT
$ip2state$??R<lambda_4>@?1??LoadWSAFunctions@NetCommon@@YAXXZ@QEBAAEAV?$obfuscated_data@$04$0?KKMBKJIJMJIOKML@D@ay@@XZ DB 02H
	DB	082H
	DB	02H
xdata	ENDS
;	COMDAT xdata
xdata	SEGMENT
$stateUnwindMap$??R<lambda_4>@?1??LoadWSAFunctions@NetCommon@@YAXXZ@QEBAAEAV?$obfuscated_data@$04$0?KKMBKJIJMJIOKML@D@ay@@XZ DB 02H
	DB	0eH
	DD	imagerel ?dtor$0@?0???R<lambda_4>@?1??LoadWSAFunctions@NetCommon@@YAXXZ@QEBAAEAV?$obfuscated_data@$04$0?KKMBKJIJMJIOKML@D@ay@@XZ@4HA
xdata	ENDS
;	COMDAT xdata
xdata	SEGMENT
$cppxdata$??R<lambda_4>@?1??LoadWSAFunctions@NetCommon@@YAXXZ@QEBAAEAV?$obfuscated_data@$04$0?KKMBKJIJMJIOKML@D@ay@@XZ DB 028H
	DD	imagerel $stateUnwindMap$??R<lambda_4>@?1??LoadWSAFunctions@NetCommon@@YAXXZ@QEBAAEAV?$obfuscated_data@$04$0?KKMBKJIJMJIOKML@D@ay@@XZ
	DD	imagerel $ip2state$??R<lambda_4>@?1??LoadWSAFunctions@NetCommon@@YAXXZ@QEBAAEAV?$obfuscated_data@$04$0?KKMBKJIJMJIOKML@D@ay@@XZ
xdata	ENDS
;	COMDAT xdata
xdata	SEGMENT
$unwind$??R<lambda_4>@?1??LoadWSAFunctions@NetCommon@@YAXXZ@QEBAAEAV?$obfuscated_data@$04$0?KKMBKJIJMJIOKML@D@ay@@XZ DD 020611H
	DD	030023206H
	DD	imagerel __CxxFrameHandler4
	DD	imagerel $cppxdata$??R<lambda_4>@?1??LoadWSAFunctions@NetCommon@@YAXXZ@QEBAAEAV?$obfuscated_data@$04$0?KKMBKJIJMJIOKML@D@ay@@XZ
xdata	ENDS
;	COMDAT xdata
xdata	SEGMENT
$unwind$?dtor$0@?0???R<lambda_5>@?1??LoadWSAFunctions@NetCommon@@YAXXZ@QEBAAEAV?$obfuscated_data@$0M@$0?DMGIHEDGHAKMGH@D@ay@@XZ@4HA DD 010201H
	DD	05002H
xdata	ENDS
;	COMDAT xdata
xdata	SEGMENT
$ip2state$??R<lambda_5>@?1??LoadWSAFunctions@NetCommon@@YAXXZ@QEBAAEAV?$obfuscated_data@$0M@$0?DMGIHEDGHAKMGH@D@ay@@XZ DB 02H
	DB	0a4H
	DB	02H
xdata	ENDS
;	COMDAT xdata
xdata	SEGMENT
$stateUnwindMap$??R<lambda_5>@?1??LoadWSAFunctions@NetCommon@@YAXXZ@QEBAAEAV?$obfuscated_data@$0M@$0?DMGIHEDGHAKMGH@D@ay@@XZ DB 02H
	DB	0eH
	DD	imagerel ?dtor$0@?0???R<lambda_5>@?1??LoadWSAFunctions@NetCommon@@YAXXZ@QEBAAEAV?$obfuscated_data@$0M@$0?DMGIHEDGHAKMGH@D@ay@@XZ@4HA
xdata	ENDS
;	COMDAT xdata
xdata	SEGMENT
$cppxdata$??R<lambda_5>@?1??LoadWSAFunctions@NetCommon@@YAXXZ@QEBAAEAV?$obfuscated_data@$0M@$0?DMGIHEDGHAKMGH@D@ay@@XZ DB 028H
	DD	imagerel $stateUnwindMap$??R<lambda_5>@?1??LoadWSAFunctions@NetCommon@@YAXXZ@QEBAAEAV?$obfuscated_data@$0M@$0?DMGIHEDGHAKMGH@D@ay@@XZ
	DD	imagerel $ip2state$??R<lambda_5>@?1??LoadWSAFunctions@NetCommon@@YAXXZ@QEBAAEAV?$obfuscated_data@$0M@$0?DMGIHEDGHAKMGH@D@ay@@XZ
xdata	ENDS
;	COMDAT xdata
xdata	SEGMENT
$unwind$??R<lambda_5>@?1??LoadWSAFunctions@NetCommon@@YAXXZ@QEBAAEAV?$obfuscated_data@$0M@$0?DMGIHEDGHAKMGH@D@ay@@XZ DD 020611H
	DD	030023206H
	DD	imagerel __CxxFrameHandler4
	DD	imagerel $cppxdata$??R<lambda_5>@?1??LoadWSAFunctions@NetCommon@@YAXXZ@QEBAAEAV?$obfuscated_data@$0M@$0?DMGIHEDGHAKMGH@D@ay@@XZ
xdata	ENDS
;	COMDAT xdata
xdata	SEGMENT
$unwind$?dtor$0@?0???R<lambda_6>@?1??LoadWSAFunctions@NetCommon@@YAXXZ@QEBAAEAV?$obfuscated_data@$06$0?GECKGKFAHKOCHEBJ@D@ay@@XZ@4HA DD 010201H
	DD	05002H
xdata	ENDS
;	COMDAT xdata
xdata	SEGMENT
$ip2state$??R<lambda_6>@?1??LoadWSAFunctions@NetCommon@@YAXXZ@QEBAAEAV?$obfuscated_data@$06$0?GECKGKFAHKOCHEBJ@D@ay@@XZ DB 02H
	DB	084H
	DB	02H
xdata	ENDS
;	COMDAT xdata
xdata	SEGMENT
$stateUnwindMap$??R<lambda_6>@?1??LoadWSAFunctions@NetCommon@@YAXXZ@QEBAAEAV?$obfuscated_data@$06$0?GECKGKFAHKOCHEBJ@D@ay@@XZ DB 02H
	DB	0eH
	DD	imagerel ?dtor$0@?0???R<lambda_6>@?1??LoadWSAFunctions@NetCommon@@YAXXZ@QEBAAEAV?$obfuscated_data@$06$0?GECKGKFAHKOCHEBJ@D@ay@@XZ@4HA
xdata	ENDS
;	COMDAT xdata
xdata	SEGMENT
$cppxdata$??R<lambda_6>@?1??LoadWSAFunctions@NetCommon@@YAXXZ@QEBAAEAV?$obfuscated_data@$06$0?GECKGKFAHKOCHEBJ@D@ay@@XZ DB 028H
	DD	imagerel $stateUnwindMap$??R<lambda_6>@?1??LoadWSAFunctions@NetCommon@@YAXXZ@QEBAAEAV?$obfuscated_data@$06$0?GECKGKFAHKOCHEBJ@D@ay@@XZ
	DD	imagerel $ip2state$??R<lambda_6>@?1??LoadWSAFunctions@NetCommon@@YAXXZ@QEBAAEAV?$obfuscated_data@$06$0?GECKGKFAHKOCHEBJ@D@ay@@XZ
xdata	ENDS
;	COMDAT xdata
xdata	SEGMENT
$unwind$??R<lambda_6>@?1??LoadWSAFunctions@NetCommon@@YAXXZ@QEBAAEAV?$obfuscated_data@$06$0?GECKGKFAHKOCHEBJ@D@ay@@XZ DD 020611H
	DD	030023206H
	DD	imagerel __CxxFrameHandler4
	DD	imagerel $cppxdata$??R<lambda_6>@?1??LoadWSAFunctions@NetCommon@@YAXXZ@QEBAAEAV?$obfuscated_data@$06$0?GECKGKFAHKOCHEBJ@D@ay@@XZ
xdata	ENDS
;	COMDAT xdata
xdata	SEGMENT
$unwind$?dtor$0@?0???R<lambda_7>@?1??LoadWSAFunctions@NetCommon@@YAXXZ@QEBAAEAV?$obfuscated_data@$04$0DJODMBJLLLJDFDHD@D@ay@@XZ@4HA DD 010201H
	DD	05002H
xdata	ENDS
;	COMDAT xdata
xdata	SEGMENT
$ip2state$??R<lambda_7>@?1??LoadWSAFunctions@NetCommon@@YAXXZ@QEBAAEAV?$obfuscated_data@$04$0DJODMBJLLLJDFDHD@D@ay@@XZ DB 02H
	DB	082H
	DB	02H
xdata	ENDS
;	COMDAT xdata
xdata	SEGMENT
$stateUnwindMap$??R<lambda_7>@?1??LoadWSAFunctions@NetCommon@@YAXXZ@QEBAAEAV?$obfuscated_data@$04$0DJODMBJLLLJDFDHD@D@ay@@XZ DB 02H
	DB	0eH
	DD	imagerel ?dtor$0@?0???R<lambda_7>@?1??LoadWSAFunctions@NetCommon@@YAXXZ@QEBAAEAV?$obfuscated_data@$04$0DJODMBJLLLJDFDHD@D@ay@@XZ@4HA
xdata	ENDS
;	COMDAT xdata
xdata	SEGMENT
$cppxdata$??R<lambda_7>@?1??LoadWSAFunctions@NetCommon@@YAXXZ@QEBAAEAV?$obfuscated_data@$04$0DJODMBJLLLJDFDHD@D@ay@@XZ DB 028H
	DD	imagerel $stateUnwindMap$??R<lambda_7>@?1??LoadWSAFunctions@NetCommon@@YAXXZ@QEBAAEAV?$obfuscated_data@$04$0DJODMBJLLLJDFDHD@D@ay@@XZ
	DD	imagerel $ip2state$??R<lambda_7>@?1??LoadWSAFunctions@NetCommon@@YAXXZ@QEBAAEAV?$obfuscated_data@$04$0DJODMBJLLLJDFDHD@D@ay@@XZ
xdata	ENDS
;	COMDAT xdata
xdata	SEGMENT
$unwind$??R<lambda_7>@?1??LoadWSAFunctions@NetCommon@@YAXXZ@QEBAAEAV?$obfuscated_data@$04$0DJODMBJLLLJDFDHD@D@ay@@XZ DD 020611H
	DD	030023206H
	DD	imagerel __CxxFrameHandler4
	DD	imagerel $cppxdata$??R<lambda_7>@?1??LoadWSAFunctions@NetCommon@@YAXXZ@QEBAAEAV?$obfuscated_data@$04$0DJODMBJLLLJDFDHD@D@ay@@XZ
xdata	ENDS
;	COMDAT xdata
xdata	SEGMENT
$unwind$?dtor$0@?0???R<lambda_8>@?1??LoadWSAFunctions@NetCommon@@YAXXZ@QEBAAEAV?$obfuscated_data@$06$0?GIOGLOCGPCIABIMJ@D@ay@@XZ@4HA DD 010201H
	DD	05002H
xdata	ENDS
;	COMDAT xdata
xdata	SEGMENT
$ip2state$??R<lambda_8>@?1??LoadWSAFunctions@NetCommon@@YAXXZ@QEBAAEAV?$obfuscated_data@$06$0?GIOGLOCGPCIABIMJ@D@ay@@XZ DB 02H
	DB	084H
	DB	02H
xdata	ENDS
;	COMDAT xdata
xdata	SEGMENT
$stateUnwindMap$??R<lambda_8>@?1??LoadWSAFunctions@NetCommon@@YAXXZ@QEBAAEAV?$obfuscated_data@$06$0?GIOGLOCGPCIABIMJ@D@ay@@XZ DB 02H
	DB	0eH
	DD	imagerel ?dtor$0@?0???R<lambda_8>@?1??LoadWSAFunctions@NetCommon@@YAXXZ@QEBAAEAV?$obfuscated_data@$06$0?GIOGLOCGPCIABIMJ@D@ay@@XZ@4HA
xdata	ENDS
;	COMDAT xdata
xdata	SEGMENT
$cppxdata$??R<lambda_8>@?1??LoadWSAFunctions@NetCommon@@YAXXZ@QEBAAEAV?$obfuscated_data@$06$0?GIOGLOCGPCIABIMJ@D@ay@@XZ DB 028H
	DD	imagerel $stateUnwindMap$??R<lambda_8>@?1??LoadWSAFunctions@NetCommon@@YAXXZ@QEBAAEAV?$obfuscated_data@$06$0?GIOGLOCGPCIABIMJ@D@ay@@XZ
	DD	imagerel $ip2state$??R<lambda_8>@?1??LoadWSAFunctions@NetCommon@@YAXXZ@QEBAAEAV?$obfuscated_data@$06$0?GIOGLOCGPCIABIMJ@D@ay@@XZ
xdata	ENDS
;	COMDAT xdata
xdata	SEGMENT
$unwind$??R<lambda_8>@?1??LoadWSAFunctions@NetCommon@@YAXXZ@QEBAAEAV?$obfuscated_data@$06$0?GIOGLOCGPCIABIMJ@D@ay@@XZ DD 020611H
	DD	030023206H
	DD	imagerel __CxxFrameHandler4
	DD	imagerel $cppxdata$??R<lambda_8>@?1??LoadWSAFunctions@NetCommon@@YAXXZ@QEBAAEAV?$obfuscated_data@$06$0?GIOGLOCGPCIABIMJ@D@ay@@XZ
xdata	ENDS
;	COMDAT xdata
xdata	SEGMENT
$unwind$?dtor$0@?0???R<lambda_9>@?1??LoadWSAFunctions@NetCommon@@YAXXZ@QEBAAEAV?$obfuscated_data@$08$0?DIIAIINMJEFCLIGH@D@ay@@XZ@4HA DD 010201H
	DD	05002H
xdata	ENDS
;	COMDAT xdata
xdata	SEGMENT
$ip2state$??R<lambda_9>@?1??LoadWSAFunctions@NetCommon@@YAXXZ@QEBAAEAV?$obfuscated_data@$08$0?DIIAIINMJEFCLIGH@D@ay@@XZ DB 02H
	DB	090H
	DB	02H
xdata	ENDS
;	COMDAT xdata
xdata	SEGMENT
$stateUnwindMap$??R<lambda_9>@?1??LoadWSAFunctions@NetCommon@@YAXXZ@QEBAAEAV?$obfuscated_data@$08$0?DIIAIINMJEFCLIGH@D@ay@@XZ DB 02H
	DB	0eH
	DD	imagerel ?dtor$0@?0???R<lambda_9>@?1??LoadWSAFunctions@NetCommon@@YAXXZ@QEBAAEAV?$obfuscated_data@$08$0?DIIAIINMJEFCLIGH@D@ay@@XZ@4HA
xdata	ENDS
;	COMDAT xdata
xdata	SEGMENT
$cppxdata$??R<lambda_9>@?1??LoadWSAFunctions@NetCommon@@YAXXZ@QEBAAEAV?$obfuscated_data@$08$0?DIIAIINMJEFCLIGH@D@ay@@XZ DB 028H
	DD	imagerel $stateUnwindMap$??R<lambda_9>@?1??LoadWSAFunctions@NetCommon@@YAXXZ@QEBAAEAV?$obfuscated_data@$08$0?DIIAIINMJEFCLIGH@D@ay@@XZ
	DD	imagerel $ip2state$??R<lambda_9>@?1??LoadWSAFunctions@NetCommon@@YAXXZ@QEBAAEAV?$obfuscated_data@$08$0?DIIAIINMJEFCLIGH@D@ay@@XZ
xdata	ENDS
;	COMDAT xdata
xdata	SEGMENT
$unwind$??R<lambda_9>@?1??LoadWSAFunctions@NetCommon@@YAXXZ@QEBAAEAV?$obfuscated_data@$08$0?DIIAIINMJEFCLIGH@D@ay@@XZ DD 020611H
	DD	030023206H
	DD	imagerel __CxxFrameHandler4
	DD	imagerel $cppxdata$??R<lambda_9>@?1??LoadWSAFunctions@NetCommon@@YAXXZ@QEBAAEAV?$obfuscated_data@$08$0?DIIAIINMJEFCLIGH@D@ay@@XZ
xdata	ENDS
;	COMDAT xdata
xdata	SEGMENT
$unwind$?dtor$0@?0???R<lambda_10>@?1??LoadWSAFunctions@NetCommon@@YAXXZ@QEBAAEAV?$obfuscated_data@$04$0?DGIIOELKAGGOMEHJ@D@ay@@XZ@4HA DD 010201H
	DD	05002H
xdata	ENDS
;	COMDAT xdata
xdata	SEGMENT
$ip2state$??R<lambda_10>@?1??LoadWSAFunctions@NetCommon@@YAXXZ@QEBAAEAV?$obfuscated_data@$04$0?DGIIOELKAGGOMEHJ@D@ay@@XZ DB 02H
	DB	082H
	DB	02H
xdata	ENDS
;	COMDAT xdata
xdata	SEGMENT
$stateUnwindMap$??R<lambda_10>@?1??LoadWSAFunctions@NetCommon@@YAXXZ@QEBAAEAV?$obfuscated_data@$04$0?DGIIOELKAGGOMEHJ@D@ay@@XZ DB 02H
	DB	0eH
	DD	imagerel ?dtor$0@?0???R<lambda_10>@?1??LoadWSAFunctions@NetCommon@@YAXXZ@QEBAAEAV?$obfuscated_data@$04$0?DGIIOELKAGGOMEHJ@D@ay@@XZ@4HA
xdata	ENDS
;	COMDAT xdata
xdata	SEGMENT
$cppxdata$??R<lambda_10>@?1??LoadWSAFunctions@NetCommon@@YAXXZ@QEBAAEAV?$obfuscated_data@$04$0?DGIIOELKAGGOMEHJ@D@ay@@XZ DB 028H
	DD	imagerel $stateUnwindMap$??R<lambda_10>@?1??LoadWSAFunctions@NetCommon@@YAXXZ@QEBAAEAV?$obfuscated_data@$04$0?DGIIOELKAGGOMEHJ@D@ay@@XZ
	DD	imagerel $ip2state$??R<lambda_10>@?1??LoadWSAFunctions@NetCommon@@YAXXZ@QEBAAEAV?$obfuscated_data@$04$0?DGIIOELKAGGOMEHJ@D@ay@@XZ
xdata	ENDS
;	COMDAT xdata
xdata	SEGMENT
$unwind$??R<lambda_10>@?1??LoadWSAFunctions@NetCommon@@YAXXZ@QEBAAEAV?$obfuscated_data@$04$0?DGIIOELKAGGOMEHJ@D@ay@@XZ DD 020611H
	DD	030023206H
	DD	imagerel __CxxFrameHandler4
	DD	imagerel $cppxdata$??R<lambda_10>@?1??LoadWSAFunctions@NetCommon@@YAXXZ@QEBAAEAV?$obfuscated_data@$04$0?DGIIOELKAGGOMEHJ@D@ay@@XZ
xdata	ENDS
;	COMDAT xdata
xdata	SEGMENT
$unwind$?dtor$0@?0???R<lambda_11>@?1??LoadWSAFunctions@NetCommon@@YAXXZ@QEBAAEAV?$obfuscated_data@$0L@$0HNABEJKPKLAFGLNN@D@ay@@XZ@4HA DD 010201H
	DD	05002H
xdata	ENDS
;	COMDAT xdata
xdata	SEGMENT
$ip2state$??R<lambda_11>@?1??LoadWSAFunctions@NetCommon@@YAXXZ@QEBAAEAV?$obfuscated_data@$0L@$0HNABEJKPKLAFGLNN@D@ay@@XZ DB 02H
	DB	092H
	DB	02H
xdata	ENDS
;	COMDAT xdata
xdata	SEGMENT
$stateUnwindMap$??R<lambda_11>@?1??LoadWSAFunctions@NetCommon@@YAXXZ@QEBAAEAV?$obfuscated_data@$0L@$0HNABEJKPKLAFGLNN@D@ay@@XZ DB 02H
	DB	0eH
	DD	imagerel ?dtor$0@?0???R<lambda_11>@?1??LoadWSAFunctions@NetCommon@@YAXXZ@QEBAAEAV?$obfuscated_data@$0L@$0HNABEJKPKLAFGLNN@D@ay@@XZ@4HA
xdata	ENDS
;	COMDAT xdata
xdata	SEGMENT
$cppxdata$??R<lambda_11>@?1??LoadWSAFunctions@NetCommon@@YAXXZ@QEBAAEAV?$obfuscated_data@$0L@$0HNABEJKPKLAFGLNN@D@ay@@XZ DB 028H
	DD	imagerel $stateUnwindMap$??R<lambda_11>@?1??LoadWSAFunctions@NetCommon@@YAXXZ@QEBAAEAV?$obfuscated_data@$0L@$0HNABEJKPKLAFGLNN@D@ay@@XZ
	DD	imagerel $ip2state$??R<lambda_11>@?1??LoadWSAFunctions@NetCommon@@YAXXZ@QEBAAEAV?$obfuscated_data@$0L@$0HNABEJKPKLAFGLNN@D@ay@@XZ
xdata	ENDS
;	COMDAT xdata
xdata	SEGMENT
$unwind$??R<lambda_11>@?1??LoadWSAFunctions@NetCommon@@YAXXZ@QEBAAEAV?$obfuscated_data@$0L@$0HNABEJKPKLAFGLNN@D@ay@@XZ DD 020611H
	DD	030023206H
	DD	imagerel __CxxFrameHandler4
	DD	imagerel $cppxdata$??R<lambda_11>@?1??LoadWSAFunctions@NetCommon@@YAXXZ@QEBAAEAV?$obfuscated_data@$0L@$0HNABEJKPKLAFGLNN@D@ay@@XZ
xdata	ENDS
;	COMDAT xdata
xdata	SEGMENT
$unwind$?dtor$0@?0???R<lambda_12>@?1??LoadWSAFunctions@NetCommon@@YAXXZ@QEBAAEAV?$obfuscated_data@$07$0?HIPICCNMEODGEKBB@D@ay@@XZ@4HA DD 010201H
	DD	05002H
xdata	ENDS
;	COMDAT xdata
xdata	SEGMENT
$ip2state$??R<lambda_12>@?1??LoadWSAFunctions@NetCommon@@YAXXZ@QEBAAEAV?$obfuscated_data@$07$0?HIPICCNMEODGEKBB@D@ay@@XZ DB 02H
	DB	096H
	DB	02H
xdata	ENDS
;	COMDAT xdata
xdata	SEGMENT
$stateUnwindMap$??R<lambda_12>@?1??LoadWSAFunctions@NetCommon@@YAXXZ@QEBAAEAV?$obfuscated_data@$07$0?HIPICCNMEODGEKBB@D@ay@@XZ DB 02H
	DB	0eH
	DD	imagerel ?dtor$0@?0???R<lambda_12>@?1??LoadWSAFunctions@NetCommon@@YAXXZ@QEBAAEAV?$obfuscated_data@$07$0?HIPICCNMEODGEKBB@D@ay@@XZ@4HA
xdata	ENDS
;	COMDAT xdata
xdata	SEGMENT
$cppxdata$??R<lambda_12>@?1??LoadWSAFunctions@NetCommon@@YAXXZ@QEBAAEAV?$obfuscated_data@$07$0?HIPICCNMEODGEKBB@D@ay@@XZ DB 028H
	DD	imagerel $stateUnwindMap$??R<lambda_12>@?1??LoadWSAFunctions@NetCommon@@YAXXZ@QEBAAEAV?$obfuscated_data@$07$0?HIPICCNMEODGEKBB@D@ay@@XZ
	DD	imagerel $ip2state$??R<lambda_12>@?1??LoadWSAFunctions@NetCommon@@YAXXZ@QEBAAEAV?$obfuscated_data@$07$0?HIPICCNMEODGEKBB@D@ay@@XZ
xdata	ENDS
;	COMDAT xdata
xdata	SEGMENT
$unwind$??R<lambda_12>@?1??LoadWSAFunctions@NetCommon@@YAXXZ@QEBAAEAV?$obfuscated_data@$07$0?HIPICCNMEODGEKBB@D@ay@@XZ DD 020611H
	DD	030023206H
	DD	imagerel __CxxFrameHandler4
	DD	imagerel $cppxdata$??R<lambda_12>@?1??LoadWSAFunctions@NetCommon@@YAXXZ@QEBAAEAV?$obfuscated_data@$07$0?HIPICCNMEODGEKBB@D@ay@@XZ
xdata	ENDS
;	COMDAT xdata
xdata	SEGMENT
$unwind$?dtor$0@?0???R<lambda_13>@?1??LoadWSAFunctions@NetCommon@@YAXXZ@QEBAAEAV?$obfuscated_data@$06$0HPNDKNLBIBOBFLON@D@ay@@XZ@4HA DD 010201H
	DD	05002H
xdata	ENDS
;	COMDAT xdata
xdata	SEGMENT
$ip2state$??R<lambda_13>@?1??LoadWSAFunctions@NetCommon@@YAXXZ@QEBAAEAV?$obfuscated_data@$06$0HPNDKNLBIBOBFLON@D@ay@@XZ DB 02H
	DB	084H
	DB	02H
xdata	ENDS
;	COMDAT xdata
xdata	SEGMENT
$stateUnwindMap$??R<lambda_13>@?1??LoadWSAFunctions@NetCommon@@YAXXZ@QEBAAEAV?$obfuscated_data@$06$0HPNDKNLBIBOBFLON@D@ay@@XZ DB 02H
	DB	0eH
	DD	imagerel ?dtor$0@?0???R<lambda_13>@?1??LoadWSAFunctions@NetCommon@@YAXXZ@QEBAAEAV?$obfuscated_data@$06$0HPNDKNLBIBOBFLON@D@ay@@XZ@4HA
xdata	ENDS
;	COMDAT xdata
xdata	SEGMENT
$cppxdata$??R<lambda_13>@?1??LoadWSAFunctions@NetCommon@@YAXXZ@QEBAAEAV?$obfuscated_data@$06$0HPNDKNLBIBOBFLON@D@ay@@XZ DB 028H
	DD	imagerel $stateUnwindMap$??R<lambda_13>@?1??LoadWSAFunctions@NetCommon@@YAXXZ@QEBAAEAV?$obfuscated_data@$06$0HPNDKNLBIBOBFLON@D@ay@@XZ
	DD	imagerel $ip2state$??R<lambda_13>@?1??LoadWSAFunctions@NetCommon@@YAXXZ@QEBAAEAV?$obfuscated_data@$06$0HPNDKNLBIBOBFLON@D@ay@@XZ
xdata	ENDS
;	COMDAT xdata
xdata	SEGMENT
$unwind$??R<lambda_13>@?1??LoadWSAFunctions@NetCommon@@YAXXZ@QEBAAEAV?$obfuscated_data@$06$0HPNDKNLBIBOBFLON@D@ay@@XZ DD 020611H
	DD	030023206H
	DD	imagerel __CxxFrameHandler4
	DD	imagerel $cppxdata$??R<lambda_13>@?1??LoadWSAFunctions@NetCommon@@YAXXZ@QEBAAEAV?$obfuscated_data@$06$0HPNDKNLBIBOBFLON@D@ay@@XZ
xdata	ENDS
;	COMDAT xdata
xdata	SEGMENT
$ip2state$?AESEncryptBlob@NetCommon@@YA?AV?$vector@EV?$allocator@E@std@@@std@@UNET_BLOB@@@Z DB 08H
	DB	08aH
	DB	02H
	DB	0beH
	DB	04H
	DB	0c9H, 05H
	DB	02H
	DB	0aeH
	DB	00H
xdata	ENDS
;	COMDAT xdata
xdata	SEGMENT
$stateUnwindMap$?AESEncryptBlob@NetCommon@@YA?AV?$vector@EV?$allocator@E@std@@@std@@UNET_BLOB@@@Z DB 04H
	DB	0cH
	DD	imagerel ??1NET_BLOB@@QEAA@XZ
	DB	0a0H
	DB	032H
	DD	imagerel ??1?$vector@EV?$allocator@E@std@@@std@@QEAA@XZ
	DB	0b0H
xdata	ENDS
;	COMDAT xdata
xdata	SEGMENT
$cppxdata$?AESEncryptBlob@NetCommon@@YA?AV?$vector@EV?$allocator@E@std@@@std@@UNET_BLOB@@@Z DB 028H
	DD	imagerel $stateUnwindMap$?AESEncryptBlob@NetCommon@@YA?AV?$vector@EV?$allocator@E@std@@@std@@UNET_BLOB@@@Z
	DD	imagerel $ip2state$?AESEncryptBlob@NetCommon@@YA?AV?$vector@EV?$allocator@E@std@@@std@@UNET_BLOB@@@Z
xdata	ENDS
;	COMDAT xdata
xdata	SEGMENT
$unwind$?AESEncryptBlob@NetCommon@@YA?AV?$vector@EV?$allocator@E@std@@@std@@UNET_BLOB@@@Z DD 092e19H
	DD	03b641dH
	DD	03a341dH
	DD	034011dH
	DD	0700ce00eH
	DD	0500bH
	DD	imagerel __GSHandlerCheck_EH4
	DD	imagerel $cppxdata$?AESEncryptBlob@NetCommon@@YA?AV?$vector@EV?$allocator@E@std@@@std@@UNET_BLOB@@@Z
	DD	0192H
xdata	ENDS
;	COMDAT xdata
xdata	SEGMENT
$ip2state$??0NET_BLOB@@QEAA@AEBU0@@Z DB 0aH
	DB	'h'
	DB	00H
	DB	'^'
	DB	02H
	DB	01cH
	DB	04H
	DB	'"'
	DB	06H
	DB	0a8H
	DB	08H
xdata	ENDS
;	COMDAT xdata
xdata	SEGMENT
$stateUnwindMap$??0NET_BLOB@@QEAA@AEBU0@@Z DB 08H
	DB	0cH
	DD	imagerel ??1ClientRequest@@QEAA@XZ
	DB	060H
	DB	036H
	DD	imagerel ?dtor$4@?0???0NET_BLOB@@QEAA@AEBU0@@Z@4HA
	DB	02eH
	DD	imagerel ?dtor$5@?0???0NET_BLOB@@QEAA@AEBU0@@Z@4HA
	DB	086H
	DD	imagerel ?dtor$1@?0???0NET_BLOB@@QEAA@AEBU0@@Z@4HA
xdata	ENDS
;	COMDAT xdata
xdata	SEGMENT
$cppxdata$??0NET_BLOB@@QEAA@AEBU0@@Z DB 028H
	DD	imagerel $stateUnwindMap$??0NET_BLOB@@QEAA@AEBU0@@Z
	DD	imagerel $ip2state$??0NET_BLOB@@QEAA@AEBU0@@Z
xdata	ENDS
;	COMDAT xdata
xdata	SEGMENT
$unwind$??0NET_BLOB@@QEAA@AEBU0@@Z DD 061411H
	DD	096414H
	DD	083414H
	DD	070103214H
	DD	imagerel __CxxFrameHandler4
	DD	imagerel $cppxdata$??0NET_BLOB@@QEAA@AEBU0@@Z
xdata	ENDS
;	COMDAT xdata
xdata	SEGMENT
$unwind$??B?$obfuscated_data@$07$0?HIPICCNMEODGEKBB@D@ay@@QEAAPEADXZ DD 020601H
	DD	030023206H
xdata	ENDS
;	COMDAT xdata
xdata	SEGMENT
$unwind$??B?$obfuscated_data@$0L@$0HNABEJKPKLAFGLNN@D@ay@@QEAAPEADXZ DD 020601H
	DD	030023206H
xdata	ENDS
;	COMDAT xdata
xdata	SEGMENT
$unwind$??B?$obfuscated_data@$08$0?DIIAIINMJEFCLIGH@D@ay@@QEAAPEADXZ DD 020601H
	DD	030023206H
xdata	ENDS
;	COMDAT xdata
xdata	SEGMENT
$unwind$??B?$obfuscated_data@$0M@$0?DMGIHEDGHAKMGH@D@ay@@QEAAPEADXZ DD 020601H
	DD	030023206H
xdata	ENDS
;	COMDAT xdata
xdata	SEGMENT
$unwind$??B?$obfuscated_data@$0L@$0?BENIGEJGOAAMAEMJ@D@ay@@QEAAPEADXZ DD 020601H
	DD	030023206H
xdata	ENDS
;	COMDAT xdata
xdata	SEGMENT
$unwind$??B?$obfuscated_data@$0L@$0?EENOPMEAPELCIIOD@D@ay@@QEAAPEADXZ DD 020601H
	DD	030023206H
xdata	ENDS
;	COMDAT xdata
xdata	SEGMENT
$unwind$??B?$obfuscated_data@$0N@$0?HGAKNEMGLKFGEOML@D@ay@@QEAAPEADXZ DD 020601H
	DD	030023206H
xdata	ENDS
;	COMDAT xdata
xdata	SEGMENT
$unwind$??0?$Aes@$0BAA@@Cipher@@QEAA@QEAE@Z DD 040a01H
	DD	06340aH
	DD	07006320aH
xdata	ENDS
;	COMDAT xdata
xdata	SEGMENT
$unwind$?resize@?$vector@EV?$allocator@E@std@@@std@@QEAAX_K@Z DD 060f01H
	DD	09640fH
	DD	08340fH
	DD	0700b320fH
xdata	ENDS
;	COMDAT xdata
xdata	SEGMENT
$unwind$??1?$vector@EV?$allocator@E@std@@@std@@QEAA@XZ DD 020601H
	DD	030023206H
xdata	ENDS
;	COMDAT xdata
xdata	SEGMENT
$unwind$??0?$basic_string@DU?$char_traits@D@std@@V?$allocator@D@2@@std@@QEAA@AEBV01@@Z DD 060d01H
	DD	0a340dH
	DD	0e009320dH
	DD	060067007H
xdata	ENDS
;	COMDAT xdata
xdata	SEGMENT
$unwind$?decrypt@?$obfuscated_data@$07$0?HIPICCNMEODGEKBB@D@ay@@QEAAXXZ DD 020601H
	DD	030023206H
xdata	ENDS
;	COMDAT xdata
xdata	SEGMENT
$unwind$?decrypt@?$obfuscated_data@$0L@$0HNABEJKPKLAFGLNN@D@ay@@QEAAXXZ DD 020601H
	DD	030023206H
xdata	ENDS
;	COMDAT xdata
xdata	SEGMENT
$unwind$?decrypt@?$obfuscated_data@$08$0?DIIAIINMJEFCLIGH@D@ay@@QEAAXXZ DD 020601H
	DD	030023206H
xdata	ENDS
;	COMDAT xdata
xdata	SEGMENT
$unwind$?decrypt@?$obfuscated_data@$0M@$0?DMGIHEDGHAKMGH@D@ay@@QEAAXXZ DD 020601H
	DD	030023206H
xdata	ENDS
;	COMDAT xdata
xdata	SEGMENT
$unwind$?decrypt@?$obfuscated_data@$0L@$0?BENIGEJGOAAMAEMJ@D@ay@@QEAAXXZ DD 020601H
	DD	030023206H
xdata	ENDS
;	COMDAT xdata
xdata	SEGMENT
$unwind$?decrypt@?$obfuscated_data@$0L@$0?EENOPMEAPELCIIOD@D@ay@@QEAAXXZ DD 020601H
	DD	030023206H
xdata	ENDS
;	COMDAT xdata
xdata	SEGMENT
$unwind$?decrypt@?$obfuscated_data@$0N@$0?HGAKNEMGLKFGEOML@D@ay@@QEAAXXZ DD 020601H
	DD	030023206H
xdata	ENDS
;	COMDAT xdata
xdata	SEGMENT
$unwind$?_Tidy@?$vector@EV?$allocator@E@std@@@std@@AEAAXXZ DD 020601H
	DD	030023206H
xdata	ENDS
;	COMDAT xdata
xdata	SEGMENT
$unwind$?deallocate@?$allocator@E@std@@QEAAXQEAE_K@Z DD 010401H
	DD	04204H
xdata	ENDS
;	COMDAT xdata
xdata	SEGMENT
$ip2state$??$GetFunctionAddress@P6APEAUHINSTANCE__@@PEBD@Z@ProcessUtilities@@YAP6APEAUHINSTANCE__@@PEBD@ZPEAU1@V?$basic_string@DU?$char_traits@D@std@@V?$allocator@D@2@@std@@@Z DB 04H
	DB	'R'
	DB	02H
	DB	0ceH
	DB	00H
xdata	ENDS
;	COMDAT xdata
xdata	SEGMENT
$stateUnwindMap$??$GetFunctionAddress@P6APEAUHINSTANCE__@@PEBD@Z@ProcessUtilities@@YAP6APEAUHINSTANCE__@@PEBD@ZPEAU1@V?$basic_string@DU?$char_traits@D@std@@V?$allocator@D@2@@std@@@Z DB 02H
	DB	0cH
	DD	imagerel ??1?$basic_string@DU?$char_traits@D@std@@V?$allocator@D@2@@std@@QEAA@XZ
	DB	090H
xdata	ENDS
;	COMDAT xdata
xdata	SEGMENT
$cppxdata$??$GetFunctionAddress@P6APEAUHINSTANCE__@@PEBD@Z@ProcessUtilities@@YAP6APEAUHINSTANCE__@@PEBD@ZPEAU1@V?$basic_string@DU?$char_traits@D@std@@V?$allocator@D@2@@std@@@Z DB 028H
	DD	imagerel $stateUnwindMap$??$GetFunctionAddress@P6APEAUHINSTANCE__@@PEBD@Z@ProcessUtilities@@YAP6APEAUHINSTANCE__@@PEBD@ZPEAU1@V?$basic_string@DU?$char_traits@D@std@@V?$allocator@D@2@@std@@@Z
	DD	imagerel $ip2state$??$GetFunctionAddress@P6APEAUHINSTANCE__@@PEBD@Z@ProcessUtilities@@YAP6APEAUHINSTANCE__@@PEBD@ZPEAU1@V?$basic_string@DU?$char_traits@D@std@@V?$allocator@D@2@@std@@@Z
xdata	ENDS
;	COMDAT xdata
xdata	SEGMENT
$unwind$??$GetFunctionAddress@P6APEAUHINSTANCE__@@PEBD@Z@ProcessUtilities@@YAP6APEAUHINSTANCE__@@PEBD@ZPEAU1@V?$basic_string@DU?$char_traits@D@std@@V?$allocator@D@2@@std@@@Z DD 041919H
	DD	010340aH
	DD	07006b20aH
	DD	imagerel __GSHandlerCheck_EH4
	DD	imagerel $cppxdata$??$GetFunctionAddress@P6APEAUHINSTANCE__@@PEBD@Z@ProcessUtilities@@YAP6APEAUHINSTANCE__@@PEBD@ZPEAU1@V?$basic_string@DU?$char_traits@D@std@@V?$allocator@D@2@@std@@@Z
	DD	052H
xdata	ENDS
;	COMDAT xdata
xdata	SEGMENT
$ip2state$??$GetFunctionAddress@P6AHGPEAUWSAData@@@Z@ProcessUtilities@@YAP6AHGPEAUWSAData@@@ZPEAUHINSTANCE__@@V?$basic_string@DU?$char_traits@D@std@@V?$allocator@D@2@@std@@@Z DB 04H
	DB	'R'
	DB	02H
	DB	0ceH
	DB	00H
xdata	ENDS
;	COMDAT xdata
xdata	SEGMENT
$stateUnwindMap$??$GetFunctionAddress@P6AHGPEAUWSAData@@@Z@ProcessUtilities@@YAP6AHGPEAUWSAData@@@ZPEAUHINSTANCE__@@V?$basic_string@DU?$char_traits@D@std@@V?$allocator@D@2@@std@@@Z DB 02H
	DB	0cH
	DD	imagerel ??1?$basic_string@DU?$char_traits@D@std@@V?$allocator@D@2@@std@@QEAA@XZ
	DB	090H
xdata	ENDS
;	COMDAT xdata
xdata	SEGMENT
$cppxdata$??$GetFunctionAddress@P6AHGPEAUWSAData@@@Z@ProcessUtilities@@YAP6AHGPEAUWSAData@@@ZPEAUHINSTANCE__@@V?$basic_string@DU?$char_traits@D@std@@V?$allocator@D@2@@std@@@Z DB 028H
	DD	imagerel $stateUnwindMap$??$GetFunctionAddress@P6AHGPEAUWSAData@@@Z@ProcessUtilities@@YAP6AHGPEAUWSAData@@@ZPEAUHINSTANCE__@@V?$basic_string@DU?$char_traits@D@std@@V?$allocator@D@2@@std@@@Z
	DD	imagerel $ip2state$??$GetFunctionAddress@P6AHGPEAUWSAData@@@Z@ProcessUtilities@@YAP6AHGPEAUWSAData@@@ZPEAUHINSTANCE__@@V?$basic_string@DU?$char_traits@D@std@@V?$allocator@D@2@@std@@@Z
xdata	ENDS
;	COMDAT xdata
xdata	SEGMENT
$unwind$??$GetFunctionAddress@P6AHGPEAUWSAData@@@Z@ProcessUtilities@@YAP6AHGPEAUWSAData@@@ZPEAUHINSTANCE__@@V?$basic_string@DU?$char_traits@D@std@@V?$allocator@D@2@@std@@@Z DD 041919H
	DD	010340aH
	DD	07006b20aH
	DD	imagerel __GSHandlerCheck_EH4
	DD	imagerel $cppxdata$??$GetFunctionAddress@P6AHGPEAUWSAData@@@Z@ProcessUtilities@@YAP6AHGPEAUWSAData@@@ZPEAUHINSTANCE__@@V?$basic_string@DU?$char_traits@D@std@@V?$allocator@D@2@@std@@@Z
	DD	052H
xdata	ENDS
;	COMDAT xdata
xdata	SEGMENT
$ip2state$??$GetFunctionAddress@P6AH_KPEBUsockaddr@@H@Z@ProcessUtilities@@YAP6AH_KPEBUsockaddr@@H@ZPEAUHINSTANCE__@@V?$basic_string@DU?$char_traits@D@std@@V?$allocator@D@2@@std@@@Z DB 04H
	DB	'R'
	DB	02H
	DB	0ceH
	DB	00H
xdata	ENDS
;	COMDAT xdata
xdata	SEGMENT
$stateUnwindMap$??$GetFunctionAddress@P6AH_KPEBUsockaddr@@H@Z@ProcessUtilities@@YAP6AH_KPEBUsockaddr@@H@ZPEAUHINSTANCE__@@V?$basic_string@DU?$char_traits@D@std@@V?$allocator@D@2@@std@@@Z DB 02H
	DB	0cH
	DD	imagerel ??1?$basic_string@DU?$char_traits@D@std@@V?$allocator@D@2@@std@@QEAA@XZ
	DB	090H
xdata	ENDS
;	COMDAT xdata
xdata	SEGMENT
$cppxdata$??$GetFunctionAddress@P6AH_KPEBUsockaddr@@H@Z@ProcessUtilities@@YAP6AH_KPEBUsockaddr@@H@ZPEAUHINSTANCE__@@V?$basic_string@DU?$char_traits@D@std@@V?$allocator@D@2@@std@@@Z DB 028H
	DD	imagerel $stateUnwindMap$??$GetFunctionAddress@P6AH_KPEBUsockaddr@@H@Z@ProcessUtilities@@YAP6AH_KPEBUsockaddr@@H@ZPEAUHINSTANCE__@@V?$basic_string@DU?$char_traits@D@std@@V?$allocator@D@2@@std@@@Z
	DD	imagerel $ip2state$??$GetFunctionAddress@P6AH_KPEBUsockaddr@@H@Z@ProcessUtilities@@YAP6AH_KPEBUsockaddr@@H@ZPEAUHINSTANCE__@@V?$basic_string@DU?$char_traits@D@std@@V?$allocator@D@2@@std@@@Z
xdata	ENDS
;	COMDAT xdata
xdata	SEGMENT
$unwind$??$GetFunctionAddress@P6AH_KPEBUsockaddr@@H@Z@ProcessUtilities@@YAP6AH_KPEBUsockaddr@@H@ZPEAUHINSTANCE__@@V?$basic_string@DU?$char_traits@D@std@@V?$allocator@D@2@@std@@@Z DD 041919H
	DD	010340aH
	DD	07006b20aH
	DD	imagerel __GSHandlerCheck_EH4
	DD	imagerel $cppxdata$??$GetFunctionAddress@P6AH_KPEBUsockaddr@@H@Z@ProcessUtilities@@YAP6AH_KPEBUsockaddr@@H@ZPEAUHINSTANCE__@@V?$basic_string@DU?$char_traits@D@std@@V?$allocator@D@2@@std@@@Z
	DD	052H
xdata	ENDS
;	COMDAT xdata
xdata	SEGMENT
$ip2state$??$GetFunctionAddress@P6AH_K@Z@ProcessUtilities@@YAP6AH_K@ZPEAUHINSTANCE__@@V?$basic_string@DU?$char_traits@D@std@@V?$allocator@D@2@@std@@@Z DB 04H
	DB	'R'
	DB	02H
	DB	0ceH
	DB	00H
xdata	ENDS
;	COMDAT xdata
xdata	SEGMENT
$stateUnwindMap$??$GetFunctionAddress@P6AH_K@Z@ProcessUtilities@@YAP6AH_K@ZPEAUHINSTANCE__@@V?$basic_string@DU?$char_traits@D@std@@V?$allocator@D@2@@std@@@Z DB 02H
	DB	0cH
	DD	imagerel ??1?$basic_string@DU?$char_traits@D@std@@V?$allocator@D@2@@std@@QEAA@XZ
	DB	090H
xdata	ENDS
;	COMDAT xdata
xdata	SEGMENT
$cppxdata$??$GetFunctionAddress@P6AH_K@Z@ProcessUtilities@@YAP6AH_K@ZPEAUHINSTANCE__@@V?$basic_string@DU?$char_traits@D@std@@V?$allocator@D@2@@std@@@Z DB 028H
	DD	imagerel $stateUnwindMap$??$GetFunctionAddress@P6AH_K@Z@ProcessUtilities@@YAP6AH_K@ZPEAUHINSTANCE__@@V?$basic_string@DU?$char_traits@D@std@@V?$allocator@D@2@@std@@@Z
	DD	imagerel $ip2state$??$GetFunctionAddress@P6AH_K@Z@ProcessUtilities@@YAP6AH_K@ZPEAUHINSTANCE__@@V?$basic_string@DU?$char_traits@D@std@@V?$allocator@D@2@@std@@@Z
xdata	ENDS
;	COMDAT xdata
xdata	SEGMENT
$unwind$??$GetFunctionAddress@P6AH_K@Z@ProcessUtilities@@YAP6AH_K@ZPEAUHINSTANCE__@@V?$basic_string@DU?$char_traits@D@std@@V?$allocator@D@2@@std@@@Z DD 041919H
	DD	010340aH
	DD	07006b20aH
	DD	imagerel __GSHandlerCheck_EH4
	DD	imagerel $cppxdata$??$GetFunctionAddress@P6AH_K@Z@ProcessUtilities@@YAP6AH_K@ZPEAUHINSTANCE__@@V?$basic_string@DU?$char_traits@D@std@@V?$allocator@D@2@@std@@@Z
	DD	052H
xdata	ENDS
;	COMDAT xdata
xdata	SEGMENT
$ip2state$??$GetFunctionAddress@P6A_KHHH@Z@ProcessUtilities@@YAP6A_KHHH@ZPEAUHINSTANCE__@@V?$basic_string@DU?$char_traits@D@std@@V?$allocator@D@2@@std@@@Z DB 04H
	DB	'R'
	DB	02H
	DB	0ceH
	DB	00H
xdata	ENDS
;	COMDAT xdata
xdata	SEGMENT
$stateUnwindMap$??$GetFunctionAddress@P6A_KHHH@Z@ProcessUtilities@@YAP6A_KHHH@ZPEAUHINSTANCE__@@V?$basic_string@DU?$char_traits@D@std@@V?$allocator@D@2@@std@@@Z DB 02H
	DB	0cH
	DD	imagerel ??1?$basic_string@DU?$char_traits@D@std@@V?$allocator@D@2@@std@@QEAA@XZ
	DB	090H
xdata	ENDS
;	COMDAT xdata
xdata	SEGMENT
$cppxdata$??$GetFunctionAddress@P6A_KHHH@Z@ProcessUtilities@@YAP6A_KHHH@ZPEAUHINSTANCE__@@V?$basic_string@DU?$char_traits@D@std@@V?$allocator@D@2@@std@@@Z DB 028H
	DD	imagerel $stateUnwindMap$??$GetFunctionAddress@P6A_KHHH@Z@ProcessUtilities@@YAP6A_KHHH@ZPEAUHINSTANCE__@@V?$basic_string@DU?$char_traits@D@std@@V?$allocator@D@2@@std@@@Z
	DD	imagerel $ip2state$??$GetFunctionAddress@P6A_KHHH@Z@ProcessUtilities@@YAP6A_KHHH@ZPEAUHINSTANCE__@@V?$basic_string@DU?$char_traits@D@std@@V?$allocator@D@2@@std@@@Z
xdata	ENDS
;	COMDAT xdata
xdata	SEGMENT
$unwind$??$GetFunctionAddress@P6A_KHHH@Z@ProcessUtilities@@YAP6A_KHHH@ZPEAUHINSTANCE__@@V?$basic_string@DU?$char_traits@D@std@@V?$allocator@D@2@@std@@@Z DD 041919H
	DD	010340aH
	DD	07006b20aH
	DD	imagerel __GSHandlerCheck_EH4
	DD	imagerel $cppxdata$??$GetFunctionAddress@P6A_KHHH@Z@ProcessUtilities@@YAP6A_KHHH@ZPEAUHINSTANCE__@@V?$basic_string@DU?$char_traits@D@std@@V?$allocator@D@2@@std@@@Z
	DD	052H
xdata	ENDS
;	COMDAT xdata
xdata	SEGMENT
$ip2state$??$GetFunctionAddress@P6AH_KPEADHH@Z@ProcessUtilities@@YAP6AH_KPEADHH@ZPEAUHINSTANCE__@@V?$basic_string@DU?$char_traits@D@std@@V?$allocator@D@2@@std@@@Z DB 04H
	DB	'R'
	DB	02H
	DB	0ceH
	DB	00H
xdata	ENDS
;	COMDAT xdata
xdata	SEGMENT
$stateUnwindMap$??$GetFunctionAddress@P6AH_KPEADHH@Z@ProcessUtilities@@YAP6AH_KPEADHH@ZPEAUHINSTANCE__@@V?$basic_string@DU?$char_traits@D@std@@V?$allocator@D@2@@std@@@Z DB 02H
	DB	0cH
	DD	imagerel ??1?$basic_string@DU?$char_traits@D@std@@V?$allocator@D@2@@std@@QEAA@XZ
	DB	090H
xdata	ENDS
;	COMDAT xdata
xdata	SEGMENT
$cppxdata$??$GetFunctionAddress@P6AH_KPEADHH@Z@ProcessUtilities@@YAP6AH_KPEADHH@ZPEAUHINSTANCE__@@V?$basic_string@DU?$char_traits@D@std@@V?$allocator@D@2@@std@@@Z DB 028H
	DD	imagerel $stateUnwindMap$??$GetFunctionAddress@P6AH_KPEADHH@Z@ProcessUtilities@@YAP6AH_KPEADHH@ZPEAUHINSTANCE__@@V?$basic_string@DU?$char_traits@D@std@@V?$allocator@D@2@@std@@@Z
	DD	imagerel $ip2state$??$GetFunctionAddress@P6AH_KPEADHH@Z@ProcessUtilities@@YAP6AH_KPEADHH@ZPEAUHINSTANCE__@@V?$basic_string@DU?$char_traits@D@std@@V?$allocator@D@2@@std@@@Z
xdata	ENDS
;	COMDAT xdata
xdata	SEGMENT
$unwind$??$GetFunctionAddress@P6AH_KPEADHH@Z@ProcessUtilities@@YAP6AH_KPEADHH@ZPEAUHINSTANCE__@@V?$basic_string@DU?$char_traits@D@std@@V?$allocator@D@2@@std@@@Z DD 041919H
	DD	010340aH
	DD	07006b20aH
	DD	imagerel __GSHandlerCheck_EH4
	DD	imagerel $cppxdata$??$GetFunctionAddress@P6AH_KPEADHH@Z@ProcessUtilities@@YAP6AH_KPEADHH@ZPEAUHINSTANCE__@@V?$basic_string@DU?$char_traits@D@std@@V?$allocator@D@2@@std@@@Z
	DD	052H
xdata	ENDS
;	COMDAT xdata
xdata	SEGMENT
$ip2state$??$GetFunctionAddress@P6AH_KPEBDHHPEBUsockaddr@@H@Z@ProcessUtilities@@YAP6AH_KPEBDHHPEBUsockaddr@@H@ZPEAUHINSTANCE__@@V?$basic_string@DU?$char_traits@D@std@@V?$allocator@D@2@@std@@@Z DB 04H
	DB	'R'
	DB	02H
	DB	0ceH
	DB	00H
xdata	ENDS
;	COMDAT xdata
xdata	SEGMENT
$stateUnwindMap$??$GetFunctionAddress@P6AH_KPEBDHHPEBUsockaddr@@H@Z@ProcessUtilities@@YAP6AH_KPEBDHHPEBUsockaddr@@H@ZPEAUHINSTANCE__@@V?$basic_string@DU?$char_traits@D@std@@V?$allocator@D@2@@std@@@Z DB 02H
	DB	0cH
	DD	imagerel ??1?$basic_string@DU?$char_traits@D@std@@V?$allocator@D@2@@std@@QEAA@XZ
	DB	090H
xdata	ENDS
;	COMDAT xdata
xdata	SEGMENT
$cppxdata$??$GetFunctionAddress@P6AH_KPEBDHHPEBUsockaddr@@H@Z@ProcessUtilities@@YAP6AH_KPEBDHHPEBUsockaddr@@H@ZPEAUHINSTANCE__@@V?$basic_string@DU?$char_traits@D@std@@V?$allocator@D@2@@std@@@Z DB 028H
	DD	imagerel $stateUnwindMap$??$GetFunctionAddress@P6AH_KPEBDHHPEBUsockaddr@@H@Z@ProcessUtilities@@YAP6AH_KPEBDHHPEBUsockaddr@@H@ZPEAUHINSTANCE__@@V?$basic_string@DU?$char_traits@D@std@@V?$allocator@D@2@@std@@@Z
	DD	imagerel $ip2state$??$GetFunctionAddress@P6AH_KPEBDHHPEBUsockaddr@@H@Z@ProcessUtilities@@YAP6AH_KPEBDHHPEBUsockaddr@@H@ZPEAUHINSTANCE__@@V?$basic_string@DU?$char_traits@D@std@@V?$allocator@D@2@@std@@@Z
xdata	ENDS
;	COMDAT xdata
xdata	SEGMENT
$unwind$??$GetFunctionAddress@P6AH_KPEBDHHPEBUsockaddr@@H@Z@ProcessUtilities@@YAP6AH_KPEBDHHPEBUsockaddr@@H@ZPEAUHINSTANCE__@@V?$basic_string@DU?$char_traits@D@std@@V?$allocator@D@2@@std@@@Z DD 041919H
	DD	010340aH
	DD	07006b20aH
	DD	imagerel __GSHandlerCheck_EH4
	DD	imagerel $cppxdata$??$GetFunctionAddress@P6AH_KPEBDHHPEBUsockaddr@@H@Z@ProcessUtilities@@YAP6AH_KPEBDHHPEBUsockaddr@@H@ZPEAUHINSTANCE__@@V?$basic_string@DU?$char_traits@D@std@@V?$allocator@D@2@@std@@@Z
	DD	052H
xdata	ENDS
;	COMDAT xdata
xdata	SEGMENT
$ip2state$??$GetFunctionAddress@P6AH_KPEADHHPEAUsockaddr@@PEAH@Z@ProcessUtilities@@YAP6AH_KPEADHHPEAUsockaddr@@PEAH@ZPEAUHINSTANCE__@@V?$basic_string@DU?$char_traits@D@std@@V?$allocator@D@2@@std@@@Z DB 04H
	DB	'R'
	DB	02H
	DB	0ceH
	DB	00H
xdata	ENDS
;	COMDAT xdata
xdata	SEGMENT
$stateUnwindMap$??$GetFunctionAddress@P6AH_KPEADHHPEAUsockaddr@@PEAH@Z@ProcessUtilities@@YAP6AH_KPEADHHPEAUsockaddr@@PEAH@ZPEAUHINSTANCE__@@V?$basic_string@DU?$char_traits@D@std@@V?$allocator@D@2@@std@@@Z DB 02H
	DB	0cH
	DD	imagerel ??1?$basic_string@DU?$char_traits@D@std@@V?$allocator@D@2@@std@@QEAA@XZ
	DB	090H
xdata	ENDS
;	COMDAT xdata
xdata	SEGMENT
$cppxdata$??$GetFunctionAddress@P6AH_KPEADHHPEAUsockaddr@@PEAH@Z@ProcessUtilities@@YAP6AH_KPEADHHPEAUsockaddr@@PEAH@ZPEAUHINSTANCE__@@V?$basic_string@DU?$char_traits@D@std@@V?$allocator@D@2@@std@@@Z DB 028H
	DD	imagerel $stateUnwindMap$??$GetFunctionAddress@P6AH_KPEADHHPEAUsockaddr@@PEAH@Z@ProcessUtilities@@YAP6AH_KPEADHHPEAUsockaddr@@PEAH@ZPEAUHINSTANCE__@@V?$basic_string@DU?$char_traits@D@std@@V?$allocator@D@2@@std@@@Z
	DD	imagerel $ip2state$??$GetFunctionAddress@P6AH_KPEADHHPEAUsockaddr@@PEAH@Z@ProcessUtilities@@YAP6AH_KPEADHHPEAUsockaddr@@PEAH@ZPEAUHINSTANCE__@@V?$basic_string@DU?$char_traits@D@std@@V?$allocator@D@2@@std@@@Z
xdata	ENDS
;	COMDAT xdata
xdata	SEGMENT
$unwind$??$GetFunctionAddress@P6AH_KPEADHHPEAUsockaddr@@PEAH@Z@ProcessUtilities@@YAP6AH_KPEADHHPEAUsockaddr@@PEAH@ZPEAUHINSTANCE__@@V?$basic_string@DU?$char_traits@D@std@@V?$allocator@D@2@@std@@@Z DD 041919H
	DD	010340aH
	DD	07006b20aH
	DD	imagerel __GSHandlerCheck_EH4
	DD	imagerel $cppxdata$??$GetFunctionAddress@P6AH_KPEADHHPEAUsockaddr@@PEAH@Z@ProcessUtilities@@YAP6AH_KPEADHHPEAUsockaddr@@PEAH@ZPEAUHINSTANCE__@@V?$basic_string@DU?$char_traits@D@std@@V?$allocator@D@2@@std@@@Z
	DD	052H
xdata	ENDS
;	COMDAT xdata
xdata	SEGMENT
$ip2state$??$GetFunctionAddress@P6AH_KPEBDHH@Z@ProcessUtilities@@YAP6AH_KPEBDHH@ZPEAUHINSTANCE__@@V?$basic_string@DU?$char_traits@D@std@@V?$allocator@D@2@@std@@@Z DB 04H
	DB	'R'
	DB	02H
	DB	0ceH
	DB	00H
xdata	ENDS
;	COMDAT xdata
xdata	SEGMENT
$stateUnwindMap$??$GetFunctionAddress@P6AH_KPEBDHH@Z@ProcessUtilities@@YAP6AH_KPEBDHH@ZPEAUHINSTANCE__@@V?$basic_string@DU?$char_traits@D@std@@V?$allocator@D@2@@std@@@Z DB 02H
	DB	0cH
	DD	imagerel ??1?$basic_string@DU?$char_traits@D@std@@V?$allocator@D@2@@std@@QEAA@XZ
	DB	090H
xdata	ENDS
;	COMDAT xdata
xdata	SEGMENT
$cppxdata$??$GetFunctionAddress@P6AH_KPEBDHH@Z@ProcessUtilities@@YAP6AH_KPEBDHH@ZPEAUHINSTANCE__@@V?$basic_string@DU?$char_traits@D@std@@V?$allocator@D@2@@std@@@Z DB 028H
	DD	imagerel $stateUnwindMap$??$GetFunctionAddress@P6AH_KPEBDHH@Z@ProcessUtilities@@YAP6AH_KPEBDHH@ZPEAUHINSTANCE__@@V?$basic_string@DU?$char_traits@D@std@@V?$allocator@D@2@@std@@@Z
	DD	imagerel $ip2state$??$GetFunctionAddress@P6AH_KPEBDHH@Z@ProcessUtilities@@YAP6AH_KPEBDHH@ZPEAUHINSTANCE__@@V?$basic_string@DU?$char_traits@D@std@@V?$allocator@D@2@@std@@@Z
xdata	ENDS
;	COMDAT xdata
xdata	SEGMENT
$unwind$??$GetFunctionAddress@P6AH_KPEBDHH@Z@ProcessUtilities@@YAP6AH_KPEBDHH@ZPEAUHINSTANCE__@@V?$basic_string@DU?$char_traits@D@std@@V?$allocator@D@2@@std@@@Z DD 041919H
	DD	010340aH
	DD	07006b20aH
	DD	imagerel __GSHandlerCheck_EH4
	DD	imagerel $cppxdata$??$GetFunctionAddress@P6AH_KPEBDHH@Z@ProcessUtilities@@YAP6AH_KPEBDHH@ZPEAUHINSTANCE__@@V?$basic_string@DU?$char_traits@D@std@@V?$allocator@D@2@@std@@@Z
	DD	052H
xdata	ENDS
;	COMDAT xdata
xdata	SEGMENT
$ip2state$??$GetFunctionAddress@P6AHXZ@ProcessUtilities@@YAP6AHXZPEAUHINSTANCE__@@V?$basic_string@DU?$char_traits@D@std@@V?$allocator@D@2@@std@@@Z DB 04H
	DB	'R'
	DB	02H
	DB	0ceH
	DB	00H
xdata	ENDS
;	COMDAT xdata
xdata	SEGMENT
$stateUnwindMap$??$GetFunctionAddress@P6AHXZ@ProcessUtilities@@YAP6AHXZPEAUHINSTANCE__@@V?$basic_string@DU?$char_traits@D@std@@V?$allocator@D@2@@std@@@Z DB 02H
	DB	0cH
	DD	imagerel ??1?$basic_string@DU?$char_traits@D@std@@V?$allocator@D@2@@std@@QEAA@XZ
	DB	090H
xdata	ENDS
;	COMDAT xdata
xdata	SEGMENT
$cppxdata$??$GetFunctionAddress@P6AHXZ@ProcessUtilities@@YAP6AHXZPEAUHINSTANCE__@@V?$basic_string@DU?$char_traits@D@std@@V?$allocator@D@2@@std@@@Z DB 028H
	DD	imagerel $stateUnwindMap$??$GetFunctionAddress@P6AHXZ@ProcessUtilities@@YAP6AHXZPEAUHINSTANCE__@@V?$basic_string@DU?$char_traits@D@std@@V?$allocator@D@2@@std@@@Z
	DD	imagerel $ip2state$??$GetFunctionAddress@P6AHXZ@ProcessUtilities@@YAP6AHXZPEAUHINSTANCE__@@V?$basic_string@DU?$char_traits@D@std@@V?$allocator@D@2@@std@@@Z
xdata	ENDS
;	COMDAT xdata
xdata	SEGMENT
$unwind$??$GetFunctionAddress@P6AHXZ@ProcessUtilities@@YAP6AHXZPEAUHINSTANCE__@@V?$basic_string@DU?$char_traits@D@std@@V?$allocator@D@2@@std@@@Z DD 041919H
	DD	010340aH
	DD	07006b20aH
	DD	imagerel __GSHandlerCheck_EH4
	DD	imagerel $cppxdata$??$GetFunctionAddress@P6AHXZ@ProcessUtilities@@YAP6AHXZPEAUHINSTANCE__@@V?$basic_string@DU?$char_traits@D@std@@V?$allocator@D@2@@std@@@Z
	DD	052H
xdata	ENDS
;	COMDAT xdata
xdata	SEGMENT
$ip2state$??$GetFunctionAddress@P6AH_KH@Z@ProcessUtilities@@YAP6AH_KH@ZPEAUHINSTANCE__@@V?$basic_string@DU?$char_traits@D@std@@V?$allocator@D@2@@std@@@Z DB 04H
	DB	'R'
	DB	02H
	DB	0ceH
	DB	00H
xdata	ENDS
;	COMDAT xdata
xdata	SEGMENT
$stateUnwindMap$??$GetFunctionAddress@P6AH_KH@Z@ProcessUtilities@@YAP6AH_KH@ZPEAUHINSTANCE__@@V?$basic_string@DU?$char_traits@D@std@@V?$allocator@D@2@@std@@@Z DB 02H
	DB	0cH
	DD	imagerel ??1?$basic_string@DU?$char_traits@D@std@@V?$allocator@D@2@@std@@QEAA@XZ
	DB	090H
xdata	ENDS
;	COMDAT xdata
xdata	SEGMENT
$cppxdata$??$GetFunctionAddress@P6AH_KH@Z@ProcessUtilities@@YAP6AH_KH@ZPEAUHINSTANCE__@@V?$basic_string@DU?$char_traits@D@std@@V?$allocator@D@2@@std@@@Z DB 028H
	DD	imagerel $stateUnwindMap$??$GetFunctionAddress@P6AH_KH@Z@ProcessUtilities@@YAP6AH_KH@ZPEAUHINSTANCE__@@V?$basic_string@DU?$char_traits@D@std@@V?$allocator@D@2@@std@@@Z
	DD	imagerel $ip2state$??$GetFunctionAddress@P6AH_KH@Z@ProcessUtilities@@YAP6AH_KH@ZPEAUHINSTANCE__@@V?$basic_string@DU?$char_traits@D@std@@V?$allocator@D@2@@std@@@Z
xdata	ENDS
;	COMDAT xdata
xdata	SEGMENT
$unwind$??$GetFunctionAddress@P6AH_KH@Z@ProcessUtilities@@YAP6AH_KH@ZPEAUHINSTANCE__@@V?$basic_string@DU?$char_traits@D@std@@V?$allocator@D@2@@std@@@Z DD 041919H
	DD	010340aH
	DD	07006b20aH
	DD	imagerel __GSHandlerCheck_EH4
	DD	imagerel $cppxdata$??$GetFunctionAddress@P6AH_KH@Z@ProcessUtilities@@YAP6AH_KH@ZPEAUHINSTANCE__@@V?$basic_string@DU?$char_traits@D@std@@V?$allocator@D@2@@std@@@Z
	DD	052H
xdata	ENDS
;	COMDAT xdata
xdata	SEGMENT
$unwind$??$copy@PEADV?$_Vector_iterator@V?$_Vector_val@U?$_Simple_types@E@std@@@std@@@std@@@std@@YA?AV?$_Vector_iterator@V?$_Vector_val@U?$_Simple_types@E@std@@@std@@@0@PEAD0V10@@Z DD 040801H
	DD	070043208H
	DD	030026003H
xdata	ENDS
;	COMDAT xdata
xdata	SEGMENT
$unwind$??$_Resize@U_Value_init_tag@std@@@?$vector@EV?$allocator@E@std@@@std@@AEAAX_KAEBU_Value_init_tag@1@@Z DD 060f01H
	DD	09640fH
	DD	08340fH
	DD	0700b320fH
xdata	ENDS
;	COMDAT xdata
xdata	SEGMENT
$unwind$??$_Construct@$01PEBD@?$basic_string@DU?$char_traits@D@std@@V?$allocator@D@2@@std@@AEAAXQEBD_K@Z DD 060c01H
	DD	0b340cH
	DD	07008320cH
	DD	050066007H
xdata	ENDS
;	COMDAT xdata
xdata	SEGMENT
$unwind$??$_Copy_unchecked@PEADPEADPEAE@std@@YAPEAEPEAD0PEAE@Z DD 040a01H
	DD	09340aH
	DD	07006320aH
xdata	ENDS
;	COMDAT xdata
xdata	SEGMENT
$chain$5$??$_Resize_reallocate@U_Value_init_tag@std@@@?$vector@EV?$allocator@E@std@@@std@@AEAAX_KAEBU_Value_init_tag@1@@Z DD 021H
	DD	imagerel $LN108
	DD	imagerel $LN108+34
	DD	imagerel $unwind$??$_Resize_reallocate@U_Value_init_tag@std@@@?$vector@EV?$allocator@E@std@@@std@@AEAAX_KAEBU_Value_init_tag@1@@Z
xdata	ENDS
;	COMDAT xdata
xdata	SEGMENT
$chain$4$??$_Resize_reallocate@U_Value_init_tag@std@@@?$vector@EV?$allocator@E@std@@@std@@AEAAX_KAEBU_Value_init_tag@1@@Z DD 060021H
	DD	04f400H
	DD	057400H
	DD	0c6400H
	DD	imagerel $LN108
	DD	imagerel $LN108+34
	DD	imagerel $unwind$??$_Resize_reallocate@U_Value_init_tag@std@@@?$vector@EV?$allocator@E@std@@@std@@AEAAX_KAEBU_Value_init_tag@1@@Z
xdata	ENDS
;	COMDAT xdata
xdata	SEGMENT
$chain$2$??$_Resize_reallocate@U_Value_init_tag@std@@@?$vector@EV?$allocator@E@std@@@std@@AEAAX_KAEBU_Value_init_tag@1@@Z DD 061221H
	DD	04f412H
	DD	05740dH
	DD	0c6405H
	DD	imagerel $LN108
	DD	imagerel $LN108+34
	DD	imagerel $unwind$??$_Resize_reallocate@U_Value_init_tag@std@@@?$vector@EV?$allocator@E@std@@@std@@AEAAX_KAEBU_Value_init_tag@1@@Z
xdata	ENDS
;	COMDAT xdata
xdata	SEGMENT
$unwind$??$_Resize_reallocate@U_Value_init_tag@std@@@?$vector@EV?$allocator@E@std@@@std@@AEAAX_KAEBU_Value_init_tag@1@@Z DD 040901H
	DD	0e0055209H
	DD	030025003H
xdata	ENDS
;	COMDAT xdata
xdata	SEGMENT
$unwind$??$_Uninitialized_value_construct_n@V?$allocator@E@std@@@std@@YAPEAEPEAE_KAEAV?$allocator@E@0@@Z DD 040a01H
	DD	08340aH
	DD	07006320aH
xdata	ENDS
;	COMDAT xdata
xdata	SEGMENT
$chain$5$??$_Emplace_reallocate@AEBE@?$vector@EV?$allocator@E@std@@@std@@AEAAPEAEQEAEAEBE@Z DD 021H
	DD	imagerel $LN128
	DD	imagerel $LN128+64
	DD	imagerel $unwind$??$_Emplace_reallocate@AEBE@?$vector@EV?$allocator@E@std@@@std@@AEAAPEAEQEAEAEBE@Z
xdata	ENDS
;	COMDAT xdata
xdata	SEGMENT
$chain$4$??$_Emplace_reallocate@AEBE@?$vector@EV?$allocator@E@std@@@std@@AEAAPEAEQEAEAEBE@Z DD 060021H
	DD	04c400H
	DD	056400H
	DD	0e3400H
	DD	imagerel $LN128
	DD	imagerel $LN128+64
	DD	imagerel $unwind$??$_Emplace_reallocate@AEBE@?$vector@EV?$allocator@E@std@@@std@@AEAAPEAEQEAEAEBE@Z
xdata	ENDS
;	COMDAT xdata
xdata	SEGMENT
$chain$2$??$_Emplace_reallocate@AEBE@?$vector@EV?$allocator@E@std@@@std@@AEAAPEAEQEAEAEBE@Z DD 061521H
	DD	04c415H
	DD	05640aH
	DD	0e3405H
	DD	imagerel $LN128
	DD	imagerel $LN128+64
	DD	imagerel $unwind$??$_Emplace_reallocate@AEBE@?$vector@EV?$allocator@E@std@@@std@@AEAAPEAEQEAEAEBE@Z
xdata	ENDS
;	COMDAT xdata
xdata	SEGMENT
$unwind$??$_Emplace_reallocate@AEBE@?$vector@EV?$allocator@E@std@@@std@@AEAAPEAEQEAEAEBE@Z DD 060d01H
	DD	0f009520dH
	DD	0d005e007H
	DD	050027003H
xdata	ENDS
;	COMDAT xdata
xdata	SEGMENT
$unwind$?_Xlength@?$vector@EV?$allocator@E@std@@@std@@CAXXZ DD 010401H
	DD	04204H
xdata	ENDS
;	COMDAT xdata
xdata	SEGMENT
$unwind$?_Change_array@?$vector@EV?$allocator@E@std@@@std@@AEAAXQEAE_K1@Z DD 081401H
	DD	096414H
	DD	085414H
	DD	073414H
	DD	070103214H
xdata	ENDS
;	COMDAT xdata
xdata	SEGMENT
$unwind$??$_Copy_memmove@PEADPEAE@std@@YAPEAEPEAD0PEAE@Z DD 040a01H
	DD	06340aH
	DD	07006320aH
xdata	ENDS
;	COMDAT xdata
xdata	SEGMENT
$unwind$??$_Allocate_at_least_helper@V?$allocator@E@std@@@std@@YAPEAEAEAV?$allocator@E@0@AEA_K@Z DD 010401H
	DD	04204H
xdata	ENDS
;	COMDAT xdata
xdata	SEGMENT
$unwind$??$_Uninitialized_move@PEAEV?$allocator@E@std@@@std@@YAPEAEQEAE0PEAEAEAV?$allocator@E@0@@Z DD 040801H
	DD	070043208H
	DD	030026003H
xdata	ENDS
;	COMDAT xdata
xdata	SEGMENT
$unwind$??$_Zero_range@PEAE@std@@YAPEAEQEAE0@Z DD 020601H
	DD	030023206H
xdata	ENDS
;	COMDAT xdata
xdata	SEGMENT
$unwind$?allocate@?$allocator@E@std@@QEAAPEAE_K@Z DD 010401H
	DD	04204H
xdata	ENDS
;	COMDAT xdata
xdata	SEGMENT
$unwind$??$_Copy_memmove@PEAEPEAE@std@@YAPEAEPEAE00@Z DD 040a01H
	DD	06340aH
	DD	07006320aH
?kernel32$initializer$@freqDLLS@ProcessUtilities@@3P6AXXZEA DQ FLAT:??__Ekernel32@freqDLLS@ProcessUtilities@@YAXXZ ; ProcessUtilities::freqDLLS::kernel32$initializer$
?ntdll$initializer$@freqDLLS@ProcessUtilities@@3P6AXXZEA DQ FLAT:??__Entdll@freqDLLS@ProcessUtilities@@YAXXZ ; ProcessUtilities::freqDLLS::ntdll$initializer$
?advapi32$initializer$@freqDLLS@ProcessUtilities@@3P6AXXZEA DQ FLAT:??__Eadvapi32@freqDLLS@ProcessUtilities@@YAXXZ ; ProcessUtilities::freqDLLS::advapi32$initializer$
; Function compile flags: /Ogtpy
; File C:\Program Files\Microsoft Visual Studio\2022\Community\VC\Tools\MSVC\14.40.33807\include\xmemory
;	COMDAT ?_Swap_proxy_and_iterators@_Container_base0@std@@QEAAXAEAU12@@Z
_TEXT	SEGMENT
this$ = 8
__formal$ = 16
?_Swap_proxy_and_iterators@_Container_base0@std@@QEAAXAEAU12@@Z PROC ; std::_Container_base0::_Swap_proxy_and_iterators, COMDAT

; 1150 :     _CONSTEXPR20 void _Swap_proxy_and_iterators(_Container_base0&) noexcept {}

	ret	0
?_Swap_proxy_and_iterators@_Container_base0@std@@QEAAXAEAU12@@Z ENDP ; std::_Container_base0::_Swap_proxy_and_iterators
_TEXT	ENDS
; Function compile flags: /Ogtpy
; File C:\Program Files\Microsoft Visual Studio\2022\Community\VC\Tools\MSVC\14.40.33807\include\xmemory
;	COMDAT ?_Alloc_proxy@_Container_base0@std@@QEAAXAEBU_Fake_allocator@2@@Z
_TEXT	SEGMENT
this$ = 8
__formal$ = 16
?_Alloc_proxy@_Container_base0@std@@QEAAXAEBU_Fake_allocator@2@@Z PROC ; std::_Container_base0::_Alloc_proxy, COMDAT

; 1151 :     _CONSTEXPR20 void _Alloc_proxy(const _Fake_allocator&) noexcept {}

	ret	0
?_Alloc_proxy@_Container_base0@std@@QEAAXAEBU_Fake_allocator@2@@Z ENDP ; std::_Container_base0::_Alloc_proxy
_TEXT	ENDS
; Function compile flags: /Ogtpy
; File C:\Program Files\Microsoft Visual Studio\2022\Community\VC\Tools\MSVC\14.40.33807\include\xmemory
;	COMDAT ?_Adopt@_Iterator_base0@std@@QEAAXPEBX@Z
_TEXT	SEGMENT
this$ = 8
__formal$ = 16
?_Adopt@_Iterator_base0@std@@QEAAXPEBX@Z PROC		; std::_Iterator_base0::_Adopt, COMDAT

; 1156 :     _CONSTEXPR20 void _Adopt(const void*) noexcept {}

	ret	0
?_Adopt@_Iterator_base0@std@@QEAAXPEBX@Z ENDP		; std::_Iterator_base0::_Adopt
_TEXT	ENDS
; Function compile flags: /Ogtpy
; File C:\Users\ethan\source\repos\DLL\DLL\Headers\net_common.h
; File C:\Program Files\Microsoft Visual Studio\2022\Community\VC\Tools\MSVC\14.40.33807\include\vector
; File C:\Users\ethan\source\repos\DLL\DLL\Headers\net_common.h
; File C:\Program Files\Microsoft Visual Studio\2022\Community\VC\Tools\MSVC\14.40.33807\include\xstring
; File C:\Users\ethan\source\repos\DLL\DLL\Headers\net_common.h
; File C:\Program Files\Microsoft Visual Studio\2022\Community\VC\Tools\MSVC\14.40.33807\include\vector
; File C:\Users\ethan\source\repos\DLL\DLL\Headers\net_common.h
; File C:\Program Files\Microsoft Visual Studio\2022\Community\VC\Tools\MSVC\14.40.33807\include\xstring
; File C:\Program Files\Microsoft Visual Studio\2022\Community\VC\Tools\MSVC\14.40.33807\include\xmemory
; File C:\Program Files\Microsoft Visual Studio\2022\Community\VC\Tools\MSVC\14.40.33807\include\xstring
; File C:\Users\ethan\source\repos\DLL\DLL\Headers\net_common.h
; File C:\Program Files\Microsoft Visual Studio\2022\Community\VC\Tools\MSVC\14.40.33807\include\xmemory
; File C:\Users\ethan\source\repos\DLL\DLL\Headers\net_common.h
;	COMDAT ?SerializeString@NetCommon@@YA?AV?$vector@EV?$allocator@E@std@@@std@@V?$basic_string@DU?$char_traits@D@std@@V?$allocator@D@2@@3@@Z
_TEXT	SEGMENT
c$1 = 32
$T2 = 36
__$ReturnUdt$GSCopy$ = 40
s$GSCopy$ = 48
__$ArrayPad$ = 56
__$ReturnUdt$ = 96
s$ = 104
?SerializeString@NetCommon@@YA?AV?$vector@EV?$allocator@E@std@@@std@@V?$basic_string@DU?$char_traits@D@std@@V?$allocator@D@2@@3@@Z PROC ; NetCommon::SerializeString, COMDAT

; 61   :     inline BYTESTRING SerializeString(std::string s) {

$LN96:
	mov	QWORD PTR [rsp+24], rbx
	mov	QWORD PTR [rsp+32], rbp
	push	rsi
	push	rdi
	push	r14
	sub	rsp, 64					; 00000040H
	mov	rax, QWORD PTR __security_cookie
	xor	rax, rsp
	mov	QWORD PTR __$ArrayPad$[rsp], rax
	mov	rsi, rdx
	mov	rbx, rcx
	mov	QWORD PTR __$ReturnUdt$GSCopy$[rsp], rcx
	mov	QWORD PTR s$GSCopy$[rsp], rdx
	xor	r14d, r14d
	mov	DWORD PTR $T2[rsp], r14d
	xorps	xmm0, xmm0
	movups	XMMWORD PTR [rcx], xmm0
; File C:\Program Files\Microsoft Visual Studio\2022\Community\VC\Tools\MSVC\14.40.33807\include\vector

; 400  :     _CONSTEXPR20 _Vector_val() noexcept : _Myfirst(), _Mylast(), _Myend() {}

	mov	QWORD PTR [rcx], r14
	mov	QWORD PTR [rcx+8], r14
	mov	QWORD PTR [rcx+16], r14
; File C:\Users\ethan\source\repos\DLL\DLL\Headers\net_common.h

; 62   :         BYTESTRING bs;

	mov	DWORD PTR $T2[rsp], 1
; File C:\Program Files\Microsoft Visual Studio\2022\Community\VC\Tools\MSVC\14.40.33807\include\xstring

; 2244 :         return _Myres > _Small_string_capacity;

	cmp	QWORD PTR [rdx+24], 15

; 2227 :         if (_Large_mode_engaged()) {

	jbe	SHORT $LN90@SerializeS

; 2228 :             _Result = _Unfancy(_Bx._Ptr);

	mov	rdi, QWORD PTR [rdx]
	mov	rcx, rdi
	mov	rdx, rdi
	jmp	SHORT $LN35@SerializeS
$LN90@SerializeS:
	mov	rdi, rsi
	mov	rcx, rsi
$LN35@SerializeS:

; 3987 :         return _Mypair._Myval2._Myptr() + _Mypair._Myval2._Mysize;

	mov	rbp, QWORD PTR [rsi+16]
	add	rbp, rcx
; File C:\Users\ethan\source\repos\DLL\DLL\Headers\net_common.h

; 63   :         for ( BYTE c : s )

	cmp	rdx, rbp
	je	SHORT $LN3@SerializeS
	npad	10
$LL4@SerializeS:
	movzx	eax, BYTE PTR [rdi]
	mov	BYTE PTR c$1[rsp], al
; File C:\Program Files\Microsoft Visual Studio\2022\Community\VC\Tools\MSVC\14.40.33807\include\vector

; 775  :         if (_Mylast != _My_data._Myend) {

	mov	rdx, QWORD PTR [rbx+8]
	cmp	rdx, QWORD PTR [rbx+16]
	je	SHORT $LN44@SerializeS

; 791  :             _Construct_in_place(*_Mylast, _STD forward<_Valty>(_Val)...);

	mov	BYTE PTR [rdx], al

; 792  :         } else {
; 793  :             _ASAN_VECTOR_EXTEND_GUARD(static_cast<size_type>(_Mylast - _My_data._Myfirst) + 1);
; 794  :             _Alty_traits::construct(_Getal(), _Unfancy(_Mylast), _STD forward<_Valty>(_Val)...);
; 795  :             _ASAN_VECTOR_RELEASE_GUARD;
; 796  :         }
; 797  : 
; 798  :         _Orphan_range(_Mylast, _Mylast);
; 799  :         _Ty& _Result = *_Mylast;
; 800  :         ++_Mylast;

	inc	QWORD PTR [rbx+8]

; 776  :             return _Emplace_back_with_unused_capacity(_STD forward<_Valty>(_Val)...);

	jmp	SHORT $LN2@SerializeS
$LN44@SerializeS:

; 777  :         }
; 778  : 
; 779  :         return *_Emplace_reallocate(_Mylast, _STD forward<_Valty>(_Val)...);

	lea	r8, QWORD PTR c$1[rsp]
	mov	rcx, rbx
	call	??$_Emplace_reallocate@AEBE@?$vector@EV?$allocator@E@std@@@std@@AEAAPEAEQEAEAEBE@Z ; std::vector<unsigned char,std::allocator<unsigned char> >::_Emplace_reallocate<unsigned char const &>
$LN2@SerializeS:
; File C:\Users\ethan\source\repos\DLL\DLL\Headers\net_common.h

; 63   :         for ( BYTE c : s )

	inc	rdi
	cmp	rdi, rbp
	jne	SHORT $LL4@SerializeS
$LN3@SerializeS:
; File C:\Program Files\Microsoft Visual Studio\2022\Community\VC\Tools\MSVC\14.40.33807\include\xstring

; 2244 :         return _Myres > _Small_string_capacity;

	mov	rdx, QWORD PTR [rsi+24]
	cmp	rdx, 15

; 4868 :         if (_My_data._Large_mode_engaged()) {

	jbe	SHORT $LN65@SerializeS

; 2643 :         _Al.deallocate(_Old_ptr, _Capacity + 1); // +1 for null terminator

	inc	rdx
; File C:\Program Files\Microsoft Visual Studio\2022\Community\VC\Tools\MSVC\14.40.33807\include\xmemory

; 950  :         _STD _Deallocate<_New_alignof<_Ty>>(_Ptr, sizeof(_Ty) * _Count);

	mov	rcx, QWORD PTR [rsi]

; 253  :         if (_Bytes >= _Big_allocation_threshold) {

	cmp	rdx, 4096				; 00001000H
	jb	SHORT $LN79@SerializeS

; 171  :     _Bytes += _Non_user_size;

	add	rdx, 39					; 00000027H

; 172  : 
; 173  :     const uintptr_t* const _Ptr_user = static_cast<uintptr_t*>(_Ptr);
; 174  :     const uintptr_t _Ptr_container   = _Ptr_user[-1];

	mov	r8, QWORD PTR [rcx-8]

; 175  : 
; 176  :     // If the following asserts, it likely means that we are performing
; 177  :     // an aligned delete on memory coming from an unaligned allocation.
; 178  :     _STL_ASSERT(_Ptr_user[-2] == _Big_allocation_sentinel, "invalid argument");
; 179  : 
; 180  :     // Extra paranoia on aligned allocation/deallocation; ensure _Ptr_container is
; 181  :     // in range [_Min_back_shift, _Non_user_size]
; 182  : #ifdef _DEBUG
; 183  :     constexpr uintptr_t _Min_back_shift = 2 * sizeof(void*);
; 184  : #else // ^^^ defined(_DEBUG) / !defined(_DEBUG) vvv
; 185  :     constexpr uintptr_t _Min_back_shift = sizeof(void*);
; 186  : #endif // ^^^ !defined(_DEBUG) ^^^
; 187  :     const uintptr_t _Back_shift = reinterpret_cast<uintptr_t>(_Ptr) - _Ptr_container;

	sub	rcx, r8

; 188  :     _STL_VERIFY(_Back_shift >= _Min_back_shift && _Back_shift <= _Non_user_size, "invalid argument");

	lea	rax, QWORD PTR [rcx-8]
	cmp	rax, 31
	ja	SHORT $LN76@SerializeS

; 189  :     _Ptr = reinterpret_cast<void*>(_Ptr_container);

	mov	rcx, r8
$LN79@SerializeS:

; 258  :         ::operator delete(_Ptr, _Bytes);

	call	??3@YAXPEAX_K@Z				; operator delete
$LN65@SerializeS:
; File C:\Program Files\Microsoft Visual Studio\2022\Community\VC\Tools\MSVC\14.40.33807\include\xstring

; 4875 :         _My_data._Mysize = 0;

	mov	QWORD PTR [rsi+16], r14

; 4876 :         _My_data._Myres  = _Small_string_capacity;

	mov	QWORD PTR [rsi+24], 15

; 4877 :         // the _Traits::assign is last so the codegen doesn't think the char write can alias this
; 4878 :         _Traits::assign(_My_data._Bx._Buf[0], _Elem());

	mov	BYTE PTR [rsi], 0
; File C:\Users\ethan\source\repos\DLL\DLL\Headers\net_common.h

; 65   :         return bs;

	mov	rax, rbx

; 66   :     }

	mov	rcx, QWORD PTR __$ArrayPad$[rsp]
	xor	rcx, rsp
	call	__security_check_cookie
	mov	rbx, QWORD PTR [rsp+112]
	mov	rbp, QWORD PTR [rsp+120]
	add	rsp, 64					; 00000040H
	pop	r14
	pop	rdi
	pop	rsi
	ret	0
$LN76@SerializeS:
; File C:\Program Files\Microsoft Visual Studio\2022\Community\VC\Tools\MSVC\14.40.33807\include\xmemory

; 188  :     _STL_VERIFY(_Back_shift >= _Min_back_shift && _Back_shift <= _Non_user_size, "invalid argument");

	call	_invalid_parameter_noinfo_noreturn
	int	3
$LN93@SerializeS:
?SerializeString@NetCommon@@YA?AV?$vector@EV?$allocator@E@std@@@std@@V?$basic_string@DU?$char_traits@D@std@@V?$allocator@D@2@@3@@Z ENDP ; NetCommon::SerializeString
_TEXT	ENDS
; Function compile flags: /Ogtpy
;	COMDAT text$x
text$x	SEGMENT
c$1 = 32
$T2 = 36
__$ReturnUdt$GSCopy$ = 40
s$GSCopy$ = 48
__$ArrayPad$ = 56
__$ReturnUdt$ = 96
s$ = 104
?dtor$0@?0??SerializeString@NetCommon@@YA?AV?$vector@EV?$allocator@E@std@@@std@@V?$basic_string@DU?$char_traits@D@std@@V?$allocator@D@2@@3@@Z@4HA PROC ; `NetCommon::SerializeString'::`1'::dtor$0
	mov	rcx, QWORD PTR s$GSCopy$[rdx]
	jmp	??1?$basic_string@DU?$char_traits@D@std@@V?$allocator@D@2@@std@@QEAA@XZ ; std::basic_string<char,std::char_traits<char>,std::allocator<char> >::~basic_string<char,std::char_traits<char>,std::allocator<char> >
?dtor$0@?0??SerializeString@NetCommon@@YA?AV?$vector@EV?$allocator@E@std@@@std@@V?$basic_string@DU?$char_traits@D@std@@V?$allocator@D@2@@3@@Z@4HA ENDP ; `NetCommon::SerializeString'::`1'::dtor$0
text$x	ENDS
; Function compile flags: /Ogtpy
;	COMDAT text$x
text$x	SEGMENT
c$1 = 32
$T2 = 36
__$ReturnUdt$GSCopy$ = 40
s$GSCopy$ = 48
__$ArrayPad$ = 56
__$ReturnUdt$ = 96
s$ = 104
?dtor$1@?0??SerializeString@NetCommon@@YA?AV?$vector@EV?$allocator@E@std@@@std@@V?$basic_string@DU?$char_traits@D@std@@V?$allocator@D@2@@3@@Z@4HA PROC ; `NetCommon::SerializeString'::`1'::dtor$1
	push	rbp
	sub	rsp, 32					; 00000020H
	mov	rbp, rdx
	mov	eax, DWORD PTR $T2[rbp]
	and	eax, 1
	test	eax, eax
	je	SHORT $LN8@dtor$1
	and	DWORD PTR $T2[rbp], -2
	mov	rcx, QWORD PTR __$ReturnUdt$GSCopy$[rbp]
	call	??1?$vector@EV?$allocator@E@std@@@std@@QEAA@XZ ; std::vector<unsigned char,std::allocator<unsigned char> >::~vector<unsigned char,std::allocator<unsigned char> >
$LN8@dtor$1:
	add	rsp, 32					; 00000020H
	pop	rbp
	ret	0
?dtor$1@?0??SerializeString@NetCommon@@YA?AV?$vector@EV?$allocator@E@std@@@std@@V?$basic_string@DU?$char_traits@D@std@@V?$allocator@D@2@@3@@Z@4HA ENDP ; `NetCommon::SerializeString'::`1'::dtor$1
text$x	ENDS
; Function compile flags: /Ogtpy
;	COMDAT ?__autoclassinit2@?$vector@EV?$allocator@E@std@@@std@@QEAAX_K@Z
_TEXT	SEGMENT
this$ = 8
classSize$dead$ = 16
?__autoclassinit2@?$vector@EV?$allocator@E@std@@@std@@QEAAX_K@Z PROC ; std::vector<unsigned char,std::allocator<unsigned char> >::__autoclassinit2, COMDAT
	xorps	xmm0, xmm0
	xor	eax, eax
	movups	XMMWORD PTR [rcx], xmm0
	mov	QWORD PTR [rcx+16], rax
	ret	0
?__autoclassinit2@?$vector@EV?$allocator@E@std@@@std@@QEAAX_K@Z ENDP ; std::vector<unsigned char,std::allocator<unsigned char> >::__autoclassinit2
_TEXT	ENDS
; Function compile flags: /Ogtpy
; File C:\Users\ethan\source\repos\DLL\DLL\Headers\net_common.h
; File C:\Program Files\Microsoft Visual Studio\2022\Community\VC\Tools\MSVC\14.40.33807\include\xstring
; File C:\Users\ethan\source\repos\DLL\DLL\Headers\net_common.h
;	COMDAT ?IsBlobValid@NetCommon@@YAHUNET_BLOB@@@Z
_TEXT	SEGMENT
b$ = 48
?IsBlobValid@NetCommon@@YAHUNET_BLOB@@@Z PROC		; NetCommon::IsBlobValid, COMDAT

; 104  :     inline BOOL IsBlobValid(NET_BLOB b) {

$LN14:
	push	rbx
	sub	rsp, 32					; 00000020H
; File C:\Program Files\Microsoft Visual Studio\2022\Community\VC\Tools\MSVC\14.40.33807\include\xstring

; 4279 :         return _Mypair._Myval2._Mysize == 0;

	cmp	QWORD PTR [rcx+236], 0
; File C:\Users\ethan\source\repos\DLL\DLL\Headers\net_common.h

; 105  :         return !b.aesKey.empty() && b.cr.valid || b.sr.valid || b.udp.isValid;

	je	SHORT $LN3@IsBlobVali
	cmp	DWORD PTR [rcx], 0
	jne	SHORT $LN4@IsBlobVali
$LN3@IsBlobVali:
	cmp	BYTE PTR [rcx+48], 0
	jne	SHORT $LN4@IsBlobVali
	cmp	DWORD PTR [rcx+216], 0
	jne	SHORT $LN4@IsBlobVali
	xor	ebx, ebx
	call	??1NET_BLOB@@QEAA@XZ
	mov	eax, ebx

; 106  :     }

	add	rsp, 32					; 00000020H
	pop	rbx
	ret	0
$LN4@IsBlobVali:

; 105  :         return !b.aesKey.empty() && b.cr.valid || b.sr.valid || b.udp.isValid;

	mov	ebx, 1
	call	??1NET_BLOB@@QEAA@XZ
	mov	eax, ebx

; 106  :     }

	add	rsp, 32					; 00000020H
	pop	rbx
	ret	0
?IsBlobValid@NetCommon@@YAHUNET_BLOB@@@Z ENDP		; NetCommon::IsBlobValid
_TEXT	ENDS
; Function compile flags: /Ogtpy
; File C:\Program Files\Microsoft Visual Studio\2022\Community\VC\Tools\MSVC\14.40.33807\include\xstring
; File C:\Program Files\Microsoft Visual Studio\2022\Community\VC\Tools\MSVC\14.40.33807\include\xmemory
; File C:\Program Files\Microsoft Visual Studio\2022\Community\VC\Tools\MSVC\14.40.33807\include\xstring
; File C:\Program Files\Microsoft Visual Studio\2022\Community\VC\Tools\MSVC\14.40.33807\include\xmemory
; File C:\Program Files\Microsoft Visual Studio\2022\Community\VC\Tools\MSVC\14.40.33807\include\xstring
; File C:\Program Files\Microsoft Visual Studio\2022\Community\VC\Tools\MSVC\14.40.33807\include\xmemory
; File C:\Program Files\Microsoft Visual Studio\2022\Community\VC\Tools\MSVC\14.40.33807\include\xstring
; File C:\Program Files\Microsoft Visual Studio\2022\Community\VC\Tools\MSVC\14.40.33807\include\xmemory
; File C:\Program Files\Microsoft Visual Studio\2022\Community\VC\Tools\MSVC\14.40.33807\include\xstring
; File C:\Program Files\Microsoft Visual Studio\2022\Community\VC\Tools\MSVC\14.40.33807\include\xmemory
;	COMDAT ??1NET_BLOB@@QEAA@XZ
_TEXT	SEGMENT
this$ = 48
??1NET_BLOB@@QEAA@XZ PROC				; NET_BLOB::~NET_BLOB, COMDAT
$LN94:
	push	rbx
	sub	rsp, 32					; 00000020H
; File C:\Program Files\Microsoft Visual Studio\2022\Community\VC\Tools\MSVC\14.40.33807\include\xstring

; 2244 :         return _Myres > _Small_string_capacity;

	mov	rdx, QWORD PTR [rcx+244]
	mov	rbx, rcx
	cmp	rdx, 15

; 4868 :         if (_My_data._Large_mode_engaged()) {

	jbe	SHORT $LN21@NET_BLOB
; File C:\Program Files\Microsoft Visual Studio\2022\Community\VC\Tools\MSVC\14.40.33807\include\xmemory

; 950  :         _STD _Deallocate<_New_alignof<_Ty>>(_Ptr, sizeof(_Ty) * _Count);

	mov	rcx, QWORD PTR [rcx+220]
; File C:\Program Files\Microsoft Visual Studio\2022\Community\VC\Tools\MSVC\14.40.33807\include\xstring

; 2643 :         _Al.deallocate(_Old_ptr, _Capacity + 1); // +1 for null terminator

	inc	rdx
; File C:\Program Files\Microsoft Visual Studio\2022\Community\VC\Tools\MSVC\14.40.33807\include\xmemory

; 253  :         if (_Bytes >= _Big_allocation_threshold) {

	cmp	rdx, 4096				; 00001000H
	jb	SHORT $LN35@NET_BLOB

; 174  :     const uintptr_t _Ptr_container   = _Ptr_user[-1];

	mov	r8, QWORD PTR [rcx-8]
	add	rdx, 39					; 00000027H

; 175  : 
; 176  :     // If the following asserts, it likely means that we are performing
; 177  :     // an aligned delete on memory coming from an unaligned allocation.
; 178  :     _STL_ASSERT(_Ptr_user[-2] == _Big_allocation_sentinel, "invalid argument");
; 179  : 
; 180  :     // Extra paranoia on aligned allocation/deallocation; ensure _Ptr_container is
; 181  :     // in range [_Min_back_shift, _Non_user_size]
; 182  : #ifdef _DEBUG
; 183  :     constexpr uintptr_t _Min_back_shift = 2 * sizeof(void*);
; 184  : #else // ^^^ defined(_DEBUG) / !defined(_DEBUG) vvv
; 185  :     constexpr uintptr_t _Min_back_shift = sizeof(void*);
; 186  : #endif // ^^^ !defined(_DEBUG) ^^^
; 187  :     const uintptr_t _Back_shift = reinterpret_cast<uintptr_t>(_Ptr) - _Ptr_container;

	sub	rcx, r8

; 188  :     _STL_VERIFY(_Back_shift >= _Min_back_shift && _Back_shift <= _Non_user_size, "invalid argument");

	lea	rax, QWORD PTR [rcx-8]
	cmp	rax, 31
	ja	SHORT $LN75@NET_BLOB

; 189  :     _Ptr = reinterpret_cast<void*>(_Ptr_container);

	mov	rcx, r8
$LN35@NET_BLOB:

; 258  :         ::operator delete(_Ptr, _Bytes);

	call	??3@YAXPEAX_K@Z				; operator delete
$LN21@NET_BLOB:
	lea	rcx, QWORD PTR [rbx+48]
; File C:\Program Files\Microsoft Visual Studio\2022\Community\VC\Tools\MSVC\14.40.33807\include\xstring

; 4875 :         _My_data._Mysize = 0;

	mov	QWORD PTR [rbx+236], 0

; 4876 :         _My_data._Myres  = _Small_string_capacity;

	mov	QWORD PTR [rbx+244], 15

; 4877 :         // the _Traits::assign is last so the codegen doesn't think the char write can alias this
; 4878 :         _Traits::assign(_My_data._Bx._Buf[0], _Elem());

	mov	BYTE PTR [rbx+220], 0
	call	??1ServerCommand@@QEAA@XZ

; 2244 :         return _Myres > _Small_string_capacity;

	mov	rdx, QWORD PTR [rbx+40]
	cmp	rdx, 15

; 4868 :         if (_My_data._Large_mode_engaged()) {

	jbe	SHORT $LN64@NET_BLOB
; File C:\Program Files\Microsoft Visual Studio\2022\Community\VC\Tools\MSVC\14.40.33807\include\xmemory

; 950  :         _STD _Deallocate<_New_alignof<_Ty>>(_Ptr, sizeof(_Ty) * _Count);

	mov	rcx, QWORD PTR [rbx+16]
; File C:\Program Files\Microsoft Visual Studio\2022\Community\VC\Tools\MSVC\14.40.33807\include\xstring

; 2643 :         _Al.deallocate(_Old_ptr, _Capacity + 1); // +1 for null terminator

	inc	rdx
; File C:\Program Files\Microsoft Visual Studio\2022\Community\VC\Tools\MSVC\14.40.33807\include\xmemory

; 253  :         if (_Bytes >= _Big_allocation_threshold) {

	cmp	rdx, 4096				; 00001000H
	jb	SHORT $LN78@NET_BLOB

; 174  :     const uintptr_t _Ptr_container   = _Ptr_user[-1];

	mov	r8, QWORD PTR [rcx-8]
	add	rdx, 39					; 00000027H

; 175  : 
; 176  :     // If the following asserts, it likely means that we are performing
; 177  :     // an aligned delete on memory coming from an unaligned allocation.
; 178  :     _STL_ASSERT(_Ptr_user[-2] == _Big_allocation_sentinel, "invalid argument");
; 179  : 
; 180  :     // Extra paranoia on aligned allocation/deallocation; ensure _Ptr_container is
; 181  :     // in range [_Min_back_shift, _Non_user_size]
; 182  : #ifdef _DEBUG
; 183  :     constexpr uintptr_t _Min_back_shift = 2 * sizeof(void*);
; 184  : #else // ^^^ defined(_DEBUG) / !defined(_DEBUG) vvv
; 185  :     constexpr uintptr_t _Min_back_shift = sizeof(void*);
; 186  : #endif // ^^^ !defined(_DEBUG) ^^^
; 187  :     const uintptr_t _Back_shift = reinterpret_cast<uintptr_t>(_Ptr) - _Ptr_container;

	sub	rcx, r8

; 188  :     _STL_VERIFY(_Back_shift >= _Min_back_shift && _Back_shift <= _Non_user_size, "invalid argument");

	lea	rax, QWORD PTR [rcx-8]
	cmp	rax, 31
	ja	SHORT $LN75@NET_BLOB

; 189  :     _Ptr = reinterpret_cast<void*>(_Ptr_container);

	mov	rcx, r8
$LN78@NET_BLOB:

; 258  :         ::operator delete(_Ptr, _Bytes);

	call	??3@YAXPEAX_K@Z				; operator delete
$LN64@NET_BLOB:
; File C:\Program Files\Microsoft Visual Studio\2022\Community\VC\Tools\MSVC\14.40.33807\include\xstring

; 4875 :         _My_data._Mysize = 0;

	mov	QWORD PTR [rbx+32], 0

; 4876 :         _My_data._Myres  = _Small_string_capacity;

	mov	QWORD PTR [rbx+40], 15

; 4877 :         // the _Traits::assign is last so the codegen doesn't think the char write can alias this
; 4878 :         _Traits::assign(_My_data._Bx._Buf[0], _Elem());

	mov	BYTE PTR [rbx+16], 0
	add	rsp, 32					; 00000020H
	pop	rbx
	ret	0
$LN75@NET_BLOB:
; File C:\Program Files\Microsoft Visual Studio\2022\Community\VC\Tools\MSVC\14.40.33807\include\xmemory

; 188  :     _STL_VERIFY(_Back_shift >= _Min_back_shift && _Back_shift <= _Non_user_size, "invalid argument");

	call	_invalid_parameter_noinfo_noreturn
	int	3
$LN91@NET_BLOB:
??1NET_BLOB@@QEAA@XZ ENDP				; NET_BLOB::~NET_BLOB
_TEXT	ENDS
; Function compile flags: /Ogtpy
; File C:\Program Files\Microsoft Visual Studio\2022\Community\VC\Tools\MSVC\14.40.33807\include\xstring
; File C:\Program Files\Microsoft Visual Studio\2022\Community\VC\Tools\MSVC\14.40.33807\include\xmemory
; File C:\Program Files\Microsoft Visual Studio\2022\Community\VC\Tools\MSVC\14.40.33807\include\xstring
; File C:\Program Files\Microsoft Visual Studio\2022\Community\VC\Tools\MSVC\14.40.33807\include\xmemory
; File C:\Program Files\Microsoft Visual Studio\2022\Community\VC\Tools\MSVC\14.40.33807\include\xstring
; File C:\Program Files\Microsoft Visual Studio\2022\Community\VC\Tools\MSVC\14.40.33807\include\xmemory
;	COMDAT ??1ClientRequest@@QEAA@XZ
_TEXT	SEGMENT
this$ = 48
??1ClientRequest@@QEAA@XZ PROC				; ClientRequest::~ClientRequest, COMDAT
$LN48:
	push	rbx
	sub	rsp, 32					; 00000020H
; File C:\Program Files\Microsoft Visual Studio\2022\Community\VC\Tools\MSVC\14.40.33807\include\xstring

; 2244 :         return _Myres > _Small_string_capacity;

	mov	rdx, QWORD PTR [rcx+40]
	mov	rbx, rcx
	cmp	rdx, 15

; 4868 :         if (_My_data._Large_mode_engaged()) {

	jbe	SHORT $LN21@ClientRequ
; File C:\Program Files\Microsoft Visual Studio\2022\Community\VC\Tools\MSVC\14.40.33807\include\xmemory

; 950  :         _STD _Deallocate<_New_alignof<_Ty>>(_Ptr, sizeof(_Ty) * _Count);

	mov	rcx, QWORD PTR [rcx+16]
; File C:\Program Files\Microsoft Visual Studio\2022\Community\VC\Tools\MSVC\14.40.33807\include\xstring

; 2643 :         _Al.deallocate(_Old_ptr, _Capacity + 1); // +1 for null terminator

	inc	rdx
; File C:\Program Files\Microsoft Visual Studio\2022\Community\VC\Tools\MSVC\14.40.33807\include\xmemory

; 253  :         if (_Bytes >= _Big_allocation_threshold) {

	cmp	rdx, 4096				; 00001000H
	jb	SHORT $LN35@ClientRequ

; 174  :     const uintptr_t _Ptr_container   = _Ptr_user[-1];

	mov	r8, QWORD PTR [rcx-8]
	add	rdx, 39					; 00000027H

; 175  : 
; 176  :     // If the following asserts, it likely means that we are performing
; 177  :     // an aligned delete on memory coming from an unaligned allocation.
; 178  :     _STL_ASSERT(_Ptr_user[-2] == _Big_allocation_sentinel, "invalid argument");
; 179  : 
; 180  :     // Extra paranoia on aligned allocation/deallocation; ensure _Ptr_container is
; 181  :     // in range [_Min_back_shift, _Non_user_size]
; 182  : #ifdef _DEBUG
; 183  :     constexpr uintptr_t _Min_back_shift = 2 * sizeof(void*);
; 184  : #else // ^^^ defined(_DEBUG) / !defined(_DEBUG) vvv
; 185  :     constexpr uintptr_t _Min_back_shift = sizeof(void*);
; 186  : #endif // ^^^ !defined(_DEBUG) ^^^
; 187  :     const uintptr_t _Back_shift = reinterpret_cast<uintptr_t>(_Ptr) - _Ptr_container;

	sub	rcx, r8

; 188  :     _STL_VERIFY(_Back_shift >= _Min_back_shift && _Back_shift <= _Non_user_size, "invalid argument");

	lea	rax, QWORD PTR [rcx-8]
	cmp	rax, 31
	ja	SHORT $LN32@ClientRequ

; 189  :     _Ptr = reinterpret_cast<void*>(_Ptr_container);

	mov	rcx, r8
$LN35@ClientRequ:

; 258  :         ::operator delete(_Ptr, _Bytes);

	call	??3@YAXPEAX_K@Z				; operator delete
$LN21@ClientRequ:
; File C:\Program Files\Microsoft Visual Studio\2022\Community\VC\Tools\MSVC\14.40.33807\include\xstring

; 4875 :         _My_data._Mysize = 0;

	mov	QWORD PTR [rbx+32], 0

; 4876 :         _My_data._Myres  = _Small_string_capacity;

	mov	QWORD PTR [rbx+40], 15

; 4877 :         // the _Traits::assign is last so the codegen doesn't think the char write can alias this
; 4878 :         _Traits::assign(_My_data._Bx._Buf[0], _Elem());

	mov	BYTE PTR [rbx+16], 0
	add	rsp, 32					; 00000020H
	pop	rbx
	ret	0
$LN32@ClientRequ:
; File C:\Program Files\Microsoft Visual Studio\2022\Community\VC\Tools\MSVC\14.40.33807\include\xmemory

; 188  :     _STL_VERIFY(_Back_shift >= _Min_back_shift && _Back_shift <= _Non_user_size, "invalid argument");

	call	_invalid_parameter_noinfo_noreturn
	int	3
$LN45@ClientRequ:
??1ClientRequest@@QEAA@XZ ENDP				; ClientRequest::~ClientRequest
_TEXT	ENDS
; Function compile flags: /Ogtpy
; File C:\Program Files\Microsoft Visual Studio\2022\Community\VC\Tools\MSVC\14.40.33807\include\xstring
; File C:\Program Files\Microsoft Visual Studio\2022\Community\VC\Tools\MSVC\14.40.33807\include\xmemory
; File C:\Program Files\Microsoft Visual Studio\2022\Community\VC\Tools\MSVC\14.40.33807\include\xstring
; File C:\Program Files\Microsoft Visual Studio\2022\Community\VC\Tools\MSVC\14.40.33807\include\xmemory
; File C:\Program Files\Microsoft Visual Studio\2022\Community\VC\Tools\MSVC\14.40.33807\include\xstring
; File C:\Program Files\Microsoft Visual Studio\2022\Community\VC\Tools\MSVC\14.40.33807\include\xmemory
; File C:\Program Files\Microsoft Visual Studio\2022\Community\VC\Tools\MSVC\14.40.33807\include\xstring
; File C:\Program Files\Microsoft Visual Studio\2022\Community\VC\Tools\MSVC\14.40.33807\include\xmemory
; File C:\Program Files\Microsoft Visual Studio\2022\Community\VC\Tools\MSVC\14.40.33807\include\xstring
; File C:\Program Files\Microsoft Visual Studio\2022\Community\VC\Tools\MSVC\14.40.33807\include\xmemory
; File C:\Program Files\Microsoft Visual Studio\2022\Community\VC\Tools\MSVC\14.40.33807\include\xstring
; File C:\Program Files\Microsoft Visual Studio\2022\Community\VC\Tools\MSVC\14.40.33807\include\xmemory
; File C:\Program Files\Microsoft Visual Studio\2022\Community\VC\Tools\MSVC\14.40.33807\include\xstring
; File C:\Program Files\Microsoft Visual Studio\2022\Community\VC\Tools\MSVC\14.40.33807\include\xmemory
;	COMDAT ??1ServerCommand@@QEAA@XZ
_TEXT	SEGMENT
this$ = 48
??1ServerCommand@@QEAA@XZ PROC				; ServerCommand::~ServerCommand, COMDAT
$LN134:
	push	rbx
	sub	rsp, 32					; 00000020H
; File C:\Program Files\Microsoft Visual Studio\2022\Community\VC\Tools\MSVC\14.40.33807\include\xstring

; 2244 :         return _Myres > _Small_string_capacity;

	mov	rdx, QWORD PTR [rcx+112]
	mov	rbx, rcx
	cmp	rdx, 15

; 4868 :         if (_My_data._Large_mode_engaged()) {

	jbe	SHORT $LN21@ServerComm
; File C:\Program Files\Microsoft Visual Studio\2022\Community\VC\Tools\MSVC\14.40.33807\include\xmemory

; 950  :         _STD _Deallocate<_New_alignof<_Ty>>(_Ptr, sizeof(_Ty) * _Count);

	mov	rcx, QWORD PTR [rcx+88]
; File C:\Program Files\Microsoft Visual Studio\2022\Community\VC\Tools\MSVC\14.40.33807\include\xstring

; 2643 :         _Al.deallocate(_Old_ptr, _Capacity + 1); // +1 for null terminator

	inc	rdx
; File C:\Program Files\Microsoft Visual Studio\2022\Community\VC\Tools\MSVC\14.40.33807\include\xmemory

; 253  :         if (_Bytes >= _Big_allocation_threshold) {

	cmp	rdx, 4096				; 00001000H
	jb	SHORT $LN35@ServerComm

; 174  :     const uintptr_t _Ptr_container   = _Ptr_user[-1];

	mov	r8, QWORD PTR [rcx-8]
	add	rdx, 39					; 00000027H

; 175  : 
; 176  :     // If the following asserts, it likely means that we are performing
; 177  :     // an aligned delete on memory coming from an unaligned allocation.
; 178  :     _STL_ASSERT(_Ptr_user[-2] == _Big_allocation_sentinel, "invalid argument");
; 179  : 
; 180  :     // Extra paranoia on aligned allocation/deallocation; ensure _Ptr_container is
; 181  :     // in range [_Min_back_shift, _Non_user_size]
; 182  : #ifdef _DEBUG
; 183  :     constexpr uintptr_t _Min_back_shift = 2 * sizeof(void*);
; 184  : #else // ^^^ defined(_DEBUG) / !defined(_DEBUG) vvv
; 185  :     constexpr uintptr_t _Min_back_shift = sizeof(void*);
; 186  : #endif // ^^^ !defined(_DEBUG) ^^^
; 187  :     const uintptr_t _Back_shift = reinterpret_cast<uintptr_t>(_Ptr) - _Ptr_container;

	sub	rcx, r8

; 188  :     _STL_VERIFY(_Back_shift >= _Min_back_shift && _Back_shift <= _Non_user_size, "invalid argument");

	lea	rax, QWORD PTR [rcx-8]
	cmp	rax, 31
	ja	$LN112@ServerComm

; 189  :     _Ptr = reinterpret_cast<void*>(_Ptr_container);

	mov	rcx, r8
$LN35@ServerComm:

; 258  :         ::operator delete(_Ptr, _Bytes);

	call	??3@YAXPEAX_K@Z				; operator delete
$LN21@ServerComm:
; File C:\Program Files\Microsoft Visual Studio\2022\Community\VC\Tools\MSVC\14.40.33807\include\xstring

; 4875 :         _My_data._Mysize = 0;

	mov	QWORD PTR [rbx+104], 0

; 4876 :         _My_data._Myres  = _Small_string_capacity;

	mov	QWORD PTR [rbx+112], 15

; 4877 :         // the _Traits::assign is last so the codegen doesn't think the char write can alias this
; 4878 :         _Traits::assign(_My_data._Bx._Buf[0], _Elem());

	mov	BYTE PTR [rbx+88], 0

; 2244 :         return _Myres > _Small_string_capacity;

	mov	rdx, QWORD PTR [rbx+80]
	cmp	rdx, 15

; 4868 :         if (_My_data._Large_mode_engaged()) {

	jbe	SHORT $LN59@ServerComm
; File C:\Program Files\Microsoft Visual Studio\2022\Community\VC\Tools\MSVC\14.40.33807\include\xmemory

; 950  :         _STD _Deallocate<_New_alignof<_Ty>>(_Ptr, sizeof(_Ty) * _Count);

	mov	rcx, QWORD PTR [rbx+56]
; File C:\Program Files\Microsoft Visual Studio\2022\Community\VC\Tools\MSVC\14.40.33807\include\xstring

; 2643 :         _Al.deallocate(_Old_ptr, _Capacity + 1); // +1 for null terminator

	inc	rdx
; File C:\Program Files\Microsoft Visual Studio\2022\Community\VC\Tools\MSVC\14.40.33807\include\xmemory

; 253  :         if (_Bytes >= _Big_allocation_threshold) {

	cmp	rdx, 4096				; 00001000H
	jb	SHORT $LN73@ServerComm

; 174  :     const uintptr_t _Ptr_container   = _Ptr_user[-1];

	mov	r8, QWORD PTR [rcx-8]
	add	rdx, 39					; 00000027H

; 175  : 
; 176  :     // If the following asserts, it likely means that we are performing
; 177  :     // an aligned delete on memory coming from an unaligned allocation.
; 178  :     _STL_ASSERT(_Ptr_user[-2] == _Big_allocation_sentinel, "invalid argument");
; 179  : 
; 180  :     // Extra paranoia on aligned allocation/deallocation; ensure _Ptr_container is
; 181  :     // in range [_Min_back_shift, _Non_user_size]
; 182  : #ifdef _DEBUG
; 183  :     constexpr uintptr_t _Min_back_shift = 2 * sizeof(void*);
; 184  : #else // ^^^ defined(_DEBUG) / !defined(_DEBUG) vvv
; 185  :     constexpr uintptr_t _Min_back_shift = sizeof(void*);
; 186  : #endif // ^^^ !defined(_DEBUG) ^^^
; 187  :     const uintptr_t _Back_shift = reinterpret_cast<uintptr_t>(_Ptr) - _Ptr_container;

	sub	rcx, r8

; 188  :     _STL_VERIFY(_Back_shift >= _Min_back_shift && _Back_shift <= _Non_user_size, "invalid argument");

	lea	rax, QWORD PTR [rcx-8]
	cmp	rax, 31
	ja	SHORT $LN112@ServerComm

; 189  :     _Ptr = reinterpret_cast<void*>(_Ptr_container);

	mov	rcx, r8
$LN73@ServerComm:

; 258  :         ::operator delete(_Ptr, _Bytes);

	call	??3@YAXPEAX_K@Z				; operator delete
$LN59@ServerComm:
; File C:\Program Files\Microsoft Visual Studio\2022\Community\VC\Tools\MSVC\14.40.33807\include\xstring

; 4875 :         _My_data._Mysize = 0;

	mov	QWORD PTR [rbx+72], 0

; 4876 :         _My_data._Myres  = _Small_string_capacity;

	mov	QWORD PTR [rbx+80], 15

; 4877 :         // the _Traits::assign is last so the codegen doesn't think the char write can alias this
; 4878 :         _Traits::assign(_My_data._Bx._Buf[0], _Elem());

	mov	BYTE PTR [rbx+56], 0

; 2244 :         return _Myres > _Small_string_capacity;

	mov	rdx, QWORD PTR [rbx+48]
	cmp	rdx, 15

; 4868 :         if (_My_data._Large_mode_engaged()) {

	jbe	SHORT $LN101@ServerComm
; File C:\Program Files\Microsoft Visual Studio\2022\Community\VC\Tools\MSVC\14.40.33807\include\xmemory

; 950  :         _STD _Deallocate<_New_alignof<_Ty>>(_Ptr, sizeof(_Ty) * _Count);

	mov	rcx, QWORD PTR [rbx+24]
; File C:\Program Files\Microsoft Visual Studio\2022\Community\VC\Tools\MSVC\14.40.33807\include\xstring

; 2643 :         _Al.deallocate(_Old_ptr, _Capacity + 1); // +1 for null terminator

	inc	rdx
; File C:\Program Files\Microsoft Visual Studio\2022\Community\VC\Tools\MSVC\14.40.33807\include\xmemory

; 253  :         if (_Bytes >= _Big_allocation_threshold) {

	cmp	rdx, 4096				; 00001000H
	jb	SHORT $LN115@ServerComm

; 174  :     const uintptr_t _Ptr_container   = _Ptr_user[-1];

	mov	r8, QWORD PTR [rcx-8]
	add	rdx, 39					; 00000027H

; 175  : 
; 176  :     // If the following asserts, it likely means that we are performing
; 177  :     // an aligned delete on memory coming from an unaligned allocation.
; 178  :     _STL_ASSERT(_Ptr_user[-2] == _Big_allocation_sentinel, "invalid argument");
; 179  : 
; 180  :     // Extra paranoia on aligned allocation/deallocation; ensure _Ptr_container is
; 181  :     // in range [_Min_back_shift, _Non_user_size]
; 182  : #ifdef _DEBUG
; 183  :     constexpr uintptr_t _Min_back_shift = 2 * sizeof(void*);
; 184  : #else // ^^^ defined(_DEBUG) / !defined(_DEBUG) vvv
; 185  :     constexpr uintptr_t _Min_back_shift = sizeof(void*);
; 186  : #endif // ^^^ !defined(_DEBUG) ^^^
; 187  :     const uintptr_t _Back_shift = reinterpret_cast<uintptr_t>(_Ptr) - _Ptr_container;

	sub	rcx, r8

; 188  :     _STL_VERIFY(_Back_shift >= _Min_back_shift && _Back_shift <= _Non_user_size, "invalid argument");

	lea	rax, QWORD PTR [rcx-8]
	cmp	rax, 31
	ja	SHORT $LN112@ServerComm

; 189  :     _Ptr = reinterpret_cast<void*>(_Ptr_container);

	mov	rcx, r8
$LN115@ServerComm:

; 258  :         ::operator delete(_Ptr, _Bytes);

	call	??3@YAXPEAX_K@Z				; operator delete
$LN101@ServerComm:
; File C:\Program Files\Microsoft Visual Studio\2022\Community\VC\Tools\MSVC\14.40.33807\include\xstring

; 4875 :         _My_data._Mysize = 0;

	mov	QWORD PTR [rbx+40], 0

; 4876 :         _My_data._Myres  = _Small_string_capacity;

	mov	QWORD PTR [rbx+48], 15

; 4877 :         // the _Traits::assign is last so the codegen doesn't think the char write can alias this
; 4878 :         _Traits::assign(_My_data._Bx._Buf[0], _Elem());

	mov	BYTE PTR [rbx+24], 0
	add	rsp, 32					; 00000020H
	pop	rbx
	ret	0
$LN112@ServerComm:
; File C:\Program Files\Microsoft Visual Studio\2022\Community\VC\Tools\MSVC\14.40.33807\include\xmemory

; 188  :     _STL_VERIFY(_Back_shift >= _Min_back_shift && _Back_shift <= _Non_user_size, "invalid argument");

	call	_invalid_parameter_noinfo_noreturn
	int	3
$LN131@ServerComm:
??1ServerCommand@@QEAA@XZ ENDP				; ServerCommand::~ServerCommand
_TEXT	ENDS
; Function compile flags: /Ogtpy
; File C:\Program Files\Microsoft Visual Studio\2022\Community\VC\Tools\MSVC\14.40.33807\include\xstring
; File C:\Program Files\Microsoft Visual Studio\2022\Community\VC\Tools\MSVC\14.40.33807\include\xmemory
; File C:\Program Files\Microsoft Visual Studio\2022\Community\VC\Tools\MSVC\14.40.33807\include\xstring
; File C:\Program Files\Microsoft Visual Studio\2022\Community\VC\Tools\MSVC\14.40.33807\include\xmemory
; File C:\Program Files\Microsoft Visual Studio\2022\Community\VC\Tools\MSVC\14.40.33807\include\xstring
; File C:\Program Files\Microsoft Visual Studio\2022\Community\VC\Tools\MSVC\14.40.33807\include\xmemory
;	COMDAT ??1ProcessInformation@@QEAA@XZ
_TEXT	SEGMENT
this$ = 48
??1ProcessInformation@@QEAA@XZ PROC			; ProcessInformation::~ProcessInformation, COMDAT
$LN48:
	push	rbx
	sub	rsp, 32					; 00000020H
; File C:\Program Files\Microsoft Visual Studio\2022\Community\VC\Tools\MSVC\14.40.33807\include\xstring

; 2244 :         return _Myres > _Small_string_capacity;

	mov	rdx, QWORD PTR [rcx+40]
	mov	rbx, rcx
	cmp	rdx, 15

; 4868 :         if (_My_data._Large_mode_engaged()) {

	jbe	SHORT $LN21@ProcessInf
; File C:\Program Files\Microsoft Visual Studio\2022\Community\VC\Tools\MSVC\14.40.33807\include\xmemory

; 950  :         _STD _Deallocate<_New_alignof<_Ty>>(_Ptr, sizeof(_Ty) * _Count);

	mov	rcx, QWORD PTR [rcx+16]
; File C:\Program Files\Microsoft Visual Studio\2022\Community\VC\Tools\MSVC\14.40.33807\include\xstring

; 2643 :         _Al.deallocate(_Old_ptr, _Capacity + 1); // +1 for null terminator

	inc	rdx
; File C:\Program Files\Microsoft Visual Studio\2022\Community\VC\Tools\MSVC\14.40.33807\include\xmemory

; 253  :         if (_Bytes >= _Big_allocation_threshold) {

	cmp	rdx, 4096				; 00001000H
	jb	SHORT $LN35@ProcessInf

; 174  :     const uintptr_t _Ptr_container   = _Ptr_user[-1];

	mov	r8, QWORD PTR [rcx-8]
	add	rdx, 39					; 00000027H

; 175  : 
; 176  :     // If the following asserts, it likely means that we are performing
; 177  :     // an aligned delete on memory coming from an unaligned allocation.
; 178  :     _STL_ASSERT(_Ptr_user[-2] == _Big_allocation_sentinel, "invalid argument");
; 179  : 
; 180  :     // Extra paranoia on aligned allocation/deallocation; ensure _Ptr_container is
; 181  :     // in range [_Min_back_shift, _Non_user_size]
; 182  : #ifdef _DEBUG
; 183  :     constexpr uintptr_t _Min_back_shift = 2 * sizeof(void*);
; 184  : #else // ^^^ defined(_DEBUG) / !defined(_DEBUG) vvv
; 185  :     constexpr uintptr_t _Min_back_shift = sizeof(void*);
; 186  : #endif // ^^^ !defined(_DEBUG) ^^^
; 187  :     const uintptr_t _Back_shift = reinterpret_cast<uintptr_t>(_Ptr) - _Ptr_container;

	sub	rcx, r8

; 188  :     _STL_VERIFY(_Back_shift >= _Min_back_shift && _Back_shift <= _Non_user_size, "invalid argument");

	lea	rax, QWORD PTR [rcx-8]
	cmp	rax, 31
	ja	SHORT $LN32@ProcessInf

; 189  :     _Ptr = reinterpret_cast<void*>(_Ptr_container);

	mov	rcx, r8
$LN35@ProcessInf:

; 258  :         ::operator delete(_Ptr, _Bytes);

	call	??3@YAXPEAX_K@Z				; operator delete
$LN21@ProcessInf:
; File C:\Program Files\Microsoft Visual Studio\2022\Community\VC\Tools\MSVC\14.40.33807\include\xstring

; 4875 :         _My_data._Mysize = 0;

	mov	QWORD PTR [rbx+32], 0

; 4876 :         _My_data._Myres  = _Small_string_capacity;

	mov	QWORD PTR [rbx+40], 15

; 4877 :         // the _Traits::assign is last so the codegen doesn't think the char write can alias this
; 4878 :         _Traits::assign(_My_data._Bx._Buf[0], _Elem());

	mov	BYTE PTR [rbx+16], 0
	add	rsp, 32					; 00000020H
	pop	rbx
	ret	0
$LN32@ProcessInf:
; File C:\Program Files\Microsoft Visual Studio\2022\Community\VC\Tools\MSVC\14.40.33807\include\xmemory

; 188  :     _STL_VERIFY(_Back_shift >= _Min_back_shift && _Back_shift <= _Non_user_size, "invalid argument");

	call	_invalid_parameter_noinfo_noreturn
	int	3
$LN45@ProcessInf:
??1ProcessInformation@@QEAA@XZ ENDP			; ProcessInformation::~ProcessInformation
_TEXT	ENDS
; Function compile flags: /Ogtpy
;	COMDAT ??0ServerCommand@@QEAA@AEBU0@@Z
_TEXT	SEGMENT
this$ = 48
__that$ = 56
??0ServerCommand@@QEAA@AEBU0@@Z PROC			; ServerCommand::ServerCommand, COMDAT
$LN11:
	mov	QWORD PTR [rsp+16], rbx
	mov	QWORD PTR [rsp+8], rcx
	push	rdi
	sub	rsp, 32					; 00000020H
	mov	rbx, rdx
	mov	rdi, rcx
	movzx	eax, BYTE PTR [rdx]
	mov	BYTE PTR [rcx], al
	mov	eax, DWORD PTR [rdx+8]
	mov	DWORD PTR [rcx+8], eax
	mov	eax, DWORD PTR [rdx+12]
	mov	DWORD PTR [rcx+12], eax
	mov	eax, DWORD PTR [rdx+16]
	mov	DWORD PTR [rcx+16], eax
	add	rcx, 24
	add	rdx, 24
	call	??0?$basic_string@DU?$char_traits@D@std@@V?$allocator@D@2@@std@@QEAA@AEBV01@@Z ; std::basic_string<char,std::char_traits<char>,std::allocator<char> >::basic_string<char,std::char_traits<char>,std::allocator<char> >
	npad	1
	lea	rcx, QWORD PTR [rdi+56]
	lea	rdx, QWORD PTR [rbx+56]
	call	??0?$basic_string@DU?$char_traits@D@std@@V?$allocator@D@2@@std@@QEAA@AEBV01@@Z ; std::basic_string<char,std::char_traits<char>,std::allocator<char> >::basic_string<char,std::char_traits<char>,std::allocator<char> >
	npad	1
	lea	rcx, QWORD PTR [rdi+88]
	lea	rdx, QWORD PTR [rbx+88]
	call	??0?$basic_string@DU?$char_traits@D@std@@V?$allocator@D@2@@std@@QEAA@AEBV01@@Z ; std::basic_string<char,std::char_traits<char>,std::allocator<char> >::basic_string<char,std::char_traits<char>,std::allocator<char> >
	mov	eax, DWORD PTR [rbx+120]
	mov	DWORD PTR [rdi+120], eax
	mov	rax, rdi
	mov	rbx, QWORD PTR [rsp+56]
	add	rsp, 32					; 00000020H
	pop	rdi
	ret	0
??0ServerCommand@@QEAA@AEBU0@@Z ENDP			; ServerCommand::ServerCommand
_TEXT	ENDS
; Function compile flags: /Ogtpy
;	COMDAT text$x
text$x	SEGMENT
this$ = 48
__that$ = 56
?dtor$0@?0???0ServerCommand@@QEAA@AEBU0@@Z@4HA PROC	; `ServerCommand::ServerCommand'::`1'::dtor$0
	mov	rcx, QWORD PTR this$[rdx]
	add	rcx, 8
	jmp	??1ProcessInformation@@QEAA@XZ
?dtor$0@?0???0ServerCommand@@QEAA@AEBU0@@Z@4HA ENDP	; `ServerCommand::ServerCommand'::`1'::dtor$0
text$x	ENDS
; Function compile flags: /Ogtpy
;	COMDAT text$x
text$x	SEGMENT
this$ = 48
__that$ = 56
?dtor$1@?0???0ServerCommand@@QEAA@AEBU0@@Z@4HA PROC	; `ServerCommand::ServerCommand'::`1'::dtor$1
	mov	rcx, QWORD PTR this$[rdx]
	add	rcx, 56					; 00000038H
	jmp	??1?$basic_string@DU?$char_traits@D@std@@V?$allocator@D@2@@std@@QEAA@XZ ; std::basic_string<char,std::char_traits<char>,std::allocator<char> >::~basic_string<char,std::char_traits<char>,std::allocator<char> >
?dtor$1@?0???0ServerCommand@@QEAA@AEBU0@@Z@4HA ENDP	; `ServerCommand::ServerCommand'::`1'::dtor$1
text$x	ENDS
; Function compile flags: /Ogtpy
;	COMDAT ??0ProcessInformation@@QEAA@AEBU0@@Z
_TEXT	SEGMENT
this$ = 48
__that$ = 56
??0ProcessInformation@@QEAA@AEBU0@@Z PROC		; ProcessInformation::ProcessInformation, COMDAT
$LN6:
	push	rbx
	sub	rsp, 32					; 00000020H
	mov	eax, DWORD PTR [rdx]
	mov	rbx, rcx
	mov	DWORD PTR [rcx], eax
	mov	eax, DWORD PTR [rdx+4]
	mov	DWORD PTR [rcx+4], eax
	mov	eax, DWORD PTR [rdx+8]
	add	rdx, 16
	mov	DWORD PTR [rcx+8], eax
	add	rcx, 16
	call	??0?$basic_string@DU?$char_traits@D@std@@V?$allocator@D@2@@std@@QEAA@AEBV01@@Z ; std::basic_string<char,std::char_traits<char>,std::allocator<char> >::basic_string<char,std::char_traits<char>,std::allocator<char> >
	mov	rax, rbx
	add	rsp, 32					; 00000020H
	pop	rbx
	ret	0
??0ProcessInformation@@QEAA@AEBU0@@Z ENDP		; ProcessInformation::ProcessInformation
_TEXT	ENDS
; Function compile flags: /Ogtpy
;	COMDAT ??0ClientRequest@@QEAA@AEBU0@@Z
_TEXT	SEGMENT
this$ = 48
__that$ = 56
??0ClientRequest@@QEAA@AEBU0@@Z PROC			; ClientRequest::ClientRequest, COMDAT
$LN6:
	push	rbx
	sub	rsp, 32					; 00000020H
	mov	eax, DWORD PTR [rdx]
	mov	rbx, rcx
	mov	DWORD PTR [rcx], eax
	mov	eax, DWORD PTR [rdx+4]
	mov	DWORD PTR [rcx+4], eax
	mov	rax, QWORD PTR [rdx+8]
	add	rdx, 16
	mov	QWORD PTR [rcx+8], rax
	add	rcx, 16
	call	??0?$basic_string@DU?$char_traits@D@std@@V?$allocator@D@2@@std@@QEAA@AEBV01@@Z ; std::basic_string<char,std::char_traits<char>,std::allocator<char> >::basic_string<char,std::char_traits<char>,std::allocator<char> >
	mov	rax, rbx
	add	rsp, 32					; 00000020H
	pop	rbx
	ret	0
??0ClientRequest@@QEAA@AEBU0@@Z ENDP			; ClientRequest::ClientRequest
_TEXT	ENDS
; Function compile flags: /Ogtpy
; File C:\Users\ethan\source\repos\DLL\DLL\Headers\procutils.h
; File C:\Users\ethan\source\repos\DLL\DLL\Headers\obfuscate.h
; File C:\Users\ethan\source\repos\DLL\DLL\Headers\procutils.h
;	COMDAT ??R<lambda_1>@freqDLLS@ProcessUtilities@@QEBAAEAV?$obfuscated_data@$0N@$0GPFFMNJFHLKDFJAP@D@ay@@XZ
_TEXT	SEGMENT
this$dead$ = 48
??R<lambda_1>@freqDLLS@ProcessUtilities@@QEBAAEAV?$obfuscated_data@$0N@$0GPFFMNJFHLKDFJAP@D@ay@@XZ PROC ; ProcessUtilities::freqDLLS::<lambda_1>::operator(), COMDAT

; 33   : 		static const std::string kernel32 = std::string(HIDE("kernel32.dll"));	

	push	rbx
	sub	rsp, 32					; 00000020H
	mov	rax, QWORD PTR gs:88
	mov	rcx, QWORD PTR [rax]
	mov	edx, OFFSET FLAT:??__J?1???R<lambda_1>@freqDLLS@ProcessUtilities@@QEBAAEAV?$obfuscated_data@$0N@$0GPFFMNJFHLKDFJAP@D@ay@@XZ@51
	mov	eax, DWORD PTR [rdx+rcx]
	mov	r8d, OFFSET FLAT:?obfuscated_data@?1???R<lambda_1>@freqDLLS@ProcessUtilities@@QEBAAEAV?$obfuscated_data@$0N@$0GPFFMNJFHLKDFJAP@D@ay@@XZ@4V45@A
	test	al, 1
	jne	SHORT $LN26@operator
	or	eax, 1
	mov	DWORD PTR [rdx+rcx], eax
	lea	rbx, QWORD PTR [rcx+r8]
; File C:\Users\ethan\source\repos\DLL\DLL\Headers\obfuscate.h

; 123  : 				m_data[i] = obfuscator.data()[i];

	mov	DWORD PTR [rbx+10], 26548175		; 019517cfH
	mov	DWORD PTR [rbx], 366034020		; 15d13c64H
	mov	DWORD PTR [rbx+4], 1567007216		; 5d66a1f0H
	mov	WORD PTR [rbx+8], 15649			; 00003d21H
; File C:\Users\ethan\source\repos\DLL\DLL\Headers\procutils.h

; 33   : 		static const std::string kernel32 = std::string(HIDE("kernel32.dll"));	

	lea	rcx, OFFSET FLAT:??__Fobfuscated_data@?1???R<lambda_1>@freqDLLS@ProcessUtilities@@QEBAAEAV?$obfuscated_data@$0N@$0GPFFMNJFHLKDFJAP@D@ay@@XZ@YAXXZ ; `ProcessUtilities::freqDLLS::<lambda_1>::operator()'::`2'::`dynamic atexit destructor for 'obfuscated_data''
	call	__tlregdtor
	npad	1
	mov	rax, rbx
	add	rsp, 32					; 00000020H
	pop	rbx
	ret	0
$LN26@operator:
	lea	rax, QWORD PTR [rcx+r8]
	add	rsp, 32					; 00000020H
	pop	rbx
	ret	0
??R<lambda_1>@freqDLLS@ProcessUtilities@@QEBAAEAV?$obfuscated_data@$0N@$0GPFFMNJFHLKDFJAP@D@ay@@XZ ENDP ; ProcessUtilities::freqDLLS::<lambda_1>::operator()
_TEXT	ENDS
; Function compile flags: /Ogtpy
;	COMDAT text$x
text$x	SEGMENT
this$dead$ = 48
?dtor$0@?0???R<lambda_1>@freqDLLS@ProcessUtilities@@QEBAAEAV?$obfuscated_data@$0N@$0GPFFMNJFHLKDFJAP@D@ay@@XZ@4HA PROC ; `ProcessUtilities::freqDLLS::<lambda_1>::operator()'::`1'::dtor$0
	push	rbp
	mov	rbp, rdx
	mov	eax, OFFSET FLAT:??__J?1???R<lambda_1>@freqDLLS@ProcessUtilities@@QEBAAEAV?$obfuscated_data@$0N@$0GPFFMNJFHLKDFJAP@D@ay@@XZ@51
	mov	r8, QWORD PTR gs:88
	mov	r8, QWORD PTR [r8]
	add	r8, rax
	mov	r8d, DWORD PTR [r8]
	and	r8d, -2					; fffffffeH
	mov	rdx, QWORD PTR gs:88
	mov	eax, OFFSET FLAT:??__J?1???R<lambda_1>@freqDLLS@ProcessUtilities@@QEBAAEAV?$obfuscated_data@$0N@$0GPFFMNJFHLKDFJAP@D@ay@@XZ@51
	mov	ecx, eax
	mov	rax, QWORD PTR [rdx]
	add	rax, rcx
	mov	DWORD PTR [rax], r8d
	pop	rbp
	ret	0
?dtor$0@?0???R<lambda_1>@freqDLLS@ProcessUtilities@@QEBAAEAV?$obfuscated_data@$0N@$0GPFFMNJFHLKDFJAP@D@ay@@XZ@4HA ENDP ; `ProcessUtilities::freqDLLS::<lambda_1>::operator()'::`1'::dtor$0
text$x	ENDS
; Function compile flags: /Ogtpy
; File C:\Users\ethan\source\repos\DLL\DLL\Headers\procutils.h
; File C:\Users\ethan\source\repos\DLL\DLL\Headers\obfuscate.h
; File C:\Users\ethan\source\repos\DLL\DLL\Headers\procutils.h
; File C:\Users\ethan\source\repos\DLL\DLL\Headers\obfuscate.h
; File C:\Program Files\Microsoft Visual Studio\2022\Community\VC\Tools\MSVC\14.40.33807\include\xstring
; File C:\Users\ethan\source\repos\DLL\DLL\Headers\procutils.h
;	COMDAT ??__Ekernel32@freqDLLS@ProcessUtilities@@YAXXZ
text$di	SEGMENT
??__Ekernel32@freqDLLS@ProcessUtilities@@YAXXZ PROC	; ProcessUtilities::freqDLLS::`dynamic initializer for 'kernel32'', COMDAT

; 33   : 		static const std::string kernel32 = std::string(HIDE("kernel32.dll"));	

	push	rbx
	sub	rsp, 32					; 00000020H
	mov	rax, QWORD PTR gs:88
	mov	rcx, QWORD PTR [rax]
	mov	edx, OFFSET FLAT:??__J?1???R<lambda_1>@freqDLLS@ProcessUtilities@@QEBAAEAV?$obfuscated_data@$0N@$0GPFFMNJFHLKDFJAP@D@ay@@XZ@51
	mov	eax, DWORD PTR [rdx+rcx]
	mov	r8d, OFFSET FLAT:?obfuscated_data@?1???R<lambda_1>@freqDLLS@ProcessUtilities@@QEBAAEAV?$obfuscated_data@$0N@$0GPFFMNJFHLKDFJAP@D@ay@@XZ@4V45@A
	test	al, 1
	jne	SHORT $LN51@dynamic
	or	eax, 1
	mov	DWORD PTR [rdx+rcx], eax
	lea	rbx, QWORD PTR [rcx+r8]
; File C:\Users\ethan\source\repos\DLL\DLL\Headers\obfuscate.h

; 123  : 				m_data[i] = obfuscator.data()[i];

	mov	DWORD PTR [rbx+10], 26548175		; 019517cfH
	mov	DWORD PTR [rbx], 366034020		; 15d13c64H
	mov	DWORD PTR [rbx+4], 1567007216		; 5d66a1f0H
	mov	WORD PTR [rbx+8], 15649			; 00003d21H
; File C:\Users\ethan\source\repos\DLL\DLL\Headers\procutils.h

; 33   : 		static const std::string kernel32 = std::string(HIDE("kernel32.dll"));	

	lea	rcx, OFFSET FLAT:??__Fobfuscated_data@?1???R<lambda_1>@freqDLLS@ProcessUtilities@@QEBAAEAV?$obfuscated_data@$0N@$0GPFFMNJFHLKDFJAP@D@ay@@XZ@YAXXZ ; `ProcessUtilities::freqDLLS::<lambda_1>::operator()'::`2'::`dynamic atexit destructor for 'obfuscated_data''
	call	__tlregdtor
	npad	1
	jmp	SHORT $LN4@dynamic
$LN51@dynamic:
	lea	rbx, QWORD PTR [r8+rcx]
$LN4@dynamic:
; File C:\Users\ethan\source\repos\DLL\DLL\Headers\obfuscate.h

; 147  : 			if ( m_encrypted )

	cmp	BYTE PTR [rbx+13], 0
	je	SHORT $LN15@dynamic

; 148  : 			{
; 149  : 				cipher(m_data, N, KEY);

	mov	edx, 13
	mov	r8, 8022544353138530575			; 6f55cd957ba3590fH
	mov	rcx, rbx
	call	??$cipher@D@ay@@YAXPEAD_K1@Z		; ay::cipher<char>

; 150  : 				m_encrypted = false;

	mov	BYTE PTR [rbx+13], 0
$LN15@dynamic:
	xorps	xmm0, xmm0
; File C:\Program Files\Microsoft Visual Studio\2022\Community\VC\Tools\MSVC\14.40.33807\include\xstring

; 2284 :         _CONSTEXPR20 _Bxty() noexcept : _Buf() {} // user-provided, for fancy pointers

	movups	XMMWORD PTR ?kernel32@freqDLLS@ProcessUtilities@@3V?$basic_string@DU?$char_traits@D@std@@V?$allocator@D@2@@std@@B, xmm0
	xorps	xmm1, xmm1

; 2308 :     size_type _Mysize = 0; // current length of string (size)

	movdqu	XMMWORD PTR ?kernel32@freqDLLS@ProcessUtilities@@3V?$basic_string@DU?$char_traits@D@std@@V?$allocator@D@2@@std@@B+16, xmm1

; 398  :             return __builtin_strlen(_First);

	mov	r8, -1
	npad	8
$LL52@dynamic:
	inc	r8
	cmp	BYTE PTR [rbx+r8], 0
	jne	SHORT $LL52@dynamic

; 2560 :         _Construct<_Construct_strategy::_From_ptr>(_Ptr, _Convert_size<size_type>(_Traits::length(_Ptr)));

	mov	rdx, rbx
	lea	rcx, OFFSET FLAT:?kernel32@freqDLLS@ProcessUtilities@@3V?$basic_string@DU?$char_traits@D@std@@V?$allocator@D@2@@std@@B
	call	??$_Construct@$00PEBD@?$basic_string@DU?$char_traits@D@std@@V?$allocator@D@2@@std@@AEAAXQEBD_K@Z ; std::basic_string<char,std::char_traits<char>,std::allocator<char> >::_Construct<1,char const *>
; File C:\Users\ethan\source\repos\DLL\DLL\Headers\procutils.h

; 33   : 		static const std::string kernel32 = std::string(HIDE("kernel32.dll"));	

	lea	rcx, OFFSET FLAT:??__Fkernel32@freqDLLS@ProcessUtilities@@YAXXZ ; ProcessUtilities::freqDLLS::`dynamic atexit destructor for 'kernel32''
	add	rsp, 32					; 00000020H
	pop	rbx
	jmp	atexit
??__Ekernel32@freqDLLS@ProcessUtilities@@YAXXZ ENDP	; ProcessUtilities::freqDLLS::`dynamic initializer for 'kernel32''
text$di	ENDS
; Function compile flags: /Ogtpy
;	COMDAT text$x
text$x	SEGMENT
?dtor$0@?0???__Ekernel32@freqDLLS@ProcessUtilities@@YAXXZ@4HA PROC ; `ProcessUtilities::freqDLLS::`dynamic initializer for 'kernel32'''::`1'::dtor$0
	push	rbp
	mov	rbp, rdx
	mov	eax, OFFSET FLAT:??__J?1???R<lambda_1>@freqDLLS@ProcessUtilities@@QEBAAEAV?$obfuscated_data@$0N@$0GPFFMNJFHLKDFJAP@D@ay@@XZ@51
	mov	r8, QWORD PTR gs:88
	mov	r8, QWORD PTR [r8]
	add	r8, rax
	mov	r8d, DWORD PTR [r8]
	and	r8d, -2					; fffffffeH
	mov	rdx, QWORD PTR gs:88
	mov	eax, OFFSET FLAT:??__J?1???R<lambda_1>@freqDLLS@ProcessUtilities@@QEBAAEAV?$obfuscated_data@$0N@$0GPFFMNJFHLKDFJAP@D@ay@@XZ@51
	mov	ecx, eax
	mov	rax, QWORD PTR [rdx]
	add	rax, rcx
	mov	DWORD PTR [rax], r8d
	pop	rbp
	ret	0
?dtor$0@?0???__Ekernel32@freqDLLS@ProcessUtilities@@YAXXZ@4HA ENDP ; `ProcessUtilities::freqDLLS::`dynamic initializer for 'kernel32'''::`1'::dtor$0
text$x	ENDS
; Function compile flags: /Ogtpy
; File C:\Program Files\Microsoft Visual Studio\2022\Community\VC\Tools\MSVC\14.40.33807\include\xstring
; File C:\Program Files\Microsoft Visual Studio\2022\Community\VC\Tools\MSVC\14.40.33807\include\xmemory
; File C:\Program Files\Microsoft Visual Studio\2022\Community\VC\Tools\MSVC\14.40.33807\include\xstring
; File C:\Program Files\Microsoft Visual Studio\2022\Community\VC\Tools\MSVC\14.40.33807\include\xmemory
; File C:\Program Files\Microsoft Visual Studio\2022\Community\VC\Tools\MSVC\14.40.33807\include\xstring
; File C:\Program Files\Microsoft Visual Studio\2022\Community\VC\Tools\MSVC\14.40.33807\include\xmemory
;	COMDAT ??__Fkernel32@freqDLLS@ProcessUtilities@@YAXXZ
text$yd	SEGMENT
??__Fkernel32@freqDLLS@ProcessUtilities@@YAXXZ PROC	; ProcessUtilities::freqDLLS::`dynamic atexit destructor for 'kernel32'', COMDAT
	sub	rsp, 40					; 00000028H
; File C:\Program Files\Microsoft Visual Studio\2022\Community\VC\Tools\MSVC\14.40.33807\include\xstring

; 2244 :         return _Myres > _Small_string_capacity;

	mov	rdx, QWORD PTR ?kernel32@freqDLLS@ProcessUtilities@@3V?$basic_string@DU?$char_traits@D@std@@V?$allocator@D@2@@std@@B+24
	cmp	rdx, 15

; 4868 :         if (_My_data._Large_mode_engaged()) {

	jbe	SHORT $LN20@dynamic
; File C:\Program Files\Microsoft Visual Studio\2022\Community\VC\Tools\MSVC\14.40.33807\include\xmemory

; 950  :         _STD _Deallocate<_New_alignof<_Ty>>(_Ptr, sizeof(_Ty) * _Count);

	mov	rcx, QWORD PTR ?kernel32@freqDLLS@ProcessUtilities@@3V?$basic_string@DU?$char_traits@D@std@@V?$allocator@D@2@@std@@B
; File C:\Program Files\Microsoft Visual Studio\2022\Community\VC\Tools\MSVC\14.40.33807\include\xstring

; 2643 :         _Al.deallocate(_Old_ptr, _Capacity + 1); // +1 for null terminator

	inc	rdx
; File C:\Program Files\Microsoft Visual Studio\2022\Community\VC\Tools\MSVC\14.40.33807\include\xmemory

; 950  :         _STD _Deallocate<_New_alignof<_Ty>>(_Ptr, sizeof(_Ty) * _Count);

	mov	rax, rcx

; 253  :         if (_Bytes >= _Big_allocation_threshold) {

	cmp	rdx, 4096				; 00001000H
	jb	SHORT $LN34@dynamic

; 174  :     const uintptr_t _Ptr_container   = _Ptr_user[-1];

	mov	rcx, QWORD PTR [rcx-8]
	add	rdx, 39					; 00000027H
	sub	rax, rcx

; 188  :     _STL_VERIFY(_Back_shift >= _Min_back_shift && _Back_shift <= _Non_user_size, "invalid argument");

	add	rax, -8
	cmp	rax, 31
	ja	SHORT $LN43@dynamic
$LN34@dynamic:

; 258  :         ::operator delete(_Ptr, _Bytes);

	call	??3@YAXPEAX_K@Z				; operator delete
$LN20@dynamic:
; File C:\Program Files\Microsoft Visual Studio\2022\Community\VC\Tools\MSVC\14.40.33807\include\xstring

; 4875 :         _My_data._Mysize = 0;

	movdqa	xmm0, XMMWORD PTR __xmm@000000000000000f0000000000000000
	movdqu	XMMWORD PTR ?kernel32@freqDLLS@ProcessUtilities@@3V?$basic_string@DU?$char_traits@D@std@@V?$allocator@D@2@@std@@B+16, xmm0

; 4876 :         _My_data._Myres  = _Small_string_capacity;
; 4877 :         // the _Traits::assign is last so the codegen doesn't think the char write can alias this
; 4878 :         _Traits::assign(_My_data._Bx._Buf[0], _Elem());

	mov	BYTE PTR ?kernel32@freqDLLS@ProcessUtilities@@3V?$basic_string@DU?$char_traits@D@std@@V?$allocator@D@2@@std@@B, 0
	add	rsp, 40					; 00000028H
	ret	0
$LN43@dynamic:
; File C:\Program Files\Microsoft Visual Studio\2022\Community\VC\Tools\MSVC\14.40.33807\include\xmemory

; 188  :     _STL_VERIFY(_Back_shift >= _Min_back_shift && _Back_shift <= _Non_user_size, "invalid argument");

	call	_invalid_parameter_noinfo_noreturn
	int	3
$LN41@dynamic:
??__Fkernel32@freqDLLS@ProcessUtilities@@YAXXZ ENDP	; ProcessUtilities::freqDLLS::`dynamic atexit destructor for 'kernel32''
text$yd	ENDS
; Function compile flags: /Ogtpy
; File C:\Users\ethan\source\repos\DLL\DLL\Headers\obfuscate.h
;	COMDAT ??__Fobfuscated_data@?1???R<lambda_1>@freqDLLS@ProcessUtilities@@QEBAAEAV?$obfuscated_data@$0N@$0GPFFMNJFHLKDFJAP@D@ay@@XZ@YAXXZ
text$yd	SEGMENT
??__Fobfuscated_data@?1???R<lambda_1>@freqDLLS@ProcessUtilities@@QEBAAEAV?$obfuscated_data@$0N@$0GPFFMNJFHLKDFJAP@D@ay@@XZ@YAXXZ PROC ; `ProcessUtilities::freqDLLS::<lambda_1>::operator()'::`2'::`dynamic atexit destructor for 'obfuscated_data'', COMDAT
	mov	rax, QWORD PTR gs:88
	mov	ecx, OFFSET FLAT:?obfuscated_data@?1???R<lambda_1>@freqDLLS@ProcessUtilities@@QEBAAEAV?$obfuscated_data@$0N@$0GPFFMNJFHLKDFJAP@D@ay@@XZ@4V45@A
	add	rcx, QWORD PTR [rax]

; 130  : 			for ( size_type i = 0; i < N; i++ )

	xor	eax, eax
	mov	QWORD PTR [rcx], rax
	mov	DWORD PTR [rcx+8], eax
	mov	BYTE PTR [rcx+12], al
	ret	0
??__Fobfuscated_data@?1???R<lambda_1>@freqDLLS@ProcessUtilities@@QEBAAEAV?$obfuscated_data@$0N@$0GPFFMNJFHLKDFJAP@D@ay@@XZ@YAXXZ ENDP ; `ProcessUtilities::freqDLLS::<lambda_1>::operator()'::`2'::`dynamic atexit destructor for 'obfuscated_data''
text$yd	ENDS
; Function compile flags: /Ogtpy
; File C:\Users\ethan\source\repos\DLL\DLL\Headers\procutils.h
; File C:\Users\ethan\source\repos\DLL\DLL\Headers\obfuscate.h
; File C:\Users\ethan\source\repos\DLL\DLL\Headers\procutils.h
;	COMDAT ??R<lambda_2>@freqDLLS@ProcessUtilities@@QEBAAEAV?$obfuscated_data@$09$0?BMGONCACNKPGIEIF@D@ay@@XZ
_TEXT	SEGMENT
this$dead$ = 48
??R<lambda_2>@freqDLLS@ProcessUtilities@@QEBAAEAV?$obfuscated_data@$09$0?BMGONCACNKPGIEIF@D@ay@@XZ PROC ; ProcessUtilities::freqDLLS::<lambda_2>::operator(), COMDAT

; 34   : 		static const std::string ntdll    = std::string(HIDE("ntdll.dll"));

	push	rbx
	sub	rsp, 32					; 00000020H
	mov	rax, QWORD PTR gs:88
	mov	rcx, QWORD PTR [rax]
	mov	edx, OFFSET FLAT:??__J?1???R<lambda_2>@freqDLLS@ProcessUtilities@@QEBAAEAV?$obfuscated_data@$09$0?BMGONCACNKPGIEIF@D@ay@@XZ@51
	mov	eax, DWORD PTR [rdx+rcx]
	mov	r8d, OFFSET FLAT:?obfuscated_data@?1???R<lambda_2>@freqDLLS@ProcessUtilities@@QEBAAEAV?$obfuscated_data@$09$0?BMGONCACNKPGIEIF@D@ay@@XZ@4V45@A
	test	al, 1
	jne	SHORT $LN21@operator
	or	eax, 1
	mov	DWORD PTR [rdx+rcx], eax
	lea	rbx, QWORD PTR [rcx+r8]
; File C:\Users\ethan\source\repos\DLL\DLL\Headers\obfuscate.h

; 123  : 				m_data[i] = obfuscator.data()[i];

	mov	WORD PTR [rbx+9], 379			; 0000017bH
	mov	DWORD PTR [rbx], 1231884053		; 496d0f15H
	mov	DWORD PTR [rbx+4], -1879768175		; 8ff50391H
	mov	BYTE PTR [rbx+8], 23
; File C:\Users\ethan\source\repos\DLL\DLL\Headers\procutils.h

; 34   : 		static const std::string ntdll    = std::string(HIDE("ntdll.dll"));

	lea	rcx, OFFSET FLAT:??__Fobfuscated_data@?1???R<lambda_2>@freqDLLS@ProcessUtilities@@QEBAAEAV?$obfuscated_data@$09$0?BMGONCACNKPGIEIF@D@ay@@XZ@YAXXZ ; `ProcessUtilities::freqDLLS::<lambda_2>::operator()'::`2'::`dynamic atexit destructor for 'obfuscated_data''
	call	__tlregdtor
	npad	1
	mov	rax, rbx
	add	rsp, 32					; 00000020H
	pop	rbx
	ret	0
$LN21@operator:
	lea	rax, QWORD PTR [rcx+r8]
	add	rsp, 32					; 00000020H
	pop	rbx
	ret	0
??R<lambda_2>@freqDLLS@ProcessUtilities@@QEBAAEAV?$obfuscated_data@$09$0?BMGONCACNKPGIEIF@D@ay@@XZ ENDP ; ProcessUtilities::freqDLLS::<lambda_2>::operator()
_TEXT	ENDS
; Function compile flags: /Ogtpy
;	COMDAT text$x
text$x	SEGMENT
this$dead$ = 48
?dtor$0@?0???R<lambda_2>@freqDLLS@ProcessUtilities@@QEBAAEAV?$obfuscated_data@$09$0?BMGONCACNKPGIEIF@D@ay@@XZ@4HA PROC ; `ProcessUtilities::freqDLLS::<lambda_2>::operator()'::`1'::dtor$0
	push	rbp
	mov	rbp, rdx
	mov	eax, OFFSET FLAT:??__J?1???R<lambda_2>@freqDLLS@ProcessUtilities@@QEBAAEAV?$obfuscated_data@$09$0?BMGONCACNKPGIEIF@D@ay@@XZ@51
	mov	r8, QWORD PTR gs:88
	mov	r8, QWORD PTR [r8]
	add	r8, rax
	mov	r8d, DWORD PTR [r8]
	and	r8d, -2					; fffffffeH
	mov	rdx, QWORD PTR gs:88
	mov	eax, OFFSET FLAT:??__J?1???R<lambda_2>@freqDLLS@ProcessUtilities@@QEBAAEAV?$obfuscated_data@$09$0?BMGONCACNKPGIEIF@D@ay@@XZ@51
	mov	ecx, eax
	mov	rax, QWORD PTR [rdx]
	add	rax, rcx
	mov	DWORD PTR [rax], r8d
	pop	rbp
	ret	0
?dtor$0@?0???R<lambda_2>@freqDLLS@ProcessUtilities@@QEBAAEAV?$obfuscated_data@$09$0?BMGONCACNKPGIEIF@D@ay@@XZ@4HA ENDP ; `ProcessUtilities::freqDLLS::<lambda_2>::operator()'::`1'::dtor$0
text$x	ENDS
; Function compile flags: /Ogtpy
; File C:\Users\ethan\source\repos\DLL\DLL\Headers\procutils.h
; File C:\Users\ethan\source\repos\DLL\DLL\Headers\obfuscate.h
; File C:\Users\ethan\source\repos\DLL\DLL\Headers\procutils.h
; File C:\Users\ethan\source\repos\DLL\DLL\Headers\obfuscate.h
; File C:\Program Files\Microsoft Visual Studio\2022\Community\VC\Tools\MSVC\14.40.33807\include\xstring
; File C:\Users\ethan\source\repos\DLL\DLL\Headers\procutils.h
;	COMDAT ??__Entdll@freqDLLS@ProcessUtilities@@YAXXZ
text$di	SEGMENT
??__Entdll@freqDLLS@ProcessUtilities@@YAXXZ PROC	; ProcessUtilities::freqDLLS::`dynamic initializer for 'ntdll'', COMDAT

; 34   : 		static const std::string ntdll    = std::string(HIDE("ntdll.dll"));

	push	rbx
	sub	rsp, 32					; 00000020H
	mov	rax, QWORD PTR gs:88
	mov	rcx, QWORD PTR [rax]
	mov	edx, OFFSET FLAT:??__J?1???R<lambda_2>@freqDLLS@ProcessUtilities@@QEBAAEAV?$obfuscated_data@$09$0?BMGONCACNKPGIEIF@D@ay@@XZ@51
	mov	eax, DWORD PTR [rdx+rcx]
	mov	r8d, OFFSET FLAT:?obfuscated_data@?1???R<lambda_2>@freqDLLS@ProcessUtilities@@QEBAAEAV?$obfuscated_data@$09$0?BMGONCACNKPGIEIF@D@ay@@XZ@4V45@A
	test	al, 1
	jne	SHORT $LN46@dynamic
	or	eax, 1
	mov	DWORD PTR [rdx+rcx], eax
	lea	rbx, QWORD PTR [rcx+r8]
; File C:\Users\ethan\source\repos\DLL\DLL\Headers\obfuscate.h

; 123  : 				m_data[i] = obfuscator.data()[i];

	mov	WORD PTR [rbx+9], 379			; 0000017bH
	mov	DWORD PTR [rbx], 1231884053		; 496d0f15H
	mov	DWORD PTR [rbx+4], -1879768175		; 8ff50391H
	mov	BYTE PTR [rbx+8], 23
; File C:\Users\ethan\source\repos\DLL\DLL\Headers\procutils.h

; 34   : 		static const std::string ntdll    = std::string(HIDE("ntdll.dll"));

	lea	rcx, OFFSET FLAT:??__Fobfuscated_data@?1???R<lambda_2>@freqDLLS@ProcessUtilities@@QEBAAEAV?$obfuscated_data@$09$0?BMGONCACNKPGIEIF@D@ay@@XZ@YAXXZ ; `ProcessUtilities::freqDLLS::<lambda_2>::operator()'::`2'::`dynamic atexit destructor for 'obfuscated_data''
	call	__tlregdtor
	npad	1
	jmp	SHORT $LN4@dynamic
$LN46@dynamic:
	lea	rbx, QWORD PTR [r8+rcx]
$LN4@dynamic:
; File C:\Users\ethan\source\repos\DLL\DLL\Headers\obfuscate.h

; 147  : 			if ( m_encrypted )

	cmp	BYTE PTR [rbx+10], 0
	je	SHORT $LN15@dynamic

; 148  : 			{
; 149  : 				cipher(m_data, N, KEY);

	mov	edx, 10
	mov	r8, -2048805790205510789		; e3912dfd25097b7bH
	mov	rcx, rbx
	call	??$cipher@D@ay@@YAXPEAD_K1@Z		; ay::cipher<char>

; 150  : 				m_encrypted = false;

	mov	BYTE PTR [rbx+10], 0
$LN15@dynamic:
	xorps	xmm0, xmm0
; File C:\Program Files\Microsoft Visual Studio\2022\Community\VC\Tools\MSVC\14.40.33807\include\xstring

; 2284 :         _CONSTEXPR20 _Bxty() noexcept : _Buf() {} // user-provided, for fancy pointers

	movups	XMMWORD PTR ?ntdll@freqDLLS@ProcessUtilities@@3V?$basic_string@DU?$char_traits@D@std@@V?$allocator@D@2@@std@@B, xmm0
	xorps	xmm1, xmm1

; 2308 :     size_type _Mysize = 0; // current length of string (size)

	movdqu	XMMWORD PTR ?ntdll@freqDLLS@ProcessUtilities@@3V?$basic_string@DU?$char_traits@D@std@@V?$allocator@D@2@@std@@B+16, xmm1

; 398  :             return __builtin_strlen(_First);

	mov	r8, -1
$LL47@dynamic:
	inc	r8
	cmp	BYTE PTR [rbx+r8], 0
	jne	SHORT $LL47@dynamic

; 2560 :         _Construct<_Construct_strategy::_From_ptr>(_Ptr, _Convert_size<size_type>(_Traits::length(_Ptr)));

	mov	rdx, rbx
	lea	rcx, OFFSET FLAT:?ntdll@freqDLLS@ProcessUtilities@@3V?$basic_string@DU?$char_traits@D@std@@V?$allocator@D@2@@std@@B
	call	??$_Construct@$00PEBD@?$basic_string@DU?$char_traits@D@std@@V?$allocator@D@2@@std@@AEAAXQEBD_K@Z ; std::basic_string<char,std::char_traits<char>,std::allocator<char> >::_Construct<1,char const *>
; File C:\Users\ethan\source\repos\DLL\DLL\Headers\procutils.h

; 34   : 		static const std::string ntdll    = std::string(HIDE("ntdll.dll"));

	lea	rcx, OFFSET FLAT:??__Fntdll@freqDLLS@ProcessUtilities@@YAXXZ ; ProcessUtilities::freqDLLS::`dynamic atexit destructor for 'ntdll''
	add	rsp, 32					; 00000020H
	pop	rbx
	jmp	atexit
??__Entdll@freqDLLS@ProcessUtilities@@YAXXZ ENDP	; ProcessUtilities::freqDLLS::`dynamic initializer for 'ntdll''
text$di	ENDS
; Function compile flags: /Ogtpy
;	COMDAT text$x
text$x	SEGMENT
?dtor$0@?0???__Entdll@freqDLLS@ProcessUtilities@@YAXXZ@4HA PROC ; `ProcessUtilities::freqDLLS::`dynamic initializer for 'ntdll'''::`1'::dtor$0
	push	rbp
	mov	rbp, rdx
	mov	eax, OFFSET FLAT:??__J?1???R<lambda_2>@freqDLLS@ProcessUtilities@@QEBAAEAV?$obfuscated_data@$09$0?BMGONCACNKPGIEIF@D@ay@@XZ@51
	mov	r8, QWORD PTR gs:88
	mov	r8, QWORD PTR [r8]
	add	r8, rax
	mov	r8d, DWORD PTR [r8]
	and	r8d, -2					; fffffffeH
	mov	rdx, QWORD PTR gs:88
	mov	eax, OFFSET FLAT:??__J?1???R<lambda_2>@freqDLLS@ProcessUtilities@@QEBAAEAV?$obfuscated_data@$09$0?BMGONCACNKPGIEIF@D@ay@@XZ@51
	mov	ecx, eax
	mov	rax, QWORD PTR [rdx]
	add	rax, rcx
	mov	DWORD PTR [rax], r8d
	pop	rbp
	ret	0
?dtor$0@?0???__Entdll@freqDLLS@ProcessUtilities@@YAXXZ@4HA ENDP ; `ProcessUtilities::freqDLLS::`dynamic initializer for 'ntdll'''::`1'::dtor$0
text$x	ENDS
; Function compile flags: /Ogtpy
; File C:\Program Files\Microsoft Visual Studio\2022\Community\VC\Tools\MSVC\14.40.33807\include\xstring
; File C:\Program Files\Microsoft Visual Studio\2022\Community\VC\Tools\MSVC\14.40.33807\include\xmemory
; File C:\Program Files\Microsoft Visual Studio\2022\Community\VC\Tools\MSVC\14.40.33807\include\xstring
; File C:\Program Files\Microsoft Visual Studio\2022\Community\VC\Tools\MSVC\14.40.33807\include\xmemory
; File C:\Program Files\Microsoft Visual Studio\2022\Community\VC\Tools\MSVC\14.40.33807\include\xstring
; File C:\Program Files\Microsoft Visual Studio\2022\Community\VC\Tools\MSVC\14.40.33807\include\xmemory
;	COMDAT ??__Fntdll@freqDLLS@ProcessUtilities@@YAXXZ
text$yd	SEGMENT
??__Fntdll@freqDLLS@ProcessUtilities@@YAXXZ PROC	; ProcessUtilities::freqDLLS::`dynamic atexit destructor for 'ntdll'', COMDAT
	sub	rsp, 40					; 00000028H
; File C:\Program Files\Microsoft Visual Studio\2022\Community\VC\Tools\MSVC\14.40.33807\include\xstring

; 2244 :         return _Myres > _Small_string_capacity;

	mov	rdx, QWORD PTR ?ntdll@freqDLLS@ProcessUtilities@@3V?$basic_string@DU?$char_traits@D@std@@V?$allocator@D@2@@std@@B+24
	cmp	rdx, 15

; 4868 :         if (_My_data._Large_mode_engaged()) {

	jbe	SHORT $LN20@dynamic
; File C:\Program Files\Microsoft Visual Studio\2022\Community\VC\Tools\MSVC\14.40.33807\include\xmemory

; 950  :         _STD _Deallocate<_New_alignof<_Ty>>(_Ptr, sizeof(_Ty) * _Count);

	mov	rcx, QWORD PTR ?ntdll@freqDLLS@ProcessUtilities@@3V?$basic_string@DU?$char_traits@D@std@@V?$allocator@D@2@@std@@B
; File C:\Program Files\Microsoft Visual Studio\2022\Community\VC\Tools\MSVC\14.40.33807\include\xstring

; 2643 :         _Al.deallocate(_Old_ptr, _Capacity + 1); // +1 for null terminator

	inc	rdx
; File C:\Program Files\Microsoft Visual Studio\2022\Community\VC\Tools\MSVC\14.40.33807\include\xmemory

; 950  :         _STD _Deallocate<_New_alignof<_Ty>>(_Ptr, sizeof(_Ty) * _Count);

	mov	rax, rcx

; 253  :         if (_Bytes >= _Big_allocation_threshold) {

	cmp	rdx, 4096				; 00001000H
	jb	SHORT $LN34@dynamic

; 174  :     const uintptr_t _Ptr_container   = _Ptr_user[-1];

	mov	rcx, QWORD PTR [rcx-8]
	add	rdx, 39					; 00000027H
	sub	rax, rcx

; 188  :     _STL_VERIFY(_Back_shift >= _Min_back_shift && _Back_shift <= _Non_user_size, "invalid argument");

	add	rax, -8
	cmp	rax, 31
	ja	SHORT $LN43@dynamic
$LN34@dynamic:

; 258  :         ::operator delete(_Ptr, _Bytes);

	call	??3@YAXPEAX_K@Z				; operator delete
$LN20@dynamic:
; File C:\Program Files\Microsoft Visual Studio\2022\Community\VC\Tools\MSVC\14.40.33807\include\xstring

; 4875 :         _My_data._Mysize = 0;

	movdqa	xmm0, XMMWORD PTR __xmm@000000000000000f0000000000000000
	movdqu	XMMWORD PTR ?ntdll@freqDLLS@ProcessUtilities@@3V?$basic_string@DU?$char_traits@D@std@@V?$allocator@D@2@@std@@B+16, xmm0

; 4876 :         _My_data._Myres  = _Small_string_capacity;
; 4877 :         // the _Traits::assign is last so the codegen doesn't think the char write can alias this
; 4878 :         _Traits::assign(_My_data._Bx._Buf[0], _Elem());

	mov	BYTE PTR ?ntdll@freqDLLS@ProcessUtilities@@3V?$basic_string@DU?$char_traits@D@std@@V?$allocator@D@2@@std@@B, 0
	add	rsp, 40					; 00000028H
	ret	0
$LN43@dynamic:
; File C:\Program Files\Microsoft Visual Studio\2022\Community\VC\Tools\MSVC\14.40.33807\include\xmemory

; 188  :     _STL_VERIFY(_Back_shift >= _Min_back_shift && _Back_shift <= _Non_user_size, "invalid argument");

	call	_invalid_parameter_noinfo_noreturn
	int	3
$LN41@dynamic:
??__Fntdll@freqDLLS@ProcessUtilities@@YAXXZ ENDP	; ProcessUtilities::freqDLLS::`dynamic atexit destructor for 'ntdll''
text$yd	ENDS
; Function compile flags: /Ogtpy
; File C:\Users\ethan\source\repos\DLL\DLL\Headers\obfuscate.h
;	COMDAT ??__Fobfuscated_data@?1???R<lambda_2>@freqDLLS@ProcessUtilities@@QEBAAEAV?$obfuscated_data@$09$0?BMGONCACNKPGIEIF@D@ay@@XZ@YAXXZ
text$yd	SEGMENT
??__Fobfuscated_data@?1???R<lambda_2>@freqDLLS@ProcessUtilities@@QEBAAEAV?$obfuscated_data@$09$0?BMGONCACNKPGIEIF@D@ay@@XZ@YAXXZ PROC ; `ProcessUtilities::freqDLLS::<lambda_2>::operator()'::`2'::`dynamic atexit destructor for 'obfuscated_data'', COMDAT
	mov	rax, QWORD PTR gs:88
	mov	edx, OFFSET FLAT:?obfuscated_data@?1???R<lambda_2>@freqDLLS@ProcessUtilities@@QEBAAEAV?$obfuscated_data@$09$0?BMGONCACNKPGIEIF@D@ay@@XZ@4V45@A
	mov	rcx, QWORD PTR [rax]

; 132  : 				m_data[i] = 0;

	mov	QWORD PTR [rdx+rcx], 0
	mov	WORD PTR [rdx+rcx+8], 0
	ret	0
??__Fobfuscated_data@?1???R<lambda_2>@freqDLLS@ProcessUtilities@@QEBAAEAV?$obfuscated_data@$09$0?BMGONCACNKPGIEIF@D@ay@@XZ@YAXXZ ENDP ; `ProcessUtilities::freqDLLS::<lambda_2>::operator()'::`2'::`dynamic atexit destructor for 'obfuscated_data''
text$yd	ENDS
; Function compile flags: /Ogtpy
; File C:\Users\ethan\source\repos\DLL\DLL\Headers\procutils.h
; File C:\Users\ethan\source\repos\DLL\DLL\Headers\obfuscate.h
; File C:\Users\ethan\source\repos\DLL\DLL\Headers\procutils.h
;	COMDAT ??R<lambda_3>@freqDLLS@ProcessUtilities@@QEBAAEAV?$obfuscated_data@$0N@$0FHPLCBONHLGFABKJ@D@ay@@XZ
_TEXT	SEGMENT
this$dead$ = 48
??R<lambda_3>@freqDLLS@ProcessUtilities@@QEBAAEAV?$obfuscated_data@$0N@$0FHPLCBONHLGFABKJ@D@ay@@XZ PROC ; ProcessUtilities::freqDLLS::<lambda_3>::operator(), COMDAT

; 35   : 		static const std::string advapi32 = std::string(HIDE("advapi32.dll"));

	push	rbx
	sub	rsp, 32					; 00000020H
	mov	rax, QWORD PTR gs:88
	mov	rcx, QWORD PTR [rax]
	mov	edx, OFFSET FLAT:??__J?1???R<lambda_3>@freqDLLS@ProcessUtilities@@QEBAAEAV?$obfuscated_data@$0N@$0FHPLCBONHLGFABKJ@D@ay@@XZ@51
	mov	eax, DWORD PTR [rdx+rcx]
	mov	r8d, OFFSET FLAT:?obfuscated_data@?1???R<lambda_3>@freqDLLS@ProcessUtilities@@QEBAAEAV?$obfuscated_data@$0N@$0FHPLCBONHLGFABKJ@D@ay@@XZ@4V45@A
	test	al, 1
	jne	SHORT $LN26@operator
	or	eax, 1
	mov	DWORD PTR [rdx+rcx], eax
	lea	rbx, QWORD PTR [rcx+r8]
; File C:\Users\ethan\source\repos\DLL\DLL\Headers\obfuscate.h

; 123  : 				m_data[i] = obfuscator.data()[i];

	mov	DWORD PTR [rbx+10], 32315145		; 01ed1709H
	mov	DWORD PTR [rbx], 437478856		; 1a1365c8H
	mov	DWORD PTR [rbx+4], 1707624605		; 65c8489dH
	mov	WORD PTR [rbx+8], 25991			; 00006587H
; File C:\Users\ethan\source\repos\DLL\DLL\Headers\procutils.h

; 35   : 		static const std::string advapi32 = std::string(HIDE("advapi32.dll"));

	lea	rcx, OFFSET FLAT:??__Fobfuscated_data@?1???R<lambda_3>@freqDLLS@ProcessUtilities@@QEBAAEAV?$obfuscated_data@$0N@$0FHPLCBONHLGFABKJ@D@ay@@XZ@YAXXZ ; `ProcessUtilities::freqDLLS::<lambda_3>::operator()'::`2'::`dynamic atexit destructor for 'obfuscated_data''
	call	__tlregdtor
	npad	1
	mov	rax, rbx
	add	rsp, 32					; 00000020H
	pop	rbx
	ret	0
$LN26@operator:
	lea	rax, QWORD PTR [rcx+r8]
	add	rsp, 32					; 00000020H
	pop	rbx
	ret	0
??R<lambda_3>@freqDLLS@ProcessUtilities@@QEBAAEAV?$obfuscated_data@$0N@$0FHPLCBONHLGFABKJ@D@ay@@XZ ENDP ; ProcessUtilities::freqDLLS::<lambda_3>::operator()
_TEXT	ENDS
; Function compile flags: /Ogtpy
;	COMDAT text$x
text$x	SEGMENT
this$dead$ = 48
?dtor$0@?0???R<lambda_3>@freqDLLS@ProcessUtilities@@QEBAAEAV?$obfuscated_data@$0N@$0FHPLCBONHLGFABKJ@D@ay@@XZ@4HA PROC ; `ProcessUtilities::freqDLLS::<lambda_3>::operator()'::`1'::dtor$0
	push	rbp
	mov	rbp, rdx
	mov	eax, OFFSET FLAT:??__J?1???R<lambda_3>@freqDLLS@ProcessUtilities@@QEBAAEAV?$obfuscated_data@$0N@$0FHPLCBONHLGFABKJ@D@ay@@XZ@51
	mov	r8, QWORD PTR gs:88
	mov	r8, QWORD PTR [r8]
	add	r8, rax
	mov	r8d, DWORD PTR [r8]
	and	r8d, -2					; fffffffeH
	mov	rdx, QWORD PTR gs:88
	mov	eax, OFFSET FLAT:??__J?1???R<lambda_3>@freqDLLS@ProcessUtilities@@QEBAAEAV?$obfuscated_data@$0N@$0FHPLCBONHLGFABKJ@D@ay@@XZ@51
	mov	ecx, eax
	mov	rax, QWORD PTR [rdx]
	add	rax, rcx
	mov	DWORD PTR [rax], r8d
	pop	rbp
	ret	0
?dtor$0@?0???R<lambda_3>@freqDLLS@ProcessUtilities@@QEBAAEAV?$obfuscated_data@$0N@$0FHPLCBONHLGFABKJ@D@ay@@XZ@4HA ENDP ; `ProcessUtilities::freqDLLS::<lambda_3>::operator()'::`1'::dtor$0
text$x	ENDS
; Function compile flags: /Ogtpy
; File C:\Users\ethan\source\repos\DLL\DLL\Headers\procutils.h
; File C:\Users\ethan\source\repos\DLL\DLL\Headers\obfuscate.h
; File C:\Users\ethan\source\repos\DLL\DLL\Headers\procutils.h
; File C:\Users\ethan\source\repos\DLL\DLL\Headers\obfuscate.h
; File C:\Program Files\Microsoft Visual Studio\2022\Community\VC\Tools\MSVC\14.40.33807\include\xstring
; File C:\Users\ethan\source\repos\DLL\DLL\Headers\procutils.h
;	COMDAT ??__Eadvapi32@freqDLLS@ProcessUtilities@@YAXXZ
text$di	SEGMENT
??__Eadvapi32@freqDLLS@ProcessUtilities@@YAXXZ PROC	; ProcessUtilities::freqDLLS::`dynamic initializer for 'advapi32'', COMDAT

; 35   : 		static const std::string advapi32 = std::string(HIDE("advapi32.dll"));

	push	rbx
	sub	rsp, 32					; 00000020H
	mov	rax, QWORD PTR gs:88
	mov	rcx, QWORD PTR [rax]
	mov	edx, OFFSET FLAT:??__J?1???R<lambda_3>@freqDLLS@ProcessUtilities@@QEBAAEAV?$obfuscated_data@$0N@$0FHPLCBONHLGFABKJ@D@ay@@XZ@51
	mov	eax, DWORD PTR [rdx+rcx]
	mov	r8d, OFFSET FLAT:?obfuscated_data@?1???R<lambda_3>@freqDLLS@ProcessUtilities@@QEBAAEAV?$obfuscated_data@$0N@$0FHPLCBONHLGFABKJ@D@ay@@XZ@4V45@A
	test	al, 1
	jne	SHORT $LN51@dynamic
	or	eax, 1
	mov	DWORD PTR [rdx+rcx], eax
	lea	rbx, QWORD PTR [rcx+r8]
; File C:\Users\ethan\source\repos\DLL\DLL\Headers\obfuscate.h

; 123  : 				m_data[i] = obfuscator.data()[i];

	mov	DWORD PTR [rbx+10], 32315145		; 01ed1709H
	mov	DWORD PTR [rbx], 437478856		; 1a1365c8H
	mov	DWORD PTR [rbx+4], 1707624605		; 65c8489dH
	mov	WORD PTR [rbx+8], 25991			; 00006587H
; File C:\Users\ethan\source\repos\DLL\DLL\Headers\procutils.h

; 35   : 		static const std::string advapi32 = std::string(HIDE("advapi32.dll"));

	lea	rcx, OFFSET FLAT:??__Fobfuscated_data@?1???R<lambda_3>@freqDLLS@ProcessUtilities@@QEBAAEAV?$obfuscated_data@$0N@$0FHPLCBONHLGFABKJ@D@ay@@XZ@YAXXZ ; `ProcessUtilities::freqDLLS::<lambda_3>::operator()'::`2'::`dynamic atexit destructor for 'obfuscated_data''
	call	__tlregdtor
	npad	1
	jmp	SHORT $LN4@dynamic
$LN51@dynamic:
	lea	rbx, QWORD PTR [r8+rcx]
$LN4@dynamic:
; File C:\Users\ethan\source\repos\DLL\DLL\Headers\obfuscate.h

; 147  : 			if ( m_encrypted )

	cmp	BYTE PTR [rbx+13], 0
	je	SHORT $LN15@dynamic

; 148  : 			{
; 149  : 				cipher(m_data, N, KEY);

	mov	edx, 13
	mov	r8, 6339698204315287977			; 57fb21ed7b6501a9H
	mov	rcx, rbx
	call	??$cipher@D@ay@@YAXPEAD_K1@Z		; ay::cipher<char>

; 150  : 				m_encrypted = false;

	mov	BYTE PTR [rbx+13], 0
$LN15@dynamic:
	xorps	xmm0, xmm0
; File C:\Program Files\Microsoft Visual Studio\2022\Community\VC\Tools\MSVC\14.40.33807\include\xstring

; 2284 :         _CONSTEXPR20 _Bxty() noexcept : _Buf() {} // user-provided, for fancy pointers

	movups	XMMWORD PTR ?advapi32@freqDLLS@ProcessUtilities@@3V?$basic_string@DU?$char_traits@D@std@@V?$allocator@D@2@@std@@B, xmm0
	xorps	xmm1, xmm1

; 2308 :     size_type _Mysize = 0; // current length of string (size)

	movdqu	XMMWORD PTR ?advapi32@freqDLLS@ProcessUtilities@@3V?$basic_string@DU?$char_traits@D@std@@V?$allocator@D@2@@std@@B+16, xmm1

; 398  :             return __builtin_strlen(_First);

	mov	r8, -1
	npad	8
$LL52@dynamic:
	inc	r8
	cmp	BYTE PTR [rbx+r8], 0
	jne	SHORT $LL52@dynamic

; 2560 :         _Construct<_Construct_strategy::_From_ptr>(_Ptr, _Convert_size<size_type>(_Traits::length(_Ptr)));

	mov	rdx, rbx
	lea	rcx, OFFSET FLAT:?advapi32@freqDLLS@ProcessUtilities@@3V?$basic_string@DU?$char_traits@D@std@@V?$allocator@D@2@@std@@B
	call	??$_Construct@$00PEBD@?$basic_string@DU?$char_traits@D@std@@V?$allocator@D@2@@std@@AEAAXQEBD_K@Z ; std::basic_string<char,std::char_traits<char>,std::allocator<char> >::_Construct<1,char const *>
; File C:\Users\ethan\source\repos\DLL\DLL\Headers\procutils.h

; 35   : 		static const std::string advapi32 = std::string(HIDE("advapi32.dll"));

	lea	rcx, OFFSET FLAT:??__Fadvapi32@freqDLLS@ProcessUtilities@@YAXXZ ; ProcessUtilities::freqDLLS::`dynamic atexit destructor for 'advapi32''
	add	rsp, 32					; 00000020H
	pop	rbx
	jmp	atexit
??__Eadvapi32@freqDLLS@ProcessUtilities@@YAXXZ ENDP	; ProcessUtilities::freqDLLS::`dynamic initializer for 'advapi32''
text$di	ENDS
; Function compile flags: /Ogtpy
;	COMDAT text$x
text$x	SEGMENT
?dtor$0@?0???__Eadvapi32@freqDLLS@ProcessUtilities@@YAXXZ@4HA PROC ; `ProcessUtilities::freqDLLS::`dynamic initializer for 'advapi32'''::`1'::dtor$0
	push	rbp
	mov	rbp, rdx
	mov	eax, OFFSET FLAT:??__J?1???R<lambda_3>@freqDLLS@ProcessUtilities@@QEBAAEAV?$obfuscated_data@$0N@$0FHPLCBONHLGFABKJ@D@ay@@XZ@51
	mov	r8, QWORD PTR gs:88
	mov	r8, QWORD PTR [r8]
	add	r8, rax
	mov	r8d, DWORD PTR [r8]
	and	r8d, -2					; fffffffeH
	mov	rdx, QWORD PTR gs:88
	mov	eax, OFFSET FLAT:??__J?1???R<lambda_3>@freqDLLS@ProcessUtilities@@QEBAAEAV?$obfuscated_data@$0N@$0FHPLCBONHLGFABKJ@D@ay@@XZ@51
	mov	ecx, eax
	mov	rax, QWORD PTR [rdx]
	add	rax, rcx
	mov	DWORD PTR [rax], r8d
	pop	rbp
	ret	0
?dtor$0@?0???__Eadvapi32@freqDLLS@ProcessUtilities@@YAXXZ@4HA ENDP ; `ProcessUtilities::freqDLLS::`dynamic initializer for 'advapi32'''::`1'::dtor$0
text$x	ENDS
; Function compile flags: /Ogtpy
; File C:\Program Files\Microsoft Visual Studio\2022\Community\VC\Tools\MSVC\14.40.33807\include\xstring
; File C:\Program Files\Microsoft Visual Studio\2022\Community\VC\Tools\MSVC\14.40.33807\include\xmemory
; File C:\Program Files\Microsoft Visual Studio\2022\Community\VC\Tools\MSVC\14.40.33807\include\xstring
; File C:\Program Files\Microsoft Visual Studio\2022\Community\VC\Tools\MSVC\14.40.33807\include\xmemory
; File C:\Program Files\Microsoft Visual Studio\2022\Community\VC\Tools\MSVC\14.40.33807\include\xstring
; File C:\Program Files\Microsoft Visual Studio\2022\Community\VC\Tools\MSVC\14.40.33807\include\xmemory
;	COMDAT ??__Fadvapi32@freqDLLS@ProcessUtilities@@YAXXZ
text$yd	SEGMENT
??__Fadvapi32@freqDLLS@ProcessUtilities@@YAXXZ PROC	; ProcessUtilities::freqDLLS::`dynamic atexit destructor for 'advapi32'', COMDAT
	sub	rsp, 40					; 00000028H
; File C:\Program Files\Microsoft Visual Studio\2022\Community\VC\Tools\MSVC\14.40.33807\include\xstring

; 2244 :         return _Myres > _Small_string_capacity;

	mov	rdx, QWORD PTR ?advapi32@freqDLLS@ProcessUtilities@@3V?$basic_string@DU?$char_traits@D@std@@V?$allocator@D@2@@std@@B+24
	cmp	rdx, 15

; 4868 :         if (_My_data._Large_mode_engaged()) {

	jbe	SHORT $LN20@dynamic
; File C:\Program Files\Microsoft Visual Studio\2022\Community\VC\Tools\MSVC\14.40.33807\include\xmemory

; 950  :         _STD _Deallocate<_New_alignof<_Ty>>(_Ptr, sizeof(_Ty) * _Count);

	mov	rcx, QWORD PTR ?advapi32@freqDLLS@ProcessUtilities@@3V?$basic_string@DU?$char_traits@D@std@@V?$allocator@D@2@@std@@B
; File C:\Program Files\Microsoft Visual Studio\2022\Community\VC\Tools\MSVC\14.40.33807\include\xstring

; 2643 :         _Al.deallocate(_Old_ptr, _Capacity + 1); // +1 for null terminator

	inc	rdx
; File C:\Program Files\Microsoft Visual Studio\2022\Community\VC\Tools\MSVC\14.40.33807\include\xmemory

; 950  :         _STD _Deallocate<_New_alignof<_Ty>>(_Ptr, sizeof(_Ty) * _Count);

	mov	rax, rcx

; 253  :         if (_Bytes >= _Big_allocation_threshold) {

	cmp	rdx, 4096				; 00001000H
	jb	SHORT $LN34@dynamic

; 174  :     const uintptr_t _Ptr_container   = _Ptr_user[-1];

	mov	rcx, QWORD PTR [rcx-8]
	add	rdx, 39					; 00000027H
	sub	rax, rcx

; 188  :     _STL_VERIFY(_Back_shift >= _Min_back_shift && _Back_shift <= _Non_user_size, "invalid argument");

	add	rax, -8
	cmp	rax, 31
	ja	SHORT $LN43@dynamic
$LN34@dynamic:

; 258  :         ::operator delete(_Ptr, _Bytes);

	call	??3@YAXPEAX_K@Z				; operator delete
$LN20@dynamic:
; File C:\Program Files\Microsoft Visual Studio\2022\Community\VC\Tools\MSVC\14.40.33807\include\xstring

; 4875 :         _My_data._Mysize = 0;

	movdqa	xmm0, XMMWORD PTR __xmm@000000000000000f0000000000000000
	movdqu	XMMWORD PTR ?advapi32@freqDLLS@ProcessUtilities@@3V?$basic_string@DU?$char_traits@D@std@@V?$allocator@D@2@@std@@B+16, xmm0

; 4876 :         _My_data._Myres  = _Small_string_capacity;
; 4877 :         // the _Traits::assign is last so the codegen doesn't think the char write can alias this
; 4878 :         _Traits::assign(_My_data._Bx._Buf[0], _Elem());

	mov	BYTE PTR ?advapi32@freqDLLS@ProcessUtilities@@3V?$basic_string@DU?$char_traits@D@std@@V?$allocator@D@2@@std@@B, 0
	add	rsp, 40					; 00000028H
	ret	0
$LN43@dynamic:
; File C:\Program Files\Microsoft Visual Studio\2022\Community\VC\Tools\MSVC\14.40.33807\include\xmemory

; 188  :     _STL_VERIFY(_Back_shift >= _Min_back_shift && _Back_shift <= _Non_user_size, "invalid argument");

	call	_invalid_parameter_noinfo_noreturn
	int	3
$LN41@dynamic:
??__Fadvapi32@freqDLLS@ProcessUtilities@@YAXXZ ENDP	; ProcessUtilities::freqDLLS::`dynamic atexit destructor for 'advapi32''
text$yd	ENDS
; Function compile flags: /Ogtpy
; File C:\Users\ethan\source\repos\DLL\DLL\Headers\obfuscate.h
;	COMDAT ??__Fobfuscated_data@?1???R<lambda_3>@freqDLLS@ProcessUtilities@@QEBAAEAV?$obfuscated_data@$0N@$0FHPLCBONHLGFABKJ@D@ay@@XZ@YAXXZ
text$yd	SEGMENT
??__Fobfuscated_data@?1???R<lambda_3>@freqDLLS@ProcessUtilities@@QEBAAEAV?$obfuscated_data@$0N@$0FHPLCBONHLGFABKJ@D@ay@@XZ@YAXXZ PROC ; `ProcessUtilities::freqDLLS::<lambda_3>::operator()'::`2'::`dynamic atexit destructor for 'obfuscated_data'', COMDAT
	mov	rax, QWORD PTR gs:88
	mov	ecx, OFFSET FLAT:?obfuscated_data@?1???R<lambda_3>@freqDLLS@ProcessUtilities@@QEBAAEAV?$obfuscated_data@$0N@$0FHPLCBONHLGFABKJ@D@ay@@XZ@4V45@A
	add	rcx, QWORD PTR [rax]

; 130  : 			for ( size_type i = 0; i < N; i++ )

	xor	eax, eax
	mov	QWORD PTR [rcx], rax
	mov	DWORD PTR [rcx+8], eax
	mov	BYTE PTR [rcx+12], al
	ret	0
??__Fobfuscated_data@?1???R<lambda_3>@freqDLLS@ProcessUtilities@@QEBAAEAV?$obfuscated_data@$0N@$0FHPLCBONHLGFABKJ@D@ay@@XZ@YAXXZ ENDP ; `ProcessUtilities::freqDLLS::<lambda_3>::operator()'::`2'::`dynamic atexit destructor for 'obfuscated_data''
text$yd	ENDS
; Function compile flags: /Ogtpy
; File C:\Users\ethan\source\repos\DLL\DLL\Source\net_common.cpp
; File C:\Users\ethan\source\repos\DLL\DLL\Headers\obfuscate.h
; File C:\Users\ethan\source\repos\DLL\DLL\Source\net_common.cpp
; File C:\Users\ethan\source\repos\DLL\DLL\Headers\obfuscate.h
; File C:\Program Files\Microsoft Visual Studio\2022\Community\VC\Tools\MSVC\14.40.33807\include\xstring
; File C:\Users\ethan\source\repos\DLL\DLL\Source\net_common.cpp
; File C:\Users\ethan\source\repos\DLL\DLL\Headers\procutils.h
; File C:\Program Files\Microsoft Visual Studio\2022\Community\VC\Tools\MSVC\14.40.33807\include\xstring
; File C:\Program Files\Microsoft Visual Studio\2022\Community\VC\Tools\MSVC\14.40.33807\include\xmemory
; File C:\Program Files\Microsoft Visual Studio\2022\Community\VC\Tools\MSVC\14.40.33807\include\xstring
; File C:\Users\ethan\source\repos\DLL\DLL\Source\net_common.cpp
; File C:\Users\ethan\source\repos\DLL\DLL\Headers\obfuscate.h
; File C:\Users\ethan\source\repos\DLL\DLL\Source\net_common.cpp
; File C:\Users\ethan\source\repos\DLL\DLL\Headers\obfuscate.h
; File C:\Program Files\Microsoft Visual Studio\2022\Community\VC\Tools\MSVC\14.40.33807\include\xstring
; File C:\Users\ethan\source\repos\DLL\DLL\Source\net_common.cpp
; File C:\Program Files\Microsoft Visual Studio\2022\Community\VC\Tools\MSVC\14.40.33807\include\xstring
; File C:\Program Files\Microsoft Visual Studio\2022\Community\VC\Tools\MSVC\14.40.33807\include\xmemory
; File C:\Program Files\Microsoft Visual Studio\2022\Community\VC\Tools\MSVC\14.40.33807\include\xstring
; File C:\Users\ethan\source\repos\DLL\DLL\Source\net_common.cpp
; File C:\Users\ethan\source\repos\DLL\DLL\Headers\obfuscate.h
; File C:\Users\ethan\source\repos\DLL\DLL\Source\net_common.cpp
; File C:\Users\ethan\source\repos\DLL\DLL\Headers\obfuscate.h
; File C:\Program Files\Microsoft Visual Studio\2022\Community\VC\Tools\MSVC\14.40.33807\include\xstring
; File C:\Users\ethan\source\repos\DLL\DLL\Source\net_common.cpp
; File C:\Users\ethan\source\repos\DLL\DLL\Headers\procutils.h
; File C:\Program Files\Microsoft Visual Studio\2022\Community\VC\Tools\MSVC\14.40.33807\include\xstring
; File C:\Program Files\Microsoft Visual Studio\2022\Community\VC\Tools\MSVC\14.40.33807\include\xmemory
; File C:\Users\ethan\source\repos\DLL\DLL\Source\net_common.cpp
; File C:\Users\ethan\source\repos\DLL\DLL\Headers\obfuscate.h
; File C:\Users\ethan\source\repos\DLL\DLL\Source\net_common.cpp
; File C:\Users\ethan\source\repos\DLL\DLL\Headers\obfuscate.h
; File C:\Program Files\Microsoft Visual Studio\2022\Community\VC\Tools\MSVC\14.40.33807\include\xstring
; File C:\Users\ethan\source\repos\DLL\DLL\Source\net_common.cpp
; File C:\Users\ethan\source\repos\DLL\DLL\Headers\obfuscate.h
; File C:\Users\ethan\source\repos\DLL\DLL\Source\net_common.cpp
; File C:\Users\ethan\source\repos\DLL\DLL\Headers\obfuscate.h
; File C:\Program Files\Microsoft Visual Studio\2022\Community\VC\Tools\MSVC\14.40.33807\include\xstring
; File C:\Users\ethan\source\repos\DLL\DLL\Source\net_common.cpp
; File C:\Users\ethan\source\repos\DLL\DLL\Headers\procutils.h
; File C:\Program Files\Microsoft Visual Studio\2022\Community\VC\Tools\MSVC\14.40.33807\include\xstring
; File C:\Program Files\Microsoft Visual Studio\2022\Community\VC\Tools\MSVC\14.40.33807\include\xmemory
; File C:\Users\ethan\source\repos\DLL\DLL\Source\net_common.cpp
; File C:\Users\ethan\source\repos\DLL\DLL\Headers\obfuscate.h
; File C:\Users\ethan\source\repos\DLL\DLL\Source\net_common.cpp
; File C:\Users\ethan\source\repos\DLL\DLL\Headers\obfuscate.h
; File C:\Program Files\Microsoft Visual Studio\2022\Community\VC\Tools\MSVC\14.40.33807\include\xstring
; File C:\Users\ethan\source\repos\DLL\DLL\Source\net_common.cpp
; File C:\Users\ethan\source\repos\DLL\DLL\Headers\procutils.h
; File C:\Program Files\Microsoft Visual Studio\2022\Community\VC\Tools\MSVC\14.40.33807\include\xstring
; File C:\Program Files\Microsoft Visual Studio\2022\Community\VC\Tools\MSVC\14.40.33807\include\xmemory
; File C:\Users\ethan\source\repos\DLL\DLL\Source\net_common.cpp
; File C:\Users\ethan\source\repos\DLL\DLL\Headers\obfuscate.h
; File C:\Users\ethan\source\repos\DLL\DLL\Source\net_common.cpp
; File C:\Users\ethan\source\repos\DLL\DLL\Headers\obfuscate.h
; File C:\Program Files\Microsoft Visual Studio\2022\Community\VC\Tools\MSVC\14.40.33807\include\xstring
; File C:\Users\ethan\source\repos\DLL\DLL\Source\net_common.cpp
; File C:\Users\ethan\source\repos\DLL\DLL\Headers\procutils.h
; File C:\Program Files\Microsoft Visual Studio\2022\Community\VC\Tools\MSVC\14.40.33807\include\xstring
; File C:\Program Files\Microsoft Visual Studio\2022\Community\VC\Tools\MSVC\14.40.33807\include\xmemory
; File C:\Users\ethan\source\repos\DLL\DLL\Source\net_common.cpp
; File C:\Users\ethan\source\repos\DLL\DLL\Headers\obfuscate.h
; File C:\Users\ethan\source\repos\DLL\DLL\Source\net_common.cpp
; File C:\Users\ethan\source\repos\DLL\DLL\Headers\obfuscate.h
; File C:\Program Files\Microsoft Visual Studio\2022\Community\VC\Tools\MSVC\14.40.33807\include\xstring
; File C:\Users\ethan\source\repos\DLL\DLL\Source\net_common.cpp
; File C:\Users\ethan\source\repos\DLL\DLL\Headers\procutils.h
; File C:\Program Files\Microsoft Visual Studio\2022\Community\VC\Tools\MSVC\14.40.33807\include\xstring
; File C:\Program Files\Microsoft Visual Studio\2022\Community\VC\Tools\MSVC\14.40.33807\include\xmemory
; File C:\Users\ethan\source\repos\DLL\DLL\Source\net_common.cpp
; File C:\Users\ethan\source\repos\DLL\DLL\Headers\obfuscate.h
; File C:\Users\ethan\source\repos\DLL\DLL\Source\net_common.cpp
; File C:\Users\ethan\source\repos\DLL\DLL\Headers\obfuscate.h
; File C:\Program Files\Microsoft Visual Studio\2022\Community\VC\Tools\MSVC\14.40.33807\include\xstring
; File C:\Users\ethan\source\repos\DLL\DLL\Source\net_common.cpp
; File C:\Users\ethan\source\repos\DLL\DLL\Headers\procutils.h
; File C:\Program Files\Microsoft Visual Studio\2022\Community\VC\Tools\MSVC\14.40.33807\include\xstring
; File C:\Program Files\Microsoft Visual Studio\2022\Community\VC\Tools\MSVC\14.40.33807\include\xmemory
; File C:\Users\ethan\source\repos\DLL\DLL\Source\net_common.cpp
; File C:\Users\ethan\source\repos\DLL\DLL\Headers\obfuscate.h
; File C:\Users\ethan\source\repos\DLL\DLL\Source\net_common.cpp
; File C:\Users\ethan\source\repos\DLL\DLL\Headers\obfuscate.h
; File C:\Program Files\Microsoft Visual Studio\2022\Community\VC\Tools\MSVC\14.40.33807\include\xstring
; File C:\Users\ethan\source\repos\DLL\DLL\Source\net_common.cpp
; File C:\Users\ethan\source\repos\DLL\DLL\Headers\procutils.h
; File C:\Program Files\Microsoft Visual Studio\2022\Community\VC\Tools\MSVC\14.40.33807\include\xstring
; File C:\Program Files\Microsoft Visual Studio\2022\Community\VC\Tools\MSVC\14.40.33807\include\xmemory
; File C:\Users\ethan\source\repos\DLL\DLL\Source\net_common.cpp
; File C:\Users\ethan\source\repos\DLL\DLL\Headers\obfuscate.h
; File C:\Users\ethan\source\repos\DLL\DLL\Source\net_common.cpp
; File C:\Users\ethan\source\repos\DLL\DLL\Headers\obfuscate.h
; File C:\Program Files\Microsoft Visual Studio\2022\Community\VC\Tools\MSVC\14.40.33807\include\xstring
; File C:\Users\ethan\source\repos\DLL\DLL\Source\net_common.cpp
; File C:\Users\ethan\source\repos\DLL\DLL\Headers\procutils.h
; File C:\Program Files\Microsoft Visual Studio\2022\Community\VC\Tools\MSVC\14.40.33807\include\xstring
; File C:\Program Files\Microsoft Visual Studio\2022\Community\VC\Tools\MSVC\14.40.33807\include\xmemory
; File C:\Users\ethan\source\repos\DLL\DLL\Source\net_common.cpp
; File C:\Users\ethan\source\repos\DLL\DLL\Headers\obfuscate.h
; File C:\Users\ethan\source\repos\DLL\DLL\Source\net_common.cpp
; File C:\Users\ethan\source\repos\DLL\DLL\Headers\obfuscate.h
; File C:\Program Files\Microsoft Visual Studio\2022\Community\VC\Tools\MSVC\14.40.33807\include\xstring
; File C:\Users\ethan\source\repos\DLL\DLL\Source\net_common.cpp
; File C:\Users\ethan\source\repos\DLL\DLL\Headers\obfuscate.h
; File C:\Users\ethan\source\repos\DLL\DLL\Source\net_common.cpp
; File C:\Users\ethan\source\repos\DLL\DLL\Headers\obfuscate.h
; File C:\Program Files\Microsoft Visual Studio\2022\Community\VC\Tools\MSVC\14.40.33807\include\xstring
; File C:\Users\ethan\source\repos\DLL\DLL\Source\net_common.cpp
; File C:\Users\ethan\source\repos\DLL\DLL\Headers\procutils.h
; File C:\Program Files\Microsoft Visual Studio\2022\Community\VC\Tools\MSVC\14.40.33807\include\xstring
; File C:\Program Files\Microsoft Visual Studio\2022\Community\VC\Tools\MSVC\14.40.33807\include\xmemory
; File C:\Program Files\Microsoft Visual Studio\2022\Community\VC\Tools\MSVC\14.40.33807\include\xstring
; File C:\Users\ethan\source\repos\DLL\DLL\Source\net_common.cpp
; File C:\Program Files\Microsoft Visual Studio\2022\Community\VC\Tools\MSVC\14.40.33807\include\xmemory
; File C:\Users\ethan\source\repos\DLL\DLL\Source\net_common.cpp
;	COMDAT ?LoadWSAFunctions@NetCommon@@YAXXZ
_TEXT	SEGMENT
$T1 = 32
$T2 = 32
$T3 = 32
$T4 = 32
$T5 = 32
$T6 = 32
$T7 = 32
$T8 = 32
$T9 = 32
$T10 = 32
$T11 = 32
$T12 = 32
$T13 = 64
$T14 = 64
$T15 = 64
$T16 = 64
$T17 = 64
$T18 = 64
$T19 = 64
$T20 = 64
$T21 = 64
$T22 = 72
$T23 = 80
$T24 = 80
$T25 = 80
$T26 = 80
$T27 = 80
$T28 = 80
$T29 = 80
$T30 = 80
$T31 = 80
$T32 = 80
$T33 = 112
$T34 = 112
data$ = 144
__$ArrayPad$ = 560
?LoadWSAFunctions@NetCommon@@YAXXZ PROC			; NetCommon::LoadWSAFunctions, COMDAT

; 7    : void NetCommon::LoadWSAFunctions() {

$LN1149:
	mov	QWORD PTR [rsp+8], rbx
	mov	QWORD PTR [rsp+16], rsi
	mov	QWORD PTR [rsp+24], rdi
	push	rbp
	push	r14
	push	r15
	lea	rbp, QWORD PTR [rsp-320]
	sub	rsp, 576				; 00000240H
	mov	rax, QWORD PTR __security_cookie
	xor	rax, rsp
	mov	QWORD PTR __$ArrayPad$[rbp-256], rax

; 8    :     if ( WSAInitialized )

	cmp	DWORD PTR ?WSAInitialized@NetCommon@@3HA, 0 ; NetCommon::WSAInitialized
	jne	$LN3@LoadWSAFun

; 9    :         return;
; 10   : 
; 11   :     HMODULE kernel32 = ProcessUtilities::GetModHandle(ProcessUtilities::freqDLLS::kernel32); // load winsock

	lea	rdx, OFFSET FLAT:?kernel32@freqDLLS@ProcessUtilities@@3V?$basic_string@DU?$char_traits@D@std@@V?$allocator@D@2@@std@@B
	lea	rcx, QWORD PTR $T34[rsp]
	call	??0?$basic_string@DU?$char_traits@D@std@@V?$allocator@D@2@@std@@QEAA@AEBV01@@Z ; std::basic_string<char,std::char_traits<char>,std::allocator<char> >::basic_string<char,std::char_traits<char>,std::allocator<char> >
	mov	rcx, rax
	call	?GetModHandle@ProcessUtilities@@YAPEAUHINSTANCE__@@V?$basic_string@DU?$char_traits@D@std@@V?$allocator@D@2@@std@@@Z ; ProcessUtilities::GetModHandle
	mov	r14, rax

; 12   :     ProcessUtilities::PPROCFN::_LoadLibrary load = ProcessUtilities::GetFunctionAddress<ProcessUtilities::PPROCFN::_LoadLibrary>(kernel32, std::string(HIDE("LoadLibraryA")));

	mov	rcx, QWORD PTR gs:88
	mov	rdi, QWORD PTR [rcx]
	mov	eax, OFFSET FLAT:??__J?1???R<lambda_1>@?1??LoadWSAFunctions@NetCommon@@YAXXZ@QEBAAEAV?$obfuscated_data@$0N@$0?HGAKNEMGLKFGEOML@D@ay@@XZ@51
	mov	ecx, DWORD PTR [rax+rdi]
	mov	edx, OFFSET FLAT:?obfuscated_data@?1???R<lambda_1>@?1??LoadWSAFunctions@NetCommon@@YAXXZ@QEBAAEAV?$obfuscated_data@$0N@$0?HGAKNEMGLKFGEOML@D@ay@@XZ@4V45@A
	test	cl, 1
	jne	SHORT $LN1103@LoadWSAFun
	or	ecx, 1
	mov	DWORD PTR [rax+rdi], ecx
	lea	rbx, QWORD PTR [rdi+rdx]
; File C:\Users\ethan\source\repos\DLL\DLL\Headers\obfuscate.h

; 123  : 				m_data[i] = obfuscator.data()[i];

	mov	DWORD PTR [rbx+10], 20514000		; 013904d0H
	mov	DWORD PTR [rbx], 566812281		; 21c8de79H
	mov	DWORD PTR [rbx+4], -73973131		; fb974275H
	mov	WORD PTR [rbx+8], 50004			; 0000c354H
; File C:\Users\ethan\source\repos\DLL\DLL\Source\net_common.cpp

; 12   :     ProcessUtilities::PPROCFN::_LoadLibrary load = ProcessUtilities::GetFunctionAddress<ProcessUtilities::PPROCFN::_LoadLibrary>(kernel32, std::string(HIDE("LoadLibraryA")));

	lea	rcx, OFFSET FLAT:??__Fobfuscated_data@?1???R<lambda_1>@?1??LoadWSAFunctions@NetCommon@@YAXXZ@QEBAAEAV?$obfuscated_data@$0N@$0?HGAKNEMGLKFGEOML@D@ay@@XZ@YAXXZ ; ``NetCommon::LoadWSAFunctions'::`2'::<lambda_1>::operator()'::`2'::`dynamic atexit destructor for 'obfuscated_data''
	call	__tlregdtor
	npad	1
	jmp	SHORT $LN20@LoadWSAFun
$LN1103@LoadWSAFun:
	lea	rbx, QWORD PTR [rdx+rdi]
$LN20@LoadWSAFun:
; File C:\Users\ethan\source\repos\DLL\DLL\Headers\obfuscate.h

; 147  : 			if ( m_encrypted )

	cmp	BYTE PTR [rbx+13], 0
	je	SHORT $LN31@LoadWSAFun

; 148  : 			{
; 149  : 				cipher(m_data, N, KEY);

	mov	edx, 13
	mov	r8, -8505844796237434571		; 89f52b3945a9b135H
	mov	rcx, rbx
	call	??$cipher@D@ay@@YAXPEAD_K1@Z		; ay::cipher<char>

; 150  : 				m_encrypted = false;

	mov	BYTE PTR [rbx+13], 0
$LN31@LoadWSAFun:
	xorps	xmm0, xmm0
; File C:\Program Files\Microsoft Visual Studio\2022\Community\VC\Tools\MSVC\14.40.33807\include\xstring

; 2284 :         _CONSTEXPR20 _Bxty() noexcept : _Buf() {} // user-provided, for fancy pointers

	movups	XMMWORD PTR $T12[rsp], xmm0

; 2308 :     size_type _Mysize = 0; // current length of string (size)

	xor	r15d, r15d
	mov	QWORD PTR $T12[rsp+16], r15

; 2309 :     size_type _Myres  = 0; // current storage reserved for string (capacity)

	mov	QWORD PTR $T12[rsp+24], r15

; 398  :             return __builtin_strlen(_First);

	mov	rsi, -1
	mov	r8, rsi
$LL1134@LoadWSAFun:
	inc	r8
	cmp	BYTE PTR [rbx+r8], r15b
	jne	SHORT $LL1134@LoadWSAFun

; 2560 :         _Construct<_Construct_strategy::_From_ptr>(_Ptr, _Convert_size<size_type>(_Traits::length(_Ptr)));

	mov	rdx, rbx
	lea	rcx, QWORD PTR $T12[rsp]
	call	??$_Construct@$00PEBD@?$basic_string@DU?$char_traits@D@std@@V?$allocator@D@2@@std@@AEAAXQEBD_K@Z ; std::basic_string<char,std::char_traits<char>,std::allocator<char> >::_Construct<1,char const *>
; File C:\Users\ethan\source\repos\DLL\DLL\Source\net_common.cpp

; 12   :     ProcessUtilities::PPROCFN::_LoadLibrary load = ProcessUtilities::GetFunctionAddress<ProcessUtilities::PPROCFN::_LoadLibrary>(kernel32, std::string(HIDE("LoadLibraryA")));

	lea	rax, QWORD PTR $T12[rsp]
	mov	QWORD PTR $T22[rsp], rax
; File C:\Users\ethan\source\repos\DLL\DLL\Headers\procutils.h

; 70   : 		return reinterpret_cast< fpType >( _GetFuncAddress(lib, proc) );

	lea	rdx, QWORD PTR $T12[rsp]
	lea	rcx, QWORD PTR $T32[rsp]
	call	??0?$basic_string@DU?$char_traits@D@std@@V?$allocator@D@2@@std@@QEAA@AEBV01@@Z ; std::basic_string<char,std::char_traits<char>,std::allocator<char> >::basic_string<char,std::char_traits<char>,std::allocator<char> >
	mov	rdx, rax
	mov	rcx, r14
	call	?_GetFuncAddress@ProcessUtilities@@YAP6A_JXZPEAUHINSTANCE__@@V?$basic_string@DU?$char_traits@D@std@@V?$allocator@D@2@@std@@@Z ; ProcessUtilities::_GetFuncAddress
	mov	r14, rax
; File C:\Program Files\Microsoft Visual Studio\2022\Community\VC\Tools\MSVC\14.40.33807\include\xstring

; 2244 :         return _Myres > _Small_string_capacity;

	mov	rdx, QWORD PTR $T12[rsp+24]
	cmp	rdx, 15

; 4868 :         if (_My_data._Large_mode_engaged()) {

	jbe	SHORT $LN72@LoadWSAFun

; 2643 :         _Al.deallocate(_Old_ptr, _Capacity + 1); // +1 for null terminator

	inc	rdx
; File C:\Program Files\Microsoft Visual Studio\2022\Community\VC\Tools\MSVC\14.40.33807\include\xmemory

; 950  :         _STD _Deallocate<_New_alignof<_Ty>>(_Ptr, sizeof(_Ty) * _Count);

	mov	rcx, QWORD PTR $T12[rsp]
	mov	rax, rcx

; 253  :         if (_Bytes >= _Big_allocation_threshold) {

	cmp	rdx, 4096				; 00001000H
	jb	SHORT $LN86@LoadWSAFun

; 171  :     _Bytes += _Non_user_size;

	add	rdx, 39					; 00000027H

; 172  : 
; 173  :     const uintptr_t* const _Ptr_user = static_cast<uintptr_t*>(_Ptr);
; 174  :     const uintptr_t _Ptr_container   = _Ptr_user[-1];

	mov	rcx, QWORD PTR [rcx-8]
	sub	rax, rcx

; 188  :     _STL_VERIFY(_Back_shift >= _Min_back_shift && _Back_shift <= _Non_user_size, "invalid argument");

	add	rax, -8
	cmp	rax, 31
	ja	$LN1137@LoadWSAFun
$LN86@LoadWSAFun:

; 258  :         ::operator delete(_Ptr, _Bytes);

	call	??3@YAXPEAX_K@Z				; operator delete
$LN72@LoadWSAFun:
; File C:\Program Files\Microsoft Visual Studio\2022\Community\VC\Tools\MSVC\14.40.33807\include\xstring

; 4875 :         _My_data._Mysize = 0;

	mov	QWORD PTR $T12[rsp+16], r15

; 4876 :         _My_data._Myres  = _Small_string_capacity;

	mov	QWORD PTR $T12[rsp+24], 15

; 4877 :         // the _Traits::assign is last so the codegen doesn't think the char write can alias this
; 4878 :         _Traits::assign(_My_data._Bx._Buf[0], _Elem());

	mov	BYTE PTR $T12[rsp], 0
