; Listing generated by Microsoft (R) Optimizing Compiler Version 19.40.33811.0 

include listing.inc

INCLUDELIB OLDNAMES

PUBLIC	??_C@_02LMMGGCAJ@?3?5@				; `string'
PUBLIC	??_C@_08LLGCOLLL@iostream@			; `string'
PUBLIC	??_C@_08EPJLHIJG@bad?5cast@			; `string'
PUBLIC	??_C@_0BA@ELKIONDK@bad?5locale?5name@		; `string'
PUBLIC	??_C@_0BF@PHHKMMFD@ios_base?3?3badbit?5set@	; `string'
PUBLIC	??_C@_0BG@FMKFHCIL@ios_base?3?3failbit?5set@	; `string'
PUBLIC	??_C@_0BF@OOHOMBOF@ios_base?3?3eofbit?5set@	; `string'
PUBLIC	??_C@_0BC@LCLEKDHB@Client?5connected?$CB@	; `string'
PUBLIC	??_R0?AVfailure@ios_base@std@@@8		; std::ios_base::failure `RTTI Type Descriptor'
PUBLIC	??_R0?AVruntime_error@std@@@8			; std::runtime_error `RTTI Type Descriptor'
PUBLIC	??_R2system_error@std@@8			; std::system_error::`RTTI Base Class Array'
PUBLIC	??_R4facet@locale@std@@6B@			; std::locale::facet::`RTTI Complete Object Locator'
PUBLIC	??_R1A@?0A@EA@system_error@std@@8		; std::system_error::`RTTI Base Class Descriptor at (0,-1,0,64)'
PUBLIC	??_R3?$ctype@D@std@@8				; std::ctype<char>::`RTTI Class Hierarchy Descriptor'
PUBLIC	??_R4runtime_error@std@@6B@			; std::runtime_error::`RTTI Complete Object Locator'
PUBLIC	??_R4_System_error@std@@6B@			; std::_System_error::`RTTI Complete Object Locator'
PUBLIC	??_R3_Facet_base@std@@8				; std::_Facet_base::`RTTI Class Hierarchy Descriptor'
PUBLIC	??_R1A@?0A@EA@bad_cast@std@@8			; std::bad_cast::`RTTI Base Class Descriptor at (0,-1,0,64)'
PUBLIC	??_R0?AVerror_category@std@@@8			; std::error_category `RTTI Type Descriptor'
PUBLIC	??_R0?AV?$ctype@D@std@@@8			; std::ctype<char> `RTTI Type Descriptor'
PUBLIC	??_R3_Crt_new_delete@std@@8			; std::_Crt_new_delete::`RTTI Class Hierarchy Descriptor'
PUBLIC	??_R1A@?0A@EA@runtime_error@std@@8		; std::runtime_error::`RTTI Base Class Descriptor at (0,-1,0,64)'
PUBLIC	??_R2_System_error@std@@8			; std::_System_error::`RTTI Base Class Array'
PUBLIC	??_R0?AVsystem_error@std@@@8			; std::system_error `RTTI Type Descriptor'
PUBLIC	?_Static@?1???$_Immortalize_memcpy_image@V_Iostream_error_category2@std@@@std@@YAAEBV_Iostream_error_category2@1@XZ@4V21@B ; `std::_Immortalize_memcpy_image<std::_Iostream_error_category2>'::`2'::_Static
PUBLIC	??_R4system_error@std@@6B@			; std::system_error::`RTTI Complete Object Locator'
PUBLIC	??_R1A@?0A@EA@_Facet_base@std@@8		; std::_Facet_base::`RTTI Base Class Descriptor at (0,-1,0,64)'
PUBLIC	??_R0?AV_Facet_base@std@@@8			; std::_Facet_base `RTTI Type Descriptor'
PUBLIC	??_7ctype_base@std@@6B@				; std::ctype_base::`vftable'
PUBLIC	??_R3_System_error@std@@8			; std::_System_error::`RTTI Class Hierarchy Descriptor'
PUBLIC	??_R0?AU_Crt_new_delete@std@@@8			; std::_Crt_new_delete `RTTI Type Descriptor'
PUBLIC	??_R0?AV_Iostream_error_category2@std@@@8	; std::_Iostream_error_category2 `RTTI Type Descriptor'
PUBLIC	??_R17?0A@EA@_Crt_new_delete@std@@8		; std::_Crt_new_delete::`RTTI Base Class Descriptor at (8,-1,0,64)'
PUBLIC	_CTA2?AVbad_cast@std@@
PUBLIC	_CT??_R0?AVsystem_error@std@@@8??0system_error@std@@QEAA@AEBV01@@Z40
PUBLIC	??_R2bad_cast@std@@8				; std::bad_cast::`RTTI Base Class Array'
PUBLIC	??_R4failure@ios_base@std@@6B@			; std::ios_base::failure::`RTTI Complete Object Locator'
PUBLIC	??_7bad_cast@std@@6B@				; std::bad_cast::`vftable'
PUBLIC	??_R4_Iostream_error_category2@std@@6B@		; std::_Iostream_error_category2::`RTTI Complete Object Locator'
PUBLIC	??_R2error_category@std@@8			; std::error_category::`RTTI Base Class Array'
PUBLIC	??_R1A@?0A@EA@_Iostream_error_category2@std@@8	; std::_Iostream_error_category2::`RTTI Base Class Descriptor at (0,-1,0,64)'
PUBLIC	??_R1A@?0A@EA@facet@locale@std@@8		; std::locale::facet::`RTTI Base Class Descriptor at (0,-1,0,64)'
PUBLIC	??_R0?AVbad_cast@std@@@8			; std::bad_cast `RTTI Type Descriptor'
PUBLIC	_TI2?AVbad_cast@std@@
PUBLIC	??_7?$ctype@D@std@@6B@				; std::ctype<char>::`vftable'
PUBLIC	??_R2failure@ios_base@std@@8			; std::ios_base::failure::`RTTI Base Class Array'
PUBLIC	??_R0?AUctype_base@std@@@8			; std::ctype_base `RTTI Type Descriptor'
PUBLIC	??_R3failure@ios_base@std@@8			; std::ios_base::failure::`RTTI Class Hierarchy Descriptor'
PUBLIC	??_7facet@locale@std@@6B@			; std::locale::facet::`vftable'
PUBLIC	??_R2?$ctype@D@std@@8				; std::ctype<char>::`RTTI Base Class Array'
PUBLIC	??_7_Iostream_error_category2@std@@6B@		; std::_Iostream_error_category2::`vftable'
PUBLIC	_TI5?AVfailure@ios_base@std@@
PUBLIC	??_7runtime_error@std@@6B@			; std::runtime_error::`vftable'
PUBLIC	??_7_System_error@std@@6B@			; std::_System_error::`vftable'
PUBLIC	??_R1A@?0A@EA@failure@ios_base@std@@8		; std::ios_base::failure::`RTTI Base Class Descriptor at (0,-1,0,64)'
PUBLIC	??_R0?AVfacet@locale@std@@@8			; std::locale::facet `RTTI Type Descriptor'
PUBLIC	??_R3facet@locale@std@@8			; std::locale::facet::`RTTI Class Hierarchy Descriptor'
PUBLIC	??_R3ctype_base@std@@8				; std::ctype_base::`RTTI Class Hierarchy Descriptor'
PUBLIC	?_Psave@?$_Facetptr@V?$ctype@D@std@@@std@@2PEBVfacet@locale@2@EB ; std::_Facetptr<std::ctype<char> >::_Psave
PUBLIC	_CT??_R0?AVruntime_error@std@@@8??0runtime_error@std@@QEAA@AEBV01@@Z24
PUBLIC	??_R1A@?0A@EA@_System_error@std@@8		; std::_System_error::`RTTI Base Class Descriptor at (0,-1,0,64)'
PUBLIC	??_R3bad_cast@std@@8				; std::bad_cast::`RTTI Class Hierarchy Descriptor'
PUBLIC	??_R3error_category@std@@8			; std::error_category::`RTTI Class Hierarchy Descriptor'
PUBLIC	??_R4ctype_base@std@@6B@			; std::ctype_base::`RTTI Complete Object Locator'
PUBLIC	??_R4bad_cast@std@@6B@				; std::bad_cast::`RTTI Complete Object Locator'
PUBLIC	??_R1A@?0A@EA@_Crt_new_delete@std@@8		; std::_Crt_new_delete::`RTTI Base Class Descriptor at (0,-1,0,64)'
PUBLIC	?_Iostream_error@?4??message@_Iostream_error_category2@std@@UEBA?AV?$basic_string@DU?$char_traits@D@std@@V?$allocator@D@2@@3@H@Z@4QBDB ; `std::_Iostream_error_category2::message'::`5'::_Iostream_error
PUBLIC	_CT??_R0?AVbad_cast@std@@@8??0bad_cast@std@@QEAA@AEBV01@@Z24
PUBLIC	??_R4_Facet_base@std@@6B@			; std::_Facet_base::`RTTI Complete Object Locator'
PUBLIC	??_R3_Iostream_error_category2@std@@8		; std::_Iostream_error_category2::`RTTI Class Hierarchy Descriptor'
PUBLIC	_CT??_R0?AV_System_error@std@@@8??0_System_error@std@@QEAA@AEBV01@@Z40
PUBLIC	??_R2runtime_error@std@@8			; std::runtime_error::`RTTI Base Class Array'
PUBLIC	_CTA5?AVfailure@ios_base@std@@
PUBLIC	??_7_Facet_base@std@@6B@			; std::_Facet_base::`vftable'
PUBLIC	??_R1A@?0A@EA@ctype_base@std@@8			; std::ctype_base::`RTTI Base Class Descriptor at (0,-1,0,64)'
PUBLIC	??_R0?AV_System_error@std@@@8			; std::_System_error `RTTI Type Descriptor'
PUBLIC	??_R2_Iostream_error_category2@std@@8		; std::_Iostream_error_category2::`RTTI Base Class Array'
PUBLIC	??_R2_Crt_new_delete@std@@8			; std::_Crt_new_delete::`RTTI Base Class Array'
PUBLIC	??_R1A@?0A@EA@?$ctype@D@std@@8			; std::ctype<char>::`RTTI Base Class Descriptor at (0,-1,0,64)'
PUBLIC	_CT??_R0?AVfailure@ios_base@std@@@8??0failure@ios_base@std@@QEAA@AEBV012@@Z40
PUBLIC	??_R3system_error@std@@8			; std::system_error::`RTTI Class Hierarchy Descriptor'
PUBLIC	??_R2_Facet_base@std@@8				; std::_Facet_base::`RTTI Base Class Array'
PUBLIC	??_R2facet@locale@std@@8			; std::locale::facet::`RTTI Base Class Array'
PUBLIC	??_R4?$ctype@D@std@@6B@				; std::ctype<char>::`RTTI Complete Object Locator'
PUBLIC	??_7system_error@std@@6B@			; std::system_error::`vftable'
PUBLIC	??_R3runtime_error@std@@8			; std::runtime_error::`RTTI Class Hierarchy Descriptor'
PUBLIC	??_R2ctype_base@std@@8				; std::ctype_base::`RTTI Base Class Array'
PUBLIC	??_7failure@ios_base@std@@6B@			; std::ios_base::failure::`vftable'
PUBLIC	??_R1A@?0A@EA@error_category@std@@8		; std::error_category::`RTTI Base Class Descriptor at (0,-1,0,64)'
EXTRN	__imp_accept:PROC
EXTRN	free:PROC
EXTRN	_Toupper:PROC
EXTRN	_purecall:PROC
EXTRN	_Tolower:PROC
EXTRN	_Getctype:PROC
EXTRN	?_Syserror_map@std@@YAPEBDH@Z:PROC		; std::_Syserror_map
EXTRN	?id@?$ctype@D@std@@2V0locale@2@A:QWORD		; std::ctype<char>::id
EXTRN	?_Facet_Register@std@@YAXPEAV_Facet_base@1@@Z:PROC ; std::_Facet_Register
EXTRN	?_Id_cnt@id@locale@std@@0HA:DWORD		; std::locale::id::_Id_cnt
EXTRN	?_Locinfo_ctor@_Locinfo@std@@SAXPEAV12@PEBD@Z:PROC ; std::_Locinfo::_Locinfo_ctor
EXTRN	?_Locinfo_dtor@_Locinfo@std@@SAXPEAV12@@Z:PROC	; std::_Locinfo::_Locinfo_dtor
EXTRN	?_Getgloballocale@locale@std@@CAPEAV_Locimp@12@XZ:PROC ; std::locale::_Getgloballocale
EXTRN	?cout@std@@3V?$basic_ostream@DU?$char_traits@D@std@@@1@A:BYTE ; std::cout
EXTRN	?uncaught_exceptions@std@@YAHXZ:PROC		; std::uncaught_exceptions
EXTRN	?_Xruntime_error@std@@YAXPEBD@Z:PROC		; std::_Xruntime_error
EXTRN	??0_Lockit@std@@QEAA@H@Z:PROC			; std::_Lockit::_Lockit
EXTRN	??1_Lockit@std@@QEAA@XZ:PROC			; std::_Lockit::~_Lockit
;	COMDAT ?_Psave@?$_Facetptr@V?$ctype@D@std@@@std@@2PEBVfacet@locale@2@EB
_BSS	SEGMENT
?_Psave@?$_Facetptr@V?$ctype@D@std@@@std@@2PEBVfacet@locale@2@EB DQ 01H DUP (?) ; std::_Facetptr<std::ctype<char> >::_Psave
_BSS	ENDS
;	COMDAT ??_R1A@?0A@EA@error_category@std@@8
rdata$r	SEGMENT
??_R1A@?0A@EA@error_category@std@@8 DD imagerel ??_R0?AVerror_category@std@@@8 ; std::error_category::`RTTI Base Class Descriptor at (0,-1,0,64)'
	DD	00H
	DD	00H
	DD	0ffffffffH
	DD	00H
	DD	040H
	DD	imagerel ??_R3error_category@std@@8
rdata$r	ENDS
;	COMDAT ??_7failure@ios_base@std@@6B@
CONST	SEGMENT
??_7failure@ios_base@std@@6B@ DQ FLAT:??_R4failure@ios_base@std@@6B@ ; std::ios_base::failure::`vftable'
	DQ	FLAT:??_Efailure@ios_base@std@@UEAAPEAXI@Z
	DQ	FLAT:?what@exception@std@@UEBAPEBDXZ
CONST	ENDS
;	COMDAT ??_R2ctype_base@std@@8
rdata$r	SEGMENT
??_R2ctype_base@std@@8 DD imagerel ??_R1A@?0A@EA@ctype_base@std@@8 ; std::ctype_base::`RTTI Base Class Array'
	DD	imagerel ??_R1A@?0A@EA@facet@locale@std@@8
	DD	imagerel ??_R1A@?0A@EA@_Facet_base@std@@8
	DD	imagerel ??_R17?0A@EA@_Crt_new_delete@std@@8
	ORG $+3
rdata$r	ENDS
;	COMDAT ??_R3runtime_error@std@@8
rdata$r	SEGMENT
??_R3runtime_error@std@@8 DD 00H			; std::runtime_error::`RTTI Class Hierarchy Descriptor'
	DD	00H
	DD	02H
	DD	imagerel ??_R2runtime_error@std@@8
rdata$r	ENDS
;	COMDAT ??_7system_error@std@@6B@
CONST	SEGMENT
??_7system_error@std@@6B@ DQ FLAT:??_R4system_error@std@@6B@ ; std::system_error::`vftable'
	DQ	FLAT:??_Esystem_error@std@@UEAAPEAXI@Z
	DQ	FLAT:?what@exception@std@@UEBAPEBDXZ
CONST	ENDS
;	COMDAT ??_R4?$ctype@D@std@@6B@
rdata$r	SEGMENT
??_R4?$ctype@D@std@@6B@ DD 01H				; std::ctype<char>::`RTTI Complete Object Locator'
	DD	00H
	DD	00H
	DD	imagerel ??_R0?AV?$ctype@D@std@@@8
	DD	imagerel ??_R3?$ctype@D@std@@8
	DD	imagerel ??_R4?$ctype@D@std@@6B@
rdata$r	ENDS
;	COMDAT ??_R2facet@locale@std@@8
rdata$r	SEGMENT
??_R2facet@locale@std@@8 DD imagerel ??_R1A@?0A@EA@facet@locale@std@@8 ; std::locale::facet::`RTTI Base Class Array'
	DD	imagerel ??_R1A@?0A@EA@_Facet_base@std@@8
	DD	imagerel ??_R17?0A@EA@_Crt_new_delete@std@@8
	ORG $+3
rdata$r	ENDS
;	COMDAT ??_R2_Facet_base@std@@8
rdata$r	SEGMENT
??_R2_Facet_base@std@@8 DD imagerel ??_R1A@?0A@EA@_Facet_base@std@@8 ; std::_Facet_base::`RTTI Base Class Array'
	ORG $+3
rdata$r	ENDS
;	COMDAT ??_R3system_error@std@@8
rdata$r	SEGMENT
??_R3system_error@std@@8 DD 00H				; std::system_error::`RTTI Class Hierarchy Descriptor'
	DD	00H
	DD	04H
	DD	imagerel ??_R2system_error@std@@8
rdata$r	ENDS
;	COMDAT _CT??_R0?AVfailure@ios_base@std@@@8??0failure@ios_base@std@@QEAA@AEBV012@@Z40
xdata$x	SEGMENT
_CT??_R0?AVfailure@ios_base@std@@@8??0failure@ios_base@std@@QEAA@AEBV012@@Z40 DD 00H
	DD	imagerel ??_R0?AVfailure@ios_base@std@@@8
	DD	00H
	DD	0ffffffffH
	ORG $+4
	DD	028H
	DD	imagerel ??0failure@ios_base@std@@QEAA@AEBV012@@Z
xdata$x	ENDS
;	COMDAT ??_R1A@?0A@EA@?$ctype@D@std@@8
rdata$r	SEGMENT
??_R1A@?0A@EA@?$ctype@D@std@@8 DD imagerel ??_R0?AV?$ctype@D@std@@@8 ; std::ctype<char>::`RTTI Base Class Descriptor at (0,-1,0,64)'
	DD	04H
	DD	00H
	DD	0ffffffffH
	DD	00H
	DD	040H
	DD	imagerel ??_R3?$ctype@D@std@@8
rdata$r	ENDS
;	COMDAT ??_R2_Crt_new_delete@std@@8
rdata$r	SEGMENT
??_R2_Crt_new_delete@std@@8 DD imagerel ??_R1A@?0A@EA@_Crt_new_delete@std@@8 ; std::_Crt_new_delete::`RTTI Base Class Array'
	ORG $+3
rdata$r	ENDS
;	COMDAT ??_R2_Iostream_error_category2@std@@8
rdata$r	SEGMENT
??_R2_Iostream_error_category2@std@@8 DD imagerel ??_R1A@?0A@EA@_Iostream_error_category2@std@@8 ; std::_Iostream_error_category2::`RTTI Base Class Array'
	DD	imagerel ??_R1A@?0A@EA@error_category@std@@8
	ORG $+3
rdata$r	ENDS
;	COMDAT ??_R0?AV_System_error@std@@@8
data$r	SEGMENT
??_R0?AV_System_error@std@@@8 DQ FLAT:??_7type_info@@6B@ ; std::_System_error `RTTI Type Descriptor'
	DQ	0000000000000000H
	DB	'.?AV_System_error@std@@', 00H
data$r	ENDS
;	COMDAT ??_R1A@?0A@EA@ctype_base@std@@8
rdata$r	SEGMENT
??_R1A@?0A@EA@ctype_base@std@@8 DD imagerel ??_R0?AUctype_base@std@@@8 ; std::ctype_base::`RTTI Base Class Descriptor at (0,-1,0,64)'
	DD	03H
	DD	00H
	DD	0ffffffffH
	DD	00H
	DD	040H
	DD	imagerel ??_R3ctype_base@std@@8
rdata$r	ENDS
;	COMDAT ??_7_Facet_base@std@@6B@
CONST	SEGMENT
??_7_Facet_base@std@@6B@ DQ FLAT:??_R4_Facet_base@std@@6B@ ; std::_Facet_base::`vftable'
	DQ	FLAT:??_E_Facet_base@std@@UEAAPEAXI@Z
	DQ	FLAT:_purecall
	DQ	FLAT:_purecall
CONST	ENDS
;	COMDAT _CTA5?AVfailure@ios_base@std@@
xdata$x	SEGMENT
_CTA5?AVfailure@ios_base@std@@ DD 05H
	DD	imagerel _CT??_R0?AVfailure@ios_base@std@@@8??0failure@ios_base@std@@QEAA@AEBV012@@Z40
	DD	imagerel _CT??_R0?AVsystem_error@std@@@8??0system_error@std@@QEAA@AEBV01@@Z40
	DD	imagerel _CT??_R0?AV_System_error@std@@@8??0_System_error@std@@QEAA@AEBV01@@Z40
	DD	imagerel _CT??_R0?AVruntime_error@std@@@8??0runtime_error@std@@QEAA@AEBV01@@Z24
	DD	imagerel _CT??_R0?AVexception@std@@@8??0exception@std@@QEAA@AEBV01@@Z24
xdata$x	ENDS
;	COMDAT ??_R2runtime_error@std@@8
rdata$r	SEGMENT
??_R2runtime_error@std@@8 DD imagerel ??_R1A@?0A@EA@runtime_error@std@@8 ; std::runtime_error::`RTTI Base Class Array'
	DD	imagerel ??_R1A@?0A@EA@exception@std@@8
	ORG $+3
rdata$r	ENDS
;	COMDAT _CT??_R0?AV_System_error@std@@@8??0_System_error@std@@QEAA@AEBV01@@Z40
xdata$x	SEGMENT
_CT??_R0?AV_System_error@std@@@8??0_System_error@std@@QEAA@AEBV01@@Z40 DD 00H
	DD	imagerel ??_R0?AV_System_error@std@@@8
	DD	00H
	DD	0ffffffffH
	ORG $+4
	DD	028H
	DD	imagerel ??0_System_error@std@@QEAA@AEBV01@@Z
xdata$x	ENDS
;	COMDAT ??_R3_Iostream_error_category2@std@@8
rdata$r	SEGMENT
??_R3_Iostream_error_category2@std@@8 DD 00H		; std::_Iostream_error_category2::`RTTI Class Hierarchy Descriptor'
	DD	00H
	DD	02H
	DD	imagerel ??_R2_Iostream_error_category2@std@@8
rdata$r	ENDS
;	COMDAT ??_R4_Facet_base@std@@6B@
rdata$r	SEGMENT
??_R4_Facet_base@std@@6B@ DD 01H			; std::_Facet_base::`RTTI Complete Object Locator'
	DD	00H
	DD	00H
	DD	imagerel ??_R0?AV_Facet_base@std@@@8
	DD	imagerel ??_R3_Facet_base@std@@8
	DD	imagerel ??_R4_Facet_base@std@@6B@
rdata$r	ENDS
;	COMDAT _CT??_R0?AVbad_cast@std@@@8??0bad_cast@std@@QEAA@AEBV01@@Z24
xdata$x	SEGMENT
_CT??_R0?AVbad_cast@std@@@8??0bad_cast@std@@QEAA@AEBV01@@Z24 DD 00H
	DD	imagerel ??_R0?AVbad_cast@std@@@8
	DD	00H
	DD	0ffffffffH
	ORG $+4
	DD	018H
	DD	imagerel ??0bad_cast@std@@QEAA@AEBV01@@Z
xdata$x	ENDS
;	COMDAT ?_Iostream_error@?4??message@_Iostream_error_category2@std@@UEBA?AV?$basic_string@DU?$char_traits@D@std@@V?$allocator@D@2@@3@H@Z@4QBDB
CONST	SEGMENT
?_Iostream_error@?4??message@_Iostream_error_category2@std@@UEBA?AV?$basic_string@DU?$char_traits@D@std@@V?$allocator@D@2@@3@H@Z@4QBDB DB 069H ; `std::_Iostream_error_category2::message'::`5'::_Iostream_error
	DB	06fH
	DB	073H
	DB	074H
	DB	072H
	DB	065H
	DB	061H
	DB	06dH
	DB	020H
	DB	073H
	DB	074H
	DB	072H
	DB	065H
	DB	061H
	DB	06dH
	DB	020H
	DB	065H
	DB	072H
	DB	072H
	DB	06fH
	DB	072H
	DB	00H
CONST	ENDS
;	COMDAT ??_R1A@?0A@EA@_Crt_new_delete@std@@8
rdata$r	SEGMENT
??_R1A@?0A@EA@_Crt_new_delete@std@@8 DD imagerel ??_R0?AU_Crt_new_delete@std@@@8 ; std::_Crt_new_delete::`RTTI Base Class Descriptor at (0,-1,0,64)'
	DD	00H
	DD	00H
	DD	0ffffffffH
	DD	00H
	DD	040H
	DD	imagerel ??_R3_Crt_new_delete@std@@8
rdata$r	ENDS
;	COMDAT ??_R4bad_cast@std@@6B@
rdata$r	SEGMENT
??_R4bad_cast@std@@6B@ DD 01H				; std::bad_cast::`RTTI Complete Object Locator'
	DD	00H
	DD	00H
	DD	imagerel ??_R0?AVbad_cast@std@@@8
	DD	imagerel ??_R3bad_cast@std@@8
	DD	imagerel ??_R4bad_cast@std@@6B@
rdata$r	ENDS
;	COMDAT ??_R4ctype_base@std@@6B@
rdata$r	SEGMENT
??_R4ctype_base@std@@6B@ DD 01H				; std::ctype_base::`RTTI Complete Object Locator'
	DD	00H
	DD	00H
	DD	imagerel ??_R0?AUctype_base@std@@@8
	DD	imagerel ??_R3ctype_base@std@@8
	DD	imagerel ??_R4ctype_base@std@@6B@
rdata$r	ENDS
;	COMDAT ??_R3error_category@std@@8
rdata$r	SEGMENT
??_R3error_category@std@@8 DD 00H			; std::error_category::`RTTI Class Hierarchy Descriptor'
	DD	00H
	DD	01H
	DD	imagerel ??_R2error_category@std@@8
rdata$r	ENDS
;	COMDAT ??_R3bad_cast@std@@8
rdata$r	SEGMENT
??_R3bad_cast@std@@8 DD 00H				; std::bad_cast::`RTTI Class Hierarchy Descriptor'
	DD	00H
	DD	02H
	DD	imagerel ??_R2bad_cast@std@@8
rdata$r	ENDS
;	COMDAT ??_R1A@?0A@EA@_System_error@std@@8
rdata$r	SEGMENT
??_R1A@?0A@EA@_System_error@std@@8 DD imagerel ??_R0?AV_System_error@std@@@8 ; std::_System_error::`RTTI Base Class Descriptor at (0,-1,0,64)'
	DD	02H
	DD	00H
	DD	0ffffffffH
	DD	00H
	DD	040H
	DD	imagerel ??_R3_System_error@std@@8
rdata$r	ENDS
;	COMDAT _CT??_R0?AVruntime_error@std@@@8??0runtime_error@std@@QEAA@AEBV01@@Z24
xdata$x	SEGMENT
_CT??_R0?AVruntime_error@std@@@8??0runtime_error@std@@QEAA@AEBV01@@Z24 DD 00H
	DD	imagerel ??_R0?AVruntime_error@std@@@8
	DD	00H
	DD	0ffffffffH
	ORG $+4
	DD	018H
	DD	imagerel ??0runtime_error@std@@QEAA@AEBV01@@Z
xdata$x	ENDS
;	COMDAT ??_R3ctype_base@std@@8
rdata$r	SEGMENT
??_R3ctype_base@std@@8 DD 00H				; std::ctype_base::`RTTI Class Hierarchy Descriptor'
	DD	01H
	DD	04H
	DD	imagerel ??_R2ctype_base@std@@8
rdata$r	ENDS
;	COMDAT ??_R3facet@locale@std@@8
rdata$r	SEGMENT
??_R3facet@locale@std@@8 DD 00H				; std::locale::facet::`RTTI Class Hierarchy Descriptor'
	DD	01H
	DD	03H
	DD	imagerel ??_R2facet@locale@std@@8
rdata$r	ENDS
;	COMDAT ??_R0?AVfacet@locale@std@@@8
data$rs	SEGMENT
??_R0?AVfacet@locale@std@@@8 DQ FLAT:??_7type_info@@6B@	; std::locale::facet `RTTI Type Descriptor'
	DQ	0000000000000000H
	DB	'.?AVfacet@locale@std@@', 00H
data$rs	ENDS
;	COMDAT ??_R1A@?0A@EA@failure@ios_base@std@@8
rdata$r	SEGMENT
??_R1A@?0A@EA@failure@ios_base@std@@8 DD imagerel ??_R0?AVfailure@ios_base@std@@@8 ; std::ios_base::failure::`RTTI Base Class Descriptor at (0,-1,0,64)'
	DD	04H
	DD	00H
	DD	0ffffffffH
	DD	00H
	DD	040H
	DD	imagerel ??_R3failure@ios_base@std@@8
rdata$r	ENDS
;	COMDAT ??_7_System_error@std@@6B@
CONST	SEGMENT
??_7_System_error@std@@6B@ DQ FLAT:??_R4_System_error@std@@6B@ ; std::_System_error::`vftable'
	DQ	FLAT:??_E_System_error@std@@UEAAPEAXI@Z
	DQ	FLAT:?what@exception@std@@UEBAPEBDXZ
CONST	ENDS
;	COMDAT ??_7runtime_error@std@@6B@
CONST	SEGMENT
??_7runtime_error@std@@6B@ DQ FLAT:??_R4runtime_error@std@@6B@ ; std::runtime_error::`vftable'
	DQ	FLAT:??_Eruntime_error@std@@UEAAPEAXI@Z
	DQ	FLAT:?what@exception@std@@UEBAPEBDXZ
CONST	ENDS
;	COMDAT _TI5?AVfailure@ios_base@std@@
xdata$x	SEGMENT
_TI5?AVfailure@ios_base@std@@ DD 00H
	DD	imagerel ??1failure@ios_base@std@@UEAA@XZ
	DD	00H
	DD	imagerel _CTA5?AVfailure@ios_base@std@@
xdata$x	ENDS
;	COMDAT ??_7_Iostream_error_category2@std@@6B@
CONST	SEGMENT
??_7_Iostream_error_category2@std@@6B@ DQ FLAT:??_R4_Iostream_error_category2@std@@6B@ ; std::_Iostream_error_category2::`vftable'
	DQ	FLAT:??_E_Iostream_error_category2@std@@UEAAPEAXI@Z
	DQ	FLAT:?name@_Iostream_error_category2@std@@UEBAPEBDXZ
	DQ	FLAT:?message@_Iostream_error_category2@std@@UEBA?AV?$basic_string@DU?$char_traits@D@std@@V?$allocator@D@2@@2@H@Z
	DQ	FLAT:?default_error_condition@error_category@std@@UEBA?AVerror_condition@2@H@Z
	DQ	FLAT:?equivalent@error_category@std@@UEBA_NAEBVerror_code@2@H@Z
	DQ	FLAT:?equivalent@error_category@std@@UEBA_NHAEBVerror_condition@2@@Z
CONST	ENDS
;	COMDAT ??_R2?$ctype@D@std@@8
rdata$r	SEGMENT
??_R2?$ctype@D@std@@8 DD imagerel ??_R1A@?0A@EA@?$ctype@D@std@@8 ; std::ctype<char>::`RTTI Base Class Array'
	DD	imagerel ??_R1A@?0A@EA@ctype_base@std@@8
	DD	imagerel ??_R1A@?0A@EA@facet@locale@std@@8
	DD	imagerel ??_R1A@?0A@EA@_Facet_base@std@@8
	DD	imagerel ??_R17?0A@EA@_Crt_new_delete@std@@8
	ORG $+3
rdata$r	ENDS
;	COMDAT ??_7facet@locale@std@@6B@
CONST	SEGMENT
??_7facet@locale@std@@6B@ DQ FLAT:??_R4facet@locale@std@@6B@ ; std::locale::facet::`vftable'
	DQ	FLAT:??_Efacet@locale@std@@MEAAPEAXI@Z
	DQ	FLAT:?_Incref@facet@locale@std@@UEAAXXZ
	DQ	FLAT:?_Decref@facet@locale@std@@UEAAPEAV_Facet_base@3@XZ
CONST	ENDS
;	COMDAT ??_R3failure@ios_base@std@@8
rdata$r	SEGMENT
??_R3failure@ios_base@std@@8 DD 00H			; std::ios_base::failure::`RTTI Class Hierarchy Descriptor'
	DD	00H
	DD	05H
	DD	imagerel ??_R2failure@ios_base@std@@8
rdata$r	ENDS
;	COMDAT ??_R0?AUctype_base@std@@@8
data$rs	SEGMENT
??_R0?AUctype_base@std@@@8 DQ FLAT:??_7type_info@@6B@	; std::ctype_base `RTTI Type Descriptor'
	DQ	0000000000000000H
	DB	'.?AUctype_base@std@@', 00H
data$rs	ENDS
;	COMDAT ??_R2failure@ios_base@std@@8
rdata$r	SEGMENT
??_R2failure@ios_base@std@@8 DD imagerel ??_R1A@?0A@EA@failure@ios_base@std@@8 ; std::ios_base::failure::`RTTI Base Class Array'
	DD	imagerel ??_R1A@?0A@EA@system_error@std@@8
	DD	imagerel ??_R1A@?0A@EA@_System_error@std@@8
	DD	imagerel ??_R1A@?0A@EA@runtime_error@std@@8
	DD	imagerel ??_R1A@?0A@EA@exception@std@@8
	ORG $+3
rdata$r	ENDS
;	COMDAT ??_7?$ctype@D@std@@6B@
CONST	SEGMENT
??_7?$ctype@D@std@@6B@ DQ FLAT:??_R4?$ctype@D@std@@6B@	; std::ctype<char>::`vftable'
	DQ	FLAT:??_E?$ctype@D@std@@MEAAPEAXI@Z
	DQ	FLAT:?_Incref@facet@locale@std@@UEAAXXZ
	DQ	FLAT:?_Decref@facet@locale@std@@UEAAPEAV_Facet_base@3@XZ
	DQ	FLAT:?do_tolower@?$ctype@D@std@@MEBAPEBDPEADPEBD@Z
	DQ	FLAT:?do_tolower@?$ctype@D@std@@MEBADD@Z
	DQ	FLAT:?do_toupper@?$ctype@D@std@@MEBAPEBDPEADPEBD@Z
	DQ	FLAT:?do_toupper@?$ctype@D@std@@MEBADD@Z
	DQ	FLAT:?do_widen@?$ctype@D@std@@MEBAPEBDPEBD0PEAD@Z
	DQ	FLAT:?do_widen@?$ctype@D@std@@MEBADD@Z
	DQ	FLAT:?do_narrow@?$ctype@D@std@@MEBAPEBDPEBD0DPEAD@Z
	DQ	FLAT:?do_narrow@?$ctype@D@std@@MEBADDD@Z
CONST	ENDS
;	COMDAT _TI2?AVbad_cast@std@@
xdata$x	SEGMENT
_TI2?AVbad_cast@std@@ DD 00H
	DD	imagerel ??1bad_cast@std@@UEAA@XZ
	DD	00H
	DD	imagerel _CTA2?AVbad_cast@std@@
xdata$x	ENDS
;	COMDAT ??_R0?AVbad_cast@std@@@8
data$r	SEGMENT
??_R0?AVbad_cast@std@@@8 DQ FLAT:??_7type_info@@6B@	; std::bad_cast `RTTI Type Descriptor'
	DQ	0000000000000000H
	DB	'.?AVbad_cast@std@@', 00H
data$r	ENDS
;	COMDAT ??_R1A@?0A@EA@facet@locale@std@@8
rdata$r	SEGMENT
??_R1A@?0A@EA@facet@locale@std@@8 DD imagerel ??_R0?AVfacet@locale@std@@@8 ; std::locale::facet::`RTTI Base Class Descriptor at (0,-1,0,64)'
	DD	02H
	DD	00H
	DD	0ffffffffH
	DD	00H
	DD	040H
	DD	imagerel ??_R3facet@locale@std@@8
rdata$r	ENDS
;	COMDAT ??_R1A@?0A@EA@_Iostream_error_category2@std@@8
rdata$r	SEGMENT
??_R1A@?0A@EA@_Iostream_error_category2@std@@8 DD imagerel ??_R0?AV_Iostream_error_category2@std@@@8 ; std::_Iostream_error_category2::`RTTI Base Class Descriptor at (0,-1,0,64)'
	DD	01H
	DD	00H
	DD	0ffffffffH
	DD	00H
	DD	040H
	DD	imagerel ??_R3_Iostream_error_category2@std@@8
rdata$r	ENDS
;	COMDAT ??_R2error_category@std@@8
rdata$r	SEGMENT
??_R2error_category@std@@8 DD imagerel ??_R1A@?0A@EA@error_category@std@@8 ; std::error_category::`RTTI Base Class Array'
	ORG $+3
rdata$r	ENDS
;	COMDAT ??_R4_Iostream_error_category2@std@@6B@
rdata$r	SEGMENT
??_R4_Iostream_error_category2@std@@6B@ DD 01H		; std::_Iostream_error_category2::`RTTI Complete Object Locator'
	DD	00H
	DD	00H
	DD	imagerel ??_R0?AV_Iostream_error_category2@std@@@8
	DD	imagerel ??_R3_Iostream_error_category2@std@@8
	DD	imagerel ??_R4_Iostream_error_category2@std@@6B@
rdata$r	ENDS
;	COMDAT ??_7bad_cast@std@@6B@
CONST	SEGMENT
??_7bad_cast@std@@6B@ DQ FLAT:??_R4bad_cast@std@@6B@	; std::bad_cast::`vftable'
	DQ	FLAT:??_Ebad_cast@std@@UEAAPEAXI@Z
	DQ	FLAT:?what@exception@std@@UEBAPEBDXZ
CONST	ENDS
;	COMDAT ??_R4failure@ios_base@std@@6B@
rdata$r	SEGMENT
??_R4failure@ios_base@std@@6B@ DD 01H			; std::ios_base::failure::`RTTI Complete Object Locator'
	DD	00H
	DD	00H
	DD	imagerel ??_R0?AVfailure@ios_base@std@@@8
	DD	imagerel ??_R3failure@ios_base@std@@8
	DD	imagerel ??_R4failure@ios_base@std@@6B@
rdata$r	ENDS
;	COMDAT ??_R2bad_cast@std@@8
rdata$r	SEGMENT
??_R2bad_cast@std@@8 DD imagerel ??_R1A@?0A@EA@bad_cast@std@@8 ; std::bad_cast::`RTTI Base Class Array'
	DD	imagerel ??_R1A@?0A@EA@exception@std@@8
	ORG $+3
rdata$r	ENDS
;	COMDAT _CT??_R0?AVsystem_error@std@@@8??0system_error@std@@QEAA@AEBV01@@Z40
xdata$x	SEGMENT
_CT??_R0?AVsystem_error@std@@@8??0system_error@std@@QEAA@AEBV01@@Z40 DD 00H
	DD	imagerel ??_R0?AVsystem_error@std@@@8
	DD	00H
	DD	0ffffffffH
	ORG $+4
	DD	028H
	DD	imagerel ??0system_error@std@@QEAA@AEBV01@@Z
xdata$x	ENDS
;	COMDAT _CTA2?AVbad_cast@std@@
xdata$x	SEGMENT
_CTA2?AVbad_cast@std@@ DD 02H
	DD	imagerel _CT??_R0?AVbad_cast@std@@@8??0bad_cast@std@@QEAA@AEBV01@@Z24
	DD	imagerel _CT??_R0?AVexception@std@@@8??0exception@std@@QEAA@AEBV01@@Z24
xdata$x	ENDS
;	COMDAT ??_R17?0A@EA@_Crt_new_delete@std@@8
rdata$r	SEGMENT
??_R17?0A@EA@_Crt_new_delete@std@@8 DD imagerel ??_R0?AU_Crt_new_delete@std@@@8 ; std::_Crt_new_delete::`RTTI Base Class Descriptor at (8,-1,0,64)'
	DD	00H
	DD	08H
	DD	0ffffffffH
	DD	00H
	DD	040H
	DD	imagerel ??_R3_Crt_new_delete@std@@8
rdata$r	ENDS
;	COMDAT ??_R0?AV_Iostream_error_category2@std@@@8
data$rs	SEGMENT
??_R0?AV_Iostream_error_category2@std@@@8 DQ FLAT:??_7type_info@@6B@ ; std::_Iostream_error_category2 `RTTI Type Descriptor'
	DQ	0000000000000000H
	DB	'.?AV_Iostream_error_category2@std@@', 00H
data$rs	ENDS
;	COMDAT ??_R0?AU_Crt_new_delete@std@@@8
data$rs	SEGMENT
??_R0?AU_Crt_new_delete@std@@@8 DQ FLAT:??_7type_info@@6B@ ; std::_Crt_new_delete `RTTI Type Descriptor'
	DQ	0000000000000000H
	DB	'.?AU_Crt_new_delete@std@@', 00H
data$rs	ENDS
;	COMDAT ??_R3_System_error@std@@8
rdata$r	SEGMENT
??_R3_System_error@std@@8 DD 00H			; std::_System_error::`RTTI Class Hierarchy Descriptor'
	DD	00H
	DD	03H
	DD	imagerel ??_R2_System_error@std@@8
rdata$r	ENDS
;	COMDAT ??_7ctype_base@std@@6B@
CONST	SEGMENT
??_7ctype_base@std@@6B@ DQ FLAT:??_R4ctype_base@std@@6B@ ; std::ctype_base::`vftable'
	DQ	FLAT:??_Ectype_base@std@@UEAAPEAXI@Z
	DQ	FLAT:?_Incref@facet@locale@std@@UEAAXXZ
	DQ	FLAT:?_Decref@facet@locale@std@@UEAAPEAV_Facet_base@3@XZ
CONST	ENDS
;	COMDAT ??_R0?AV_Facet_base@std@@@8
data$rs	SEGMENT
??_R0?AV_Facet_base@std@@@8 DQ FLAT:??_7type_info@@6B@	; std::_Facet_base `RTTI Type Descriptor'
	DQ	0000000000000000H
	DB	'.?AV_Facet_base@std@@', 00H
data$rs	ENDS
;	COMDAT ??_R1A@?0A@EA@_Facet_base@std@@8
rdata$r	SEGMENT
??_R1A@?0A@EA@_Facet_base@std@@8 DD imagerel ??_R0?AV_Facet_base@std@@@8 ; std::_Facet_base::`RTTI Base Class Descriptor at (0,-1,0,64)'
	DD	00H
	DD	00H
	DD	0ffffffffH
	DD	00H
	DD	040H
	DD	imagerel ??_R3_Facet_base@std@@8
rdata$r	ENDS
;	COMDAT ??_R4system_error@std@@6B@
rdata$r	SEGMENT
??_R4system_error@std@@6B@ DD 01H			; std::system_error::`RTTI Complete Object Locator'
	DD	00H
	DD	00H
	DD	imagerel ??_R0?AVsystem_error@std@@@8
	DD	imagerel ??_R3system_error@std@@8
	DD	imagerel ??_R4system_error@std@@6B@
rdata$r	ENDS
;	COMDAT ?_Static@?1???$_Immortalize_memcpy_image@V_Iostream_error_category2@std@@@std@@YAAEBV_Iostream_error_category2@1@XZ@4V21@B
_DATA	SEGMENT
?_Static@?1???$_Immortalize_memcpy_image@V_Iostream_error_category2@std@@@std@@YAAEBV_Iostream_error_category2@1@XZ@4V21@B DQ FLAT:??_7_Iostream_error_category2@std@@6B@ ; `std::_Immortalize_memcpy_image<std::_Iostream_error_category2>'::`2'::_Static
	DQ	0000000000000005H
_DATA	ENDS
;	COMDAT ??_R0?AVsystem_error@std@@@8
data$r	SEGMENT
??_R0?AVsystem_error@std@@@8 DQ FLAT:??_7type_info@@6B@	; std::system_error `RTTI Type Descriptor'
	DQ	0000000000000000H
	DB	'.?AVsystem_error@std@@', 00H
data$r	ENDS
;	COMDAT ??_R2_System_error@std@@8
rdata$r	SEGMENT
??_R2_System_error@std@@8 DD imagerel ??_R1A@?0A@EA@_System_error@std@@8 ; std::_System_error::`RTTI Base Class Array'
	DD	imagerel ??_R1A@?0A@EA@runtime_error@std@@8
	DD	imagerel ??_R1A@?0A@EA@exception@std@@8
	ORG $+3
rdata$r	ENDS
;	COMDAT ??_R1A@?0A@EA@runtime_error@std@@8
rdata$r	SEGMENT
??_R1A@?0A@EA@runtime_error@std@@8 DD imagerel ??_R0?AVruntime_error@std@@@8 ; std::runtime_error::`RTTI Base Class Descriptor at (0,-1,0,64)'
	DD	01H
	DD	00H
	DD	0ffffffffH
	DD	00H
	DD	040H
	DD	imagerel ??_R3runtime_error@std@@8
rdata$r	ENDS
;	COMDAT ??_R3_Crt_new_delete@std@@8
rdata$r	SEGMENT
??_R3_Crt_new_delete@std@@8 DD 00H			; std::_Crt_new_delete::`RTTI Class Hierarchy Descriptor'
	DD	00H
	DD	01H
	DD	imagerel ??_R2_Crt_new_delete@std@@8
rdata$r	ENDS
;	COMDAT ??_R0?AV?$ctype@D@std@@@8
data$rs	SEGMENT
??_R0?AV?$ctype@D@std@@@8 DQ FLAT:??_7type_info@@6B@	; std::ctype<char> `RTTI Type Descriptor'
	DQ	0000000000000000H
	DB	'.?AV?$ctype@D@std@@', 00H
data$rs	ENDS
;	COMDAT ??_R0?AVerror_category@std@@@8
data$rs	SEGMENT
??_R0?AVerror_category@std@@@8 DQ FLAT:??_7type_info@@6B@ ; std::error_category `RTTI Type Descriptor'
	DQ	0000000000000000H
	DB	'.?AVerror_category@std@@', 00H
data$rs	ENDS
;	COMDAT ??_R1A@?0A@EA@bad_cast@std@@8
rdata$r	SEGMENT
??_R1A@?0A@EA@bad_cast@std@@8 DD imagerel ??_R0?AVbad_cast@std@@@8 ; std::bad_cast::`RTTI Base Class Descriptor at (0,-1,0,64)'
	DD	01H
	DD	00H
	DD	0ffffffffH
	DD	00H
	DD	040H
	DD	imagerel ??_R3bad_cast@std@@8
rdata$r	ENDS
;	COMDAT ??_R3_Facet_base@std@@8
rdata$r	SEGMENT
??_R3_Facet_base@std@@8 DD 00H				; std::_Facet_base::`RTTI Class Hierarchy Descriptor'
	DD	00H
	DD	01H
	DD	imagerel ??_R2_Facet_base@std@@8
rdata$r	ENDS
;	COMDAT ??_R4_System_error@std@@6B@
rdata$r	SEGMENT
??_R4_System_error@std@@6B@ DD 01H			; std::_System_error::`RTTI Complete Object Locator'
	DD	00H
	DD	00H
	DD	imagerel ??_R0?AV_System_error@std@@@8
	DD	imagerel ??_R3_System_error@std@@8
	DD	imagerel ??_R4_System_error@std@@6B@
rdata$r	ENDS
;	COMDAT ??_R4runtime_error@std@@6B@
rdata$r	SEGMENT
??_R4runtime_error@std@@6B@ DD 01H			; std::runtime_error::`RTTI Complete Object Locator'
	DD	00H
	DD	00H
	DD	imagerel ??_R0?AVruntime_error@std@@@8
	DD	imagerel ??_R3runtime_error@std@@8
	DD	imagerel ??_R4runtime_error@std@@6B@
rdata$r	ENDS
;	COMDAT ??_R3?$ctype@D@std@@8
rdata$r	SEGMENT
??_R3?$ctype@D@std@@8 DD 00H				; std::ctype<char>::`RTTI Class Hierarchy Descriptor'
	DD	01H
	DD	05H
	DD	imagerel ??_R2?$ctype@D@std@@8
rdata$r	ENDS
;	COMDAT ??_R1A@?0A@EA@system_error@std@@8
rdata$r	SEGMENT
??_R1A@?0A@EA@system_error@std@@8 DD imagerel ??_R0?AVsystem_error@std@@@8 ; std::system_error::`RTTI Base Class Descriptor at (0,-1,0,64)'
	DD	03H
	DD	00H
	DD	0ffffffffH
	DD	00H
	DD	040H
	DD	imagerel ??_R3system_error@std@@8
rdata$r	ENDS
;	COMDAT ??_R4facet@locale@std@@6B@
rdata$r	SEGMENT
??_R4facet@locale@std@@6B@ DD 01H			; std::locale::facet::`RTTI Complete Object Locator'
	DD	00H
	DD	00H
	DD	imagerel ??_R0?AVfacet@locale@std@@@8
	DD	imagerel ??_R3facet@locale@std@@8
	DD	imagerel ??_R4facet@locale@std@@6B@
rdata$r	ENDS
;	COMDAT ??_R2system_error@std@@8
rdata$r	SEGMENT
??_R2system_error@std@@8 DD imagerel ??_R1A@?0A@EA@system_error@std@@8 ; std::system_error::`RTTI Base Class Array'
	DD	imagerel ??_R1A@?0A@EA@_System_error@std@@8
	DD	imagerel ??_R1A@?0A@EA@runtime_error@std@@8
	DD	imagerel ??_R1A@?0A@EA@exception@std@@8
	ORG $+3
rdata$r	ENDS
;	COMDAT ??_R0?AVruntime_error@std@@@8
data$r	SEGMENT
??_R0?AVruntime_error@std@@@8 DQ FLAT:??_7type_info@@6B@ ; std::runtime_error `RTTI Type Descriptor'
	DQ	0000000000000000H
	DB	'.?AVruntime_error@std@@', 00H
data$r	ENDS
;	COMDAT ??_R0?AVfailure@ios_base@std@@@8
data$r	SEGMENT
??_R0?AVfailure@ios_base@std@@@8 DQ FLAT:??_7type_info@@6B@ ; std::ios_base::failure `RTTI Type Descriptor'
	DQ	0000000000000000H
	DB	'.?AVfailure@ios_base@std@@', 00H
data$r	ENDS
;	COMDAT ??_C@_0BC@LCLEKDHB@Client?5connected?$CB@
CONST	SEGMENT
??_C@_0BC@LCLEKDHB@Client?5connected?$CB@ DB 'Client connected!', 00H ; `string'
CONST	ENDS
;	COMDAT ??_C@_0BF@OOHOMBOF@ios_base?3?3eofbit?5set@
CONST	SEGMENT
??_C@_0BF@OOHOMBOF@ios_base?3?3eofbit?5set@ DB 'ios_base::eofbit set', 00H ; `string'
CONST	ENDS
;	COMDAT ??_C@_0BG@FMKFHCIL@ios_base?3?3failbit?5set@
CONST	SEGMENT
??_C@_0BG@FMKFHCIL@ios_base?3?3failbit?5set@ DB 'ios_base::failbit set', 00H ; `string'
CONST	ENDS
;	COMDAT ??_C@_0BF@PHHKMMFD@ios_base?3?3badbit?5set@
CONST	SEGMENT
??_C@_0BF@PHHKMMFD@ios_base?3?3badbit?5set@ DB 'ios_base::badbit set', 00H ; `string'
CONST	ENDS
;	COMDAT ??_C@_0BA@ELKIONDK@bad?5locale?5name@
CONST	SEGMENT
??_C@_0BA@ELKIONDK@bad?5locale?5name@ DB 'bad locale name', 00H ; `string'
CONST	ENDS
;	COMDAT ??_C@_08EPJLHIJG@bad?5cast@
CONST	SEGMENT
??_C@_08EPJLHIJG@bad?5cast@ DB 'bad cast', 00H		; `string'
CONST	ENDS
;	COMDAT ??_C@_08LLGCOLLL@iostream@
CONST	SEGMENT
??_C@_08LLGCOLLL@iostream@ DB 'iostream', 00H		; `string'
CONST	ENDS
;	COMDAT ??_C@_02LMMGGCAJ@?3?5@
CONST	SEGMENT
??_C@_02LMMGGCAJ@?3?5@ DB ': ', 00H			; `string'
PUBLIC	??$forward@AEAPEAV_Facet_base@std@@@std@@YAAEAPEAV_Facet_base@0@AEAPEAV10@@Z ; std::forward<std::_Facet_base * &>
PUBLIC	??$?0AEAPEAV_Facet_base@std@@@?$_Compressed_pair@U?$default_delete@V_Facet_base@std@@@std@@PEAV_Facet_base@2@$00@std@@QEAA@U_Zero_then_variadic_args_t@1@AEAPEAV_Facet_base@1@@Z ; std::_Compressed_pair<std::default_delete<std::_Facet_base>,std::_Facet_base *,1>::_Compressed_pair<std::default_delete<std::_Facet_base>,std::_Facet_base *,1><std::_Facet_base * &>
PUBLIC	??$?0U?$pair@$$CBJV?$tuple@VClient@@V?$basic_string@DU?$char_traits@D@std@@V?$allocator@D@2@@std@@V23@@std@@@std@@@?$allocator@V?$_List_unchecked_iterator@V?$_List_val@U?$_List_simple_types@U?$pair@$$CBJV?$tuple@VClient@@V?$basic_string@DU?$char_traits@D@std@@V?$allocator@D@2@@std@@V23@@std@@@std@@@std@@@std@@@std@@@std@@QEAA@AEBV?$allocator@U?$pair@$$CBJV?$tuple@VClient@@V?$basic_string@DU?$char_traits@D@std@@V?$allocator@D@2@@std@@V23@@std@@@std@@@1@@Z ; std::allocator<std::_List_unchecked_iterator<std::_List_val<std::_List_simple_types<std::pair<long const ,std::tuple<Client,std::basic_string<char,std::char_traits<char>,std::allocator<char> >,std::basic_string<char,std::char_traits<char>,std::allocator<char> > > > > > > >::allocator<std::_List_unchecked_iterator<std::_List_val<std::_List_simple_types<std::pair<long const ,std::tuple<Client,std::basic_string<char,std::char_traits<char>,std::allocator<char> >,std::basic_string<char,std::char_traits<char>,std::allocator<char> > > > > > > ><std::pair<long const ,std::tuple<Client,std::basic_string<char,std::char_traits<char>,std::allocator<char> >,std::basic_string<char,std::char_traits<char>,std::allocator<char> > > > >
PUBLIC	??0?$_Vector_val@U?$_Simple_types@V?$_List_unchecked_iterator@V?$_List_val@U?$_List_simple_types@U?$pair@$$CBJV?$tuple@VClient@@V?$basic_string@DU?$char_traits@D@std@@V?$allocator@D@2@@std@@V23@@std@@@std@@@std@@@std@@@std@@@std@@@std@@QEAA@XZ ; std::_Vector_val<std::_Simple_types<std::_List_unchecked_iterator<std::_List_val<std::_List_simple_types<std::pair<long const ,std::tuple<Client,std::basic_string<char,std::char_traits<char>,std::allocator<char> >,std::basic_string<char,std::char_traits<char>,std::allocator<char> > > > > > > > >::_Vector_val<std::_Simple_types<std::_List_unchecked_iterator<std::_List_val<std::_List_simple_types<std::pair<long const ,std::tuple<Client,std::basic_string<char,std::char_traits<char>,std::allocator<char> >,std::basic_string<char,std::char_traits<char>,std::allocator<char> > > > > > > > >
PUBLIC	??$exchange@PEAV_Facet_base@std@@$$T@std@@YAPEAV_Facet_base@0@AEAPEAV10@$$QEA$$T@Z ; std::exchange<std::_Facet_base *,std::nullptr_t>
PUBLIC	??$construct_at@PEAU?$_List_node@U?$pair@$$CBJV?$tuple@VClient@@V?$basic_string@DU?$char_traits@D@std@@V?$allocator@D@2@@std@@V23@@std@@@std@@PEAX@std@@AEAPEAU12@$0A@@std@@YAPEAPEAU?$_List_node@U?$pair@$$CBJV?$tuple@VClient@@V?$basic_string@DU?$char_traits@D@std@@V?$allocator@D@2@@std@@V23@@std@@@std@@PEAX@0@QEAPEAU10@AEAPEAU10@@Z ; std::construct_at<std::_List_node<std::pair<long const ,std::tuple<Client,std::basic_string<char,std::char_traits<char>,std::allocator<char> >,std::basic_string<char,std::char_traits<char>,std::allocator<char> > > >,void *> *,std::_List_node<std::pair<long const ,std::tuple<Client,std::basic_string<char,std::char_traits<char>,std::allocator<char> >,std::basic_string<char,std::char_traits<char>,std::allocator<char> > > >,void *> * &,0>
PUBLIC	??$?0AEBV?$allocator@U?$pair@$$CBJV?$tuple@VClient@@V?$basic_string@DU?$char_traits@D@std@@V?$allocator@D@2@@std@@V23@@std@@@std@@@std@@$$V@?$_Compressed_pair@V?$allocator@V?$_List_unchecked_iterator@V?$_List_val@U?$_List_simple_types@U?$pair@$$CBJV?$tuple@VClient@@V?$basic_string@DU?$char_traits@D@std@@V?$allocator@D@2@@std@@V23@@std@@@std@@@std@@@std@@@std@@@std@@V?$_Vector_val@U?$_Simple_types@V?$_List_unchecked_iterator@V?$_List_val@U?$_List_simple_types@U?$pair@$$CBJV?$tuple@VClient@@V?$basic_string@DU?$char_traits@D@std@@V?$allocator@D@2@@std@@V23@@std@@@std@@@std@@@std@@@std@@@std@@@2@$00@std@@QEAA@U_One_then_variadic_args_t@1@AEBV?$allocator@U?$pair@$$CBJV?$tuple@VClient@@V?$basic_string@DU?$char_traits@D@std@@V?$allocator@D@2@@std@@V23@@std@@@std@@@1@@Z ; std::_Compressed_pair<std::allocator<std::_List_unchecked_iterator<std::_List_val<std::_List_simple_types<std::pair<long const ,std::tuple<Client,std::basic_string<char,std::char_traits<char>,std::allocator<char> >,std::basic_string<char,std::char_traits<char>,std::allocator<char> > > > > > > >,std::_Vector_val<std::_Simple_types<std::_List_unchecked_iterator<std::_List_val<std::_List_simple_types<std::pair<long const ,std::tuple<Client,std::basic_string<char,std::char_traits<char>,std::allocator<char> >,std::basic_string<char,std::char_traits<char>,std::allocator<char> > > > > > > > >,1>::_Compressed_pair<std::allocator<std::_List_unchecked_iterator<std::_List_val<std::_List_simple_types<std::pair<long const ,std::tuple<Client,std::basic_string<char,std::char_traits<char>,std::allocator<char> >,std::basic_string<char,std::char_traits<char>,std::allocator<char> > > > > > > >,std::_Vector_val<std::_Simple_types<std::_List_unchecked_iterator<std::_List_val<std::_List_simple_types<std::pair<long const ,std::tuple<Client,std::basic_string<char,std::char_traits<char>,std::allocator<char> >,std::basic_string<char,std::char_traits<char>,std::allocator<char> > > > > > > > >,1><std::allocator<std::pair<long const ,std::tuple<Client,std::basic_string<char,std::char_traits<char>,std::allocator<char> >,std::basic_string<char,std::char_traits<char>,std::allocator<char> > > > > const &>
PUBLIC	??$forward@AEBV?$allocator@U?$pair@$$CBJV?$tuple@VClient@@V?$basic_string@DU?$char_traits@D@std@@V?$allocator@D@2@@std@@V23@@std@@@std@@@std@@@std@@YAAEBV?$allocator@U?$pair@$$CBJV?$tuple@VClient@@V?$basic_string@DU?$char_traits@D@std@@V?$allocator@D@2@@std@@V23@@std@@@std@@@0@AEBV10@@Z ; std::forward<std::allocator<std::pair<long const ,std::tuple<Client,std::basic_string<char,std::char_traits<char>,std::allocator<char> >,std::basic_string<char,std::char_traits<char>,std::allocator<char> > > > > const &>
PUBLIC	??$?0U?$default_delete@V_Facet_base@std@@@std@@$0A@@?$unique_ptr@V_Facet_base@std@@U?$default_delete@V_Facet_base@std@@@2@@std@@QEAA@PEAV_Facet_base@1@@Z ; std::unique_ptr<std::_Facet_base,std::default_delete<std::_Facet_base> >::unique_ptr<std::_Facet_base,std::default_delete<std::_Facet_base> ><std::default_delete<std::_Facet_base>,0>
PUBLIC	??$?0U?$pair@$$CBJV?$tuple@VClient@@V?$basic_string@DU?$char_traits@D@std@@V?$allocator@D@2@@std@@V23@@std@@@std@@@?$allocator@U?$_List_node@U?$pair@$$CBJV?$tuple@VClient@@V?$basic_string@DU?$char_traits@D@std@@V?$allocator@D@2@@std@@V23@@std@@@std@@PEAX@std@@@std@@QEAA@AEBV?$allocator@U?$pair@$$CBJV?$tuple@VClient@@V?$basic_string@DU?$char_traits@D@std@@V?$allocator@D@2@@std@@V23@@std@@@std@@@1@@Z ; std::allocator<std::_List_node<std::pair<long const ,std::tuple<Client,std::basic_string<char,std::char_traits<char>,std::allocator<char> >,std::basic_string<char,std::char_traits<char>,std::allocator<char> > > >,void *> >::allocator<std::_List_node<std::pair<long const ,std::tuple<Client,std::basic_string<char,std::char_traits<char>,std::allocator<char> >,std::basic_string<char,std::char_traits<char>,std::allocator<char> > > >,void *> ><std::pair<long const ,std::tuple<Client,std::basic_string<char,std::char_traits<char>,std::allocator<char> >,std::basic_string<char,std::char_traits<char>,std::allocator<char> > > > >
PUBLIC	??$?0M@?$_Compressed_pair@U?$equal_to@J@std@@M$00@std@@QEAA@U_Zero_then_variadic_args_t@1@$$QEAM@Z ; std::_Compressed_pair<std::equal_to<long>,float,1>::_Compressed_pair<std::equal_to<long>,float,1><float>
PUBLIC	?to_int_type@?$_Narrow_char_traits@DH@std@@SAHD@Z ; std::_Narrow_char_traits<char,int>::to_int_type
PUBLIC	?clear@?$basic_ios@DU?$char_traits@D@std@@@std@@QEAAXH_N@Z ; std::basic_ios<char,std::char_traits<char> >::clear
PUBLIC	?tie@?$basic_ios@DU?$char_traits@D@std@@@std@@QEBAPEAV?$basic_ostream@DU?$char_traits@D@std@@@2@XZ ; std::basic_ios<char,std::char_traits<char> >::tie
PUBLIC	?_Osfx@?$basic_ostream@DU?$char_traits@D@std@@@std@@QEAAXXZ ; std::basic_ostream<char,std::char_traits<char> >::_Osfx
PUBLIC	??R?$default_delete@V_Facet_base@std@@@std@@QEBAXPEAV_Facet_base@1@@Z ; std::default_delete<std::_Facet_base>::operator()
PUBLIC	?_Get_first@?$_Compressed_pair@U?$default_delete@V_Facet_base@std@@@std@@PEAV_Facet_base@2@$00@std@@QEAAAEAU?$default_delete@V_Facet_base@std@@@2@XZ ; std::_Compressed_pair<std::default_delete<std::_Facet_base>,std::_Facet_base *,1>::_Get_first
PUBLIC	??0_Sentry_base@?$basic_ostream@DU?$char_traits@D@std@@@std@@QEAA@AEAV12@@Z ; std::basic_ostream<char,std::char_traits<char> >::_Sentry_base::_Sentry_base
PUBLIC	??1_Sentry_base@?$basic_ostream@DU?$char_traits@D@std@@@std@@QEAA@XZ ; std::basic_ostream<char,std::char_traits<char> >::_Sentry_base::~_Sentry_base
PUBLIC	?pubsync@?$basic_streambuf@DU?$char_traits@D@std@@@std@@QEAAHXZ ; std::basic_streambuf<char,std::char_traits<char> >::pubsync
PUBLIC	?_Pninc@?$basic_streambuf@DU?$char_traits@D@std@@@std@@IEAAPEADXZ ; std::basic_streambuf<char,std::char_traits<char> >::_Pninc
PUBLIC	?_Pnavail@?$basic_streambuf@DU?$char_traits@D@std@@@std@@IEBA_JXZ ; std::basic_streambuf<char,std::char_traits<char> >::_Pnavail
PUBLIC	?eq_int_type@?$_Narrow_char_traits@DH@std@@SA_NHH@Z ; std::_Narrow_char_traits<char,int>::eq_int_type
PUBLIC	?eof@?$_Narrow_char_traits@DH@std@@SAHXZ	; std::_Narrow_char_traits<char,int>::eof
PUBLIC	??0?$_List_val@U?$_List_simple_types@U?$pair@$$CBJV?$tuple@VClient@@V?$basic_string@DU?$char_traits@D@std@@V?$allocator@D@2@@std@@V23@@std@@@std@@@std@@@std@@QEAA@XZ ; std::_List_val<std::_List_simple_types<std::pair<long const ,std::tuple<Client,std::basic_string<char,std::char_traits<char>,std::allocator<char> >,std::basic_string<char,std::char_traits<char>,std::allocator<char> > > > > >::_List_val<std::_List_simple_types<std::pair<long const ,std::tuple<Client,std::basic_string<char,std::char_traits<char>,std::allocator<char> >,std::basic_string<char,std::char_traits<char>,std::allocator<char> > > > > >
PUBLIC	?setstate@?$basic_ios@DU?$char_traits@D@std@@@std@@QEAAXH_N@Z ; std::basic_ios<char,std::char_traits<char> >::setstate
PUBLIC	?rdbuf@?$basic_ios@DU?$char_traits@D@std@@@std@@QEBAPEAV?$basic_streambuf@DU?$char_traits@D@std@@@2@XZ ; std::basic_ios<char,std::char_traits<char> >::rdbuf
PUBLIC	?fill@?$basic_ios@DU?$char_traits@D@std@@@std@@QEBADXZ ; std::basic_ios<char,std::char_traits<char> >::fill
PUBLIC	?widen@?$basic_ios@DU?$char_traits@D@std@@@std@@QEBADD@Z ; std::basic_ios<char,std::char_traits<char> >::widen
PUBLIC	?put@?$basic_ostream@DU?$char_traits@D@std@@@std@@QEAAAEAV12@D@Z ; std::basic_ostream<char,std::char_traits<char> >::put
PUBLIC	?flush@?$basic_ostream@DU?$char_traits@D@std@@@std@@QEAAAEAV12@XZ ; std::basic_ostream<char,std::char_traits<char> >::flush
PUBLIC	??1?$unique_ptr@V_Facet_base@std@@U?$default_delete@V_Facet_base@std@@@2@@std@@QEAA@XZ ; std::unique_ptr<std::_Facet_base,std::default_delete<std::_Facet_base> >::~unique_ptr<std::_Facet_base,std::default_delete<std::_Facet_base> >
PUBLIC	?release@?$unique_ptr@V_Facet_base@std@@U?$default_delete@V_Facet_base@std@@@2@@std@@QEAAPEAV_Facet_base@2@XZ ; std::unique_ptr<std::_Facet_base,std::default_delete<std::_Facet_base> >::release
PUBLIC	??0sentry@?$basic_ostream@DU?$char_traits@D@std@@@std@@QEAA@AEAV12@@Z ; std::basic_ostream<char,std::char_traits<char> >::sentry::sentry
PUBLIC	??1sentry@?$basic_ostream@DU?$char_traits@D@std@@@std@@QEAA@XZ ; std::basic_ostream<char,std::char_traits<char> >::sentry::~sentry
PUBLIC	??Bsentry@?$basic_ostream@DU?$char_traits@D@std@@@std@@QEBA_NXZ ; std::basic_ostream<char,std::char_traits<char> >::sentry::operator bool
PUBLIC	?sputc@?$basic_streambuf@DU?$char_traits@D@std@@@std@@QEAAHD@Z ; std::basic_streambuf<char,std::char_traits<char> >::sputc
PUBLIC	?sputn@?$basic_streambuf@DU?$char_traits@D@std@@@std@@QEAA_JPEBD_J@Z ; std::basic_streambuf<char,std::char_traits<char> >::sputn
PUBLIC	?__autoclassinit2@?$unique_ptr@V_Facet_base@std@@U?$default_delete@V_Facet_base@std@@@2@@std@@QEAAX_K@Z ; std::unique_ptr<std::_Facet_base,std::default_delete<std::_Facet_base> >::__autoclassinit2
PUBLIC	??$_Construct_in_place@PEAU?$_List_node@U?$pair@$$CBJV?$tuple@VClient@@V?$basic_string@DU?$char_traits@D@std@@V?$allocator@D@2@@std@@V23@@std@@@std@@PEAX@std@@AEAPEAU12@@std@@YAXAEAPEAU?$_List_node@U?$pair@$$CBJV?$tuple@VClient@@V?$basic_string@DU?$char_traits@D@std@@V?$allocator@D@2@@std@@V23@@std@@@std@@PEAX@0@0@Z ; std::_Construct_in_place<std::_List_node<std::pair<long const ,std::tuple<Client,std::basic_string<char,std::char_traits<char>,std::allocator<char> >,std::basic_string<char,std::char_traits<char>,std::allocator<char> > > >,void *> *,std::_List_node<std::pair<long const ,std::tuple<Client,std::basic_string<char,std::char_traits<char>,std::allocator<char> >,std::basic_string<char,std::char_traits<char>,std::allocator<char> > > >,void *> * &>
PUBLIC	??$?0AEBV?$allocator@U?$pair@$$CBJV?$tuple@VClient@@V?$basic_string@DU?$char_traits@D@std@@V?$allocator@D@2@@std@@V23@@std@@@std@@@std@@$$V@?$_Compressed_pair@V?$allocator@U?$_List_node@U?$pair@$$CBJV?$tuple@VClient@@V?$basic_string@DU?$char_traits@D@std@@V?$allocator@D@2@@std@@V23@@std@@@std@@PEAX@std@@@std@@V?$_List_val@U?$_List_simple_types@U?$pair@$$CBJV?$tuple@VClient@@V?$basic_string@DU?$char_traits@D@std@@V?$allocator@D@2@@std@@V23@@std@@@std@@@std@@@2@$00@std@@QEAA@U_One_then_variadic_args_t@1@AEBV?$allocator@U?$pair@$$CBJV?$tuple@VClient@@V?$basic_string@DU?$char_traits@D@std@@V?$allocator@D@2@@std@@V23@@std@@@std@@@1@@Z ; std::_Compressed_pair<std::allocator<std::_List_node<std::pair<long const ,std::tuple<Client,std::basic_string<char,std::char_traits<char>,std::allocator<char> >,std::basic_string<char,std::char_traits<char>,std::allocator<char> > > >,void *> >,std::_List_val<std::_List_simple_types<std::pair<long const ,std::tuple<Client,std::basic_string<char,std::char_traits<char>,std::allocator<char> >,std::basic_string<char,std::char_traits<char>,std::allocator<char> > > > > >,1>::_Compressed_pair<std::allocator<std::_List_node<std::pair<long const ,std::tuple<Client,std::basic_string<char,std::char_traits<char>,std::allocator<char> >,std::basic_string<char,std::char_traits<char>,std::allocator<char> > > >,void *> >,std::_List_val<std::_List_simple_types<std::pair<long const ,std::tuple<Client,std::basic_string<char,std::char_traits<char>,std::allocator<char> >,std::basic_string<char,std::char_traits<char>,std::allocator<char> > > > > >,1><std::allocator<std::pair<long const ,std::tuple<Client,std::basic_string<char,std::char_traits<char>,std::allocator<char> >,std::basic_string<char,std::char_traits<char>,std::allocator<char> > > > > const &>
PUBLIC	??$_Reallocate_grow_by@V<lambda_1>@?1??append@?$basic_string@DU?$char_traits@D@std@@V?$allocator@D@2@@std@@QEAAAEAV34@QEBD_K@Z@PEBD_K@?$basic_string@DU?$char_traits@D@std@@V?$allocator@D@2@@std@@AEAAAEAV01@_KV<lambda_1>@?1??append@01@QEAAAEAV01@QEBD0@Z@PEBD_K@Z ; std::basic_string<char,std::char_traits<char>,std::allocator<char> >::_Reallocate_grow_by<`std::basic_string<char,std::char_traits<char>,std::allocator<char> >::append'::`2'::<lambda_1>,char const *,unsigned __int64>
PUBLIC	??$?0U_Zero_then_variadic_args_t@std@@M@?$_Compressed_pair@U?$hash@J@std@@V?$_Compressed_pair@U?$equal_to@J@std@@M$00@2@$00@std@@QEAA@U_Zero_then_variadic_args_t@1@$$QEAU21@$$QEAM@Z ; std::_Compressed_pair<std::hash<long>,std::_Compressed_pair<std::equal_to<long>,float,1>,1>::_Compressed_pair<std::hash<long>,std::_Compressed_pair<std::equal_to<long>,float,1>,1><std::_Zero_then_variadic_args_t,float>
PUBLIC	??$?0AEBV?$allocator@U?$pair@$$CBJV?$tuple@VClient@@V?$basic_string@DU?$char_traits@D@std@@V?$allocator@D@2@@std@@V23@@std@@@std@@@std@@$0A@@?$_Hash_vec@V?$allocator@V?$_List_unchecked_iterator@V?$_List_val@U?$_List_simple_types@U?$pair@$$CBJV?$tuple@VClient@@V?$basic_string@DU?$char_traits@D@std@@V?$allocator@D@2@@std@@V23@@std@@@std@@@std@@@std@@@std@@@std@@@std@@QEAA@AEBV?$allocator@U?$pair@$$CBJV?$tuple@VClient@@V?$basic_string@DU?$char_traits@D@std@@V?$allocator@D@2@@std@@V23@@std@@@std@@@1@@Z ; std::_Hash_vec<std::allocator<std::_List_unchecked_iterator<std::_List_val<std::_List_simple_types<std::pair<long const ,std::tuple<Client,std::basic_string<char,std::char_traits<char>,std::allocator<char> >,std::basic_string<char,std::char_traits<char>,std::allocator<char> > > > > > > > >::_Hash_vec<std::allocator<std::_List_unchecked_iterator<std::_List_val<std::_List_simple_types<std::pair<long const ,std::tuple<Client,std::basic_string<char,std::char_traits<char>,std::allocator<char> >,std::basic_string<char,std::char_traits<char>,std::allocator<char> > > > > > > > ><std::allocator<std::pair<long const ,std::tuple<Client,std::basic_string<char,std::char_traits<char>,std::allocator<char> >,std::basic_string<char,std::char_traits<char>,std::allocator<char> > > > > const &,0>
PUBLIC	??$endl@DU?$char_traits@D@std@@@std@@YAAEAV?$basic_ostream@DU?$char_traits@D@std@@@0@AEAV10@@Z ; std::endl<char,std::char_traits<char> >
PUBLIC	??$?6U?$char_traits@D@std@@@std@@YAAEAV?$basic_ostream@DU?$char_traits@D@std@@@0@AEAV10@PEBD@Z ; std::operator<<<std::char_traits<char> >
PUBLIC	??$_Adl_verify_range@PEADPEBD@std@@YAXAEBQEADAEBQEBD@Z ; std::_Adl_verify_range<char *,char const *>
PUBLIC	??$use_facet@V?$ctype@D@std@@@std@@YAAEBV?$ctype@D@0@AEBVlocale@0@@Z ; std::use_facet<std::ctype<char> >
PUBLIC	??$_Adl_verify_range@PEBDPEBD@std@@YAXAEBQEBD0@Z ; std::_Adl_verify_range<char const *,char const *>
PUBLIC	??$_Immortalize_memcpy_image@V_Iostream_error_category2@std@@@std@@YAAEBV_Iostream_error_category2@0@XZ ; std::_Immortalize_memcpy_image<std::_Iostream_error_category2>
PUBLIC	??$_Bit_cast@_KT_Addr_storage@error_category@std@@$0A@@std@@YA_KAEBT_Addr_storage@error_category@0@@Z ; std::_Bit_cast<unsigned __int64,std::error_category::_Addr_storage,0>
PUBLIC	?_Get_max_bucket_size@?$_Uhash_compare@JU?$hash@J@std@@U?$equal_to@J@2@@std@@QEAAAEAMXZ ; std::_Uhash_compare<long,std::hash<long>,std::equal_to<long> >::_Get_max_bucket_size
PUBLIC	?_Alloc_sentinel_and_proxy@?$list@U?$pair@$$CBJV?$tuple@VClient@@V?$basic_string@DU?$char_traits@D@std@@V?$allocator@D@2@@std@@V23@@std@@@std@@V?$allocator@U?$pair@$$CBJV?$tuple@VClient@@V?$basic_string@DU?$char_traits@D@std@@V?$allocator@D@2@@std@@V23@@std@@@std@@@2@@std@@AEAAXXZ ; std::list<std::pair<long const ,std::tuple<Client,std::basic_string<char,std::char_traits<char>,std::allocator<char> >,std::basic_string<char,std::char_traits<char>,std::allocator<char> > > >,std::allocator<std::pair<long const ,std::tuple<Client,std::basic_string<char,std::char_traits<char>,std::allocator<char> >,std::basic_string<char,std::char_traits<char>,std::allocator<char> > > > > >::_Alloc_sentinel_and_proxy
PUBLIC	?move@?$_Char_traits@DH@std@@SAPEADQEADQEBD_K@Z	; std::_Char_traits<char,int>::move
PUBLIC	??0?$_Umap_traits@JV?$tuple@VClient@@V?$basic_string@DU?$char_traits@D@std@@V?$allocator@D@2@@std@@V23@@std@@V?$_Uhash_compare@JU?$hash@J@std@@U?$equal_to@J@2@@2@V?$allocator@U?$pair@$$CBJV?$tuple@VClient@@V?$basic_string@DU?$char_traits@D@std@@V?$allocator@D@2@@std@@V23@@std@@@std@@@2@$0A@@std@@QEAA@AEBV?$_Uhash_compare@JU?$hash@J@std@@U?$equal_to@J@2@@1@@Z ; std::_Umap_traits<long,std::tuple<Client,std::basic_string<char,std::char_traits<char>,std::allocator<char> >,std::basic_string<char,std::char_traits<char>,std::allocator<char> > >,std::_Uhash_compare<long,std::hash<long>,std::equal_to<long> >,std::allocator<std::pair<long const ,std::tuple<Client,std::basic_string<char,std::char_traits<char>,std::allocator<char> >,std::basic_string<char,std::char_traits<char>,std::allocator<char> > > > >,0>::_Umap_traits<long,std::tuple<Client,std::basic_string<char,std::char_traits<char>,std::allocator<char> >,std::basic_string<char,std::char_traits<char>,std::allocator<char> > >,std::_Uhash_compare<long,std::hash<long>,std::equal_to<long> >,std::allocator<std::pair<long const ,std::tuple<Client,std::basic_string<char,std::char_traits<char>,std::allocator<char> >,std::basic_string<char,std::char_traits<char>,std::allocator<char> > > > >,0>
PUBLIC	??0?$list@U?$pair@$$CBJV?$tuple@VClient@@V?$basic_string@DU?$char_traits@D@std@@V?$allocator@D@2@@std@@V23@@std@@@std@@V?$allocator@U?$pair@$$CBJV?$tuple@VClient@@V?$basic_string@DU?$char_traits@D@std@@V?$allocator@D@2@@std@@V23@@std@@@std@@@2@@std@@QEAA@AEBV?$allocator@U?$pair@$$CBJV?$tuple@VClient@@V?$basic_string@DU?$char_traits@D@std@@V?$allocator@D@2@@std@@V23@@std@@@std@@@1@@Z ; std::list<std::pair<long const ,std::tuple<Client,std::basic_string<char,std::char_traits<char>,std::allocator<char> >,std::basic_string<char,std::char_traits<char>,std::allocator<char> > > >,std::allocator<std::pair<long const ,std::tuple<Client,std::basic_string<char,std::char_traits<char>,std::allocator<char> >,std::basic_string<char,std::char_traits<char>,std::allocator<char> > > > > >::list<std::pair<long const ,std::tuple<Client,std::basic_string<char,std::char_traits<char>,std::allocator<char> >,std::basic_string<char,std::char_traits<char>,std::allocator<char> > > >,std::allocator<std::pair<long const ,std::tuple<Client,std::basic_string<char,std::char_traits<char>,std::allocator<char> >,std::basic_string<char,std::char_traits<char>,std::allocator<char> > > > > >
PUBLIC	?_Max_bucket_size@?$_Hash@V?$_Umap_traits@JV?$tuple@VClient@@V?$basic_string@DU?$char_traits@D@std@@V?$allocator@D@2@@std@@V23@@std@@V?$_Uhash_compare@JU?$hash@J@std@@U?$equal_to@J@2@@2@V?$allocator@U?$pair@$$CBJV?$tuple@VClient@@V?$basic_string@DU?$char_traits@D@std@@V?$allocator@D@2@@std@@V23@@std@@@std@@@2@$0A@@std@@@std@@IEAAAEAMXZ ; std::_Hash<std::_Umap_traits<long,std::tuple<Client,std::basic_string<char,std::char_traits<char>,std::allocator<char> >,std::basic_string<char,std::char_traits<char>,std::allocator<char> > >,std::_Uhash_compare<long,std::hash<long>,std::equal_to<long> >,std::allocator<std::pair<long const ,std::tuple<Client,std::basic_string<char,std::char_traits<char>,std::allocator<char> >,std::basic_string<char,std::char_traits<char>,std::allocator<char> > > > >,0> >::_Max_bucket_size
PUBLIC	??R<lambda_1>@?1??append@?$basic_string@DU?$char_traits@D@std@@V?$allocator@D@2@@std@@QEAAAEAV23@QEBD_K@Z@QEBA@QEAD0101@Z ; `std::basic_string<char,std::char_traits<char>,std::allocator<char> >::append'::`2'::<lambda_1>::operator()
PUBLIC	?append@?$basic_string@DU?$char_traits@D@std@@V?$allocator@D@2@@std@@QEAAAEAV12@QEBD_K@Z ; std::basic_string<char,std::char_traits<char>,std::allocator<char> >::append
PUBLIC	?_Tidy@?$_Yarn@D@std@@AEAAXXZ			; std::_Yarn<char>::_Tidy
PUBLIC	?_Tidy@?$_Yarn@_W@std@@AEAAXXZ			; std::_Yarn<wchar_t>::_Tidy
PUBLIC	??0?$_Uhash_compare@JU?$hash@J@std@@U?$equal_to@J@2@@std@@QEAA@XZ ; std::_Uhash_compare<long,std::hash<long>,std::equal_to<long> >::_Uhash_compare<long,std::hash<long>,std::equal_to<long> >
PUBLIC	??0?$allocator@U?$pair@$$CBJV?$tuple@VClient@@V?$basic_string@DU?$char_traits@D@std@@V?$allocator@D@2@@std@@V23@@std@@@std@@@std@@QEAA@XZ ; std::allocator<std::pair<long const ,std::tuple<Client,std::basic_string<char,std::char_traits<char>,std::allocator<char> >,std::basic_string<char,std::char_traits<char>,std::allocator<char> > > > >::allocator<std::pair<long const ,std::tuple<Client,std::basic_string<char,std::char_traits<char>,std::allocator<char> >,std::basic_string<char,std::char_traits<char>,std::allocator<char> > > > >
PUBLIC	?_Tidy@?$list@U?$pair@$$CBJV?$tuple@VClient@@V?$basic_string@DU?$char_traits@D@std@@V?$allocator@D@2@@std@@V23@@std@@@std@@V?$allocator@U?$pair@$$CBJV?$tuple@VClient@@V?$basic_string@DU?$char_traits@D@std@@V?$allocator@D@2@@std@@V23@@std@@@std@@@2@@std@@AEAAXXZ ; std::list<std::pair<long const ,std::tuple<Client,std::basic_string<char,std::char_traits<char>,std::allocator<char> >,std::basic_string<char,std::char_traits<char>,std::allocator<char> > > >,std::allocator<std::pair<long const ,std::tuple<Client,std::basic_string<char,std::char_traits<char>,std::allocator<char> >,std::basic_string<char,std::char_traits<char>,std::allocator<char> > > > > >::_Tidy
PUBLIC	??0?$_Hash@V?$_Umap_traits@JV?$tuple@VClient@@V?$basic_string@DU?$char_traits@D@std@@V?$allocator@D@2@@std@@V23@@std@@V?$_Uhash_compare@JU?$hash@J@std@@U?$equal_to@J@2@@2@V?$allocator@U?$pair@$$CBJV?$tuple@VClient@@V?$basic_string@DU?$char_traits@D@std@@V?$allocator@D@2@@std@@V23@@std@@@std@@@2@$0A@@std@@@std@@IEAA@AEBV?$_Uhash_compare@JU?$hash@J@std@@U?$equal_to@J@2@@1@AEBV?$allocator@U?$pair@$$CBJV?$tuple@VClient@@V?$basic_string@DU?$char_traits@D@std@@V?$allocator@D@2@@std@@V23@@std@@@std@@@1@@Z ; std::_Hash<std::_Umap_traits<long,std::tuple<Client,std::basic_string<char,std::char_traits<char>,std::allocator<char> >,std::basic_string<char,std::char_traits<char>,std::allocator<char> > >,std::_Uhash_compare<long,std::hash<long>,std::equal_to<long> >,std::allocator<std::pair<long const ,std::tuple<Client,std::basic_string<char,std::char_traits<char>,std::allocator<char> >,std::basic_string<char,std::char_traits<char>,std::allocator<char> > > > >,0> >::_Hash<std::_Umap_traits<long,std::tuple<Client,std::basic_string<char,std::char_traits<char>,std::allocator<char> >,std::basic_string<char,std::char_traits<char>,std::allocator<char> > >,std::_Uhash_compare<long,std::hash<long>,std::equal_to<long> >,std::allocator<std::pair<long const ,std::tuple<Client,std::basic_string<char,std::char_traits<char>,std::allocator<char> >,std::basic_string<char,std::char_traits<char>,std::allocator<char> > > > >,0> >
PUBLIC	?_Tidy@?$_Hash_vec@V?$allocator@V?$_List_unchecked_iterator@V?$_List_val@U?$_List_simple_types@U?$pair@$$CBJV?$tuple@VClient@@V?$basic_string@DU?$char_traits@D@std@@V?$allocator@D@2@@std@@V23@@std@@@std@@@std@@@std@@@std@@@std@@@std@@QEAAXXZ ; std::_Hash_vec<std::allocator<std::_List_unchecked_iterator<std::_List_val<std::_List_simple_types<std::pair<long const ,std::tuple<Client,std::basic_string<char,std::char_traits<char>,std::allocator<char> >,std::basic_string<char,std::char_traits<char>,std::allocator<char> > > > > > > > >::_Tidy
PUBLIC	??0?$basic_string@DU?$char_traits@D@std@@V?$allocator@D@2@@std@@QEAA@QEBD_K@Z ; std::basic_string<char,std::char_traits<char>,std::allocator<char> >::basic_string<char,std::char_traits<char>,std::allocator<char> >
PUBLIC	?append@?$basic_string@DU?$char_traits@D@std@@V?$allocator@D@2@@std@@QEAAAEAV12@AEBV12@@Z ; std::basic_string<char,std::char_traits<char>,std::allocator<char> >::append
PUBLIC	?append@?$basic_string@DU?$char_traits@D@std@@V?$allocator@D@2@@std@@QEAAAEAV12@QEBD@Z ; std::basic_string<char,std::char_traits<char>,std::allocator<char> >::append
PUBLIC	??0?$_Yarn@D@std@@QEAA@XZ			; std::_Yarn<char>::_Yarn<char>
PUBLIC	??1?$_Yarn@D@std@@QEAA@XZ			; std::_Yarn<char>::~_Yarn<char>
PUBLIC	?c_str@?$_Yarn@D@std@@QEBAPEBDXZ		; std::_Yarn<char>::c_str
PUBLIC	??0?$_Yarn@_W@std@@QEAA@XZ			; std::_Yarn<wchar_t>::_Yarn<wchar_t>
PUBLIC	??1?$_Yarn@_W@std@@QEAA@XZ			; std::_Yarn<wchar_t>::~_Yarn<wchar_t>
PUBLIC	??1?$list@U?$pair@$$CBJV?$tuple@VClient@@V?$basic_string@DU?$char_traits@D@std@@V?$allocator@D@2@@std@@V23@@std@@@std@@V?$allocator@U?$pair@$$CBJV?$tuple@VClient@@V?$basic_string@DU?$char_traits@D@std@@V?$allocator@D@2@@std@@V23@@std@@@std@@@2@@std@@QEAA@XZ ; std::list<std::pair<long const ,std::tuple<Client,std::basic_string<char,std::char_traits<char>,std::allocator<char> >,std::basic_string<char,std::char_traits<char>,std::allocator<char> > > >,std::allocator<std::pair<long const ,std::tuple<Client,std::basic_string<char,std::char_traits<char>,std::allocator<char> >,std::basic_string<char,std::char_traits<char>,std::allocator<char> > > > > >::~list<std::pair<long const ,std::tuple<Client,std::basic_string<char,std::char_traits<char>,std::allocator<char> >,std::basic_string<char,std::char_traits<char>,std::allocator<char> > > >,std::allocator<std::pair<long const ,std::tuple<Client,std::basic_string<char,std::char_traits<char>,std::allocator<char> >,std::basic_string<char,std::char_traits<char>,std::allocator<char> > > > > >
PUBLIC	??1?$_Hash_vec@V?$allocator@V?$_List_unchecked_iterator@V?$_List_val@U?$_List_simple_types@U?$pair@$$CBJV?$tuple@VClient@@V?$basic_string@DU?$char_traits@D@std@@V?$allocator@D@2@@std@@V23@@std@@@std@@@std@@@std@@@std@@@std@@@std@@QEAA@XZ ; std::_Hash_vec<std::allocator<std::_List_unchecked_iterator<std::_List_val<std::_List_simple_types<std::pair<long const ,std::tuple<Client,std::basic_string<char,std::char_traits<char>,std::allocator<char> >,std::basic_string<char,std::char_traits<char>,std::allocator<char> > > > > > > > >::~_Hash_vec<std::allocator<std::_List_unchecked_iterator<std::_List_val<std::_List_simple_types<std::pair<long const ,std::tuple<Client,std::basic_string<char,std::char_traits<char>,std::allocator<char> >,std::basic_string<char,std::char_traits<char>,std::allocator<char> > > > > > > > >
PUBLIC	??0?$unordered_map@JV?$tuple@VClient@@V?$basic_string@DU?$char_traits@D@std@@V?$allocator@D@2@@std@@V23@@std@@U?$hash@J@2@U?$equal_to@J@2@V?$allocator@U?$pair@$$CBJV?$tuple@VClient@@V?$basic_string@DU?$char_traits@D@std@@V?$allocator@D@2@@std@@V23@@std@@@std@@@2@@std@@QEAA@XZ ; std::unordered_map<long,std::tuple<Client,std::basic_string<char,std::char_traits<char>,std::allocator<char> >,std::basic_string<char,std::char_traits<char>,std::allocator<char> > >,std::hash<long>,std::equal_to<long>,std::allocator<std::pair<long const ,std::tuple<Client,std::basic_string<char,std::char_traits<char>,std::allocator<char> >,std::basic_string<char,std::char_traits<char>,std::allocator<char> > > > > >::unordered_map<long,std::tuple<Client,std::basic_string<char,std::char_traits<char>,std::allocator<char> >,std::basic_string<char,std::char_traits<char>,std::allocator<char> > >,std::hash<long>,std::equal_to<long>,std::allocator<std::pair<long const ,std::tuple<Client,std::basic_string<char,std::char_traits<char>,std::allocator<char> >,std::basic_string<char,std::char_traits<char>,std::allocator<char> > > > > >
PUBLIC	??6?$basic_ostream@DU?$char_traits@D@std@@@std@@QEAAAEAV01@P6AAEAV01@AEAV01@@Z@Z ; std::basic_ostream<char,std::char_traits<char> >::operator<<
PUBLIC	?__autoclassinit2@ServerInterface@@QEAAX_K@Z	; ServerInterface::__autoclassinit2
PUBLIC	main
PUBLIC	??0mutex@std@@QEAA@XZ				; std::mutex::mutex
PUBLIC	??1?$_Hash@V?$_Umap_traits@JV?$tuple@VClient@@V?$basic_string@DU?$char_traits@D@std@@V?$allocator@D@2@@std@@V23@@std@@V?$_Uhash_compare@JU?$hash@J@std@@U?$equal_to@J@2@@2@V?$allocator@U?$pair@$$CBJV?$tuple@VClient@@V?$basic_string@DU?$char_traits@D@std@@V?$allocator@D@2@@std@@V23@@std@@@std@@@2@$0A@@std@@@std@@QEAA@XZ ; std::_Hash<std::_Umap_traits<long,std::tuple<Client,std::basic_string<char,std::char_traits<char>,std::allocator<char> >,std::basic_string<char,std::char_traits<char>,std::allocator<char> > >,std::_Uhash_compare<long,std::hash<long>,std::equal_to<long> >,std::allocator<std::pair<long const ,std::tuple<Client,std::basic_string<char,std::char_traits<char>,std::allocator<char> >,std::basic_string<char,std::char_traits<char>,std::allocator<char> > > > >,0> >::~_Hash<std::_Umap_traits<long,std::tuple<Client,std::basic_string<char,std::char_traits<char>,std::allocator<char> >,std::basic_string<char,std::char_traits<char>,std::allocator<char> > >,std::_Uhash_compare<long,std::hash<long>,std::equal_to<long> >,std::allocator<std::pair<long const ,std::tuple<Client,std::basic_string<char,std::char_traits<char>,std::allocator<char> >,std::basic_string<char,std::char_traits<char>,std::allocator<char> > > > >,0> >
PUBLIC	??1?$unordered_map@JV?$tuple@VClient@@V?$basic_string@DU?$char_traits@D@std@@V?$allocator@D@2@@std@@V23@@std@@U?$hash@J@2@U?$equal_to@J@2@V?$allocator@U?$pair@$$CBJV?$tuple@VClient@@V?$basic_string@DU?$char_traits@D@std@@V?$allocator@D@2@@std@@V23@@std@@@std@@@2@@std@@QEAA@XZ ; std::unordered_map<long,std::tuple<Client,std::basic_string<char,std::char_traits<char>,std::allocator<char> >,std::basic_string<char,std::char_traits<char>,std::allocator<char> > >,std::hash<long>,std::equal_to<long>,std::allocator<std::pair<long const ,std::tuple<Client,std::basic_string<char,std::char_traits<char>,std::allocator<char> >,std::basic_string<char,std::char_traits<char>,std::allocator<char> > > > > >::~unordered_map<long,std::tuple<Client,std::basic_string<char,std::char_traits<char>,std::allocator<char> >,std::basic_string<char,std::char_traits<char>,std::allocator<char> > >,std::hash<long>,std::equal_to<long>,std::allocator<std::pair<long const ,std::tuple<Client,std::basic_string<char,std::char_traits<char>,std::allocator<char> >,std::basic_string<char,std::char_traits<char>,std::allocator<char> > > > > >
PUBLIC	?GetServerDetails@ServerInterface@@QEBA?BUServer@@XZ ; ServerInterface::GetServerDetails
PUBLIC	?StartServer@ServerInterface@@QEAAHUServer@@@Z	; ServerInterface::StartServer
PUBLIC	??1ServerInterface@@QEAA@XZ			; ServerInterface::~ServerInterface
PUBLIC	??0ServerInterface@@QEAA@W4SocketTypes@@H@Z	; ServerInterface::ServerInterface
PUBLIC	??0_Mutex_base@std@@QEAA@H@Z			; std::_Mutex_base::_Mutex_base
PUBLIC	??0failure@ios_base@std@@QEAA@AEBV012@@Z	; std::ios_base::failure::failure
PUBLIC	??1failure@ios_base@std@@UEAA@XZ		; std::ios_base::failure::~failure
PUBLIC	??_Gfailure@ios_base@std@@UEAAPEAXI@Z		; std::ios_base::failure::`scalar deleting destructor'
PUBLIC	?getloc@ios_base@std@@QEBA?AVlocale@2@XZ	; std::ios_base::getloc
PUBLIC	?width@ios_base@std@@QEAA_J_J@Z			; std::ios_base::width
PUBLIC	?width@ios_base@std@@QEBA_JXZ			; std::ios_base::width
PUBLIC	?flags@ios_base@std@@QEBAHXZ			; std::ios_base::flags
PUBLIC	?good@ios_base@std@@QEBA_NXZ			; std::ios_base::good
PUBLIC	?rdstate@ios_base@std@@QEBAHXZ			; std::ios_base::rdstate
PUBLIC	?clear@ios_base@std@@QEAAXH_N@Z			; std::ios_base::clear
PUBLIC	??0failure@ios_base@std@@QEAA@PEBDAEBVerror_code@2@@Z ; std::ios_base::failure::failure
PUBLIC	??_G?$ctype@D@std@@MEAAPEAXI@Z			; std::ctype<char>::`scalar deleting destructor'
PUBLIC	?do_narrow@?$ctype@D@std@@MEBAPEBDPEBD0DPEAD@Z	; std::ctype<char>::do_narrow
PUBLIC	?do_narrow@?$ctype@D@std@@MEBADDD@Z		; std::ctype<char>::do_narrow
PUBLIC	?do_widen@?$ctype@D@std@@MEBAPEBDPEBD0PEAD@Z	; std::ctype<char>::do_widen
PUBLIC	?do_widen@?$ctype@D@std@@MEBADD@Z		; std::ctype<char>::do_widen
PUBLIC	?do_toupper@?$ctype@D@std@@MEBAPEBDPEADPEBD@Z	; std::ctype<char>::do_toupper
PUBLIC	?do_toupper@?$ctype@D@std@@MEBADD@Z		; std::ctype<char>::do_toupper
PUBLIC	?do_tolower@?$ctype@D@std@@MEBAPEBDPEADPEBD@Z	; std::ctype<char>::do_tolower
PUBLIC	?do_tolower@?$ctype@D@std@@MEBADD@Z		; std::ctype<char>::do_tolower
PUBLIC	?_Tidy@?$ctype@D@std@@IEAAXXZ			; std::ctype<char>::_Tidy
PUBLIC	?_Init@?$ctype@D@std@@IEAAXAEBV_Locinfo@2@@Z	; std::ctype<char>::_Init
PUBLIC	??1?$ctype@D@std@@MEAA@XZ			; std::ctype<char>::~ctype<char>
PUBLIC	?_Getcat@?$ctype@D@std@@SA_KPEAPEBVfacet@locale@2@PEBV42@@Z ; std::ctype<char>::_Getcat
PUBLIC	??0?$ctype@D@std@@QEAA@AEBV_Locinfo@1@_K@Z	; std::ctype<char>::ctype<char>
PUBLIC	?widen@?$ctype@D@std@@QEBADD@Z			; std::ctype<char>::widen
PUBLIC	??_Gctype_base@std@@UEAAPEAXI@Z			; std::ctype_base::`scalar deleting destructor'
PUBLIC	??1ctype_base@std@@UEAA@XZ			; std::ctype_base::~ctype_base
PUBLIC	??0ctype_base@std@@QEAA@_K@Z			; std::ctype_base::ctype_base
PUBLIC	??0_Facet_base@std@@QEAA@XZ			; std::_Facet_base::_Facet_base
PUBLIC	??_Gfacet@locale@std@@MEAAPEAXI@Z		; std::locale::facet::`scalar deleting destructor'
PUBLIC	?_Getfacet@locale@std@@QEBAPEBVfacet@12@_K@Z	; std::locale::_Getfacet
PUBLIC	?_C_str@locale@std@@QEBAPEBDXZ			; std::locale::_C_str
PUBLIC	??1locale@std@@QEAA@XZ				; std::locale::~locale
PUBLIC	??0locale@std@@QEAA@AEBV01@@Z			; std::locale::locale
PUBLIC	??1facet@locale@std@@MEAA@XZ			; std::locale::facet::~facet
PUBLIC	??0facet@locale@std@@IEAA@_K@Z			; std::locale::facet::facet
PUBLIC	?_Decref@facet@locale@std@@UEAAPEAV_Facet_base@3@XZ ; std::locale::facet::_Decref
PUBLIC	?_Incref@facet@locale@std@@UEAAXXZ		; std::locale::facet::_Incref
PUBLIC	??Bid@locale@std@@QEAA_KXZ			; std::locale::id::operator unsigned __int64
PUBLIC	?_Getctype@_Locinfo@std@@QEBA?AU_Ctypevec@@XZ	; std::_Locinfo::_Getctype
PUBLIC	??1_Locinfo@std@@QEAA@XZ			; std::_Locinfo::~_Locinfo
PUBLIC	??0_Locinfo@std@@QEAA@PEBD@Z			; std::_Locinfo::_Locinfo
PUBLIC	??_G_Facet_base@std@@UEAAPEAXI@Z		; std::_Facet_base::`scalar deleting destructor'
PUBLIC	??1_Facet_base@std@@UEAA@XZ			; std::_Facet_base::~_Facet_base
PUBLIC	??0bad_cast@std@@QEAA@AEBV01@@Z			; std::bad_cast::bad_cast
PUBLIC	?_Throw_bad_cast@std@@YAXXZ			; std::_Throw_bad_cast
PUBLIC	??1bad_cast@std@@UEAA@XZ			; std::bad_cast::~bad_cast
PUBLIC	??_Gbad_cast@std@@UEAAPEAXI@Z			; std::bad_cast::`scalar deleting destructor'
PUBLIC	??0bad_cast@std@@QEAA@XZ			; std::bad_cast::bad_cast
PUBLIC	?iostream_category@std@@YAAEBVerror_category@1@XZ ; std::iostream_category
PUBLIC	??1_Iostream_error_category2@std@@UEAA@XZ	; std::_Iostream_error_category2::~_Iostream_error_category2
PUBLIC	??_G_Iostream_error_category2@std@@UEAAPEAXI@Z	; std::_Iostream_error_category2::`scalar deleting destructor'
PUBLIC	?message@_Iostream_error_category2@std@@UEBA?AV?$basic_string@DU?$char_traits@D@std@@V?$allocator@D@2@@2@H@Z ; std::_Iostream_error_category2::message
PUBLIC	?name@_Iostream_error_category2@std@@UEBAPEBDXZ	; std::_Iostream_error_category2::name
PUBLIC	??0_System_error@std@@QEAA@AEBV01@@Z		; std::_System_error::_System_error
PUBLIC	??0system_error@std@@QEAA@AEBV01@@Z		; std::system_error::system_error
PUBLIC	??1system_error@std@@UEAA@XZ			; std::system_error::~system_error
PUBLIC	??_Gsystem_error@std@@UEAAPEAXI@Z		; std::system_error::`scalar deleting destructor'
PUBLIC	??0system_error@std@@QEAA@Verror_code@1@PEBD@Z	; std::system_error::system_error
PUBLIC	??1_System_error@std@@UEAA@XZ			; std::_System_error::~_System_error
PUBLIC	??_G_System_error@std@@UEAAPEAXI@Z		; std::_System_error::`scalar deleting destructor'
PUBLIC	??0_System_error@std@@IEAA@Verror_code@1@AEBV?$basic_string@DU?$char_traits@D@std@@V?$allocator@D@2@@1@@Z ; std::_System_error::_System_error
PUBLIC	?_Makestr@_System_error@std@@CA?AV?$basic_string@DU?$char_traits@D@std@@V?$allocator@D@2@@2@Verror_code@2@V32@@Z ; std::_System_error::_Makestr
PUBLIC	?make_error_code@std@@YA?AVerror_code@1@W4io_errc@1@@Z ; std::make_error_code
PUBLIC	?equivalent@error_category@std@@UEBA_NAEBVerror_code@2@H@Z ; std::error_category::equivalent
PUBLIC	?equivalent@error_category@std@@UEBA_NHAEBVerror_condition@2@@Z ; std::error_category::equivalent
PUBLIC	?default_error_condition@error_category@std@@UEBA?AVerror_condition@2@H@Z ; std::error_category::default_error_condition
PUBLIC	??8std@@YA_NAEBVerror_condition@0@0@Z		; std::operator==
PUBLIC	?category@error_condition@std@@QEBAAEBVerror_category@2@XZ ; std::error_condition::category
PUBLIC	?value@error_condition@std@@QEBAHXZ		; std::error_condition::value
PUBLIC	??0error_condition@std@@QEAA@HAEBVerror_category@1@@Z ; std::error_condition::error_condition
PUBLIC	?message@error_code@std@@QEBA?AV?$basic_string@DU?$char_traits@D@std@@V?$allocator@D@2@@2@XZ ; std::error_code::message
PUBLIC	?category@error_code@std@@QEBAAEBVerror_category@2@XZ ; std::error_code::category
PUBLIC	?value@error_code@std@@QEBAHXZ			; std::error_code::value
PUBLIC	??0error_code@std@@QEAA@HAEBVerror_category@1@@Z ; std::error_code::error_code
PUBLIC	??1error_category@std@@UEAA@XZ			; std::error_category::~error_category
PUBLIC	??8error_category@std@@QEBA_NAEBV01@@Z		; std::error_category::operator==
PUBLIC	??0runtime_error@std@@QEAA@AEBV01@@Z		; std::runtime_error::runtime_error
PUBLIC	??1runtime_error@std@@UEAA@XZ			; std::runtime_error::~runtime_error
PUBLIC	??_Gruntime_error@std@@UEAAPEAXI@Z		; std::runtime_error::`scalar deleting destructor'
PUBLIC	??0runtime_error@std@@QEAA@AEBV?$basic_string@DU?$char_traits@D@std@@V?$allocator@D@2@@1@@Z ; std::runtime_error::runtime_error
PUBLIC	??0exception@std@@QEAA@QEBD@Z			; std::exception::exception
EXTRN	??_Ebad_cast@std@@UEAAPEAXI@Z:PROC		; std::bad_cast::`vector deleting destructor'
EXTRN	??_Efacet@locale@std@@MEAAPEAXI@Z:PROC		; std::locale::facet::`vector deleting destructor'
EXTRN	??_E_System_error@std@@UEAAPEAXI@Z:PROC		; std::_System_error::`vector deleting destructor'
EXTRN	??_Efailure@ios_base@std@@UEAAPEAXI@Z:PROC	; std::ios_base::failure::`vector deleting destructor'
EXTRN	??_E?$ctype@D@std@@MEAAPEAXI@Z:PROC		; std::ctype<char>::`vector deleting destructor'
EXTRN	??_Esystem_error@std@@UEAAPEAXI@Z:PROC		; std::system_error::`vector deleting destructor'
EXTRN	??_Eruntime_error@std@@UEAAPEAXI@Z:PROC		; std::runtime_error::`vector deleting destructor'
EXTRN	??_E_Iostream_error_category2@std@@UEAAPEAXI@Z:PROC ; std::_Iostream_error_category2::`vector deleting destructor'
EXTRN	??_Ectype_base@std@@UEAAPEAXI@Z:PROC		; std::ctype_base::`vector deleting destructor'
EXTRN	??_E_Facet_base@std@@UEAAPEAXI@Z:PROC		; std::_Facet_base::`vector deleting destructor'
;	COMDAT pdata
pdata	SEGMENT
$pdata$?clear@?$basic_ios@DU?$char_traits@D@std@@@std@@QEAAXH_N@Z DD imagerel $LN18
	DD	imagerel $LN18+146
	DD	imagerel $unwind$?clear@?$basic_ios@DU?$char_traits@D@std@@@std@@QEAAXH_N@Z
pdata	ENDS
;	COMDAT pdata
pdata	SEGMENT
$pdata$?_Osfx@?$basic_ostream@DU?$char_traits@D@std@@@std@@QEAAXXZ DD imagerel $LN35
	DD	imagerel $LN35+162
	DD	imagerel $unwind$?_Osfx@?$basic_ostream@DU?$char_traits@D@std@@@std@@QEAAXXZ
pdata	ENDS
;	COMDAT pdata
pdata	SEGMENT
$pdata$?catch$0@?0??_Osfx@?$basic_ostream@DU?$char_traits@D@std@@@std@@QEAAXXZ@4HA DD imagerel ?catch$0@?0??_Osfx@?$basic_ostream@DU?$char_traits@D@std@@@std@@QEAAXXZ@4HA
	DD	imagerel ?catch$0@?0??_Osfx@?$basic_ostream@DU?$char_traits@D@std@@@std@@QEAAXXZ@4HA+30
	DD	imagerel $unwind$?catch$0@?0??_Osfx@?$basic_ostream@DU?$char_traits@D@std@@@std@@QEAAXXZ@4HA
pdata	ENDS
;	COMDAT pdata
pdata	SEGMENT
$pdata$??0_Sentry_base@?$basic_ostream@DU?$char_traits@D@std@@@std@@QEAA@AEAV12@@Z DD imagerel $LN7
	DD	imagerel $LN7+44
	DD	imagerel $unwind$??0_Sentry_base@?$basic_ostream@DU?$char_traits@D@std@@@std@@QEAA@AEAV12@@Z
pdata	ENDS
;	COMDAT pdata
pdata	SEGMENT
$pdata$??1_Sentry_base@?$basic_ostream@DU?$char_traits@D@std@@@std@@QEAA@XZ DD imagerel $LN7
	DD	imagerel $LN7+36
	DD	imagerel $unwind$??1_Sentry_base@?$basic_ostream@DU?$char_traits@D@std@@@std@@QEAA@XZ
pdata	ENDS
;	COMDAT pdata
pdata	SEGMENT
$pdata$?setstate@?$basic_ios@DU?$char_traits@D@std@@@std@@QEAAXH_N@Z DD imagerel $LN21
	DD	imagerel $LN21+149
	DD	imagerel $unwind$?setstate@?$basic_ios@DU?$char_traits@D@std@@@std@@QEAAXH_N@Z
pdata	ENDS
;	COMDAT pdata
pdata	SEGMENT
$pdata$?widen@?$basic_ios@DU?$char_traits@D@std@@@std@@QEBADD@Z DD imagerel $LN72
	DD	imagerel $LN72+397
	DD	imagerel $unwind$?widen@?$basic_ios@DU?$char_traits@D@std@@@std@@QEBADD@Z
pdata	ENDS
;	COMDAT pdata
pdata	SEGMENT
$pdata$?put@?$basic_ostream@DU?$char_traits@D@std@@@std@@QEAAAEAV12@D@Z DD imagerel $LN94
	DD	imagerel $LN94+417
	DD	imagerel $unwind$?put@?$basic_ostream@DU?$char_traits@D@std@@@std@@QEAAAEAV12@D@Z
pdata	ENDS
;	COMDAT pdata
pdata	SEGMENT
$pdata$?catch$4@?0??put@?$basic_ostream@DU?$char_traits@D@std@@@std@@QEAAAEAV12@D@Z@4HA DD imagerel ?catch$4@?0??put@?$basic_ostream@DU?$char_traits@D@std@@@std@@QEAAAEAV12@D@Z@4HA
	DD	imagerel ?catch$4@?0??put@?$basic_ostream@DU?$char_traits@D@std@@@std@@QEAAAEAV12@D@Z@4HA+92
	DD	imagerel $unwind$?catch$4@?0??put@?$basic_ostream@DU?$char_traits@D@std@@@std@@QEAAAEAV12@D@Z@4HA
pdata	ENDS
;	COMDAT pdata
pdata	SEGMENT
$pdata$?flush@?$basic_ostream@DU?$char_traits@D@std@@@std@@QEAAAEAV12@XZ DD imagerel $LN93
	DD	imagerel $LN93+343
	DD	imagerel $unwind$?flush@?$basic_ostream@DU?$char_traits@D@std@@@std@@QEAAAEAV12@XZ
pdata	ENDS
;	COMDAT pdata
pdata	SEGMENT
$pdata$?catch$9@?0??flush@?$basic_ostream@DU?$char_traits@D@std@@@std@@QEAAAEAV12@XZ@4HA DD imagerel ?catch$9@?0??flush@?$basic_ostream@DU?$char_traits@D@std@@@std@@QEAAAEAV12@XZ@4HA
	DD	imagerel ?catch$9@?0??flush@?$basic_ostream@DU?$char_traits@D@std@@@std@@QEAAAEAV12@XZ@4HA+83
	DD	imagerel $unwind$?catch$9@?0??flush@?$basic_ostream@DU?$char_traits@D@std@@@std@@QEAAAEAV12@XZ@4HA
pdata	ENDS
;	COMDAT pdata
pdata	SEGMENT
$pdata$??0sentry@?$basic_ostream@DU?$char_traits@D@std@@@std@@QEAA@AEAV12@@Z DD imagerel $LN18
	DD	imagerel $LN18+122
	DD	imagerel $unwind$??0sentry@?$basic_ostream@DU?$char_traits@D@std@@@std@@QEAA@AEAV12@@Z
pdata	ENDS
;	COMDAT pdata
pdata	SEGMENT
$pdata$??1sentry@?$basic_ostream@DU?$char_traits@D@std@@@std@@QEAA@XZ DD imagerel $LN14
	DD	imagerel $LN14+60
	DD	imagerel $unwind$??1sentry@?$basic_ostream@DU?$char_traits@D@std@@@std@@QEAA@XZ
pdata	ENDS
;	COMDAT pdata
pdata	SEGMENT
$pdata$??$_Reallocate_grow_by@V<lambda_1>@?1??append@?$basic_string@DU?$char_traits@D@std@@V?$allocator@D@2@@std@@QEAAAEAV34@QEBD_K@Z@PEBD_K@?$basic_string@DU?$char_traits@D@std@@V?$allocator@D@2@@std@@AEAAAEAV01@_KV<lambda_1>@?1??append@01@QEAAAEAV01@QEBD0@Z@PEBD_K@Z DD imagerel $LN160
	DD	imagerel $LN160+56
	DD	imagerel $unwind$??$_Reallocate_grow_by@V<lambda_1>@?1??append@?$basic_string@DU?$char_traits@D@std@@V?$allocator@D@2@@std@@QEAAAEAV34@QEBD_K@Z@PEBD_K@?$basic_string@DU?$char_traits@D@std@@V?$allocator@D@2@@std@@AEAAAEAV01@_KV<lambda_1>@?1??append@01@QEAAAEAV01@QEBD0@Z@PEBD_K@Z
pdata	ENDS
;	COMDAT pdata
pdata	SEGMENT
$pdata$2$??$_Reallocate_grow_by@V<lambda_1>@?1??append@?$basic_string@DU?$char_traits@D@std@@V?$allocator@D@2@@std@@QEAAAEAV34@QEBD_K@Z@PEBD_K@?$basic_string@DU?$char_traits@D@std@@V?$allocator@D@2@@std@@AEAAAEAV01@_KV<lambda_1>@?1??append@01@QEAAAEAV01@QEBD0@Z@PEBD_K@Z DD imagerel $LN160+56
	DD	imagerel $LN160+374
	DD	imagerel $chain$2$??$_Reallocate_grow_by@V<lambda_1>@?1??append@?$basic_string@DU?$char_traits@D@std@@V?$allocator@D@2@@std@@QEAAAEAV34@QEBD_K@Z@PEBD_K@?$basic_string@DU?$char_traits@D@std@@V?$allocator@D@2@@std@@AEAAAEAV01@_KV<lambda_1>@?1??append@01@QEAAAEAV01@QEBD0@Z@PEBD_K@Z
pdata	ENDS
;	COMDAT pdata
pdata	SEGMENT
$pdata$4$??$_Reallocate_grow_by@V<lambda_1>@?1??append@?$basic_string@DU?$char_traits@D@std@@V?$allocator@D@2@@std@@QEAAAEAV34@QEBD_K@Z@PEBD_K@?$basic_string@DU?$char_traits@D@std@@V?$allocator@D@2@@std@@AEAAAEAV01@_KV<lambda_1>@?1??append@01@QEAAAEAV01@QEBD0@Z@PEBD_K@Z DD imagerel $LN160+374
	DD	imagerel $LN160+386
	DD	imagerel $chain$4$??$_Reallocate_grow_by@V<lambda_1>@?1??append@?$basic_string@DU?$char_traits@D@std@@V?$allocator@D@2@@std@@QEAAAEAV34@QEBD_K@Z@PEBD_K@?$basic_string@DU?$char_traits@D@std@@V?$allocator@D@2@@std@@AEAAAEAV01@_KV<lambda_1>@?1??append@01@QEAAAEAV01@QEBD0@Z@PEBD_K@Z
pdata	ENDS
;	COMDAT pdata
pdata	SEGMENT
$pdata$5$??$_Reallocate_grow_by@V<lambda_1>@?1??append@?$basic_string@DU?$char_traits@D@std@@V?$allocator@D@2@@std@@QEAAAEAV34@QEBD_K@Z@PEBD_K@?$basic_string@DU?$char_traits@D@std@@V?$allocator@D@2@@std@@AEAAAEAV01@_KV<lambda_1>@?1??append@01@QEAAAEAV01@QEBD0@Z@PEBD_K@Z DD imagerel $LN160+386
	DD	imagerel $LN160+392
	DD	imagerel $chain$5$??$_Reallocate_grow_by@V<lambda_1>@?1??append@?$basic_string@DU?$char_traits@D@std@@V?$allocator@D@2@@std@@QEAAAEAV34@QEBD_K@Z@PEBD_K@?$basic_string@DU?$char_traits@D@std@@V?$allocator@D@2@@std@@AEAAAEAV01@_KV<lambda_1>@?1??append@01@QEAAAEAV01@QEBD0@Z@PEBD_K@Z
pdata	ENDS
;	COMDAT pdata
pdata	SEGMENT
$pdata$??$endl@DU?$char_traits@D@std@@@std@@YAAEAV?$basic_ostream@DU?$char_traits@D@std@@@0@AEAV10@@Z DD imagerel $LN4
	DD	imagerel $LN4+54
	DD	imagerel $unwind$??$endl@DU?$char_traits@D@std@@@std@@YAAEAV?$basic_ostream@DU?$char_traits@D@std@@@0@AEAV10@@Z
pdata	ENDS
;	COMDAT pdata
pdata	SEGMENT
$pdata$??$?6U?$char_traits@D@std@@@std@@YAAEAV?$basic_ostream@DU?$char_traits@D@std@@@0@AEAV10@PEBD@Z DD imagerel $LN151
	DD	imagerel $LN151+724
	DD	imagerel $unwind$??$?6U?$char_traits@D@std@@@std@@YAAEAV?$basic_ostream@DU?$char_traits@D@std@@@0@AEAV10@PEBD@Z
pdata	ENDS
;	COMDAT pdata
pdata	SEGMENT
$pdata$?catch$4@?0???$?6U?$char_traits@D@std@@@std@@YAAEAV?$basic_ostream@DU?$char_traits@D@std@@@0@AEAV10@PEBD@Z@4HA DD imagerel ?catch$4@?0???$?6U?$char_traits@D@std@@@std@@YAAEAV?$basic_ostream@DU?$char_traits@D@std@@@0@AEAV10@PEBD@Z@4HA
	DD	imagerel ?catch$4@?0???$?6U?$char_traits@D@std@@@std@@YAAEAV?$basic_ostream@DU?$char_traits@D@std@@@0@AEAV10@PEBD@Z@4HA+93
	DD	imagerel $unwind$?catch$4@?0???$?6U?$char_traits@D@std@@@std@@YAAEAV?$basic_ostream@DU?$char_traits@D@std@@@0@AEAV10@PEBD@Z@4HA
pdata	ENDS
;	COMDAT pdata
pdata	SEGMENT
$pdata$??$use_facet@V?$ctype@D@std@@@std@@YAAEBV?$ctype@D@0@AEBVlocale@0@@Z DD imagerel $LN52
	DD	imagerel $LN52+313
	DD	imagerel $unwind$??$use_facet@V?$ctype@D@std@@@std@@YAAEBV?$ctype@D@0@AEBVlocale@0@@Z
pdata	ENDS
;	COMDAT pdata
pdata	SEGMENT
$pdata$?_Alloc_sentinel_and_proxy@?$list@U?$pair@$$CBJV?$tuple@VClient@@V?$basic_string@DU?$char_traits@D@std@@V?$allocator@D@2@@std@@V23@@std@@@std@@V?$allocator@U?$pair@$$CBJV?$tuple@VClient@@V?$basic_string@DU?$char_traits@D@std@@V?$allocator@D@2@@std@@V23@@std@@@std@@@2@@std@@AEAAXXZ DD imagerel $LN31
	DD	imagerel $LN31+35
	DD	imagerel $unwind$?_Alloc_sentinel_and_proxy@?$list@U?$pair@$$CBJV?$tuple@VClient@@V?$basic_string@DU?$char_traits@D@std@@V?$allocator@D@2@@std@@V23@@std@@@std@@V?$allocator@U?$pair@$$CBJV?$tuple@VClient@@V?$basic_string@DU?$char_traits@D@std@@V?$allocator@D@2@@std@@V23@@std@@@std@@@2@@std@@AEAAXXZ
pdata	ENDS
;	COMDAT pdata
pdata	SEGMENT
$pdata$?move@?$_Char_traits@DH@std@@SAPEADQEADQEBD_K@Z DD imagerel $LN34
	DD	imagerel $LN34+23
	DD	imagerel $unwind$?move@?$_Char_traits@DH@std@@SAPEADQEADQEBD_K@Z
pdata	ENDS
;	COMDAT pdata
pdata	SEGMENT
$pdata$??0?$list@U?$pair@$$CBJV?$tuple@VClient@@V?$basic_string@DU?$char_traits@D@std@@V?$allocator@D@2@@std@@V23@@std@@@std@@V?$allocator@U?$pair@$$CBJV?$tuple@VClient@@V?$basic_string@DU?$char_traits@D@std@@V?$allocator@D@2@@std@@V23@@std@@@std@@@2@@std@@QEAA@AEBV?$allocator@U?$pair@$$CBJV?$tuple@VClient@@V?$basic_string@DU?$char_traits@D@std@@V?$allocator@D@2@@std@@V23@@std@@@std@@@1@@Z DD imagerel $LN41
	DD	imagerel $LN41+47
	DD	imagerel $unwind$??0?$list@U?$pair@$$CBJV?$tuple@VClient@@V?$basic_string@DU?$char_traits@D@std@@V?$allocator@D@2@@std@@V23@@std@@@std@@V?$allocator@U?$pair@$$CBJV?$tuple@VClient@@V?$basic_string@DU?$char_traits@D@std@@V?$allocator@D@2@@std@@V23@@std@@@std@@@2@@std@@QEAA@AEBV?$allocator@U?$pair@$$CBJV?$tuple@VClient@@V?$basic_string@DU?$char_traits@D@std@@V?$allocator@D@2@@std@@V23@@std@@@std@@@1@@Z
pdata	ENDS
;	COMDAT pdata
pdata	SEGMENT
$pdata$??R<lambda_1>@?1??append@?$basic_string@DU?$char_traits@D@std@@V?$allocator@D@2@@std@@QEAAAEAV23@QEBD_K@Z@QEBA@QEAD0101@Z DD imagerel $LN31
	DD	imagerel $LN31+72
	DD	imagerel $unwind$??R<lambda_1>@?1??append@?$basic_string@DU?$char_traits@D@std@@V?$allocator@D@2@@std@@QEAAAEAV23@QEBD_K@Z@QEBA@QEAD0101@Z
pdata	ENDS
;	COMDAT pdata
pdata	SEGMENT
$pdata$?append@?$basic_string@DU?$char_traits@D@std@@V?$allocator@D@2@@std@@QEAAAEAV12@QEBD_K@Z DD imagerel $LN46
	DD	imagerel $LN46+35
	DD	imagerel $unwind$?append@?$basic_string@DU?$char_traits@D@std@@V?$allocator@D@2@@std@@QEAAAEAV12@QEBD_K@Z
pdata	ENDS
;	COMDAT pdata
pdata	SEGMENT
$pdata$0$?append@?$basic_string@DU?$char_traits@D@std@@V?$allocator@D@2@@std@@QEAAAEAV12@QEBD_K@Z DD imagerel $LN46+35
	DD	imagerel $LN46+98
	DD	imagerel $chain$0$?append@?$basic_string@DU?$char_traits@D@std@@V?$allocator@D@2@@std@@QEAAAEAV12@QEBD_K@Z
pdata	ENDS
;	COMDAT pdata
pdata	SEGMENT
$pdata$1$?append@?$basic_string@DU?$char_traits@D@std@@V?$allocator@D@2@@std@@QEAAAEAV12@QEBD_K@Z DD imagerel $LN46+98
	DD	imagerel $LN46+134
	DD	imagerel $chain$1$?append@?$basic_string@DU?$char_traits@D@std@@V?$allocator@D@2@@std@@QEAAAEAV12@QEBD_K@Z
pdata	ENDS
;	COMDAT pdata
pdata	SEGMENT
$pdata$?_Tidy@?$_Yarn@D@std@@AEAAXXZ DD imagerel $LN9
	DD	imagerel $LN9+35
	DD	imagerel $unwind$?_Tidy@?$_Yarn@D@std@@AEAAXXZ
pdata	ENDS
;	COMDAT pdata
pdata	SEGMENT
$pdata$?_Tidy@?$_Yarn@_W@std@@AEAAXXZ DD imagerel $LN9
	DD	imagerel $LN9+35
	DD	imagerel $unwind$?_Tidy@?$_Yarn@_W@std@@AEAAXXZ
pdata	ENDS
;	COMDAT pdata
pdata	SEGMENT
$pdata$?_Tidy@?$list@U?$pair@$$CBJV?$tuple@VClient@@V?$basic_string@DU?$char_traits@D@std@@V?$allocator@D@2@@std@@V23@@std@@@std@@V?$allocator@U?$pair@$$CBJV?$tuple@VClient@@V?$basic_string@DU?$char_traits@D@std@@V?$allocator@D@2@@std@@V23@@std@@@std@@@2@@std@@AEAAXXZ DD imagerel $LN136
	DD	imagerel $LN136+36
	DD	imagerel $unwind$?_Tidy@?$list@U?$pair@$$CBJV?$tuple@VClient@@V?$basic_string@DU?$char_traits@D@std@@V?$allocator@D@2@@std@@V23@@std@@@std@@V?$allocator@U?$pair@$$CBJV?$tuple@VClient@@V?$basic_string@DU?$char_traits@D@std@@V?$allocator@D@2@@std@@V23@@std@@@std@@@2@@std@@AEAAXXZ
pdata	ENDS
;	COMDAT pdata
pdata	SEGMENT
$pdata$1$?_Tidy@?$list@U?$pair@$$CBJV?$tuple@VClient@@V?$basic_string@DU?$char_traits@D@std@@V?$allocator@D@2@@std@@V23@@std@@@std@@V?$allocator@U?$pair@$$CBJV?$tuple@VClient@@V?$basic_string@DU?$char_traits@D@std@@V?$allocator@D@2@@std@@V23@@std@@@std@@@2@@std@@AEAAXXZ DD imagerel $LN136+36
	DD	imagerel $LN136+100
	DD	imagerel $chain$1$?_Tidy@?$list@U?$pair@$$CBJV?$tuple@VClient@@V?$basic_string@DU?$char_traits@D@std@@V?$allocator@D@2@@std@@V23@@std@@@std@@V?$allocator@U?$pair@$$CBJV?$tuple@VClient@@V?$basic_string@DU?$char_traits@D@std@@V?$allocator@D@2@@std@@V23@@std@@@std@@@2@@std@@AEAAXXZ
pdata	ENDS
;	COMDAT pdata
pdata	SEGMENT
$pdata$2$?_Tidy@?$list@U?$pair@$$CBJV?$tuple@VClient@@V?$basic_string@DU?$char_traits@D@std@@V?$allocator@D@2@@std@@V23@@std@@@std@@V?$allocator@U?$pair@$$CBJV?$tuple@VClient@@V?$basic_string@DU?$char_traits@D@std@@V?$allocator@D@2@@std@@V23@@std@@@std@@@2@@std@@AEAAXXZ DD imagerel $LN136+100
	DD	imagerel $LN136+124
	DD	imagerel $chain$2$?_Tidy@?$list@U?$pair@$$CBJV?$tuple@VClient@@V?$basic_string@DU?$char_traits@D@std@@V?$allocator@D@2@@std@@V23@@std@@@std@@V?$allocator@U?$pair@$$CBJV?$tuple@VClient@@V?$basic_string@DU?$char_traits@D@std@@V?$allocator@D@2@@std@@V23@@std@@@std@@@2@@std@@AEAAXXZ
pdata	ENDS
;	COMDAT pdata
pdata	SEGMENT
$pdata$??0?$_Hash@V?$_Umap_traits@JV?$tuple@VClient@@V?$basic_string@DU?$char_traits@D@std@@V?$allocator@D@2@@std@@V23@@std@@V?$_Uhash_compare@JU?$hash@J@std@@U?$equal_to@J@2@@2@V?$allocator@U?$pair@$$CBJV?$tuple@VClient@@V?$basic_string@DU?$char_traits@D@std@@V?$allocator@D@2@@std@@V23@@std@@@std@@@2@$0A@@std@@@std@@IEAA@AEBV?$_Uhash_compare@JU?$hash@J@std@@U?$equal_to@J@2@@1@AEBV?$allocator@U?$pair@$$CBJV?$tuple@VClient@@V?$basic_string@DU?$char_traits@D@std@@V?$allocator@D@2@@std@@V23@@std@@@std@@@1@@Z DD imagerel $LN67
	DD	imagerel $LN67+119
	DD	imagerel $unwind$??0?$_Hash@V?$_Umap_traits@JV?$tuple@VClient@@V?$basic_string@DU?$char_traits@D@std@@V?$allocator@D@2@@std@@V23@@std@@V?$_Uhash_compare@JU?$hash@J@std@@U?$equal_to@J@2@@2@V?$allocator@U?$pair@$$CBJV?$tuple@VClient@@V?$basic_string@DU?$char_traits@D@std@@V?$allocator@D@2@@std@@V23@@std@@@std@@@2@$0A@@std@@@std@@IEAA@AEBV?$_Uhash_compare@JU?$hash@J@std@@U?$equal_to@J@2@@1@AEBV?$allocator@U?$pair@$$CBJV?$tuple@VClient@@V?$basic_string@DU?$char_traits@D@std@@V?$allocator@D@2@@std@@V23@@std@@@std@@@1@@Z
pdata	ENDS
;	COMDAT pdata
pdata	SEGMENT
$pdata$?_Tidy@?$_Hash_vec@V?$allocator@V?$_List_unchecked_iterator@V?$_List_val@U?$_List_simple_types@U?$pair@$$CBJV?$tuple@VClient@@V?$basic_string@DU?$char_traits@D@std@@V?$allocator@D@2@@std@@V23@@std@@@std@@@std@@@std@@@std@@@std@@@std@@QEAAXXZ DD imagerel $LN34
	DD	imagerel $LN34+91
	DD	imagerel $unwind$?_Tidy@?$_Hash_vec@V?$allocator@V?$_List_unchecked_iterator@V?$_List_val@U?$_List_simple_types@U?$pair@$$CBJV?$tuple@VClient@@V?$basic_string@DU?$char_traits@D@std@@V?$allocator@D@2@@std@@V23@@std@@@std@@@std@@@std@@@std@@@std@@@std@@QEAAXXZ
pdata	ENDS
;	COMDAT pdata
pdata	SEGMENT
$pdata$??0?$basic_string@DU?$char_traits@D@std@@V?$allocator@D@2@@std@@QEAA@QEBD_K@Z DD imagerel $LN18
	DD	imagerel $LN18+39
	DD	imagerel $unwind$??0?$basic_string@DU?$char_traits@D@std@@V?$allocator@D@2@@std@@QEAA@QEBD_K@Z
pdata	ENDS
;	COMDAT pdata
pdata	SEGMENT
$pdata$??1?$_Yarn@D@std@@QEAA@XZ DD imagerel $LN12
	DD	imagerel $LN12+35
	DD	imagerel $unwind$??1?$_Yarn@D@std@@QEAA@XZ
pdata	ENDS
;	COMDAT pdata
pdata	SEGMENT
$pdata$??1?$_Yarn@_W@std@@QEAA@XZ DD imagerel $LN12
	DD	imagerel $LN12+35
	DD	imagerel $unwind$??1?$_Yarn@_W@std@@QEAA@XZ
pdata	ENDS
;	COMDAT pdata
pdata	SEGMENT
$pdata$??1?$list@U?$pair@$$CBJV?$tuple@VClient@@V?$basic_string@DU?$char_traits@D@std@@V?$allocator@D@2@@std@@V23@@std@@@std@@V?$allocator@U?$pair@$$CBJV?$tuple@VClient@@V?$basic_string@DU?$char_traits@D@std@@V?$allocator@D@2@@std@@V23@@std@@@std@@@2@@std@@QEAA@XZ DD imagerel $LN140
	DD	imagerel $LN140+36
	DD	imagerel $unwind$??1?$list@U?$pair@$$CBJV?$tuple@VClient@@V?$basic_string@DU?$char_traits@D@std@@V?$allocator@D@2@@std@@V23@@std@@@std@@V?$allocator@U?$pair@$$CBJV?$tuple@VClient@@V?$basic_string@DU?$char_traits@D@std@@V?$allocator@D@2@@std@@V23@@std@@@std@@@2@@std@@QEAA@XZ
pdata	ENDS
;	COMDAT pdata
pdata	SEGMENT
$pdata$1$??1?$list@U?$pair@$$CBJV?$tuple@VClient@@V?$basic_string@DU?$char_traits@D@std@@V?$allocator@D@2@@std@@V23@@std@@@std@@V?$allocator@U?$pair@$$CBJV?$tuple@VClient@@V?$basic_string@DU?$char_traits@D@std@@V?$allocator@D@2@@std@@V23@@std@@@std@@@2@@std@@QEAA@XZ DD imagerel $LN140+36
	DD	imagerel $LN140+100
	DD	imagerel $chain$1$??1?$list@U?$pair@$$CBJV?$tuple@VClient@@V?$basic_string@DU?$char_traits@D@std@@V?$allocator@D@2@@std@@V23@@std@@@std@@V?$allocator@U?$pair@$$CBJV?$tuple@VClient@@V?$basic_string@DU?$char_traits@D@std@@V?$allocator@D@2@@std@@V23@@std@@@std@@@2@@std@@QEAA@XZ
pdata	ENDS
;	COMDAT pdata
pdata	SEGMENT
$pdata$2$??1?$list@U?$pair@$$CBJV?$tuple@VClient@@V?$basic_string@DU?$char_traits@D@std@@V?$allocator@D@2@@std@@V23@@std@@@std@@V?$allocator@U?$pair@$$CBJV?$tuple@VClient@@V?$basic_string@DU?$char_traits@D@std@@V?$allocator@D@2@@std@@V23@@std@@@std@@@2@@std@@QEAA@XZ DD imagerel $LN140+100
	DD	imagerel $LN140+124
	DD	imagerel $chain$2$??1?$list@U?$pair@$$CBJV?$tuple@VClient@@V?$basic_string@DU?$char_traits@D@std@@V?$allocator@D@2@@std@@V23@@std@@@std@@V?$allocator@U?$pair@$$CBJV?$tuple@VClient@@V?$basic_string@DU?$char_traits@D@std@@V?$allocator@D@2@@std@@V23@@std@@@std@@@2@@std@@QEAA@XZ
pdata	ENDS
;	COMDAT pdata
pdata	SEGMENT
$pdata$??1?$_Hash_vec@V?$allocator@V?$_List_unchecked_iterator@V?$_List_val@U?$_List_simple_types@U?$pair@$$CBJV?$tuple@VClient@@V?$basic_string@DU?$char_traits@D@std@@V?$allocator@D@2@@std@@V23@@std@@@std@@@std@@@std@@@std@@@std@@@std@@QEAA@XZ DD imagerel $LN38
	DD	imagerel $LN38+91
	DD	imagerel $unwind$??1?$_Hash_vec@V?$allocator@V?$_List_unchecked_iterator@V?$_List_val@U?$_List_simple_types@U?$pair@$$CBJV?$tuple@VClient@@V?$basic_string@DU?$char_traits@D@std@@V?$allocator@D@2@@std@@V23@@std@@@std@@@std@@@std@@@std@@@std@@@std@@QEAA@XZ
pdata	ENDS
;	COMDAT pdata
pdata	SEGMENT
$pdata$??0?$unordered_map@JV?$tuple@VClient@@V?$basic_string@DU?$char_traits@D@std@@V?$allocator@D@2@@std@@V23@@std@@U?$hash@J@2@U?$equal_to@J@2@V?$allocator@U?$pair@$$CBJV?$tuple@VClient@@V?$basic_string@DU?$char_traits@D@std@@V?$allocator@D@2@@std@@V23@@std@@@std@@@2@@std@@QEAA@XZ DD imagerel $LN80
	DD	imagerel $LN80+117
	DD	imagerel $unwind$??0?$unordered_map@JV?$tuple@VClient@@V?$basic_string@DU?$char_traits@D@std@@V?$allocator@D@2@@std@@V23@@std@@U?$hash@J@2@U?$equal_to@J@2@V?$allocator@U?$pair@$$CBJV?$tuple@VClient@@V?$basic_string@DU?$char_traits@D@std@@V?$allocator@D@2@@std@@V23@@std@@@std@@@2@@std@@QEAA@XZ
pdata	ENDS
;	COMDAT pdata
pdata	SEGMENT
$pdata$main DD	imagerel $LN70
	DD	imagerel $LN70+262
	DD	imagerel $unwind$main
pdata	ENDS
;	COMDAT pdata
pdata	SEGMENT
$pdata$??1?$_Hash@V?$_Umap_traits@JV?$tuple@VClient@@V?$basic_string@DU?$char_traits@D@std@@V?$allocator@D@2@@std@@V23@@std@@V?$_Uhash_compare@JU?$hash@J@std@@U?$equal_to@J@2@@2@V?$allocator@U?$pair@$$CBJV?$tuple@VClient@@V?$basic_string@DU?$char_traits@D@std@@V?$allocator@D@2@@std@@V23@@std@@@std@@@2@$0A@@std@@@std@@QEAA@XZ DD imagerel $LN42
	DD	imagerel $LN42+101
	DD	imagerel $unwind$??1?$_Hash@V?$_Umap_traits@JV?$tuple@VClient@@V?$basic_string@DU?$char_traits@D@std@@V?$allocator@D@2@@std@@V23@@std@@V?$_Uhash_compare@JU?$hash@J@std@@U?$equal_to@J@2@@2@V?$allocator@U?$pair@$$CBJV?$tuple@VClient@@V?$basic_string@DU?$char_traits@D@std@@V?$allocator@D@2@@std@@V23@@std@@@std@@@2@$0A@@std@@@std@@QEAA@XZ
pdata	ENDS
;	COMDAT pdata
pdata	SEGMENT
$pdata$??1?$unordered_map@JV?$tuple@VClient@@V?$basic_string@DU?$char_traits@D@std@@V?$allocator@D@2@@std@@V23@@std@@U?$hash@J@2@U?$equal_to@J@2@V?$allocator@U?$pair@$$CBJV?$tuple@VClient@@V?$basic_string@DU?$char_traits@D@std@@V?$allocator@D@2@@std@@V23@@std@@@std@@@2@@std@@QEAA@XZ DD imagerel $LN48
	DD	imagerel $LN48+101
	DD	imagerel $unwind$??1?$unordered_map@JV?$tuple@VClient@@V?$basic_string@DU?$char_traits@D@std@@V?$allocator@D@2@@std@@V23@@std@@U?$hash@J@2@U?$equal_to@J@2@V?$allocator@U?$pair@$$CBJV?$tuple@VClient@@V?$basic_string@DU?$char_traits@D@std@@V?$allocator@D@2@@std@@V23@@std@@@std@@@2@@std@@QEAA@XZ
pdata	ENDS
;	COMDAT pdata
pdata	SEGMENT
$pdata$?StartServer@ServerInterface@@QEAAHUServer@@@Z DD imagerel $LN4
	DD	imagerel $LN4+99
	DD	imagerel $unwind$?StartServer@ServerInterface@@QEAAHUServer@@@Z
pdata	ENDS
;	COMDAT pdata
pdata	SEGMENT
$pdata$??1ServerInterface@@QEAA@XZ DD imagerel $LN51
	DD	imagerel $LN51+107
	DD	imagerel $unwind$??1ServerInterface@@QEAA@XZ
pdata	ENDS
;	COMDAT pdata
pdata	SEGMENT
$pdata$??0ServerInterface@@QEAA@W4SocketTypes@@H@Z DD imagerel $LN104
	DD	imagerel $LN104+452
	DD	imagerel $unwind$??0ServerInterface@@QEAA@W4SocketTypes@@H@Z
pdata	ENDS
;	COMDAT pdata
pdata	SEGMENT
$pdata$??0failure@ios_base@std@@QEAA@AEBV012@@Z DD imagerel $LN24
	DD	imagerel $LN24+87
	DD	imagerel $unwind$??0failure@ios_base@std@@QEAA@AEBV012@@Z
pdata	ENDS
;	COMDAT pdata
pdata	SEGMENT
$pdata$??_Gfailure@ios_base@std@@UEAAPEAXI@Z DD imagerel $LN32
	DD	imagerel $LN32+66
	DD	imagerel $unwind$??_Gfailure@ios_base@std@@UEAAPEAXI@Z
pdata	ENDS
;	COMDAT pdata
pdata	SEGMENT
$pdata$?getloc@ios_base@std@@QEBA?AVlocale@2@XZ DD imagerel $LN9
	DD	imagerel $LN9+36
	DD	imagerel $unwind$?getloc@ios_base@std@@QEBA?AVlocale@2@XZ
pdata	ENDS
;	COMDAT pdata
pdata	SEGMENT
$pdata$?clear@ios_base@std@@QEAAXH_N@Z DD imagerel $LN15
	DD	imagerel $LN15+130
	DD	imagerel $unwind$?clear@ios_base@std@@QEAAXH_N@Z
pdata	ENDS
;	COMDAT pdata
pdata	SEGMENT
$pdata$??0failure@ios_base@std@@QEAA@PEBDAEBVerror_code@2@@Z DD imagerel $LN129
	DD	imagerel $LN129+405
	DD	imagerel $unwind$??0failure@ios_base@std@@QEAA@PEBDAEBVerror_code@2@@Z
pdata	ENDS
;	COMDAT pdata
pdata	SEGMENT
$pdata$??_G?$ctype@D@std@@MEAAPEAXI@Z DD imagerel $LN23
	DD	imagerel $LN23+106
	DD	imagerel $unwind$??_G?$ctype@D@std@@MEAAPEAXI@Z
pdata	ENDS
;	COMDAT pdata
pdata	SEGMENT
$pdata$?do_narrow@?$ctype@D@std@@MEBAPEBDPEBD0DPEAD@Z DD imagerel $LN4
	DD	imagerel $LN4+31
	DD	imagerel $unwind$?do_narrow@?$ctype@D@std@@MEBAPEBDPEBD0DPEAD@Z
pdata	ENDS
;	COMDAT pdata
pdata	SEGMENT
$pdata$?do_widen@?$ctype@D@std@@MEBAPEBDPEBD0PEAD@Z DD imagerel $LN4
	DD	imagerel $LN4+29
	DD	imagerel $unwind$?do_widen@?$ctype@D@std@@MEBAPEBDPEBD0PEAD@Z
pdata	ENDS
;	COMDAT pdata
pdata	SEGMENT
$pdata$?do_toupper@?$ctype@D@std@@MEBAPEBDPEADPEBD@Z DD imagerel $LN14
	DD	imagerel $LN14+21
	DD	imagerel $unwind$?do_toupper@?$ctype@D@std@@MEBAPEBDPEADPEBD@Z
pdata	ENDS
;	COMDAT pdata
pdata	SEGMENT
$pdata$0$?do_toupper@?$ctype@D@std@@MEBAPEBDPEADPEBD@Z DD imagerel $LN14+21
	DD	imagerel $LN14+58
	DD	imagerel $chain$0$?do_toupper@?$ctype@D@std@@MEBAPEBDPEADPEBD@Z
pdata	ENDS
;	COMDAT pdata
pdata	SEGMENT
$pdata$1$?do_toupper@?$ctype@D@std@@MEBAPEBDPEADPEBD@Z DD imagerel $LN14+58
	DD	imagerel $LN14+72
	DD	imagerel $chain$1$?do_toupper@?$ctype@D@std@@MEBAPEBDPEADPEBD@Z
pdata	ENDS
;	COMDAT pdata
pdata	SEGMENT
$pdata$?do_tolower@?$ctype@D@std@@MEBAPEBDPEADPEBD@Z DD imagerel $LN14
	DD	imagerel $LN14+21
	DD	imagerel $unwind$?do_tolower@?$ctype@D@std@@MEBAPEBDPEADPEBD@Z
pdata	ENDS
;	COMDAT pdata
pdata	SEGMENT
$pdata$0$?do_tolower@?$ctype@D@std@@MEBAPEBDPEADPEBD@Z DD imagerel $LN14+21
	DD	imagerel $LN14+58
	DD	imagerel $chain$0$?do_tolower@?$ctype@D@std@@MEBAPEBDPEADPEBD@Z
pdata	ENDS
;	COMDAT pdata
pdata	SEGMENT
$pdata$1$?do_tolower@?$ctype@D@std@@MEBAPEBDPEADPEBD@Z DD imagerel $LN14+58
	DD	imagerel $LN14+72
	DD	imagerel $chain$1$?do_tolower@?$ctype@D@std@@MEBAPEBDPEADPEBD@Z
pdata	ENDS
;	COMDAT pdata
pdata	SEGMENT
$pdata$?_Tidy@?$ctype@D@std@@IEAAXXZ DD imagerel $LN12
	DD	imagerel $LN12+64
	DD	imagerel $unwind$?_Tidy@?$ctype@D@std@@IEAAXXZ
pdata	ENDS
;	COMDAT pdata
pdata	SEGMENT
$pdata$?_Init@?$ctype@D@std@@IEAAXAEBV_Locinfo@2@@Z DD imagerel $LN6
	DD	imagerel $LN6+40
	DD	imagerel $unwind$?_Init@?$ctype@D@std@@IEAAXAEBV_Locinfo@2@@Z
pdata	ENDS
;	COMDAT pdata
pdata	SEGMENT
$pdata$??1?$ctype@D@std@@MEAA@XZ DD imagerel $LN15
	DD	imagerel $LN15+73
	DD	imagerel $unwind$??1?$ctype@D@std@@MEAA@XZ
pdata	ENDS
;	COMDAT pdata
pdata	SEGMENT
$pdata$?_Getcat@?$ctype@D@std@@SA_KPEAPEBVfacet@locale@2@PEBV42@@Z DD imagerel $LN118
	DD	imagerel $LN118+395
	DD	imagerel $unwind$?_Getcat@?$ctype@D@std@@SA_KPEAPEBVfacet@locale@2@PEBV42@@Z
pdata	ENDS
;	COMDAT pdata
pdata	SEGMENT
$pdata$?dtor$0@?0??_Getcat@?$ctype@D@std@@SA_KPEAPEBVfacet@locale@2@PEBV42@@Z@4HA DD imagerel ?dtor$0@?0??_Getcat@?$ctype@D@std@@SA_KPEAPEBVfacet@locale@2@PEBV42@@Z@4HA
	DD	imagerel ?dtor$0@?0??_Getcat@?$ctype@D@std@@SA_KPEAPEBVfacet@locale@2@PEBV42@@Z@4HA+32
	DD	imagerel $unwind$?dtor$0@?0??_Getcat@?$ctype@D@std@@SA_KPEAPEBVfacet@locale@2@PEBV42@@Z@4HA
pdata	ENDS
;	COMDAT pdata
pdata	SEGMENT
$pdata$??0?$ctype@D@std@@QEAA@AEBV_Locinfo@1@_K@Z DD imagerel $LN22
	DD	imagerel $LN22+57
	DD	imagerel $unwind$??0?$ctype@D@std@@QEAA@AEBV_Locinfo@1@_K@Z
pdata	ENDS
;	COMDAT pdata
pdata	SEGMENT
$pdata$??_Gctype_base@std@@UEAAPEAXI@Z DD imagerel $LN9
	DD	imagerel $LN9+43
	DD	imagerel $unwind$??_Gctype_base@std@@UEAAPEAXI@Z
pdata	ENDS
;	COMDAT pdata
pdata	SEGMENT
$pdata$??_Gfacet@locale@std@@MEAAPEAXI@Z DD imagerel $LN9
	DD	imagerel $LN9+43
	DD	imagerel $unwind$??_Gfacet@locale@std@@MEAAPEAXI@Z
pdata	ENDS
;	COMDAT pdata
pdata	SEGMENT
$pdata$?_Getfacet@locale@std@@QEBAPEBVfacet@12@_K@Z DD imagerel $LN13
	DD	imagerel $LN13+97
	DD	imagerel $unwind$?_Getfacet@locale@std@@QEBAPEBVfacet@12@_K@Z
pdata	ENDS
;	COMDAT pdata
pdata	SEGMENT
$pdata$??1locale@std@@QEAA@XZ DD imagerel $LN9
	DD	imagerel $LN9+47
	DD	imagerel $unwind$??1locale@std@@QEAA@XZ
pdata	ENDS
;	COMDAT pdata
pdata	SEGMENT
$pdata$??0locale@std@@QEAA@AEBV01@@Z DD imagerel $LN6
	DD	imagerel $LN6+32
	DD	imagerel $unwind$??0locale@std@@QEAA@AEBV01@@Z
pdata	ENDS
;	COMDAT pdata
pdata	SEGMENT
$pdata$??Bid@locale@std@@QEAA_KXZ DD imagerel $LN10
	DD	imagerel $LN10+122
	DD	imagerel $unwind$??Bid@locale@std@@QEAA_KXZ
pdata	ENDS
;	COMDAT pdata
pdata	SEGMENT
$pdata$?_Getctype@_Locinfo@std@@QEBA?AU_Ctypevec@@XZ DD imagerel $LN4
	DD	imagerel $LN4+42
	DD	imagerel $unwind$?_Getctype@_Locinfo@std@@QEBA?AU_Ctypevec@@XZ
pdata	ENDS
;	COMDAT pdata
pdata	SEGMENT
$pdata$??1_Locinfo@std@@QEAA@XZ DD imagerel $LN48
	DD	imagerel $LN48+146
	DD	imagerel $unwind$??1_Locinfo@std@@QEAA@XZ
pdata	ENDS
;	COMDAT pdata
pdata	SEGMENT
$pdata$??0_Locinfo@std@@QEAA@PEBD@Z DD imagerel $LN32
	DD	imagerel $LN32+119
	DD	imagerel $unwind$??0_Locinfo@std@@QEAA@PEBD@Z
pdata	ENDS
;	COMDAT pdata
pdata	SEGMENT
$pdata$??_G_Facet_base@std@@UEAAPEAXI@Z DD imagerel $LN9
	DD	imagerel $LN9+43
	DD	imagerel $unwind$??_G_Facet_base@std@@UEAAPEAXI@Z
pdata	ENDS
;	COMDAT pdata
pdata	SEGMENT
$pdata$??0bad_cast@std@@QEAA@AEBV01@@Z DD imagerel $LN9
	DD	imagerel $LN9+60
	DD	imagerel $unwind$??0bad_cast@std@@QEAA@AEBV01@@Z
pdata	ENDS
;	COMDAT pdata
pdata	SEGMENT
$pdata$?_Throw_bad_cast@std@@YAXXZ DD imagerel $LN4
	DD	imagerel $LN4+32
	DD	imagerel $unwind$?_Throw_bad_cast@std@@YAXXZ
pdata	ENDS
;	COMDAT pdata
pdata	SEGMENT
$pdata$??_Gbad_cast@std@@UEAAPEAXI@Z DD imagerel $LN17
	DD	imagerel $LN17+66
	DD	imagerel $unwind$??_Gbad_cast@std@@UEAAPEAXI@Z
pdata	ENDS
;	COMDAT pdata
pdata	SEGMENT
$pdata$??_G_Iostream_error_category2@std@@UEAAPEAXI@Z DD imagerel $LN9
	DD	imagerel $LN9+33
	DD	imagerel $unwind$??_G_Iostream_error_category2@std@@UEAAPEAXI@Z
pdata	ENDS
;	COMDAT pdata
pdata	SEGMENT
$pdata$?message@_Iostream_error_category2@std@@UEBA?AV?$basic_string@DU?$char_traits@D@std@@V?$allocator@D@2@@2@H@Z DD imagerel $LN46
	DD	imagerel $LN46+114
	DD	imagerel $unwind$?message@_Iostream_error_category2@std@@UEBA?AV?$basic_string@DU?$char_traits@D@std@@V?$allocator@D@2@@2@H@Z
pdata	ENDS
;	COMDAT pdata
pdata	SEGMENT
$pdata$??0_System_error@std@@QEAA@AEBV01@@Z DD imagerel $LN14
	DD	imagerel $LN14+77
	DD	imagerel $unwind$??0_System_error@std@@QEAA@AEBV01@@Z
pdata	ENDS
;	COMDAT pdata
pdata	SEGMENT
$pdata$??0system_error@std@@QEAA@AEBV01@@Z DD imagerel $LN19
	DD	imagerel $LN19+87
	DD	imagerel $unwind$??0system_error@std@@QEAA@AEBV01@@Z
pdata	ENDS
;	COMDAT pdata
pdata	SEGMENT
$pdata$??_Gsystem_error@std@@UEAAPEAXI@Z DD imagerel $LN27
	DD	imagerel $LN27+66
	DD	imagerel $unwind$??_Gsystem_error@std@@UEAAPEAXI@Z
pdata	ENDS
;	COMDAT pdata
pdata	SEGMENT
$pdata$??0system_error@std@@QEAA@Verror_code@1@PEBD@Z DD imagerel $LN125
	DD	imagerel $LN125+413
	DD	imagerel $unwind$??0system_error@std@@QEAA@Verror_code@1@PEBD@Z
pdata	ENDS
;	COMDAT pdata
pdata	SEGMENT
$pdata$??_G_System_error@std@@UEAAPEAXI@Z DD imagerel $LN22
	DD	imagerel $LN22+66
	DD	imagerel $unwind$??_G_System_error@std@@UEAAPEAXI@Z
pdata	ENDS
;	COMDAT pdata
pdata	SEGMENT
$pdata$??0_System_error@std@@IEAA@Verror_code@1@AEBV?$basic_string@DU?$char_traits@D@std@@V?$allocator@D@2@@1@@Z DD imagerel $LN67
	DD	imagerel $LN67+251
	DD	imagerel $unwind$??0_System_error@std@@IEAA@Verror_code@1@AEBV?$basic_string@DU?$char_traits@D@std@@V?$allocator@D@2@@1@@Z
pdata	ENDS
;	COMDAT pdata
pdata	SEGMENT
$pdata$?_Makestr@_System_error@std@@CA?AV?$basic_string@DU?$char_traits@D@std@@V?$allocator@D@2@@2@Verror_code@2@V32@@Z DD imagerel $LN186
	DD	imagerel $LN186+408
	DD	imagerel $unwind$?_Makestr@_System_error@std@@CA?AV?$basic_string@DU?$char_traits@D@std@@V?$allocator@D@2@@2@Verror_code@2@V32@@Z
pdata	ENDS
;	COMDAT pdata
pdata	SEGMENT
$pdata$?equivalent@error_category@std@@UEBA_NHAEBVerror_condition@2@@Z DD imagerel $LN16
	DD	imagerel $LN16+63
	DD	imagerel $unwind$?equivalent@error_category@std@@UEBA_NHAEBVerror_condition@2@@Z
pdata	ENDS
;	COMDAT pdata
pdata	SEGMENT
$pdata$?message@error_code@std@@QEBA?AV?$basic_string@DU?$char_traits@D@std@@V?$allocator@D@2@@2@XZ DD imagerel $LN7
	DD	imagerel $LN7+31
	DD	imagerel $unwind$?message@error_code@std@@QEBA?AV?$basic_string@DU?$char_traits@D@std@@V?$allocator@D@2@@2@XZ
pdata	ENDS
;	COMDAT pdata
pdata	SEGMENT
$pdata$??0runtime_error@std@@QEAA@AEBV01@@Z DD imagerel $LN9
	DD	imagerel $LN9+60
	DD	imagerel $unwind$??0runtime_error@std@@QEAA@AEBV01@@Z
pdata	ENDS
;	COMDAT pdata
pdata	SEGMENT
$pdata$??_Gruntime_error@std@@UEAAPEAXI@Z DD imagerel $LN17
	DD	imagerel $LN17+66
	DD	imagerel $unwind$??_Gruntime_error@std@@UEAAPEAXI@Z
pdata	ENDS
;	COMDAT pdata
pdata	SEGMENT
$pdata$??0runtime_error@std@@QEAA@AEBV?$basic_string@DU?$char_traits@D@std@@V?$allocator@D@2@@1@@Z DD imagerel $LN19
	DD	imagerel $LN19+109
	DD	imagerel $unwind$??0runtime_error@std@@QEAA@AEBV?$basic_string@DU?$char_traits@D@std@@V?$allocator@D@2@@1@@Z
pdata	ENDS
;	COMDAT pdata
pdata	SEGMENT
$pdata$??0exception@std@@QEAA@QEBD@Z DD imagerel $LN6
	DD	imagerel $LN6+89
	DD	imagerel $unwind$??0exception@std@@QEAA@QEBD@Z
pdata	ENDS
;	COMDAT xdata
xdata	SEGMENT
$unwind$??0exception@std@@QEAA@QEBD@Z DD 021519H
	DD	030027206H
	DD	imagerel __GSHandlerCheck
	DD	030H
xdata	ENDS
;	COMDAT xdata
xdata	SEGMENT
$unwind$??0runtime_error@std@@QEAA@AEBV?$basic_string@DU?$char_traits@D@std@@V?$allocator@D@2@@1@@Z DD 021519H
	DD	030027206H
	DD	imagerel __GSHandlerCheck
	DD	030H
xdata	ENDS
;	COMDAT xdata
xdata	SEGMENT
$unwind$??_Gruntime_error@std@@UEAAPEAXI@Z DD 040a01H
	DD	06340aH
	DD	07006320aH
xdata	ENDS
;	COMDAT xdata
xdata	SEGMENT
$unwind$??0runtime_error@std@@QEAA@AEBV01@@Z DD 020601H
	DD	030023206H
xdata	ENDS
;	COMDAT xdata
xdata	SEGMENT
$unwind$?message@error_code@std@@QEBA?AV?$basic_string@DU?$char_traits@D@std@@V?$allocator@D@2@@2@XZ DD 020601H
	DD	030025206H
xdata	ENDS
;	COMDAT xdata
xdata	SEGMENT
$unwind$?equivalent@error_category@std@@UEBA_NHAEBVerror_condition@2@@Z DD 020601H
	DD	030025206H
xdata	ENDS
;	COMDAT xdata
xdata	SEGMENT
$ip2state$?_Makestr@_System_error@std@@CA?AV?$basic_string@DU?$char_traits@D@std@@V?$allocator@D@2@@2@Verror_code@2@V32@@Z DB 08H
	DB	'!', 02H
	DB	02H
	DB	'0'
	DB	04H
	DB	'>'
	DB	02H
	DB	0e1H, 02H
	DB	00H
xdata	ENDS
;	COMDAT xdata
xdata	SEGMENT
$stateUnwindMap$?_Makestr@_System_error@std@@CA?AV?$basic_string@DU?$char_traits@D@std@@V?$allocator@D@2@@2@Verror_code@2@V32@@Z DB 04H
	DB	0cH
	DD	imagerel ??1?$basic_string@DU?$char_traits@D@std@@V?$allocator@D@2@@std@@QEAA@XZ
	DB	0b0H
	DB	032H
	DD	imagerel ??1?$basic_string@DU?$char_traits@D@std@@V?$allocator@D@2@@std@@QEAA@XZ
	DB	070H
xdata	ENDS
;	COMDAT xdata
xdata	SEGMENT
$cppxdata$?_Makestr@_System_error@std@@CA?AV?$basic_string@DU?$char_traits@D@std@@V?$allocator@D@2@@2@Verror_code@2@V32@@Z DB 028H
	DD	imagerel $stateUnwindMap$?_Makestr@_System_error@std@@CA?AV?$basic_string@DU?$char_traits@D@std@@V?$allocator@D@2@@2@Verror_code@2@V32@@Z
	DD	imagerel $ip2state$?_Makestr@_System_error@std@@CA?AV?$basic_string@DU?$char_traits@D@std@@V?$allocator@D@2@@2@Verror_code@2@V32@@Z
xdata	ENDS
;	COMDAT xdata
xdata	SEGMENT
$unwind$?_Makestr@_System_error@std@@CA?AV?$basic_string@DU?$char_traits@D@std@@V?$allocator@D@2@@2@Verror_code@2@V32@@Z DD 061b19H
	DD	015340cH
	DD	07008d20cH
	DD	050066007H
	DD	imagerel __GSHandlerCheck_EH4
	DD	imagerel $cppxdata$?_Makestr@_System_error@std@@CA?AV?$basic_string@DU?$char_traits@D@std@@V?$allocator@D@2@@2@Verror_code@2@V32@@Z
	DD	062H
xdata	ENDS
;	COMDAT xdata
xdata	SEGMENT
$unwind$??0_System_error@std@@IEAA@Verror_code@1@AEBV?$basic_string@DU?$char_traits@D@std@@V?$allocator@D@2@@1@@Z DD 041c19H
	DD	015340dH
	DD	07006f20dH
	DD	imagerel __GSHandlerCheck
	DD	070H
xdata	ENDS
;	COMDAT xdata
xdata	SEGMENT
$unwind$??_G_System_error@std@@UEAAPEAXI@Z DD 040a01H
	DD	06340aH
	DD	07006320aH
xdata	ENDS
;	COMDAT xdata
xdata	SEGMENT
$ip2state$??0system_error@std@@QEAA@Verror_code@1@PEBD@Z DB 08H
	DB	0c4H
	DB	00H
	DB	' '
	DB	02H
	DB	0e1H, 02H
	DB	00H
	DB	0daH
	DB	02H
xdata	ENDS
;	COMDAT xdata
xdata	SEGMENT
$stateUnwindMap$??0system_error@std@@QEAA@Verror_code@1@PEBD@Z DB 02H
	DB	0aH
	DD	imagerel ??1?$basic_string@DU?$char_traits@D@std@@V?$allocator@D@2@@std@@QEAA@XZ
	DB	040H
xdata	ENDS
;	COMDAT xdata
xdata	SEGMENT
$cppxdata$??0system_error@std@@QEAA@Verror_code@1@PEBD@Z DB 028H
	DD	imagerel $stateUnwindMap$??0system_error@std@@QEAA@Verror_code@1@PEBD@Z
	DD	imagerel $ip2state$??0system_error@std@@QEAA@Verror_code@1@PEBD@Z
xdata	ENDS
;	COMDAT xdata
xdata	SEGMENT
$unwind$??0system_error@std@@QEAA@Verror_code@1@PEBD@Z DD 051f19H
	DD	019340dH
	DD	014010dH
	DD	07006H
	DD	imagerel __GSHandlerCheck_EH4
	DD	imagerel $cppxdata$??0system_error@std@@QEAA@Verror_code@1@PEBD@Z
	DD	092H
xdata	ENDS
;	COMDAT xdata
xdata	SEGMENT
$unwind$??_Gsystem_error@std@@UEAAPEAXI@Z DD 040a01H
	DD	06340aH
	DD	07006320aH
xdata	ENDS
;	COMDAT xdata
xdata	SEGMENT
$unwind$??0system_error@std@@QEAA@AEBV01@@Z DD 040a01H
	DD	06340aH
	DD	07006320aH
xdata	ENDS
;	COMDAT xdata
xdata	SEGMENT
$unwind$??0_System_error@std@@QEAA@AEBV01@@Z DD 040a01H
	DD	06340aH
	DD	07006320aH
xdata	ENDS
;	COMDAT xdata
xdata	SEGMENT
$unwind$?message@_Iostream_error_category2@std@@UEBA?AV?$basic_string@DU?$char_traits@D@std@@V?$allocator@D@2@@2@H@Z DD 040a01H
	DD	08340aH
	DD	07006520aH
xdata	ENDS
;	COMDAT xdata
xdata	SEGMENT
$unwind$??_G_Iostream_error_category2@std@@UEAAPEAXI@Z DD 020601H
	DD	030023206H
xdata	ENDS
;	COMDAT xdata
xdata	SEGMENT
$unwind$??_Gbad_cast@std@@UEAAPEAXI@Z DD 040a01H
	DD	06340aH
	DD	07006320aH
xdata	ENDS
;	COMDAT xdata
xdata	SEGMENT
$unwind$?_Throw_bad_cast@std@@YAXXZ DD 010401H
	DD	08204H
xdata	ENDS
;	COMDAT xdata
xdata	SEGMENT
$unwind$??0bad_cast@std@@QEAA@AEBV01@@Z DD 020601H
	DD	030023206H
xdata	ENDS
;	COMDAT xdata
xdata	SEGMENT
$unwind$??_G_Facet_base@std@@UEAAPEAXI@Z DD 020601H
	DD	030023206H
xdata	ENDS
;	COMDAT xdata
xdata	SEGMENT
$ip2state$??0_Locinfo@std@@QEAA@PEBD@Z DB 02H
	DB	0acH
	DB	0eH
xdata	ENDS
;	COMDAT xdata
xdata	SEGMENT
$stateUnwindMap$??0_Locinfo@std@@QEAA@PEBD@Z DB 0eH
	DB	0cH
	DD	imagerel ??1_Lockit@std@@QEAA@XZ
	DB	060H
	DB	036H
	DD	imagerel ?dtor$1@?0???0_Locinfo@std@@QEAA@PEBD@Z@4HA
	DB	02eH
	DD	imagerel ?dtor$2@?0???0_Locinfo@std@@QEAA@PEBD@Z@4HA
	DB	02eH
	DD	imagerel ?dtor$3@?0???0_Locinfo@std@@QEAA@PEBD@Z@4HA
	DB	02eH
	DD	imagerel ?dtor$4@?0???0_Locinfo@std@@QEAA@PEBD@Z@4HA
	DB	02eH
	DD	imagerel ?dtor$5@?0???0_Locinfo@std@@QEAA@PEBD@Z@4HA
	DB	02eH
	DD	imagerel ?dtor$6@?0???0_Locinfo@std@@QEAA@PEBD@Z@4HA
xdata	ENDS
;	COMDAT xdata
xdata	SEGMENT
$cppxdata$??0_Locinfo@std@@QEAA@PEBD@Z DB 028H
	DD	imagerel $stateUnwindMap$??0_Locinfo@std@@QEAA@PEBD@Z
	DD	imagerel $ip2state$??0_Locinfo@std@@QEAA@PEBD@Z
xdata	ENDS
;	COMDAT xdata
xdata	SEGMENT
$unwind$??0_Locinfo@std@@QEAA@PEBD@Z DD 040f11H
	DD	07340fH
	DD	0700b320fH
	DD	imagerel __CxxFrameHandler4
	DD	imagerel $cppxdata$??0_Locinfo@std@@QEAA@PEBD@Z
xdata	ENDS
;	COMDAT xdata
xdata	SEGMENT
$ip2state$??1_Locinfo@std@@QEAA@XZ DB 02H
	DB	01aH
	DB	00H
xdata	ENDS
;	COMDAT xdata
xdata	SEGMENT
$cppxdata$??1_Locinfo@std@@QEAA@XZ DB 060H
	DD	imagerel $ip2state$??1_Locinfo@std@@QEAA@XZ
xdata	ENDS
;	COMDAT xdata
xdata	SEGMENT
$unwind$??1_Locinfo@std@@QEAA@XZ DD 040a19H
	DD	06340aH
	DD	07006320aH
	DD	imagerel __CxxFrameHandler4
	DD	imagerel $cppxdata$??1_Locinfo@std@@QEAA@XZ
xdata	ENDS
;	COMDAT xdata
xdata	SEGMENT
$unwind$?_Getctype@_Locinfo@std@@QEBA?AU_Ctypevec@@XZ DD 020601H
	DD	030027206H
xdata	ENDS
;	COMDAT xdata
xdata	SEGMENT
$unwind$??Bid@locale@std@@QEAA_KXZ DD 021519H
	DD	030025206H
	DD	imagerel __GSHandlerCheck
	DD	028H
xdata	ENDS
;	COMDAT voltbl
voltbl	SEGMENT
_volmd	DB	00H
voltbl	ENDS
;	COMDAT voltbl
voltbl	SEGMENT
_volmd	DB	00H
voltbl	ENDS
;	COMDAT xdata
xdata	SEGMENT
$unwind$??0locale@std@@QEAA@AEBV01@@Z DD 020601H
	DD	030023206H
xdata	ENDS
;	COMDAT xdata
xdata	SEGMENT
$unwind$??1locale@std@@QEAA@XZ DD 010401H
	DD	04204H
xdata	ENDS
;	COMDAT xdata
xdata	SEGMENT
$unwind$?_Getfacet@locale@std@@QEBAPEBVfacet@12@_K@Z DD 040a01H
	DD	06340aH
	DD	07006320aH
xdata	ENDS
;	COMDAT xdata
xdata	SEGMENT
$unwind$??_Gfacet@locale@std@@MEAAPEAXI@Z DD 020601H
	DD	030023206H
xdata	ENDS
;	COMDAT xdata
xdata	SEGMENT
$unwind$??_Gctype_base@std@@UEAAPEAXI@Z DD 020601H
	DD	030023206H
xdata	ENDS
;	COMDAT xdata
xdata	SEGMENT
$unwind$??0?$ctype@D@std@@QEAA@AEBV_Locinfo@1@_K@Z DD 020601H
	DD	030027206H
xdata	ENDS
;	COMDAT xdata
xdata	SEGMENT
$unwind$?dtor$0@?0??_Getcat@?$ctype@D@std@@SA_KPEAPEBVfacet@locale@2@PEBV42@@Z@4HA DD 020601H
	DD	050023206H
xdata	ENDS
;	COMDAT xdata
xdata	SEGMENT
$ip2state$?_Getcat@?$ctype@D@std@@SA_KPEAPEBVfacet@locale@2@PEBV42@@Z DB 08H
	DB	't'
	DB	00H
	DB	0f2H
	DB	010H
	DB	'f'
	DB	012H
	DB	'}', 02H
	DB	010H
xdata	ENDS
;	COMDAT xdata
xdata	SEGMENT
$stateUnwindMap$?_Getcat@?$ctype@D@std@@SA_KPEAPEBVfacet@locale@2@PEBV42@@Z DB 012H
	DB	0eH
	DD	imagerel ?dtor$0@?0??_Getcat@?$ctype@D@std@@SA_KPEAPEBVfacet@locale@2@PEBV42@@Z@4HA
	DB	02aH
	DD	imagerel ??1_Lockit@std@@QEAA@XZ
	DB	040H
	DB	036H
	DD	imagerel ?dtor$3@?0??_Getcat@?$ctype@D@std@@SA_KPEAPEBVfacet@locale@2@PEBV42@@Z@4HA
	DB	02eH
	DD	imagerel ?dtor$4@?0??_Getcat@?$ctype@D@std@@SA_KPEAPEBVfacet@locale@2@PEBV42@@Z@4HA
	DB	02eH
	DD	imagerel ?dtor$5@?0??_Getcat@?$ctype@D@std@@SA_KPEAPEBVfacet@locale@2@PEBV42@@Z@4HA
	DB	02eH
	DD	imagerel ?dtor$6@?0??_Getcat@?$ctype@D@std@@SA_KPEAPEBVfacet@locale@2@PEBV42@@Z@4HA
	DB	02eH
	DD	imagerel ?dtor$7@?0??_Getcat@?$ctype@D@std@@SA_KPEAPEBVfacet@locale@2@PEBV42@@Z@4HA
	DB	02eH
	DD	imagerel ?dtor$8@?0??_Getcat@?$ctype@D@std@@SA_KPEAPEBVfacet@locale@2@PEBV42@@Z@4HA
	DB	0adH
	DB	02H
	DD	imagerel __std_terminate
xdata	ENDS
;	COMDAT xdata
xdata	SEGMENT
$cppxdata$?_Getcat@?$ctype@D@std@@SA_KPEAPEBVfacet@locale@2@PEBV42@@Z DB 028H
	DD	imagerel $stateUnwindMap$?_Getcat@?$ctype@D@std@@SA_KPEAPEBVfacet@locale@2@PEBV42@@Z
	DD	imagerel $ip2state$?_Getcat@?$ctype@D@std@@SA_KPEAPEBVfacet@locale@2@PEBV42@@Z
xdata	ENDS
;	COMDAT xdata
xdata	SEGMENT
$unwind$?_Getcat@?$ctype@D@std@@SA_KPEAPEBVfacet@locale@2@PEBV42@@Z DD 091a11H
	DD	01c641aH
	DD	01b341aH
	DD	016011aH
	DD	0700ce00eH
	DD	0500bH
	DD	imagerel __CxxFrameHandler4
	DD	imagerel $cppxdata$?_Getcat@?$ctype@D@std@@SA_KPEAPEBVfacet@locale@2@PEBV42@@Z
xdata	ENDS
;	COMDAT xdata
xdata	SEGMENT
$unwind$??1?$ctype@D@std@@MEAA@XZ DD 020601H
	DD	030023206H
xdata	ENDS
;	COMDAT xdata
xdata	SEGMENT
$unwind$?_Init@?$ctype@D@std@@IEAAXAEBV_Locinfo@2@@Z DD 020601H
	DD	030027206H
xdata	ENDS
;	COMDAT xdata
xdata	SEGMENT
$unwind$?_Tidy@?$ctype@D@std@@IEAAXXZ DD 020601H
	DD	030023206H
xdata	ENDS
;	COMDAT xdata
xdata	SEGMENT
$chain$1$?do_tolower@?$ctype@D@std@@MEBAPEBDPEADPEBD@Z DD 021H
	DD	imagerel $LN14
	DD	imagerel $LN14+21
	DD	imagerel $unwind$?do_tolower@?$ctype@D@std@@MEBAPEBDPEADPEBD@Z
xdata	ENDS
;	COMDAT xdata
xdata	SEGMENT
$chain$0$?do_tolower@?$ctype@D@std@@MEBAPEBDPEADPEBD@Z DD 020521H
	DD	087405H
	DD	imagerel $LN14
	DD	imagerel $LN14+21
	DD	imagerel $unwind$?do_tolower@?$ctype@D@std@@MEBAPEBDPEADPEBD@Z
xdata	ENDS
;	COMDAT xdata
xdata	SEGMENT
$unwind$?do_tolower@?$ctype@D@std@@MEBAPEBDPEADPEBD@Z DD 040a01H
	DD	09340aH
	DD	06006320aH
xdata	ENDS
;	COMDAT xdata
xdata	SEGMENT
$chain$1$?do_toupper@?$ctype@D@std@@MEBAPEBDPEADPEBD@Z DD 021H
	DD	imagerel $LN14
	DD	imagerel $LN14+21
	DD	imagerel $unwind$?do_toupper@?$ctype@D@std@@MEBAPEBDPEADPEBD@Z
xdata	ENDS
;	COMDAT xdata
xdata	SEGMENT
$chain$0$?do_toupper@?$ctype@D@std@@MEBAPEBDPEADPEBD@Z DD 020521H
	DD	087405H
	DD	imagerel $LN14
	DD	imagerel $LN14+21
	DD	imagerel $unwind$?do_toupper@?$ctype@D@std@@MEBAPEBDPEADPEBD@Z
xdata	ENDS
;	COMDAT xdata
xdata	SEGMENT
$unwind$?do_toupper@?$ctype@D@std@@MEBAPEBDPEADPEBD@Z DD 040a01H
	DD	09340aH
	DD	06006320aH
xdata	ENDS
;	COMDAT xdata
xdata	SEGMENT
$unwind$?do_widen@?$ctype@D@std@@MEBAPEBDPEBD0PEAD@Z DD 020601H
	DD	030023206H
xdata	ENDS
;	COMDAT xdata
xdata	SEGMENT
$unwind$?do_narrow@?$ctype@D@std@@MEBAPEBDPEBD0DPEAD@Z DD 020601H
	DD	030023206H
xdata	ENDS
;	COMDAT xdata
xdata	SEGMENT
$unwind$??_G?$ctype@D@std@@MEAAPEAXI@Z DD 040a01H
	DD	06340aH
	DD	07006320aH
xdata	ENDS
;	COMDAT xdata
xdata	SEGMENT
$ip2state$??0failure@ios_base@std@@QEAA@PEBDAEBVerror_code@2@@Z DB 08H
	DB	0beH
	DB	00H
	DB	' '
	DB	02H
	DB	0cdH, 02H
	DB	00H
	DB	0daH
	DB	02H
xdata	ENDS
;	COMDAT xdata
xdata	SEGMENT
$stateUnwindMap$??0failure@ios_base@std@@QEAA@PEBDAEBVerror_code@2@@Z DB 02H
	DB	0aH
	DD	imagerel ??1?$basic_string@DU?$char_traits@D@std@@V?$allocator@D@2@@std@@QEAA@XZ
	DB	040H
xdata	ENDS
;	COMDAT xdata
xdata	SEGMENT
$cppxdata$??0failure@ios_base@std@@QEAA@PEBDAEBVerror_code@2@@Z DB 028H
	DD	imagerel $stateUnwindMap$??0failure@ios_base@std@@QEAA@PEBDAEBVerror_code@2@@Z
	DD	imagerel $ip2state$??0failure@ios_base@std@@QEAA@PEBDAEBVerror_code@2@@Z
xdata	ENDS
;	COMDAT xdata
xdata	SEGMENT
$unwind$??0failure@ios_base@std@@QEAA@PEBDAEBVerror_code@2@@Z DD 052319H
	DD	0a6811H
	DD	0160109H
	DD	03002H
	DD	imagerel __GSHandlerCheck_EH4
	DD	imagerel $cppxdata$??0failure@ios_base@std@@QEAA@PEBDAEBVerror_code@2@@Z
	DD	092H
xdata	ENDS
;	COMDAT xdata
xdata	SEGMENT
$unwind$?clear@ios_base@std@@QEAAXH_N@Z DD 032a01H
	DD	0c342aH
	DD	0c204H
xdata	ENDS
;	COMDAT xdata
xdata	SEGMENT
$unwind$?getloc@ios_base@std@@QEBA?AVlocale@2@XZ DD 020601H
	DD	030023206H
xdata	ENDS
;	COMDAT xdata
xdata	SEGMENT
$unwind$??_Gfailure@ios_base@std@@UEAAPEAXI@Z DD 040a01H
	DD	06340aH
	DD	07006320aH
xdata	ENDS
;	COMDAT xdata
xdata	SEGMENT
$unwind$??0failure@ios_base@std@@QEAA@AEBV012@@Z DD 040a01H
	DD	06340aH
	DD	07006320aH
xdata	ENDS
;	COMDAT xdata
xdata	SEGMENT
$ip2state$??0ServerInterface@@QEAA@W4SocketTypes@@H@Z DB 08H
	DB	'`'
	DB	00H
	DB	'|'
	DB	04H
	DB	'%', 02H
	DB	06H
	DB	0ddH, 02H
	DB	00H
xdata	ENDS
;	COMDAT xdata
xdata	SEGMENT
$stateUnwindMap$??0ServerInterface@@QEAA@W4SocketTypes@@H@Z DB 06H
	DB	0eH
	DD	imagerel ?dtor$2@?0???0ServerInterface@@QEAA@W4SocketTypes@@H@Z@4HA
	DB	02eH
	DD	imagerel ?dtor$3@?0???0ServerInterface@@QEAA@W4SocketTypes@@H@Z@4HA
	DB	05cH
	DD	imagerel ??1?$unordered_map@JV?$tuple@VClient@@V?$basic_string@DU?$char_traits@D@std@@V?$allocator@D@2@@std@@V23@@std@@U?$hash@J@2@U?$equal_to@J@2@V?$allocator@U?$pair@$$CBJV?$tuple@VClient@@V?$basic_string@DU?$char_traits@D@std@@V?$allocator@D@2@@std@@V23@@std@@@std@@@2@@std@@QEAA@XZ
	DB	081H
	DB	02H
xdata	ENDS
;	COMDAT xdata
xdata	SEGMENT
$cppxdata$??0ServerInterface@@QEAA@W4SocketTypes@@H@Z DB 028H
	DD	imagerel $stateUnwindMap$??0ServerInterface@@QEAA@W4SocketTypes@@H@Z
	DD	imagerel $ip2state$??0ServerInterface@@QEAA@W4SocketTypes@@H@Z
xdata	ENDS
;	COMDAT xdata
xdata	SEGMENT
$unwind$??0ServerInterface@@QEAA@W4SocketTypes@@H@Z DD 061411H
	DD	0153414H
	DD	0700df214H
	DD	0500b600cH
	DD	imagerel __CxxFrameHandler4
	DD	imagerel $cppxdata$??0ServerInterface@@QEAA@W4SocketTypes@@H@Z
xdata	ENDS
;	COMDAT xdata
xdata	SEGMENT
$ip2state$??1ServerInterface@@QEAA@XZ DB 02H
	DB	012H
	DB	00H
xdata	ENDS
;	COMDAT xdata
xdata	SEGMENT
$cppxdata$??1ServerInterface@@QEAA@XZ DB 060H
	DD	imagerel $ip2state$??1ServerInterface@@QEAA@XZ
xdata	ENDS
;	COMDAT xdata
xdata	SEGMENT
$unwind$??1ServerInterface@@QEAA@XZ DD 020619H
	DD	030023206H
	DD	imagerel __CxxFrameHandler4
	DD	imagerel $cppxdata$??1ServerInterface@@QEAA@XZ
xdata	ENDS
;	COMDAT xdata
xdata	SEGMENT
$unwind$?StartServer@ServerInterface@@QEAAHUServer@@@Z DD 040a01H
	DD	08340aH
	DD	07006320aH
xdata	ENDS
;	COMDAT xdata
xdata	SEGMENT
$unwind$??1?$unordered_map@JV?$tuple@VClient@@V?$basic_string@DU?$char_traits@D@std@@V?$allocator@D@2@@std@@V23@@std@@U?$hash@J@2@U?$equal_to@J@2@V?$allocator@U?$pair@$$CBJV?$tuple@VClient@@V?$basic_string@DU?$char_traits@D@std@@V?$allocator@D@2@@std@@V23@@std@@@std@@@2@@std@@QEAA@XZ DD 020601H
	DD	030023206H
xdata	ENDS
;	COMDAT xdata
xdata	SEGMENT
$unwind$??1?$_Hash@V?$_Umap_traits@JV?$tuple@VClient@@V?$basic_string@DU?$char_traits@D@std@@V?$allocator@D@2@@std@@V23@@std@@V?$_Uhash_compare@JU?$hash@J@std@@U?$equal_to@J@2@@2@V?$allocator@U?$pair@$$CBJV?$tuple@VClient@@V?$basic_string@DU?$char_traits@D@std@@V?$allocator@D@2@@std@@V23@@std@@@std@@@2@$0A@@std@@@std@@QEAA@XZ DD 020601H
	DD	030023206H
xdata	ENDS
;	COMDAT xdata
xdata	SEGMENT
$ip2state$main DB 08H
	DB	'd'
	DB	00H
	DB	'>'
	DB	02H
	DB	'Z'
	DB	04H
	DB	0e8H
	DB	00H
xdata	ENDS
;	COMDAT xdata
xdata	SEGMENT
$stateUnwindMap$main DB 04H
	DB	0aH
	DD	imagerel ??1ServerInterface@@QEAA@XZ
	DB	040H
	DB	03eH
	DD	imagerel __std_terminate
xdata	ENDS
;	COMDAT xdata
xdata	SEGMENT
$cppxdata$main DB 028H
	DD	imagerel $stateUnwindMap$main
	DD	imagerel $ip2state$main
xdata	ENDS
;	COMDAT xdata
xdata	SEGMENT
$unwind$main DD	031b19H
	DD	01e0109H
	DD	03002H
	DD	imagerel __GSHandlerCheck_EH4
	DD	imagerel $cppxdata$main
	DD	0e2H
xdata	ENDS
;	COMDAT xdata
xdata	SEGMENT
$ip2state$??0?$unordered_map@JV?$tuple@VClient@@V?$basic_string@DU?$char_traits@D@std@@V?$allocator@D@2@@std@@V23@@std@@U?$hash@J@2@U?$equal_to@J@2@V?$allocator@U?$pair@$$CBJV?$tuple@VClient@@V?$basic_string@DU?$char_traits@D@std@@V?$allocator@D@2@@std@@V23@@std@@@std@@@2@@std@@QEAA@XZ DB 04H
	DB	'F'
	DB	00H
	DB	'|'
	DB	04H
xdata	ENDS
;	COMDAT xdata
xdata	SEGMENT
$stateUnwindMap$??0?$unordered_map@JV?$tuple@VClient@@V?$basic_string@DU?$char_traits@D@std@@V?$allocator@D@2@@std@@V23@@std@@U?$hash@J@2@U?$equal_to@J@2@V?$allocator@U?$pair@$$CBJV?$tuple@VClient@@V?$basic_string@DU?$char_traits@D@std@@V?$allocator@D@2@@std@@V23@@std@@@std@@@2@@std@@QEAA@XZ DB 04H
	DB	0eH
	DD	imagerel ?dtor$1@?0???0?$unordered_map@JV?$tuple@VClient@@V?$basic_string@DU?$char_traits@D@std@@V?$allocator@D@2@@std@@V23@@std@@U?$hash@J@2@U?$equal_to@J@2@V?$allocator@U?$pair@$$CBJV?$tuple@VClient@@V?$basic_string@DU?$char_traits@D@std@@V?$allocator@D@2@@std@@V23@@std@@@std@@@2@@std@@QEAA@XZ@4HA
	DB	02eH
	DD	imagerel ?dtor$2@?0???0?$unordered_map@JV?$tuple@VClient@@V?$basic_string@DU?$char_traits@D@std@@V?$allocator@D@2@@std@@V23@@std@@U?$hash@J@2@U?$equal_to@J@2@V?$allocator@U?$pair@$$CBJV?$tuple@VClient@@V?$basic_string@DU?$char_traits@D@std@@V?$allocator@D@2@@std@@V23@@std@@@std@@@2@@std@@QEAA@XZ@4HA
xdata	ENDS
;	COMDAT xdata
xdata	SEGMENT
$cppxdata$??0?$unordered_map@JV?$tuple@VClient@@V?$basic_string@DU?$char_traits@D@std@@V?$allocator@D@2@@std@@V23@@std@@U?$hash@J@2@U?$equal_to@J@2@V?$allocator@U?$pair@$$CBJV?$tuple@VClient@@V?$basic_string@DU?$char_traits@D@std@@V?$allocator@D@2@@std@@V23@@std@@@std@@@2@@std@@QEAA@XZ DB 028H
	DD	imagerel $stateUnwindMap$??0?$unordered_map@JV?$tuple@VClient@@V?$basic_string@DU?$char_traits@D@std@@V?$allocator@D@2@@std@@V23@@std@@U?$hash@J@2@U?$equal_to@J@2@V?$allocator@U?$pair@$$CBJV?$tuple@VClient@@V?$basic_string@DU?$char_traits@D@std@@V?$allocator@D@2@@std@@V23@@std@@@std@@@2@@std@@QEAA@XZ
	DD	imagerel $ip2state$??0?$unordered_map@JV?$tuple@VClient@@V?$basic_string@DU?$char_traits@D@std@@V?$allocator@D@2@@std@@V23@@std@@U?$hash@J@2@U?$equal_to@J@2@V?$allocator@U?$pair@$$CBJV?$tuple@VClient@@V?$basic_string@DU?$char_traits@D@std@@V?$allocator@D@2@@std@@V23@@std@@@std@@@2@@std@@QEAA@XZ
xdata	ENDS
;	COMDAT xdata
xdata	SEGMENT
$unwind$??0?$unordered_map@JV?$tuple@VClient@@V?$basic_string@DU?$char_traits@D@std@@V?$allocator@D@2@@std@@V23@@std@@U?$hash@J@2@U?$equal_to@J@2@V?$allocator@U?$pair@$$CBJV?$tuple@VClient@@V?$basic_string@DU?$char_traits@D@std@@V?$allocator@D@2@@std@@V23@@std@@@std@@@2@@std@@QEAA@XZ DD 040f11H
	DD	07340fH
	DD	0700b320fH
	DD	imagerel __CxxFrameHandler4
	DD	imagerel $cppxdata$??0?$unordered_map@JV?$tuple@VClient@@V?$basic_string@DU?$char_traits@D@std@@V?$allocator@D@2@@std@@V23@@std@@U?$hash@J@2@U?$equal_to@J@2@V?$allocator@U?$pair@$$CBJV?$tuple@VClient@@V?$basic_string@DU?$char_traits@D@std@@V?$allocator@D@2@@std@@V23@@std@@@std@@@2@@std@@QEAA@XZ
xdata	ENDS
;	COMDAT xdata
xdata	SEGMENT
$unwind$??1?$_Hash_vec@V?$allocator@V?$_List_unchecked_iterator@V?$_List_val@U?$_List_simple_types@U?$pair@$$CBJV?$tuple@VClient@@V?$basic_string@DU?$char_traits@D@std@@V?$allocator@D@2@@std@@V23@@std@@@std@@@std@@@std@@@std@@@std@@@std@@QEAA@XZ DD 020601H
	DD	030023206H
xdata	ENDS
;	COMDAT xdata
xdata	SEGMENT
$chain$2$??1?$list@U?$pair@$$CBJV?$tuple@VClient@@V?$basic_string@DU?$char_traits@D@std@@V?$allocator@D@2@@std@@V23@@std@@@std@@V?$allocator@U?$pair@$$CBJV?$tuple@VClient@@V?$basic_string@DU?$char_traits@D@std@@V?$allocator@D@2@@std@@V23@@std@@@std@@@2@@std@@QEAA@XZ DD 021H
	DD	imagerel $LN140
	DD	imagerel $LN140+36
	DD	imagerel $unwind$??1?$list@U?$pair@$$CBJV?$tuple@VClient@@V?$basic_string@DU?$char_traits@D@std@@V?$allocator@D@2@@std@@V23@@std@@@std@@V?$allocator@U?$pair@$$CBJV?$tuple@VClient@@V?$basic_string@DU?$char_traits@D@std@@V?$allocator@D@2@@std@@V23@@std@@@std@@@2@@std@@QEAA@XZ
xdata	ENDS
;	COMDAT xdata
xdata	SEGMENT
$chain$1$??1?$list@U?$pair@$$CBJV?$tuple@VClient@@V?$basic_string@DU?$char_traits@D@std@@V?$allocator@D@2@@std@@V23@@std@@@std@@V?$allocator@U?$pair@$$CBJV?$tuple@VClient@@V?$basic_string@DU?$char_traits@D@std@@V?$allocator@D@2@@std@@V23@@std@@@std@@@2@@std@@QEAA@XZ DD 040a21H
	DD	08740aH
	DD	073405H
	DD	imagerel $LN140
	DD	imagerel $LN140+36
	DD	imagerel $unwind$??1?$list@U?$pair@$$CBJV?$tuple@VClient@@V?$basic_string@DU?$char_traits@D@std@@V?$allocator@D@2@@std@@V23@@std@@@std@@V?$allocator@U?$pair@$$CBJV?$tuple@VClient@@V?$basic_string@DU?$char_traits@D@std@@V?$allocator@D@2@@std@@V23@@std@@@std@@@2@@std@@QEAA@XZ
xdata	ENDS
;	COMDAT xdata
xdata	SEGMENT
$unwind$??1?$list@U?$pair@$$CBJV?$tuple@VClient@@V?$basic_string@DU?$char_traits@D@std@@V?$allocator@D@2@@std@@V23@@std@@@std@@V?$allocator@U?$pair@$$CBJV?$tuple@VClient@@V?$basic_string@DU?$char_traits@D@std@@V?$allocator@D@2@@std@@V23@@std@@@std@@@2@@std@@QEAA@XZ DD 040b01H
	DD	09640bH
	DD	0e007320bH
xdata	ENDS
;	COMDAT xdata
xdata	SEGMENT
$unwind$??1?$_Yarn@_W@std@@QEAA@XZ DD 020601H
	DD	030023206H
xdata	ENDS
;	COMDAT xdata
xdata	SEGMENT
$unwind$??1?$_Yarn@D@std@@QEAA@XZ DD 020601H
	DD	030023206H
xdata	ENDS
;	COMDAT xdata
xdata	SEGMENT
$unwind$??0?$basic_string@DU?$char_traits@D@std@@V?$allocator@D@2@@std@@QEAA@QEBD_K@Z DD 020601H
	DD	030023206H
xdata	ENDS
;	COMDAT xdata
xdata	SEGMENT
$unwind$?_Tidy@?$_Hash_vec@V?$allocator@V?$_List_unchecked_iterator@V?$_List_val@U?$_List_simple_types@U?$pair@$$CBJV?$tuple@VClient@@V?$basic_string@DU?$char_traits@D@std@@V?$allocator@D@2@@std@@V23@@std@@@std@@@std@@@std@@@std@@@std@@@std@@QEAAXXZ DD 020601H
	DD	030023206H
xdata	ENDS
;	COMDAT xdata
xdata	SEGMENT
$ip2state$??0?$_Hash@V?$_Umap_traits@JV?$tuple@VClient@@V?$basic_string@DU?$char_traits@D@std@@V?$allocator@D@2@@std@@V23@@std@@V?$_Uhash_compare@JU?$hash@J@std@@U?$equal_to@J@2@@2@V?$allocator@U?$pair@$$CBJV?$tuple@VClient@@V?$basic_string@DU?$char_traits@D@std@@V?$allocator@D@2@@std@@V23@@std@@@std@@@2@$0A@@std@@@std@@IEAA@AEBV?$_Uhash_compare@JU?$hash@J@std@@U?$equal_to@J@2@@1@AEBV?$allocator@U?$pair@$$CBJV?$tuple@VClient@@V?$basic_string@DU?$char_traits@D@std@@V?$allocator@D@2@@std@@V23@@std@@@std@@@1@@Z DB 04H
	DB	'J'
	DB	00H
	DB	'|'
	DB	04H
xdata	ENDS
;	COMDAT xdata
xdata	SEGMENT
$stateUnwindMap$??0?$_Hash@V?$_Umap_traits@JV?$tuple@VClient@@V?$basic_string@DU?$char_traits@D@std@@V?$allocator@D@2@@std@@V23@@std@@V?$_Uhash_compare@JU?$hash@J@std@@U?$equal_to@J@2@@2@V?$allocator@U?$pair@$$CBJV?$tuple@VClient@@V?$basic_string@DU?$char_traits@D@std@@V?$allocator@D@2@@std@@V23@@std@@@std@@@2@$0A@@std@@@std@@IEAA@AEBV?$_Uhash_compare@JU?$hash@J@std@@U?$equal_to@J@2@@1@AEBV?$allocator@U?$pair@$$CBJV?$tuple@VClient@@V?$basic_string@DU?$char_traits@D@std@@V?$allocator@D@2@@std@@V23@@std@@@std@@@1@@Z DB 04H
	DB	0eH
	DD	imagerel ?dtor$0@?0???0?$_Hash@V?$_Umap_traits@JV?$tuple@VClient@@V?$basic_string@DU?$char_traits@D@std@@V?$allocator@D@2@@std@@V23@@std@@V?$_Uhash_compare@JU?$hash@J@std@@U?$equal_to@J@2@@2@V?$allocator@U?$pair@$$CBJV?$tuple@VClient@@V?$basic_string@DU?$char_traits@D@std@@V?$allocator@D@2@@std@@V23@@std@@@std@@@2@$0A@@std@@@std@@IEAA@AEBV?$_Uhash_compare@JU?$hash@J@std@@U?$equal_to@J@2@@1@AEBV?$allocator@U?$pair@$$CBJV?$tuple@VClient@@V?$basic_string@DU?$char_traits@D@std@@V?$allocator@D@2@@std@@V23@@std@@@std@@@1@@Z@4HA
	DB	02eH
	DD	imagerel ?dtor$1@?0???0?$_Hash@V?$_Umap_traits@JV?$tuple@VClient@@V?$basic_string@DU?$char_traits@D@std@@V?$allocator@D@2@@std@@V23@@std@@V?$_Uhash_compare@JU?$hash@J@std@@U?$equal_to@J@2@@2@V?$allocator@U?$pair@$$CBJV?$tuple@VClient@@V?$basic_string@DU?$char_traits@D@std@@V?$allocator@D@2@@std@@V23@@std@@@std@@@2@$0A@@std@@@std@@IEAA@AEBV?$_Uhash_compare@JU?$hash@J@std@@U?$equal_to@J@2@@1@AEBV?$allocator@U?$pair@$$CBJV?$tuple@VClient@@V?$basic_string@DU?$char_traits@D@std@@V?$allocator@D@2@@std@@V23@@std@@@std@@@1@@Z@4HA
xdata	ENDS
;	COMDAT xdata
xdata	SEGMENT
$cppxdata$??0?$_Hash@V?$_Umap_traits@JV?$tuple@VClient@@V?$basic_string@DU?$char_traits@D@std@@V?$allocator@D@2@@std@@V23@@std@@V?$_Uhash_compare@JU?$hash@J@std@@U?$equal_to@J@2@@2@V?$allocator@U?$pair@$$CBJV?$tuple@VClient@@V?$basic_string@DU?$char_traits@D@std@@V?$allocator@D@2@@std@@V23@@std@@@std@@@2@$0A@@std@@@std@@IEAA@AEBV?$_Uhash_compare@JU?$hash@J@std@@U?$equal_to@J@2@@1@AEBV?$allocator@U?$pair@$$CBJV?$tuple@VClient@@V?$basic_string@DU?$char_traits@D@std@@V?$allocator@D@2@@std@@V23@@std@@@std@@@1@@Z DB 028H
	DD	imagerel $stateUnwindMap$??0?$_Hash@V?$_Umap_traits@JV?$tuple@VClient@@V?$basic_string@DU?$char_traits@D@std@@V?$allocator@D@2@@std@@V23@@std@@V?$_Uhash_compare@JU?$hash@J@std@@U?$equal_to@J@2@@2@V?$allocator@U?$pair@$$CBJV?$tuple@VClient@@V?$basic_string@DU?$char_traits@D@std@@V?$allocator@D@2@@std@@V23@@std@@@std@@@2@$0A@@std@@@std@@IEAA@AEBV?$_Uhash_compare@JU?$hash@J@std@@U?$equal_to@J@2@@1@AEBV?$allocator@U?$pair@$$CBJV?$tuple@VClient@@V?$basic_string@DU?$char_traits@D@std@@V?$allocator@D@2@@std@@V23@@std@@@std@@@1@@Z
	DD	imagerel $ip2state$??0?$_Hash@V?$_Umap_traits@JV?$tuple@VClient@@V?$basic_string@DU?$char_traits@D@std@@V?$allocator@D@2@@std@@V23@@std@@V?$_Uhash_compare@JU?$hash@J@std@@U?$equal_to@J@2@@2@V?$allocator@U?$pair@$$CBJV?$tuple@VClient@@V?$basic_string@DU?$char_traits@D@std@@V?$allocator@D@2@@std@@V23@@std@@@std@@@2@$0A@@std@@@std@@IEAA@AEBV?$_Uhash_compare@JU?$hash@J@std@@U?$equal_to@J@2@@1@AEBV?$allocator@U?$pair@$$CBJV?$tuple@VClient@@V?$basic_string@DU?$char_traits@D@std@@V?$allocator@D@2@@std@@V23@@std@@@std@@@1@@Z
xdata	ENDS
;	COMDAT xdata
xdata	SEGMENT
$unwind$??0?$_Hash@V?$_Umap_traits@JV?$tuple@VClient@@V?$basic_string@DU?$char_traits@D@std@@V?$allocator@D@2@@std@@V23@@std@@V?$_Uhash_compare@JU?$hash@J@std@@U?$equal_to@J@2@@2@V?$allocator@U?$pair@$$CBJV?$tuple@VClient@@V?$basic_string@DU?$char_traits@D@std@@V?$allocator@D@2@@std@@V23@@std@@@std@@@2@$0A@@std@@@std@@IEAA@AEBV?$_Uhash_compare@JU?$hash@J@std@@U?$equal_to@J@2@@1@AEBV?$allocator@U?$pair@$$CBJV?$tuple@VClient@@V?$basic_string@DU?$char_traits@D@std@@V?$allocator@D@2@@std@@V23@@std@@@std@@@1@@Z DD 040f11H
	DD	07340fH
	DD	0700b320fH
	DD	imagerel __CxxFrameHandler4
	DD	imagerel $cppxdata$??0?$_Hash@V?$_Umap_traits@JV?$tuple@VClient@@V?$basic_string@DU?$char_traits@D@std@@V?$allocator@D@2@@std@@V23@@std@@V?$_Uhash_compare@JU?$hash@J@std@@U?$equal_to@J@2@@2@V?$allocator@U?$pair@$$CBJV?$tuple@VClient@@V?$basic_string@DU?$char_traits@D@std@@V?$allocator@D@2@@std@@V23@@std@@@std@@@2@$0A@@std@@@std@@IEAA@AEBV?$_Uhash_compare@JU?$hash@J@std@@U?$equal_to@J@2@@1@AEBV?$allocator@U?$pair@$$CBJV?$tuple@VClient@@V?$basic_string@DU?$char_traits@D@std@@V?$allocator@D@2@@std@@V23@@std@@@std@@@1@@Z
xdata	ENDS
;	COMDAT xdata
xdata	SEGMENT
$chain$2$?_Tidy@?$list@U?$pair@$$CBJV?$tuple@VClient@@V?$basic_string@DU?$char_traits@D@std@@V?$allocator@D@2@@std@@V23@@std@@@std@@V?$allocator@U?$pair@$$CBJV?$tuple@VClient@@V?$basic_string@DU?$char_traits@D@std@@V?$allocator@D@2@@std@@V23@@std@@@std@@@2@@std@@AEAAXXZ DD 021H
	DD	imagerel $LN136
	DD	imagerel $LN136+36
	DD	imagerel $unwind$?_Tidy@?$list@U?$pair@$$CBJV?$tuple@VClient@@V?$basic_string@DU?$char_traits@D@std@@V?$allocator@D@2@@std@@V23@@std@@@std@@V?$allocator@U?$pair@$$CBJV?$tuple@VClient@@V?$basic_string@DU?$char_traits@D@std@@V?$allocator@D@2@@std@@V23@@std@@@std@@@2@@std@@AEAAXXZ
xdata	ENDS
;	COMDAT xdata
xdata	SEGMENT
$chain$1$?_Tidy@?$list@U?$pair@$$CBJV?$tuple@VClient@@V?$basic_string@DU?$char_traits@D@std@@V?$allocator@D@2@@std@@V23@@std@@@std@@V?$allocator@U?$pair@$$CBJV?$tuple@VClient@@V?$basic_string@DU?$char_traits@D@std@@V?$allocator@D@2@@std@@V23@@std@@@std@@@2@@std@@AEAAXXZ DD 040a21H
	DD	08740aH
	DD	073405H
	DD	imagerel $LN136
	DD	imagerel $LN136+36
	DD	imagerel $unwind$?_Tidy@?$list@U?$pair@$$CBJV?$tuple@VClient@@V?$basic_string@DU?$char_traits@D@std@@V?$allocator@D@2@@std@@V23@@std@@@std@@V?$allocator@U?$pair@$$CBJV?$tuple@VClient@@V?$basic_string@DU?$char_traits@D@std@@V?$allocator@D@2@@std@@V23@@std@@@std@@@2@@std@@AEAAXXZ
xdata	ENDS
;	COMDAT xdata
xdata	SEGMENT
$unwind$?_Tidy@?$list@U?$pair@$$CBJV?$tuple@VClient@@V?$basic_string@DU?$char_traits@D@std@@V?$allocator@D@2@@std@@V23@@std@@@std@@V?$allocator@U?$pair@$$CBJV?$tuple@VClient@@V?$basic_string@DU?$char_traits@D@std@@V?$allocator@D@2@@std@@V23@@std@@@std@@@2@@std@@AEAAXXZ DD 040b01H
	DD	09640bH
	DD	0e007320bH
xdata	ENDS
;	COMDAT xdata
xdata	SEGMENT
$unwind$?_Tidy@?$_Yarn@_W@std@@AEAAXXZ DD 020601H
	DD	030023206H
xdata	ENDS
;	COMDAT xdata
xdata	SEGMENT
$unwind$?_Tidy@?$_Yarn@D@std@@AEAAXXZ DD 020601H
	DD	030023206H
xdata	ENDS
;	COMDAT xdata
xdata	SEGMENT
$chain$1$?append@?$basic_string@DU?$char_traits@D@std@@V?$allocator@D@2@@std@@QEAAAEAV12@QEBD_K@Z DD 021H
	DD	imagerel $LN46
	DD	imagerel $LN46+35
	DD	imagerel $unwind$?append@?$basic_string@DU?$char_traits@D@std@@V?$allocator@D@2@@std@@QEAAAEAV12@QEBD_K@Z
xdata	ENDS
;	COMDAT xdata
xdata	SEGMENT
$chain$0$?append@?$basic_string@DU?$char_traits@D@std@@V?$allocator@D@2@@std@@QEAAAEAV12@QEBD_K@Z DD 020521H
	DD	093405H
	DD	imagerel $LN46
	DD	imagerel $LN46+35
	DD	imagerel $unwind$?append@?$basic_string@DU?$char_traits@D@std@@V?$allocator@D@2@@std@@QEAAAEAV12@QEBD_K@Z
xdata	ENDS
;	COMDAT xdata
xdata	SEGMENT
$unwind$?append@?$basic_string@DU?$char_traits@D@std@@V?$allocator@D@2@@std@@QEAAAEAV12@QEBD_K@Z DD 040a01H
	DD	0a640aH
	DD	07006520aH
xdata	ENDS
;	COMDAT xdata
xdata	SEGMENT
$unwind$??R<lambda_1>@?1??append@?$basic_string@DU?$char_traits@D@std@@V?$allocator@D@2@@std@@QEAAAEAV23@QEBD_K@Z@QEBA@QEAD0101@Z DD 040a01H
	DD	06340aH
	DD	07006320aH
xdata	ENDS
;	COMDAT xdata
xdata	SEGMENT
$unwind$??0?$list@U?$pair@$$CBJV?$tuple@VClient@@V?$basic_string@DU?$char_traits@D@std@@V?$allocator@D@2@@std@@V23@@std@@@std@@V?$allocator@U?$pair@$$CBJV?$tuple@VClient@@V?$basic_string@DU?$char_traits@D@std@@V?$allocator@D@2@@std@@V23@@std@@@std@@@2@@std@@QEAA@AEBV?$allocator@U?$pair@$$CBJV?$tuple@VClient@@V?$basic_string@DU?$char_traits@D@std@@V?$allocator@D@2@@std@@V23@@std@@@std@@@1@@Z DD 020601H
	DD	030023206H
xdata	ENDS
;	COMDAT xdata
xdata	SEGMENT
$unwind$?move@?$_Char_traits@DH@std@@SAPEADQEADQEBD_K@Z DD 020601H
	DD	030023206H
xdata	ENDS
;	COMDAT xdata
xdata	SEGMENT
$unwind$?_Alloc_sentinel_and_proxy@?$list@U?$pair@$$CBJV?$tuple@VClient@@V?$basic_string@DU?$char_traits@D@std@@V?$allocator@D@2@@std@@V23@@std@@@std@@V?$allocator@U?$pair@$$CBJV?$tuple@VClient@@V?$basic_string@DU?$char_traits@D@std@@V?$allocator@D@2@@std@@V23@@std@@@std@@@2@@std@@AEAAXXZ DD 020601H
	DD	030023206H
xdata	ENDS
;	COMDAT xdata
xdata	SEGMENT
$ip2state$??$use_facet@V?$ctype@D@std@@@std@@YAAEBV?$ctype@D@0@AEBVlocale@0@@Z DB 08H
	DB	0bdH, 02H
	DB	02H
	DB	'~'
	DB	04H
	DB	'0'
	DB	00H
	DB	'Z'
	DB	02H
xdata	ENDS
;	COMDAT xdata
xdata	SEGMENT
$stateUnwindMap$??$use_facet@V?$ctype@D@std@@@std@@YAAEBV?$ctype@D@0@AEBVlocale@0@@Z DB 04H
	DB	0aH
	DD	imagerel ??1_Lockit@std@@QEAA@XZ
	DB	048H
	DB	032H
	DD	imagerel ??1?$unique_ptr@V_Facet_base@std@@U?$default_delete@V_Facet_base@std@@@2@@std@@QEAA@XZ
	DB	050H
xdata	ENDS
;	COMDAT xdata
xdata	SEGMENT
$cppxdata$??$use_facet@V?$ctype@D@std@@@std@@YAAEBV?$ctype@D@0@AEBVlocale@0@@Z DB 028H
	DD	imagerel $stateUnwindMap$??$use_facet@V?$ctype@D@std@@@std@@YAAEBV?$ctype@D@0@AEBVlocale@0@@Z
	DD	imagerel $ip2state$??$use_facet@V?$ctype@D@std@@@std@@YAAEBV?$ctype@D@0@AEBVlocale@0@@Z
xdata	ENDS
;	COMDAT xdata
xdata	SEGMENT
$unwind$??$use_facet@V?$ctype@D@std@@@std@@YAAEBV?$ctype@D@0@AEBVlocale@0@@Z DD 082119H
	DD	0e5412H
	DD	0d3412H
	DD	0e00e7212H
	DD	0600b700cH
	DD	imagerel __GSHandlerCheck_EH4
	DD	imagerel $cppxdata$??$use_facet@V?$ctype@D@std@@@std@@YAAEBV?$ctype@D@0@AEBVlocale@0@@Z
	DD	032H
xdata	ENDS
;	COMDAT voltbl
voltbl	SEGMENT
_volmd	DB	00H
voltbl	ENDS
;	COMDAT xdata
xdata	SEGMENT
$unwind$?catch$4@?0???$?6U?$char_traits@D@std@@@std@@YAAEAV?$basic_ostream@DU?$char_traits@D@std@@@0@AEAV10@PEBD@Z@4HA DD 020a01H
	DD	05006320aH
xdata	ENDS
;	COMDAT xdata
xdata	SEGMENT
$ip2state$??$?6U?$char_traits@D@std@@@std@@YAAEAV?$basic_ostream@DU?$char_traits@D@std@@@0@AEAV10@PEBD@Z DB 0cH
	DB	0d8H
	DB	00H
	DB	'V'
	DB	02H
	DB	'E', 02H
	DB	06H
	DB	01dH, 03H
	DB	04H
	DB	0eaH
	DB	0aH
	DB	0b2H
	DB	04H
xdata	ENDS
;	COMDAT xdata
xdata	SEGMENT
$handlerMap$??$?6U?$char_traits@D@std@@@std@@YAAEAV?$basic_ostream@DU?$char_traits@D@std@@@0@AEAV10@PEBD@Z DB 02H
	DB	011H
	DB	080H
	DD	imagerel ?catch$4@?0???$?6U?$char_traits@D@std@@@std@@YAAEAV?$basic_ostream@DU?$char_traits@D@std@@@0@AEAV10@PEBD@Z@4HA
	DB	0c5H, 07H
xdata	ENDS
;	COMDAT xdata
xdata	SEGMENT
$tryMap$??$?6U?$char_traits@D@std@@@std@@YAAEAV?$basic_ostream@DU?$char_traits@D@std@@@0@AEAV10@PEBD@Z DB 02H
	DB	04H
	DB	04H
	DB	06H
	DD	imagerel $handlerMap$??$?6U?$char_traits@D@std@@@std@@YAAEAV?$basic_ostream@DU?$char_traits@D@std@@@0@AEAV10@PEBD@Z
xdata	ENDS
;	COMDAT xdata
xdata	SEGMENT
$stateUnwindMap$??$?6U?$char_traits@D@std@@@std@@YAAEAV?$basic_ostream@DU?$char_traits@D@std@@@0@AEAV10@PEBD@Z DB 0aH
	DB	0aH
	DD	imagerel ??1_Sentry_base@?$basic_ostream@DU?$char_traits@D@std@@@std@@QEAA@XZ
	DB	040H
	DB	03aH
	DD	imagerel ??1sentry@?$basic_ostream@DU?$char_traits@D@std@@@std@@QEAA@XZ
	DB	040H
	DB	030H
	DB	038H
	DB	07eH
	DD	imagerel __std_terminate
xdata	ENDS
;	COMDAT xdata
xdata	SEGMENT
$cppxdata$??$?6U?$char_traits@D@std@@@std@@YAAEAV?$basic_ostream@DU?$char_traits@D@std@@@0@AEAV10@PEBD@Z DB 038H
	DD	imagerel $stateUnwindMap$??$?6U?$char_traits@D@std@@@std@@YAAEAV?$basic_ostream@DU?$char_traits@D@std@@@0@AEAV10@PEBD@Z
	DD	imagerel $tryMap$??$?6U?$char_traits@D@std@@@std@@YAAEAV?$basic_ostream@DU?$char_traits@D@std@@@0@AEAV10@PEBD@Z
	DD	imagerel $ip2state$??$?6U?$char_traits@D@std@@@std@@YAAEAV?$basic_ostream@DU?$char_traits@D@std@@@0@AEAV10@PEBD@Z
xdata	ENDS
;	COMDAT xdata
xdata	SEGMENT
$unwind$??$?6U?$char_traits@D@std@@@std@@YAAEAV?$basic_ostream@DU?$char_traits@D@std@@@0@AEAV10@PEBD@Z DD 081619H
	DD	0173416H
	DD	0f012d216H
	DD	0c00ee010H
	DD	0600b700cH
	DD	imagerel __CxxFrameHandler4
	DD	imagerel $cppxdata$??$?6U?$char_traits@D@std@@@std@@YAAEAV?$basic_ostream@DU?$char_traits@D@std@@@0@AEAV10@PEBD@Z
xdata	ENDS
;	COMDAT xdata
xdata	SEGMENT
$unwind$??$endl@DU?$char_traits@D@std@@@std@@YAAEAV?$basic_ostream@DU?$char_traits@D@std@@@0@AEAV10@@Z DD 020601H
	DD	030023206H
xdata	ENDS
;	COMDAT xdata
xdata	SEGMENT
$chain$5$??$_Reallocate_grow_by@V<lambda_1>@?1??append@?$basic_string@DU?$char_traits@D@std@@V?$allocator@D@2@@std@@QEAAAEAV34@QEBD_K@Z@PEBD_K@?$basic_string@DU?$char_traits@D@std@@V?$allocator@D@2@@std@@AEAAAEAV01@_KV<lambda_1>@?1??append@01@QEAAAEAV01@QEBD0@Z@PEBD_K@Z DD 021H
	DD	imagerel $LN160
	DD	imagerel $LN160+56
	DD	imagerel $unwind$??$_Reallocate_grow_by@V<lambda_1>@?1??append@?$basic_string@DU?$char_traits@D@std@@V?$allocator@D@2@@std@@QEAAAEAV34@QEBD_K@Z@PEBD_K@?$basic_string@DU?$char_traits@D@std@@V?$allocator@D@2@@std@@AEAAAEAV01@_KV<lambda_1>@?1??append@01@QEAAAEAV01@QEBD0@Z@PEBD_K@Z
xdata	ENDS
;	COMDAT xdata
xdata	SEGMENT
$chain$4$??$_Reallocate_grow_by@V<lambda_1>@?1??append@?$basic_string@DU?$char_traits@D@std@@V?$allocator@D@2@@std@@QEAAAEAV34@QEBD_K@Z@PEBD_K@?$basic_string@DU?$char_traits@D@std@@V?$allocator@D@2@@std@@AEAAAEAV01@_KV<lambda_1>@?1??append@01@QEAAAEAV01@QEBD0@Z@PEBD_K@Z DD 060021H
	DD	04e400H
	DD	057400H
	DD	0e5400H
	DD	imagerel $LN160
	DD	imagerel $LN160+56
	DD	imagerel $unwind$??$_Reallocate_grow_by@V<lambda_1>@?1??append@?$basic_string@DU?$char_traits@D@std@@V?$allocator@D@2@@std@@QEAAAEAV34@QEBD_K@Z@PEBD_K@?$basic_string@DU?$char_traits@D@std@@V?$allocator@D@2@@std@@AEAAAEAV01@_KV<lambda_1>@?1??append@01@QEAAAEAV01@QEBD0@Z@PEBD_K@Z
xdata	ENDS
;	COMDAT xdata
xdata	SEGMENT
$chain$2$??$_Reallocate_grow_by@V<lambda_1>@?1??append@?$basic_string@DU?$char_traits@D@std@@V?$allocator@D@2@@std@@QEAAAEAV34@QEBD_K@Z@PEBD_K@?$basic_string@DU?$char_traits@D@std@@V?$allocator@D@2@@std@@AEAAAEAV01@_KV<lambda_1>@?1??append@01@QEAAAEAV01@QEBD0@Z@PEBD_K@Z DD 061321H
	DD	04e413H
	DD	05740eH
	DD	0e5405H
	DD	imagerel $LN160
	DD	imagerel $LN160+56
	DD	imagerel $unwind$??$_Reallocate_grow_by@V<lambda_1>@?1??append@?$basic_string@DU?$char_traits@D@std@@V?$allocator@D@2@@std@@QEAAAEAV34@QEBD_K@Z@PEBD_K@?$basic_string@DU?$char_traits@D@std@@V?$allocator@D@2@@std@@AEAAAEAV01@_KV<lambda_1>@?1??append@01@QEAAAEAV01@QEBD0@Z@PEBD_K@Z
xdata	ENDS
;	COMDAT xdata
xdata	SEGMENT
$unwind$??$_Reallocate_grow_by@V<lambda_1>@?1??append@?$basic_string@DU?$char_traits@D@std@@V?$allocator@D@2@@std@@QEAAAEAV34@QEBD_K@Z@PEBD_K@?$basic_string@DU?$char_traits@D@std@@V?$allocator@D@2@@std@@AEAAAEAV01@_KV<lambda_1>@?1??append@01@QEAAAEAV01@QEBD0@Z@PEBD_K@Z DD 060d01H
	DD	0f009520dH
	DD	0c005d007H
	DD	030026003H
xdata	ENDS
;	COMDAT xdata
xdata	SEGMENT
$ip2state$??1sentry@?$basic_ostream@DU?$char_traits@D@std@@@std@@QEAA@XZ DB 02H
	DB	'd'
	DB	02H
xdata	ENDS
;	COMDAT xdata
xdata	SEGMENT
$stateUnwindMap$??1sentry@?$basic_ostream@DU?$char_traits@D@std@@@std@@QEAA@XZ DB 02H
	DB	0eH
	DD	imagerel __std_terminate
xdata	ENDS
;	COMDAT xdata
xdata	SEGMENT
$cppxdata$??1sentry@?$basic_ostream@DU?$char_traits@D@std@@@std@@QEAA@XZ DB 068H
	DD	imagerel $stateUnwindMap$??1sentry@?$basic_ostream@DU?$char_traits@D@std@@@std@@QEAA@XZ
	DD	imagerel $ip2state$??1sentry@?$basic_ostream@DU?$char_traits@D@std@@@std@@QEAA@XZ
xdata	ENDS
;	COMDAT xdata
xdata	SEGMENT
$unwind$??1sentry@?$basic_ostream@DU?$char_traits@D@std@@@std@@QEAA@XZ DD 020619H
	DD	030023206H
	DD	imagerel __CxxFrameHandler4
	DD	imagerel $cppxdata$??1sentry@?$basic_ostream@DU?$char_traits@D@std@@@std@@QEAA@XZ
xdata	ENDS
;	COMDAT xdata
xdata	SEGMENT
$ip2state$??0sentry@?$basic_ostream@DU?$char_traits@D@std@@@std@@QEAA@AEAV12@@Z DB 04H
	DB	'X'
	DB	00H
	DB	'J'
	DB	02H
xdata	ENDS
;	COMDAT xdata
xdata	SEGMENT
$stateUnwindMap$??0sentry@?$basic_ostream@DU?$char_traits@D@std@@@std@@QEAA@AEAV12@@Z DB 02H
	DB	0cH
	DD	imagerel ??1_Sentry_base@?$basic_ostream@DU?$char_traits@D@std@@@std@@QEAA@XZ
	DB	060H
xdata	ENDS
;	COMDAT xdata
xdata	SEGMENT
$cppxdata$??0sentry@?$basic_ostream@DU?$char_traits@D@std@@@std@@QEAA@AEAV12@@Z DB 028H
	DD	imagerel $stateUnwindMap$??0sentry@?$basic_ostream@DU?$char_traits@D@std@@@std@@QEAA@AEAV12@@Z
	DD	imagerel $ip2state$??0sentry@?$basic_ostream@DU?$char_traits@D@std@@@std@@QEAA@AEAV12@@Z
xdata	ENDS
;	COMDAT xdata
xdata	SEGMENT
$unwind$??0sentry@?$basic_ostream@DU?$char_traits@D@std@@@std@@QEAA@AEAV12@@Z DD 040f11H
	DD	07340fH
	DD	0700b320fH
	DD	imagerel __CxxFrameHandler4
	DD	imagerel $cppxdata$??0sentry@?$basic_ostream@DU?$char_traits@D@std@@@std@@QEAA@AEAV12@@Z
xdata	ENDS
;	COMDAT voltbl
voltbl	SEGMENT
_volmd	DB	00H
voltbl	ENDS
;	COMDAT xdata
xdata	SEGMENT
$unwind$?catch$9@?0??flush@?$basic_ostream@DU?$char_traits@D@std@@@std@@QEAAAEAV12@XZ@4HA DD 020a01H
	DD	05006320aH
xdata	ENDS
;	COMDAT xdata
xdata	SEGMENT
$ip2state$?flush@?$basic_ostream@DU?$char_traits@D@std@@@std@@QEAAAEAV12@XZ DB 0aH
	DB	08cH
	DB	00H
	DB	'2'
	DB	04H
	DB	0f6H
	DB	08H
	DB	01eH
	DB	00H
	DB	0aeH
	DB	02H
xdata	ENDS
;	COMDAT xdata
xdata	SEGMENT
$handlerMap$?flush@?$basic_ostream@DU?$char_traits@D@std@@@std@@QEAAAEAV12@XZ DB 02H
	DB	011H
	DB	080H
	DD	imagerel ?catch$9@?0??flush@?$basic_ostream@DU?$char_traits@D@std@@@std@@QEAAAEAV12@XZ@4HA
	DB	0f0H
xdata	ENDS
;	COMDAT xdata
xdata	SEGMENT
$tryMap$?flush@?$basic_ostream@DU?$char_traits@D@std@@@std@@QEAAAEAV12@XZ DB 02H
	DB	02H
	DB	02H
	DB	04H
	DD	imagerel $handlerMap$?flush@?$basic_ostream@DU?$char_traits@D@std@@@std@@QEAAAEAV12@XZ
xdata	ENDS
;	COMDAT xdata
xdata	SEGMENT
$stateUnwindMap$?flush@?$basic_ostream@DU?$char_traits@D@std@@@std@@QEAAAEAV12@XZ DB 08H
	DB	0aH
	DD	imagerel ??1sentry@?$basic_ostream@DU?$char_traits@D@std@@@std@@QEAA@XZ
	DB	0c0H
	DB	030H
	DB	038H
	DB	04eH
	DD	imagerel __std_terminate
xdata	ENDS
;	COMDAT xdata
xdata	SEGMENT
$cppxdata$?flush@?$basic_ostream@DU?$char_traits@D@std@@@std@@QEAAAEAV12@XZ DB 038H
	DD	imagerel $stateUnwindMap$?flush@?$basic_ostream@DU?$char_traits@D@std@@@std@@QEAAAEAV12@XZ
	DD	imagerel $tryMap$?flush@?$basic_ostream@DU?$char_traits@D@std@@@std@@QEAAAEAV12@XZ
	DD	imagerel $ip2state$?flush@?$basic_ostream@DU?$char_traits@D@std@@@std@@QEAAAEAV12@XZ
xdata	ENDS
;	COMDAT xdata
xdata	SEGMENT
$unwind$?flush@?$basic_ostream@DU?$char_traits@D@std@@@std@@QEAAAEAV12@XZ DD 062119H
	DD	0146412H
	DD	0133412H
	DD	0700bf212H
	DD	imagerel __GSHandlerCheck_EH4
	DD	imagerel $cppxdata$?flush@?$basic_ostream@DU?$char_traits@D@std@@@std@@QEAAAEAV12@XZ
	DD	073H
xdata	ENDS
;	COMDAT voltbl
voltbl	SEGMENT
_volmd	DB	00H
voltbl	ENDS
;	COMDAT xdata
xdata	SEGMENT
$unwind$?catch$4@?0??put@?$basic_ostream@DU?$char_traits@D@std@@@std@@QEAAAEAV12@D@Z@4HA DD 020a01H
	DD	05006320aH
xdata	ENDS
;	COMDAT xdata
xdata	SEGMENT
$ip2state$?put@?$basic_ostream@DU?$char_traits@D@std@@@std@@QEAAAEAV12@D@Z DB 0aH
	DB	'h'
	DB	00H
	DB	'P'
	DB	02H
	DB	0caH
	DB	06H
	DB	0faH
	DB	0aH
	DB	098H
	DB	04H
xdata	ENDS
;	COMDAT xdata
xdata	SEGMENT
$handlerMap$?put@?$basic_ostream@DU?$char_traits@D@std@@@std@@QEAAAEAV12@D@Z DB 02H
	DB	011H
	DB	080H
	DD	imagerel ?catch$4@?0??put@?$basic_ostream@DU?$char_traits@D@std@@@std@@QEAAAEAV12@D@Z@4HA
	DB	'u', 03H
xdata	ENDS
;	COMDAT xdata
xdata	SEGMENT
$tryMap$?put@?$basic_ostream@DU?$char_traits@D@std@@@std@@QEAAAEAV12@D@Z DB 02H
	DB	04H
	DB	04H
	DB	06H
	DD	imagerel $handlerMap$?put@?$basic_ostream@DU?$char_traits@D@std@@@std@@QEAAAEAV12@D@Z
xdata	ENDS
;	COMDAT xdata
xdata	SEGMENT
$stateUnwindMap$?put@?$basic_ostream@DU?$char_traits@D@std@@@std@@QEAAAEAV12@D@Z DB 0aH
	DB	0aH
	DD	imagerel ??1_Sentry_base@?$basic_ostream@DU?$char_traits@D@std@@@std@@QEAA@XZ
	DB	040H
	DB	03aH
	DD	imagerel ??1sentry@?$basic_ostream@DU?$char_traits@D@std@@@std@@QEAA@XZ
	DB	040H
	DB	030H
	DB	038H
	DB	07eH
	DD	imagerel __std_terminate
xdata	ENDS
;	COMDAT xdata
xdata	SEGMENT
$cppxdata$?put@?$basic_ostream@DU?$char_traits@D@std@@@std@@QEAAAEAV12@D@Z DB 038H
	DD	imagerel $stateUnwindMap$?put@?$basic_ostream@DU?$char_traits@D@std@@@std@@QEAAAEAV12@D@Z
	DD	imagerel $tryMap$?put@?$basic_ostream@DU?$char_traits@D@std@@@std@@QEAAAEAV12@D@Z
	DD	imagerel $ip2state$?put@?$basic_ostream@DU?$char_traits@D@std@@@std@@QEAAAEAV12@D@Z
xdata	ENDS
;	COMDAT xdata
xdata	SEGMENT
$unwind$?put@?$basic_ostream@DU?$char_traits@D@std@@@std@@QEAAAEAV12@D@Z DD 040c19H
	DD	07008d20cH
	DD	030066007H
	DD	imagerel __CxxFrameHandler4
	DD	imagerel $cppxdata$?put@?$basic_ostream@DU?$char_traits@D@std@@@std@@QEAAAEAV12@D@Z
xdata	ENDS
;	COMDAT xdata
xdata	SEGMENT
$ip2state$?widen@?$basic_ios@DU?$char_traits@D@std@@@std@@QEBADD@Z DB 0aH
	DB	')', 03H
	DB	04H
	DB	08aH
	DB	06H
	DB	'0'
	DB	02H
	DB	'4'
	DB	00H
	DB	08cH
	DB	04H
xdata	ENDS
;	COMDAT xdata
xdata	SEGMENT
$stateUnwindMap$?widen@?$basic_ios@DU?$char_traits@D@std@@@std@@QEBADD@Z DB 06H
	DB	0aH
	DD	imagerel ??1locale@std@@QEAA@XZ
	DB	040H
	DB	032H
	DD	imagerel ??1_Lockit@std@@QEAA@XZ
	DB	068H
	DB	032H
	DD	imagerel ??1?$unique_ptr@V_Facet_base@std@@U?$default_delete@V_Facet_base@std@@@2@@std@@QEAA@XZ
	DB	070H
xdata	ENDS
;	COMDAT xdata
xdata	SEGMENT
$cppxdata$?widen@?$basic_ios@DU?$char_traits@D@std@@@std@@QEBADD@Z DB 028H
	DD	imagerel $stateUnwindMap$?widen@?$basic_ios@DU?$char_traits@D@std@@@std@@QEBADD@Z
	DD	imagerel $ip2state$?widen@?$basic_ios@DU?$char_traits@D@std@@@std@@QEBADD@Z
xdata	ENDS
;	COMDAT xdata
xdata	SEGMENT
$unwind$?widen@?$basic_ios@DU?$char_traits@D@std@@@std@@QEBADD@Z DD 0a2719H
	DD	0116418H
	DD	0105418H
	DD	0e3418H
	DD	0f0149218H
	DD	07010e012H
	DD	imagerel __GSHandlerCheck_EH4
	DD	imagerel $cppxdata$?widen@?$basic_ios@DU?$char_traits@D@std@@@std@@QEBADD@Z
	DD	042H
xdata	ENDS
;	COMDAT xdata
xdata	SEGMENT
$unwind$?setstate@?$basic_ios@DU?$char_traits@D@std@@@std@@QEAAXH_N@Z DD 033f01H
	DD	0c343fH
	DD	0c204H
xdata	ENDS
;	COMDAT xdata
xdata	SEGMENT
$ip2state$??1_Sentry_base@?$basic_ostream@DU?$char_traits@D@std@@@std@@QEAA@XZ DB 02H
	DB	'6'
	DB	00H
xdata	ENDS
;	COMDAT xdata
xdata	SEGMENT
$cppxdata$??1_Sentry_base@?$basic_ostream@DU?$char_traits@D@std@@@std@@QEAA@XZ DB 060H
	DD	imagerel $ip2state$??1_Sentry_base@?$basic_ostream@DU?$char_traits@D@std@@@std@@QEAA@XZ
xdata	ENDS
;	COMDAT xdata
xdata	SEGMENT
$unwind$??1_Sentry_base@?$basic_ostream@DU?$char_traits@D@std@@@std@@QEAA@XZ DD 010419H
	DD	04204H
	DD	imagerel __CxxFrameHandler4
	DD	imagerel $cppxdata$??1_Sentry_base@?$basic_ostream@DU?$char_traits@D@std@@@std@@QEAA@XZ
xdata	ENDS
;	COMDAT xdata
xdata	SEGMENT
$unwind$??0_Sentry_base@?$basic_ostream@DU?$char_traits@D@std@@@std@@QEAA@AEAV12@@Z DD 020601H
	DD	030023206H
xdata	ENDS
;	COMDAT voltbl
voltbl	SEGMENT
_volmd	DB	00H
voltbl	ENDS
;	COMDAT xdata
xdata	SEGMENT
$ip2state$?catch$0@?0??_Osfx@?$basic_ostream@DU?$char_traits@D@std@@@std@@QEAAXXZ@4HA DB 00H
xdata	ENDS
;	COMDAT xdata
xdata	SEGMENT
$stateUnwindMap$?catch$0@?0??_Osfx@?$basic_ostream@DU?$char_traits@D@std@@@std@@QEAAXXZ@4HA DB 02H
	DB	08H
xdata	ENDS
;	COMDAT xdata
xdata	SEGMENT
$cppxdata$?catch$0@?0??_Osfx@?$basic_ostream@DU?$char_traits@D@std@@@std@@QEAAXXZ@4HA DB 069H
	DD	imagerel $stateUnwindMap$?catch$0@?0??_Osfx@?$basic_ostream@DU?$char_traits@D@std@@@std@@QEAAXXZ@4HA
	DD	imagerel $ip2state$?catch$0@?0??_Osfx@?$basic_ostream@DU?$char_traits@D@std@@@std@@QEAAXXZ@4HA
	DB	'p'
xdata	ENDS
;	COMDAT xdata
xdata	SEGMENT
$unwind$?catch$0@?0??_Osfx@?$basic_ostream@DU?$char_traits@D@std@@@std@@QEAAXXZ@4HA DD 020a19H
	DD	05006320aH
	DD	imagerel __CxxFrameHandler4
	DD	imagerel $cppxdata$?catch$0@?0??_Osfx@?$basic_ostream@DU?$char_traits@D@std@@@std@@QEAAXXZ@4HA
xdata	ENDS
;	COMDAT xdata
xdata	SEGMENT
$ip2state$?_Osfx@?$basic_ostream@DU?$char_traits@D@std@@@std@@QEAAXXZ DB 04H
	DB	'L'
	DB	02H
	DB	0f6H
	DB	00H
xdata	ENDS
;	COMDAT xdata
xdata	SEGMENT
$handlerMap$?_Osfx@?$basic_ostream@DU?$char_traits@D@std@@@std@@QEAAXXZ DB 02H
	DB	011H
	DB	080H
	DD	imagerel ?catch$0@?0??_Osfx@?$basic_ostream@DU?$char_traits@D@std@@@std@@QEAAXXZ@4HA
	DB	092H
xdata	ENDS
;	COMDAT xdata
xdata	SEGMENT
$tryMap$?_Osfx@?$basic_ostream@DU?$char_traits@D@std@@@std@@QEAAXXZ DB 02H
	DB	00H
	DB	00H
	DB	02H
	DD	imagerel $handlerMap$?_Osfx@?$basic_ostream@DU?$char_traits@D@std@@@std@@QEAAXXZ
xdata	ENDS
;	COMDAT xdata
xdata	SEGMENT
$stateUnwindMap$?_Osfx@?$basic_ostream@DU?$char_traits@D@std@@@std@@QEAAXXZ DB 04H
	DB	08H
	DB	010H
xdata	ENDS
;	COMDAT xdata
xdata	SEGMENT
$cppxdata$?_Osfx@?$basic_ostream@DU?$char_traits@D@std@@@std@@QEAAXXZ DB 078H
	DD	imagerel $stateUnwindMap$?_Osfx@?$basic_ostream@DU?$char_traits@D@std@@@std@@QEAAXXZ
	DD	imagerel $tryMap$?_Osfx@?$basic_ostream@DU?$char_traits@D@std@@@std@@QEAAXXZ
	DD	imagerel $ip2state$?_Osfx@?$basic_ostream@DU?$char_traits@D@std@@@std@@QEAAXXZ
xdata	ENDS
;	COMDAT xdata
xdata	SEGMENT
$unwind$?_Osfx@?$basic_ostream@DU?$char_traits@D@std@@@std@@QEAAXXZ DD 020619H
	DD	03002b206H
	DD	imagerel __CxxFrameHandler4
	DD	imagerel $cppxdata$?_Osfx@?$basic_ostream@DU?$char_traits@D@std@@@std@@QEAAXXZ
xdata	ENDS
;	COMDAT xdata
xdata	SEGMENT
$unwind$?clear@?$basic_ios@DU?$char_traits@D@std@@@std@@QEAAXH_N@Z DD 033c01H
	DD	0c343cH
	DD	0c204H
; Function compile flags: /Ogtpy
; File C:\Program Files\Microsoft Visual Studio\2022\Community\VC\Tools\MSVC\14.40.33807\include\vcruntime_exception.h
;	COMDAT ??0exception@std@@QEAA@QEBD@Z
_TEXT	SEGMENT
_InitData$ = 32
__$ArrayPad$ = 48
this$ = 80
_Message$ = 88
??0exception@std@@QEAA@QEBD@Z PROC			; std::exception::exception, COMDAT

; 60   :     {

$LN6:
	push	rbx
	sub	rsp, 64					; 00000040H
	mov	rax, QWORD PTR __security_cookie
	xor	rax, rsp
	mov	QWORD PTR __$ArrayPad$[rsp], rax
	mov	r8, rdx

; 61   :         __std_exception_data _InitData = { _Message, true };

	mov	BYTE PTR _InitData$[rsp+8], 1
	lea	rdx, QWORD PTR [rcx+8]
	mov	QWORD PTR _InitData$[rsp], r8
	lea	rax, OFFSET FLAT:??_7exception@std@@6B@
	mov	rbx, rcx
	mov	QWORD PTR [rcx], rax
	xorps	xmm0, xmm0

; 62   :         __std_exception_copy(&_InitData, &_Data);

	lea	rcx, QWORD PTR _InitData$[rsp]
	movups	XMMWORD PTR [rdx], xmm0
	call	__std_exception_copy

; 63   :     }

	mov	rax, rbx
	mov	rcx, QWORD PTR __$ArrayPad$[rsp]
	xor	rcx, rsp
	call	__security_check_cookie
	add	rsp, 64					; 00000040H
	pop	rbx
	ret	0
??0exception@std@@QEAA@QEBD@Z ENDP			; std::exception::exception
_TEXT	ENDS
; Function compile flags: /Ogtpy
; File C:\Program Files\Microsoft Visual Studio\2022\Community\VC\Tools\MSVC\14.40.33807\include\stdexcept
; File C:\Program Files\Microsoft Visual Studio\2022\Community\VC\Tools\MSVC\14.40.33807\include\xstring
; File C:\Program Files\Microsoft Visual Studio\2022\Community\VC\Tools\MSVC\14.40.33807\include\stdexcept
; File C:\Program Files\Microsoft Visual Studio\2022\Community\VC\Tools\MSVC\14.40.33807\include\xstring
; File C:\Program Files\Microsoft Visual Studio\2022\Community\VC\Tools\MSVC\14.40.33807\include\vcruntime_exception.h
; File C:\Program Files\Microsoft Visual Studio\2022\Community\VC\Tools\MSVC\14.40.33807\include\stdexcept
;	COMDAT ??0runtime_error@std@@QEAA@AEBV?$basic_string@DU?$char_traits@D@std@@V?$allocator@D@2@@1@@Z
_TEXT	SEGMENT
_InitData$1 = 32
__$ArrayPad$ = 48
this$ = 80
_Message$ = 88
??0runtime_error@std@@QEAA@AEBV?$basic_string@DU?$char_traits@D@std@@V?$allocator@D@2@@1@@Z PROC ; std::runtime_error::runtime_error, COMDAT

; 104  :     explicit runtime_error(const string& _Message) : _Mybase(_Message.c_str()) {}

$LN19:
	push	rbx
	sub	rsp, 64					; 00000040H
	mov	rax, QWORD PTR __security_cookie
	xor	rax, rsp
	mov	QWORD PTR __$ArrayPad$[rsp], rax
; File C:\Program Files\Microsoft Visual Studio\2022\Community\VC\Tools\MSVC\14.40.33807\include\xstring

; 2244 :         return _Myres > _Small_string_capacity;

	cmp	QWORD PTR [rdx+24], 15
; File C:\Program Files\Microsoft Visual Studio\2022\Community\VC\Tools\MSVC\14.40.33807\include\stdexcept

; 104  :     explicit runtime_error(const string& _Message) : _Mybase(_Message.c_str()) {}

	mov	r8, rdx
	mov	rbx, rcx
; File C:\Program Files\Microsoft Visual Studio\2022\Community\VC\Tools\MSVC\14.40.33807\include\xstring

; 2236 :         if (_Large_mode_engaged()) {

	jbe	SHORT $LN7@runtime_er

; 2237 :             _Result = _Unfancy(_Bx._Ptr);

	mov	r8, QWORD PTR [rdx]
$LN7@runtime_er:
; File C:\Program Files\Microsoft Visual Studio\2022\Community\VC\Tools\MSVC\14.40.33807\include\vcruntime_exception.h

; 59   :         : _Data()

	lea	rdx, QWORD PTR [rcx+8]

; 60   :     {
; 61   :         __std_exception_data _InitData = { _Message, true };

	mov	QWORD PTR _InitData$1[rsp], r8
	lea	rax, OFFSET FLAT:??_7exception@std@@6B@
	mov	BYTE PTR _InitData$1[rsp+8], 1
	mov	QWORD PTR [rcx], rax
	xorps	xmm0, xmm0

; 62   :         __std_exception_copy(&_InitData, &_Data);

	lea	rcx, QWORD PTR _InitData$1[rsp]
	movups	XMMWORD PTR [rdx], xmm0
	call	__std_exception_copy
; File C:\Program Files\Microsoft Visual Studio\2022\Community\VC\Tools\MSVC\14.40.33807\include\stdexcept

; 104  :     explicit runtime_error(const string& _Message) : _Mybase(_Message.c_str()) {}

	lea	rax, OFFSET FLAT:??_7runtime_error@std@@6B@
	mov	QWORD PTR [rbx], rax
	mov	rax, rbx
	mov	rcx, QWORD PTR __$ArrayPad$[rsp]
	xor	rcx, rsp
	call	__security_check_cookie
	add	rsp, 64					; 00000040H
	pop	rbx
	ret	0
??0runtime_error@std@@QEAA@AEBV?$basic_string@DU?$char_traits@D@std@@V?$allocator@D@2@@1@@Z ENDP ; std::runtime_error::runtime_error
_TEXT	ENDS
; Function compile flags: /Ogtpy
; File C:\Program Files\Microsoft Visual Studio\2022\Community\VC\Tools\MSVC\14.40.33807\include\vcruntime_exception.h
;	COMDAT ??_Gruntime_error@std@@UEAAPEAXI@Z
_TEXT	SEGMENT
this$ = 48
__flags$ = 56
??_Gruntime_error@std@@UEAAPEAXI@Z PROC			; std::runtime_error::`scalar deleting destructor', COMDAT
$LN17:
	mov	QWORD PTR [rsp+8], rbx
	push	rdi
	sub	rsp, 32					; 00000020H

; 90   :     {

	lea	rax, OFFSET FLAT:??_7exception@std@@6B@
	mov	rdi, rcx
	mov	QWORD PTR [rcx], rax
	mov	ebx, edx

; 91   :         __std_exception_destroy(&_Data);

	add	rcx, 8
	call	__std_exception_destroy
	test	bl, 1
	je	SHORT $LN13@scalar
	mov	edx, 24
	mov	rcx, rdi
	call	??3@YAXPEAX_K@Z				; operator delete
$LN13@scalar:
	mov	rbx, QWORD PTR [rsp+48]
	mov	rax, rdi
	add	rsp, 32					; 00000020H
	pop	rdi
	ret	0
??_Gruntime_error@std@@UEAAPEAXI@Z ENDP			; std::runtime_error::`scalar deleting destructor'
_TEXT	ENDS
; Function compile flags: /Ogtpy
; File C:\Program Files\Microsoft Visual Studio\2022\Community\VC\Tools\MSVC\14.40.33807\include\vcruntime_exception.h
;	COMDAT ??1runtime_error@std@@UEAA@XZ
_TEXT	SEGMENT
this$ = 8
??1runtime_error@std@@UEAA@XZ PROC			; std::runtime_error::~runtime_error, COMDAT

; 90   :     {

	lea	rax, OFFSET FLAT:??_7exception@std@@6B@
	mov	QWORD PTR [rcx], rax

; 91   :         __std_exception_destroy(&_Data);

	add	rcx, 8
	jmp	__std_exception_destroy
??1runtime_error@std@@UEAA@XZ ENDP			; std::runtime_error::~runtime_error
_TEXT	ENDS
; Function compile flags: /Ogtpy
; File C:\Program Files\Microsoft Visual Studio\2022\Community\VC\Tools\MSVC\14.40.33807\include\vcruntime_exception.h
;	COMDAT ??0runtime_error@std@@QEAA@AEBV01@@Z
_TEXT	SEGMENT
this$ = 48
__that$ = 56
??0runtime_error@std@@QEAA@AEBV01@@Z PROC		; std::runtime_error::runtime_error, COMDAT
$LN9:
	push	rbx
	sub	rsp, 32					; 00000020H
	mov	rbx, rcx
	mov	rax, rdx

; 73   :     {

	lea	rcx, OFFSET FLAT:??_7exception@std@@6B@
	xorps	xmm0, xmm0

; 72   :         : _Data()

	lea	rdx, QWORD PTR [rbx+8]

; 73   :     {

	mov	QWORD PTR [rbx], rcx

; 74   :         __std_exception_copy(&_Other._Data, &_Data);

	lea	rcx, QWORD PTR [rax+8]
	movups	XMMWORD PTR [rdx], xmm0
	call	__std_exception_copy
	lea	rax, OFFSET FLAT:??_7runtime_error@std@@6B@
	mov	QWORD PTR [rbx], rax
	mov	rax, rbx
	add	rsp, 32					; 00000020H
	pop	rbx
	ret	0
??0runtime_error@std@@QEAA@AEBV01@@Z ENDP		; std::runtime_error::runtime_error
_TEXT	ENDS
; Function compile flags: /Ogtpy
; File C:\Program Files\Microsoft Visual Studio\2022\Community\VC\Tools\MSVC\14.40.33807\include\system_error
;	COMDAT ??8error_category@std@@QEBA_NAEBV01@@Z
_TEXT	SEGMENT
this$ = 8
_Right$ = 16
??8error_category@std@@QEBA_NAEBV01@@Z PROC		; std::error_category::operator==, COMDAT

; 100  : #ifdef _M_CEE_PURE
; 101  :         return _Addr == _Right._Addr;
; 102  : #else // ^^^ defined(_M_CEE_PURE) / !defined(_M_CEE_PURE) vvv
; 103  :         return _Bit_cast<uintptr_t>(_Addr) == _Bit_cast<uintptr_t>(_Right._Addr);

	mov	rax, QWORD PTR [rdx+8]
	cmp	QWORD PTR [rcx+8], rax
	sete	al

; 104  : #endif // ^^^ !defined(_M_CEE_PURE) ^^^
; 105  :     }

	ret	0
??8error_category@std@@QEBA_NAEBV01@@Z ENDP		; std::error_category::operator==
_TEXT	ENDS
; Function compile flags: /Ogtpy
; File C:\Program Files\Microsoft Visual Studio\2022\Community\VC\Tools\MSVC\14.40.33807\include\system_error
;	COMDAT ??1error_category@std@@UEAA@XZ
_TEXT	SEGMENT
this$ = 8
??1error_category@std@@UEAA@XZ PROC			; std::error_category::~error_category, COMDAT

; 87   :     _CONSTEXPR20 virtual ~error_category() noexcept = default;

	ret	0
??1error_category@std@@UEAA@XZ ENDP			; std::error_category::~error_category
_TEXT	ENDS
; Function compile flags: /Ogtpy
; File C:\Program Files\Microsoft Visual Studio\2022\Community\VC\Tools\MSVC\14.40.33807\include\system_error
;	COMDAT ??0error_code@std@@QEAA@HAEBVerror_category@1@@Z
_TEXT	SEGMENT
this$ = 8
_Val$ = 16
_Cat$ = 24
??0error_code@std@@QEAA@HAEBVerror_category@1@@Z PROC	; std::error_code::error_code, COMDAT

; 171  :     error_code(int _Val, const error_category& _Cat) noexcept : _Myval(_Val), _Mycat(&_Cat) {}

	mov	DWORD PTR [rcx], edx
	mov	rax, rcx
	mov	QWORD PTR [rcx+8], r8
	ret	0
??0error_code@std@@QEAA@HAEBVerror_category@1@@Z ENDP	; std::error_code::error_code
_TEXT	ENDS
; Function compile flags: /Ogtpy
; File C:\Program Files\Microsoft Visual Studio\2022\Community\VC\Tools\MSVC\14.40.33807\include\system_error
;	COMDAT ?value@error_code@std@@QEBAHXZ
_TEXT	SEGMENT
this$ = 8
?value@error_code@std@@QEBAHXZ PROC			; std::error_code::value, COMDAT

; 197  :         return _Myval;

	mov	eax, DWORD PTR [rcx]

; 198  :     }

	ret	0
?value@error_code@std@@QEBAHXZ ENDP			; std::error_code::value
_TEXT	ENDS
; Function compile flags: /Ogtpy
; File C:\Program Files\Microsoft Visual Studio\2022\Community\VC\Tools\MSVC\14.40.33807\include\system_error
;	COMDAT ?category@error_code@std@@QEBAAEBVerror_category@2@XZ
_TEXT	SEGMENT
this$ = 8
?category@error_code@std@@QEBAAEBVerror_category@2@XZ PROC ; std::error_code::category, COMDAT

; 201  :         return *_Mycat;

	mov	rax, QWORD PTR [rcx+8]

; 202  :     }

	ret	0
?category@error_code@std@@QEBAAEBVerror_category@2@XZ ENDP ; std::error_code::category
_TEXT	ENDS
; Function compile flags: /Ogtpy
; File C:\Program Files\Microsoft Visual Studio\2022\Community\VC\Tools\MSVC\14.40.33807\include\system_error
;	COMDAT ?message@error_code@std@@QEBA?AV?$basic_string@DU?$char_traits@D@std@@V?$allocator@D@2@@2@XZ
_TEXT	SEGMENT
this$ = 64
__$ReturnUdt$ = 72
?message@error_code@std@@QEBA?AV?$basic_string@DU?$char_traits@D@std@@V?$allocator@D@2@@2@XZ PROC ; std::error_code::message, COMDAT

; 206  :     _NODISCARD string message() const {

$LN7:
	push	rbx
	sub	rsp, 48					; 00000030H

; 207  :         return category().message(value());

	mov	r8d, DWORD PTR [rcx]
	mov	rbx, rdx
	mov	rcx, QWORD PTR [rcx+8]
	mov	rax, QWORD PTR [rcx]
	call	QWORD PTR [rax+16]
	mov	rax, rbx

; 208  :     }

	add	rsp, 48					; 00000030H
	pop	rbx
	ret	0
?message@error_code@std@@QEBA?AV?$basic_string@DU?$char_traits@D@std@@V?$allocator@D@2@@2@XZ ENDP ; std::error_code::message
_TEXT	ENDS
; Function compile flags: /Ogtpy
; File C:\Program Files\Microsoft Visual Studio\2022\Community\VC\Tools\MSVC\14.40.33807\include\system_error
;	COMDAT ??0error_condition@std@@QEAA@HAEBVerror_category@1@@Z
_TEXT	SEGMENT
this$ = 8
_Val$ = 16
_Cat$ = 24
??0error_condition@std@@QEAA@HAEBVerror_category@1@@Z PROC ; std::error_condition::error_condition, COMDAT

; 262  :     error_condition(int _Val, const error_category& _Cat) noexcept : _Myval(_Val), _Mycat(&_Cat) {}

	mov	DWORD PTR [rcx], edx
	mov	rax, rcx
	mov	QWORD PTR [rcx+8], r8
	ret	0
??0error_condition@std@@QEAA@HAEBVerror_category@1@@Z ENDP ; std::error_condition::error_condition
_TEXT	ENDS
; Function compile flags: /Ogtpy
; File C:\Program Files\Microsoft Visual Studio\2022\Community\VC\Tools\MSVC\14.40.33807\include\system_error
;	COMDAT ?value@error_condition@std@@QEBAHXZ
_TEXT	SEGMENT
this$ = 8
?value@error_condition@std@@QEBAHXZ PROC		; std::error_condition::value, COMDAT

; 288  :         return _Myval;

	mov	eax, DWORD PTR [rcx]

; 289  :     }

	ret	0
?value@error_condition@std@@QEBAHXZ ENDP		; std::error_condition::value
_TEXT	ENDS
; Function compile flags: /Ogtpy
; File C:\Program Files\Microsoft Visual Studio\2022\Community\VC\Tools\MSVC\14.40.33807\include\system_error
;	COMDAT ?category@error_condition@std@@QEBAAEBVerror_category@2@XZ
_TEXT	SEGMENT
this$ = 8
?category@error_condition@std@@QEBAAEBVerror_category@2@XZ PROC ; std::error_condition::category, COMDAT

; 292  :         return *_Mycat;

	mov	rax, QWORD PTR [rcx+8]

; 293  :     }

	ret	0
?category@error_condition@std@@QEBAAEBVerror_category@2@XZ ENDP ; std::error_condition::category
_TEXT	ENDS
; Function compile flags: /Ogtpy
; File C:\Program Files\Microsoft Visual Studio\2022\Community\VC\Tools\MSVC\14.40.33807\include\system_error
;	COMDAT ??8std@@YA_NAEBVerror_condition@0@0@Z
_TEXT	SEGMENT
_Left$ = 8
_Right$ = 16
??8std@@YA_NAEBVerror_condition@0@0@Z PROC		; std::operator==, COMDAT

; 103  :         return _Bit_cast<uintptr_t>(_Addr) == _Bit_cast<uintptr_t>(_Right._Addr);

	mov	rax, QWORD PTR [rdx+8]
	mov	r9, QWORD PTR [rcx+8]
	mov	r8, QWORD PTR [rax+8]
	cmp	QWORD PTR [r9+8], r8

; 305  :         return _Left.category() == _Right.category() && _Left.value() == _Right.value();

	jne	SHORT $LN3@operator
	mov	eax, DWORD PTR [rdx]
	cmp	DWORD PTR [rcx], eax
	jne	SHORT $LN3@operator
	mov	al, 1

; 306  :     }

	ret	0
$LN3@operator:

; 305  :         return _Left.category() == _Right.category() && _Left.value() == _Right.value();

	xor	al, al

; 306  :     }

	ret	0
??8std@@YA_NAEBVerror_condition@0@0@Z ENDP		; std::operator==
_TEXT	ENDS
; Function compile flags: /Ogtpy
; File C:\Program Files\Microsoft Visual Studio\2022\Community\VC\Tools\MSVC\14.40.33807\include\system_error
;	COMDAT ?default_error_condition@error_category@std@@UEBA?AVerror_condition@2@H@Z
_TEXT	SEGMENT
this$ = 8
__$ReturnUdt$ = 16
_Errval$ = 24
?default_error_condition@error_category@std@@UEBA?AVerror_condition@2@H@Z PROC ; std::error_category::default_error_condition, COMDAT

; 262  :     error_condition(int _Val, const error_category& _Cat) noexcept : _Myval(_Val), _Mycat(&_Cat) {}

	mov	DWORD PTR [rdx], r8d

; 408  :     // make error_condition for error code
; 409  :     return error_condition(_Errval, *this);

	mov	rax, rdx

; 262  :     error_condition(int _Val, const error_category& _Cat) noexcept : _Myval(_Val), _Mycat(&_Cat) {}

	mov	QWORD PTR [rdx+8], rcx

; 410  : }

	ret	0
?default_error_condition@error_category@std@@UEBA?AVerror_condition@2@H@Z ENDP ; std::error_category::default_error_condition
_TEXT	ENDS
; Function compile flags: /Ogtpy
; File C:\Program Files\Microsoft Visual Studio\2022\Community\VC\Tools\MSVC\14.40.33807\include\system_error
;	COMDAT ?equivalent@error_category@std@@UEBA_NHAEBVerror_condition@2@@Z
_TEXT	SEGMENT
$T1 = 32
this$ = 64
_Errval$ = 72
_Cond$ = 80
?equivalent@error_category@std@@UEBA_NHAEBVerror_condition@2@@Z PROC ; std::error_category::equivalent, COMDAT

; 412  : _NODISCARD inline bool error_category::equivalent(int _Errval, const error_condition& _Cond) const noexcept {

$LN16:
	push	rbx
	sub	rsp, 48					; 00000030H

; 413  :     return default_error_condition(_Errval) == _Cond;

	mov	rax, QWORD PTR [rcx]
	mov	rbx, r8
	mov	r8d, edx
	lea	rdx, QWORD PTR $T1[rsp]
	call	QWORD PTR [rax+24]

; 103  :         return _Bit_cast<uintptr_t>(_Addr) == _Bit_cast<uintptr_t>(_Right._Addr);

	mov	rcx, QWORD PTR [rbx+8]
	mov	r9, QWORD PTR [rax+8]
	mov	rdx, QWORD PTR [rcx+8]
	cmp	QWORD PTR [r9+8], rdx

; 305  :         return _Left.category() == _Right.category() && _Left.value() == _Right.value();

	jne	SHORT $LN6@equivalent
	mov	ecx, DWORD PTR [rbx]
	cmp	DWORD PTR [rax], ecx
	jne	SHORT $LN6@equivalent

; 413  :     return default_error_condition(_Errval) == _Cond;

	mov	al, 1

; 414  : }

	add	rsp, 48					; 00000030H
	pop	rbx
	ret	0
$LN6@equivalent:

; 413  :     return default_error_condition(_Errval) == _Cond;

	xor	al, al

; 414  : }

	add	rsp, 48					; 00000030H
	pop	rbx
	ret	0
?equivalent@error_category@std@@UEBA_NHAEBVerror_condition@2@@Z ENDP ; std::error_category::equivalent
_TEXT	ENDS
; Function compile flags: /Ogtpy
; File C:\Program Files\Microsoft Visual Studio\2022\Community\VC\Tools\MSVC\14.40.33807\include\system_error
;	COMDAT ?equivalent@error_category@std@@UEBA_NAEBVerror_code@2@H@Z
_TEXT	SEGMENT
this$ = 8
_Code$ = 16
_Errval$ = 24
?equivalent@error_category@std@@UEBA_NAEBVerror_code@2@H@Z PROC ; std::error_category::equivalent, COMDAT

; 103  :         return _Bit_cast<uintptr_t>(_Addr) == _Bit_cast<uintptr_t>(_Right._Addr);

	mov	rax, QWORD PTR [rdx+8]
	mov	r9, QWORD PTR [rax+8]
	cmp	QWORD PTR [rcx+8], r9

; 417  :     return *this == _Code.category() && _Code.value() == _Errval;

	jne	SHORT $LN3@equivalent
	cmp	DWORD PTR [rdx], r8d
	jne	SHORT $LN3@equivalent
	mov	al, 1

; 418  : }

	ret	0
$LN3@equivalent:

; 417  :     return *this == _Code.category() && _Code.value() == _Errval;

	xor	al, al

; 418  : }

	ret	0
?equivalent@error_category@std@@UEBA_NAEBVerror_code@2@H@Z ENDP ; std::error_category::equivalent
_TEXT	ENDS
; Function compile flags: /Ogtpy
; File C:\Program Files\Microsoft Visual Studio\2022\Community\VC\Tools\MSVC\14.40.33807\include\system_error
;	COMDAT ?make_error_code@std@@YA?AVerror_code@1@W4io_errc@1@@Z
_TEXT	SEGMENT
__$ReturnUdt$ = 8
_Ec$ = 16
?make_error_code@std@@YA?AVerror_code@1@W4io_errc@1@@Z PROC ; std::make_error_code, COMDAT

; 171  :     error_code(int _Val, const error_category& _Cat) noexcept : _Myval(_Val), _Mycat(&_Cat) {}

	lea	rax, OFFSET FLAT:?_Static@?1???$_Immortalize_memcpy_image@V_Iostream_error_category2@std@@@std@@YAAEBV_Iostream_error_category2@1@XZ@4V21@B ; `std::_Immortalize_memcpy_image<std::_Iostream_error_category2>'::`2'::_Static
	mov	DWORD PTR [rcx], edx
	mov	QWORD PTR [rcx+8], rax

; 430  :     return error_code(static_cast<int>(_Ec), _STD iostream_category());

	mov	rax, rcx

; 431  : }

	ret	0
?make_error_code@std@@YA?AVerror_code@1@W4io_errc@1@@Z ENDP ; std::make_error_code
_TEXT	ENDS
; Function compile flags: /Ogtpy
; File C:\Program Files\Microsoft Visual Studio\2022\Community\VC\Tools\MSVC\14.40.33807\include\system_error
; File C:\Program Files\Microsoft Visual Studio\2022\Community\VC\Tools\MSVC\14.40.33807\include\xstring
; File C:\Program Files\Microsoft Visual Studio\2022\Community\VC\Tools\MSVC\14.40.33807\include\system_error
; File C:\Program Files\Microsoft Visual Studio\2022\Community\VC\Tools\MSVC\14.40.33807\include\xstring
; File C:\Program Files\Microsoft Visual Studio\2022\Community\VC\Tools\MSVC\14.40.33807\include\system_error
; File C:\Program Files\Microsoft Visual Studio\2022\Community\VC\Tools\MSVC\14.40.33807\include\xstring
; File C:\Program Files\Microsoft Visual Studio\2022\Community\VC\Tools\MSVC\14.40.33807\include\xmemory
; File C:\Program Files\Microsoft Visual Studio\2022\Community\VC\Tools\MSVC\14.40.33807\include\xstring
; File C:\Program Files\Microsoft Visual Studio\2022\Community\VC\Tools\MSVC\14.40.33807\include\system_error
; File C:\Program Files\Microsoft Visual Studio\2022\Community\VC\Tools\MSVC\14.40.33807\include\xstring
; File C:\Program Files\Microsoft Visual Studio\2022\Community\VC\Tools\MSVC\14.40.33807\include\xmemory
; File C:\Program Files\Microsoft Visual Studio\2022\Community\VC\Tools\MSVC\14.40.33807\include\xstring
; File C:\Program Files\Microsoft Visual Studio\2022\Community\VC\Tools\MSVC\14.40.33807\include\system_error
; File C:\Program Files\Microsoft Visual Studio\2022\Community\VC\Tools\MSVC\14.40.33807\include\xmemory
; File C:\Program Files\Microsoft Visual Studio\2022\Community\VC\Tools\MSVC\14.40.33807\include\system_error
;	COMDAT ?_Makestr@_System_error@std@@CA?AV?$basic_string@DU?$char_traits@D@std@@V?$allocator@D@2@@2@Verror_code@2@V32@@Z
_TEXT	SEGMENT
$T1 = 48
$T2 = 56
_Message$GSCopy$ = 88
__$ReturnUdt$GSCopy$ = 88
__$ArrayPad$ = 96
__$ReturnUdt$ = 144
_Errcode$ = 152
_Message$ = 160
?_Makestr@_System_error@std@@CA?AV?$basic_string@DU?$char_traits@D@std@@V?$allocator@D@2@@2@Verror_code@2@V32@@Z PROC ; std::_System_error::_Makestr, COMDAT

; 463  :     static string _Makestr(error_code _Errcode, string _Message) { // compose error message

$LN186:
	mov	QWORD PTR [rsp+32], rbx
	push	rbp
	push	rsi
	push	rdi
	sub	rsp, 112				; 00000070H
	mov	rax, QWORD PTR __security_cookie
	xor	rax, rsp
	mov	QWORD PTR __$ArrayPad$[rsp], rax
	mov	rbx, r8
	mov	rsi, rdx
	mov	rdi, rcx
	mov	QWORD PTR __$ReturnUdt$GSCopy$[rsp], rcx
	mov	QWORD PTR _Message$GSCopy$[rsp], rbx
	xor	ebp, ebp
; File C:\Program Files\Microsoft Visual Studio\2022\Community\VC\Tools\MSVC\14.40.33807\include\xstring

; 4279 :         return _Mypair._Myval2._Mysize == 0;

	mov	rcx, QWORD PTR [r8+16]
	test	rcx, rcx
; File C:\Program Files\Microsoft Visual Studio\2022\Community\VC\Tools\MSVC\14.40.33807\include\system_error

; 464  :         if (!_Message.empty()) {

	je	SHORT $LN16@Makestr
; File C:\Program Files\Microsoft Visual Studio\2022\Community\VC\Tools\MSVC\14.40.33807\include\xstring

; 3310 :         if (_Count <= _Mypair._Myval2._Myres - _Old_size) {

	mov	rdx, QWORD PTR [r8+24]
	mov	rax, rdx
	sub	rax, rcx
	cmp	rax, 2
	jb	SHORT $LN17@Makestr

; 3311 :             _ASAN_STRING_MODIFY(*this, _Old_size, _Old_size + _Count);
; 3312 :             _Mypair._Myval2._Mysize = _Old_size + _Count;

	lea	rax, QWORD PTR [rcx+2]
	mov	QWORD PTR [r8+16], rax

; 2226 :         value_type* _Result = _Bx._Buf;

	mov	rax, rbx

; 2244 :         return _Myres > _Small_string_capacity;

	cmp	rdx, 15

; 2227 :         if (_Large_mode_engaged()) {

	jbe	SHORT $LN181@Makestr

; 2228 :             _Result = _Unfancy(_Bx._Ptr);

	mov	rax, QWORD PTR [r8]
$LN181@Makestr:

; 117  :         _CSTD memmove(_First1, _First2, _Count * sizeof(_Elem));

	mov	WORD PTR [rax+rcx], 8250		; 0000203aH

; 3315 :             _Traits::assign(_Old_ptr[_Old_size + _Count], _Elem());

	mov	BYTE PTR [rax+rcx+2], 0

; 3316 :             return *this;

	jmp	SHORT $LN16@Makestr
$LN17@Makestr:

; 3317 :         }
; 3318 : 
; 3319 :         return _Reallocate_grow_by(

	mov	QWORD PTR [rsp+32], 2
	lea	r9, OFFSET FLAT:??_C@_02LMMGGCAJ@?3?5@
	movzx	r8d, BYTE PTR $T1[rsp]
	mov	edx, 2
	mov	rcx, rbx
	call	??$_Reallocate_grow_by@V<lambda_1>@?1??append@?$basic_string@DU?$char_traits@D@std@@V?$allocator@D@2@@std@@QEAAAEAV34@QEBD_K@Z@PEBD_K@?$basic_string@DU?$char_traits@D@std@@V?$allocator@D@2@@std@@AEAAAEAV01@_KV<lambda_1>@?1??append@01@QEAAAEAV01@QEBD0@Z@PEBD_K@Z ; std::basic_string<char,std::char_traits<char>,std::allocator<char> >::_Reallocate_grow_by<`std::basic_string<char,std::char_traits<char>,std::allocator<char> >::append'::`2'::<lambda_1>,char const *,unsigned __int64>
$LN16@Makestr:
; File C:\Program Files\Microsoft Visual Studio\2022\Community\VC\Tools\MSVC\14.40.33807\include\system_error

; 207  :         return category().message(value());

	mov	rcx, QWORD PTR [rsi+8]
	mov	rax, QWORD PTR [rcx]
	mov	r8d, DWORD PTR [rsi]
	lea	rdx, QWORD PTR $T2[rsp]
	call	QWORD PTR [rax+16]
	npad	1
; File C:\Program Files\Microsoft Visual Studio\2022\Community\VC\Tools\MSVC\14.40.33807\include\xstring

; 2235 :         const value_type* _Result = _Bx._Buf;

	lea	rdx, QWORD PTR $T2[rsp]

; 2244 :         return _Myres > _Small_string_capacity;

	cmp	QWORD PTR $T2[rsp+24], 15

; 2236 :         if (_Large_mode_engaged()) {

	cmova	rdx, QWORD PTR $T2[rsp]

; 3280 :         return append(_Right._Mypair._Myval2._Myptr(), _Right._Mypair._Myval2._Mysize);

	mov	r8, QWORD PTR $T2[rsp+16]
	mov	rcx, rbx
	call	?append@?$basic_string@DU?$char_traits@D@std@@V?$allocator@D@2@@std@@QEAAAEAV12@QEBD_K@Z ; std::basic_string<char,std::char_traits<char>,std::allocator<char> >::append
	npad	1

; 2244 :         return _Myres > _Small_string_capacity;

	mov	rdx, QWORD PTR $T2[rsp+24]
	cmp	rdx, 15

; 4868 :         if (_My_data._Large_mode_engaged()) {

	jbe	SHORT $LN72@Makestr

; 2643 :         _Al.deallocate(_Old_ptr, _Capacity + 1); // +1 for null terminator

	inc	rdx
; File C:\Program Files\Microsoft Visual Studio\2022\Community\VC\Tools\MSVC\14.40.33807\include\xmemory

; 950  :         _STD _Deallocate<_New_alignof<_Ty>>(_Ptr, sizeof(_Ty) * _Count);

	mov	rcx, QWORD PTR $T2[rsp]
	mov	rax, rcx

; 253  :         if (_Bytes >= _Big_allocation_threshold) {

	cmp	rdx, 4096				; 00001000H
	jb	SHORT $LN86@Makestr

; 171  :     _Bytes += _Non_user_size;

	add	rdx, 39					; 00000027H

; 172  : 
; 173  :     const uintptr_t* const _Ptr_user = static_cast<uintptr_t*>(_Ptr);
; 174  :     const uintptr_t _Ptr_container   = _Ptr_user[-1];

	mov	rcx, QWORD PTR [rcx-8]
	sub	rax, rcx

; 188  :     _STL_VERIFY(_Back_shift >= _Min_back_shift && _Back_shift <= _Non_user_size, "invalid argument");

	add	rax, -8
	cmp	rax, 31
	ja	$LN184@Makestr
$LN86@Makestr:

; 258  :         ::operator delete(_Ptr, _Bytes);

	call	??3@YAXPEAX_K@Z				; operator delete
$LN72@Makestr:
	xorps	xmm0, xmm0
; File C:\Program Files\Microsoft Visual Studio\2022\Community\VC\Tools\MSVC\14.40.33807\include\xstring

; 2284 :         _CONSTEXPR20 _Bxty() noexcept : _Buf() {} // user-provided, for fancy pointers

	movups	XMMWORD PTR [rdi], xmm0

; 2308 :     size_type _Mysize = 0; // current length of string (size)

	mov	QWORD PTR [rdi+16], rbp

; 2309 :     size_type _Myres  = 0; // current storage reserved for string (capacity)

	mov	QWORD PTR [rdi+24], rbp

; 3083 :                 _CSTD memcpy(_My_data_mem, _Right_data_mem, _Memcpy_val_size);

	movups	xmm0, XMMWORD PTR [rbx]
	movups	XMMWORD PTR [rdi], xmm0
	movups	xmm1, XMMWORD PTR [rbx+16]
	movups	XMMWORD PTR [rdi+16], xmm1
; File C:\Program Files\Microsoft Visual Studio\2022\Community\VC\Tools\MSVC\14.40.33807\include\system_error

; 469  :         return _Message;

	mov	QWORD PTR [rbx+16], rbp
	mov	QWORD PTR [rbx+24], 15
	mov	BYTE PTR [rbx], 0
; File C:\Program Files\Microsoft Visual Studio\2022\Community\VC\Tools\MSVC\14.40.33807\include\xstring

; 2244 :         return _Myres > _Small_string_capacity;

	mov	rdx, QWORD PTR [rbx+24]
	cmp	rdx, 15

; 4868 :         if (_My_data._Large_mode_engaged()) {

	jbe	SHORT $LN144@Makestr

; 2643 :         _Al.deallocate(_Old_ptr, _Capacity + 1); // +1 for null terminator

	inc	rdx
; File C:\Program Files\Microsoft Visual Studio\2022\Community\VC\Tools\MSVC\14.40.33807\include\xmemory

; 950  :         _STD _Deallocate<_New_alignof<_Ty>>(_Ptr, sizeof(_Ty) * _Count);

	mov	rcx, QWORD PTR [rbx]

; 253  :         if (_Bytes >= _Big_allocation_threshold) {

	cmp	rdx, 4096				; 00001000H
	jb	SHORT $LN158@Makestr

; 171  :     _Bytes += _Non_user_size;

	add	rdx, 39					; 00000027H

; 172  : 
; 173  :     const uintptr_t* const _Ptr_user = static_cast<uintptr_t*>(_Ptr);
; 174  :     const uintptr_t _Ptr_container   = _Ptr_user[-1];

	mov	r8, QWORD PTR [rcx-8]

; 175  : 
; 176  :     // If the following asserts, it likely means that we are performing
; 177  :     // an aligned delete on memory coming from an unaligned allocation.
; 178  :     _STL_ASSERT(_Ptr_user[-2] == _Big_allocation_sentinel, "invalid argument");
; 179  : 
; 180  :     // Extra paranoia on aligned allocation/deallocation; ensure _Ptr_container is
; 181  :     // in range [_Min_back_shift, _Non_user_size]
; 182  : #ifdef _DEBUG
; 183  :     constexpr uintptr_t _Min_back_shift = 2 * sizeof(void*);
; 184  : #else // ^^^ defined(_DEBUG) / !defined(_DEBUG) vvv
; 185  :     constexpr uintptr_t _Min_back_shift = sizeof(void*);
; 186  : #endif // ^^^ !defined(_DEBUG) ^^^
; 187  :     const uintptr_t _Back_shift = reinterpret_cast<uintptr_t>(_Ptr) - _Ptr_container;

	sub	rcx, r8

; 188  :     _STL_VERIFY(_Back_shift >= _Min_back_shift && _Back_shift <= _Non_user_size, "invalid argument");

	lea	rax, QWORD PTR [rcx-8]
	cmp	rax, 31
	ja	SHORT $LN155@Makestr

; 189  :     _Ptr = reinterpret_cast<void*>(_Ptr_container);

	mov	rcx, r8
$LN158@Makestr:

; 258  :         ::operator delete(_Ptr, _Bytes);

	call	??3@YAXPEAX_K@Z				; operator delete
$LN144@Makestr:
; File C:\Program Files\Microsoft Visual Studio\2022\Community\VC\Tools\MSVC\14.40.33807\include\xstring

; 4875 :         _My_data._Mysize = 0;

	mov	QWORD PTR [rbx+16], rbp

; 4876 :         _My_data._Myres  = _Small_string_capacity;

	mov	QWORD PTR [rbx+24], 15

; 4877 :         // the _Traits::assign is last so the codegen doesn't think the char write can alias this
; 4878 :         _Traits::assign(_My_data._Bx._Buf[0], _Elem());

	mov	BYTE PTR [rbx], 0
; File C:\Program Files\Microsoft Visual Studio\2022\Community\VC\Tools\MSVC\14.40.33807\include\system_error

; 469  :         return _Message;

	mov	rax, rdi

; 470  :     }

	mov	rcx, QWORD PTR __$ArrayPad$[rsp]
	xor	rcx, rsp
	call	__security_check_cookie
	mov	rbx, QWORD PTR [rsp+168]
	add	rsp, 112				; 00000070H
	pop	rdi
	pop	rsi
	pop	rbp
	ret	0
$LN184@Makestr:
; File C:\Program Files\Microsoft Visual Studio\2022\Community\VC\Tools\MSVC\14.40.33807\include\xmemory

; 188  :     _STL_VERIFY(_Back_shift >= _Min_back_shift && _Back_shift <= _Non_user_size, "invalid argument");

	call	_invalid_parameter_noinfo_noreturn
	npad	1
$LN155@Makestr:
	call	_invalid_parameter_noinfo_noreturn
	int	3
$LN182@Makestr:
?_Makestr@_System_error@std@@CA?AV?$basic_string@DU?$char_traits@D@std@@V?$allocator@D@2@@2@Verror_code@2@V32@@Z ENDP ; std::_System_error::_Makestr
_TEXT	ENDS
; Function compile flags: /Ogtpy
;	COMDAT text$x
text$x	SEGMENT
$T1 = 48
$T2 = 56
_Message$GSCopy$ = 88
__$ReturnUdt$GSCopy$ = 88
__$ArrayPad$ = 96
__$ReturnUdt$ = 144
_Errcode$ = 152
_Message$ = 160
?dtor$0@?0??_Makestr@_System_error@std@@CA?AV?$basic_string@DU?$char_traits@D@std@@V?$allocator@D@2@@2@Verror_code@2@V32@@Z@4HA PROC ; `std::_System_error::_Makestr'::`1'::dtor$0
	mov	rcx, QWORD PTR _Message$GSCopy$[rdx]
	jmp	??1?$basic_string@DU?$char_traits@D@std@@V?$allocator@D@2@@std@@QEAA@XZ ; std::basic_string<char,std::char_traits<char>,std::allocator<char> >::~basic_string<char,std::char_traits<char>,std::allocator<char> >
?dtor$0@?0??_Makestr@_System_error@std@@CA?AV?$basic_string@DU?$char_traits@D@std@@V?$allocator@D@2@@2@Verror_code@2@V32@@Z@4HA ENDP ; `std::_System_error::_Makestr'::`1'::dtor$0
text$x	ENDS
; Function compile flags: /Ogtpy
;	COMDAT text$x
text$x	SEGMENT
$T1 = 48
$T2 = 56
_Message$GSCopy$ = 88
__$ReturnUdt$GSCopy$ = 88
__$ArrayPad$ = 96
__$ReturnUdt$ = 144
_Errcode$ = 152
_Message$ = 160
?dtor$1@?0??_Makestr@_System_error@std@@CA?AV?$basic_string@DU?$char_traits@D@std@@V?$allocator@D@2@@2@Verror_code@2@V32@@Z@4HA PROC ; `std::_System_error::_Makestr'::`1'::dtor$1
	lea	rcx, QWORD PTR $T2[rdx]
	jmp	??1?$basic_string@DU?$char_traits@D@std@@V?$allocator@D@2@@std@@QEAA@XZ ; std::basic_string<char,std::char_traits<char>,std::allocator<char> >::~basic_string<char,std::char_traits<char>,std::allocator<char> >
?dtor$1@?0??_Makestr@_System_error@std@@CA?AV?$basic_string@DU?$char_traits@D@std@@V?$allocator@D@2@@2@Verror_code@2@V32@@Z@4HA ENDP ; `std::_System_error::_Makestr'::`1'::dtor$1
text$x	ENDS
; Function compile flags: /Ogtpy
; File C:\Program Files\Microsoft Visual Studio\2022\Community\VC\Tools\MSVC\14.40.33807\include\system_error
; File C:\Program Files\Microsoft Visual Studio\2022\Community\VC\Tools\MSVC\14.40.33807\include\xstring
; File C:\Program Files\Microsoft Visual Studio\2022\Community\VC\Tools\MSVC\14.40.33807\include\vcruntime_exception.h
; File C:\Program Files\Microsoft Visual Studio\2022\Community\VC\Tools\MSVC\14.40.33807\include\xstring
; File C:\Program Files\Microsoft Visual Studio\2022\Community\VC\Tools\MSVC\14.40.33807\include\stdexcept
; File C:\Program Files\Microsoft Visual Studio\2022\Community\VC\Tools\MSVC\14.40.33807\include\xstring
; File C:\Program Files\Microsoft Visual Studio\2022\Community\VC\Tools\MSVC\14.40.33807\include\xmemory
; File C:\Program Files\Microsoft Visual Studio\2022\Community\VC\Tools\MSVC\14.40.33807\include\xstring
; File C:\Program Files\Microsoft Visual Studio\2022\Community\VC\Tools\MSVC\14.40.33807\include\xmemory
; File C:\Program Files\Microsoft Visual Studio\2022\Community\VC\Tools\MSVC\14.40.33807\include\system_error
; File C:\Program Files\Microsoft Visual Studio\2022\Community\VC\Tools\MSVC\14.40.33807\include\xmemory
; File C:\Program Files\Microsoft Visual Studio\2022\Community\VC\Tools\MSVC\14.40.33807\include\system_error
;	COMDAT ??0_System_error@std@@IEAA@Verror_code@1@AEBV?$basic_string@DU?$char_traits@D@std@@V?$allocator@D@2@@1@@Z
_TEXT	SEGMENT
$T1 = 32
$T2 = 64
_InitData$3 = 96
this$GSCopy$ = 96
$T4 = 96
__$ArrayPad$ = 112
this$ = 144
_Errcode$ = 152
_Message$ = 160
??0_System_error@std@@IEAA@Verror_code@1@AEBV?$basic_string@DU?$char_traits@D@std@@V?$allocator@D@2@@1@@Z PROC ; std::_System_error::_System_error, COMDAT

; 475  :     _System_error(error_code _Errcode, const string& _Message)

$LN67:
	mov	QWORD PTR [rsp+32], rbx
	push	rdi
	sub	rsp, 128				; 00000080H
	mov	rax, QWORD PTR __security_cookie
	xor	rax, rsp
	mov	QWORD PTR __$ArrayPad$[rsp], rax
	mov	rdi, rdx
	mov	QWORD PTR this$GSCopy$[rsp], rcx
	mov	rbx, rcx

; 476  :         : runtime_error(_Makestr(_Errcode, _Message)), _Mycode(_Errcode) {}

	mov	rdx, r8
	lea	rcx, QWORD PTR $T2[rsp]
	call	??0?$basic_string@DU?$char_traits@D@std@@V?$allocator@D@2@@std@@QEAA@AEBV01@@Z ; std::basic_string<char,std::char_traits<char>,std::allocator<char> >::basic_string<char,std::char_traits<char>,std::allocator<char> >
	movups	xmm0, XMMWORD PTR [rdi]
	mov	r8, rax
	lea	rdx, QWORD PTR $T4[rsp]
	lea	rcx, QWORD PTR $T1[rsp]
	movaps	XMMWORD PTR $T4[rsp], xmm0
	call	?_Makestr@_System_error@std@@CA?AV?$basic_string@DU?$char_traits@D@std@@V?$allocator@D@2@@2@Verror_code@2@V32@@Z ; std::_System_error::_Makestr
; File C:\Program Files\Microsoft Visual Studio\2022\Community\VC\Tools\MSVC\14.40.33807\include\xstring

; 2244 :         return _Myres > _Small_string_capacity;

	cmp	QWORD PTR [rax+24], 15

; 2236 :         if (_Large_mode_engaged()) {

	jbe	SHORT $LN12@System_err

; 2237 :             _Result = _Unfancy(_Bx._Ptr);

	mov	rax, QWORD PTR [rax]
$LN12@System_err:
; File C:\Program Files\Microsoft Visual Studio\2022\Community\VC\Tools\MSVC\14.40.33807\include\vcruntime_exception.h

; 60   :     {

	lea	rcx, OFFSET FLAT:??_7exception@std@@6B@

; 61   :         __std_exception_data _InitData = { _Message, true };

	mov	QWORD PTR _InitData$3[rsp], rax
	mov	QWORD PTR [rbx], rcx
	lea	rdx, QWORD PTR [rbx+8]
	xorps	xmm0, xmm0
	mov	BYTE PTR _InitData$3[rsp+8], 1

; 62   :         __std_exception_copy(&_InitData, &_Data);

	lea	rcx, QWORD PTR _InitData$3[rsp]
	movups	XMMWORD PTR [rdx], xmm0
	call	__std_exception_copy
; File C:\Program Files\Microsoft Visual Studio\2022\Community\VC\Tools\MSVC\14.40.33807\include\xstring

; 2244 :         return _Myres > _Small_string_capacity;

	mov	rdx, QWORD PTR $T1[rsp+24]
; File C:\Program Files\Microsoft Visual Studio\2022\Community\VC\Tools\MSVC\14.40.33807\include\stdexcept

; 104  :     explicit runtime_error(const string& _Message) : _Mybase(_Message.c_str()) {}

	lea	rax, OFFSET FLAT:??_7runtime_error@std@@6B@
	mov	QWORD PTR [rbx], rax
; File C:\Program Files\Microsoft Visual Studio\2022\Community\VC\Tools\MSVC\14.40.33807\include\xstring

; 2244 :         return _Myres > _Small_string_capacity;

	cmp	rdx, 15

; 4868 :         if (_My_data._Large_mode_engaged()) {

	jbe	SHORT $LN38@System_err
; File C:\Program Files\Microsoft Visual Studio\2022\Community\VC\Tools\MSVC\14.40.33807\include\xmemory

; 950  :         _STD _Deallocate<_New_alignof<_Ty>>(_Ptr, sizeof(_Ty) * _Count);

	mov	rcx, QWORD PTR $T1[rsp]
; File C:\Program Files\Microsoft Visual Studio\2022\Community\VC\Tools\MSVC\14.40.33807\include\xstring

; 2643 :         _Al.deallocate(_Old_ptr, _Capacity + 1); // +1 for null terminator

	inc	rdx
; File C:\Program Files\Microsoft Visual Studio\2022\Community\VC\Tools\MSVC\14.40.33807\include\xmemory

; 950  :         _STD _Deallocate<_New_alignof<_Ty>>(_Ptr, sizeof(_Ty) * _Count);

	mov	rax, rcx

; 253  :         if (_Bytes >= _Big_allocation_threshold) {

	cmp	rdx, 4096				; 00001000H
	jb	SHORT $LN52@System_err

; 174  :     const uintptr_t _Ptr_container   = _Ptr_user[-1];

	mov	rcx, QWORD PTR [rcx-8]
	add	rdx, 39					; 00000027H
	sub	rax, rcx

; 188  :     _STL_VERIFY(_Back_shift >= _Min_back_shift && _Back_shift <= _Non_user_size, "invalid argument");

	add	rax, -8
	cmp	rax, 31
	ja	SHORT $LN65@System_err
$LN52@System_err:

; 258  :         ::operator delete(_Ptr, _Bytes);

	call	??3@YAXPEAX_K@Z				; operator delete
$LN38@System_err:
; File C:\Program Files\Microsoft Visual Studio\2022\Community\VC\Tools\MSVC\14.40.33807\include\system_error

; 476  :         : runtime_error(_Makestr(_Errcode, _Message)), _Mycode(_Errcode) {}

	movups	xmm0, XMMWORD PTR [rdi]
	lea	rax, OFFSET FLAT:??_7_System_error@std@@6B@
	mov	QWORD PTR [rbx], rax
	mov	rax, rbx
	movups	XMMWORD PTR [rbx+24], xmm0
	mov	rcx, QWORD PTR __$ArrayPad$[rsp]
	xor	rcx, rsp
	call	__security_check_cookie
	mov	rbx, QWORD PTR [rsp+168]
	add	rsp, 128				; 00000080H
	pop	rdi
	ret	0
$LN65@System_err:
; File C:\Program Files\Microsoft Visual Studio\2022\Community\VC\Tools\MSVC\14.40.33807\include\xmemory

; 188  :     _STL_VERIFY(_Back_shift >= _Min_back_shift && _Back_shift <= _Non_user_size, "invalid argument");

	call	_invalid_parameter_noinfo_noreturn
	int	3
$LN63@System_err:
??0_System_error@std@@IEAA@Verror_code@1@AEBV?$basic_string@DU?$char_traits@D@std@@V?$allocator@D@2@@1@@Z ENDP ; std::_System_error::_System_error
_TEXT	ENDS
; Function compile flags: /Ogtpy
; File C:\Program Files\Microsoft Visual Studio\2022\Community\VC\Tools\MSVC\14.40.33807\include\vcruntime_exception.h
;	COMDAT ??_G_System_error@std@@UEAAPEAXI@Z
_TEXT	SEGMENT
this$ = 48
__flags$ = 56
??_G_System_error@std@@UEAAPEAXI@Z PROC			; std::_System_error::`scalar deleting destructor', COMDAT
$LN22:
	mov	QWORD PTR [rsp+8], rbx
	push	rdi
	sub	rsp, 32					; 00000020H

; 90   :     {

	lea	rax, OFFSET FLAT:??_7exception@std@@6B@
	mov	rdi, rcx
	mov	QWORD PTR [rcx], rax
	mov	ebx, edx

; 91   :         __std_exception_destroy(&_Data);

	add	rcx, 8
	call	__std_exception_destroy
	test	bl, 1
	je	SHORT $LN18@scalar
	mov	edx, 40					; 00000028H
	mov	rcx, rdi
	call	??3@YAXPEAX_K@Z				; operator delete
$LN18@scalar:
	mov	rbx, QWORD PTR [rsp+48]
	mov	rax, rdi
	add	rsp, 32					; 00000020H
	pop	rdi
	ret	0
??_G_System_error@std@@UEAAPEAXI@Z ENDP			; std::_System_error::`scalar deleting destructor'
_TEXT	ENDS
; Function compile flags: /Ogtpy
; File C:\Program Files\Microsoft Visual Studio\2022\Community\VC\Tools\MSVC\14.40.33807\include\vcruntime_exception.h
;	COMDAT ??1_System_error@std@@UEAA@XZ
_TEXT	SEGMENT
this$ = 8
??1_System_error@std@@UEAA@XZ PROC			; std::_System_error::~_System_error, COMDAT

; 90   :     {

	lea	rax, OFFSET FLAT:??_7exception@std@@6B@
	mov	QWORD PTR [rcx], rax

; 91   :         __std_exception_destroy(&_Data);

	add	rcx, 8
	jmp	__std_exception_destroy
??1_System_error@std@@UEAA@XZ ENDP			; std::_System_error::~_System_error
_TEXT	ENDS
; Function compile flags: /Ogtpy
; File C:\Program Files\Microsoft Visual Studio\2022\Community\VC\Tools\MSVC\14.40.33807\include\system_error
; File C:\Program Files\Microsoft Visual Studio\2022\Community\VC\Tools\MSVC\14.40.33807\include\xstring
; File C:\Program Files\Microsoft Visual Studio\2022\Community\VC\Tools\MSVC\14.40.33807\include\system_error
; File C:\Program Files\Microsoft Visual Studio\2022\Community\VC\Tools\MSVC\14.40.33807\include\xstring
; File C:\Program Files\Microsoft Visual Studio\2022\Community\VC\Tools\MSVC\14.40.33807\include\vcruntime_exception.h
; File C:\Program Files\Microsoft Visual Studio\2022\Community\VC\Tools\MSVC\14.40.33807\include\stdexcept
; File C:\Program Files\Microsoft Visual Studio\2022\Community\VC\Tools\MSVC\14.40.33807\include\xstring
; File C:\Program Files\Microsoft Visual Studio\2022\Community\VC\Tools\MSVC\14.40.33807\include\xmemory
; File C:\Program Files\Microsoft Visual Studio\2022\Community\VC\Tools\MSVC\14.40.33807\include\system_error
; File C:\Program Files\Microsoft Visual Studio\2022\Community\VC\Tools\MSVC\14.40.33807\include\xstring
; File C:\Program Files\Microsoft Visual Studio\2022\Community\VC\Tools\MSVC\14.40.33807\include\xmemory
; File C:\Program Files\Microsoft Visual Studio\2022\Community\VC\Tools\MSVC\14.40.33807\include\system_error
; File C:\Program Files\Microsoft Visual Studio\2022\Community\VC\Tools\MSVC\14.40.33807\include\xmemory
; File C:\Program Files\Microsoft Visual Studio\2022\Community\VC\Tools\MSVC\14.40.33807\include\system_error
;	COMDAT ??0system_error@std@@QEAA@Verror_code@1@PEBD@Z
_TEXT	SEGMENT
$T1 = 32
$T2 = 64
$T3 = 96
_InitData$4 = 128
$T5 = 128
this$GSCopy$ = 128
__$ArrayPad$ = 144
this$ = 176
_Errcode$ = 184
_Message$ = 192
??0system_error@std@@QEAA@Verror_code@1@PEBD@Z PROC	; std::system_error::system_error, COMDAT

; 490  :     system_error(error_code _Errcode, const char* _Message) : _Mybase(_Errcode, _Message) {}

$LN125:
	mov	QWORD PTR [rsp+32], rbx
	push	rdi
	sub	rsp, 160				; 000000a0H
	mov	rax, QWORD PTR __security_cookie
	xor	rax, rsp
	mov	QWORD PTR __$ArrayPad$[rsp], rax
	mov	rax, r8
	mov	rdi, rdx
	mov	rbx, rcx
	mov	QWORD PTR this$GSCopy$[rsp], rcx
	xorps	xmm0, xmm0
; File C:\Program Files\Microsoft Visual Studio\2022\Community\VC\Tools\MSVC\14.40.33807\include\xstring

; 2284 :         _CONSTEXPR20 _Bxty() noexcept : _Buf() {} // user-provided, for fancy pointers

	movups	XMMWORD PTR $T1[rsp], xmm0
	xorps	xmm1, xmm1

; 2308 :     size_type _Mysize = 0; // current length of string (size)

	movdqu	XMMWORD PTR $T1[rsp+16], xmm1

; 398  :             return __builtin_strlen(_First);

	mov	r8, -1
	npad	8
$LL119@system_err:
	inc	r8
	cmp	BYTE PTR [rax+r8], 0
	jne	SHORT $LL119@system_err

; 2560 :         _Construct<_Construct_strategy::_From_ptr>(_Ptr, _Convert_size<size_type>(_Traits::length(_Ptr)));

	mov	rdx, rax
	lea	rcx, QWORD PTR $T1[rsp]
	call	??$_Construct@$00PEBD@?$basic_string@DU?$char_traits@D@std@@V?$allocator@D@2@@std@@AEAAXQEBD_K@Z ; std::basic_string<char,std::char_traits<char>,std::allocator<char> >::_Construct<1,char const *>
	npad	1
; File C:\Program Files\Microsoft Visual Studio\2022\Community\VC\Tools\MSVC\14.40.33807\include\system_error

; 476  :         : runtime_error(_Makestr(_Errcode, _Message)), _Mycode(_Errcode) {}

	lea	rdx, QWORD PTR $T1[rsp]
	lea	rcx, QWORD PTR $T3[rsp]
	call	??0?$basic_string@DU?$char_traits@D@std@@V?$allocator@D@2@@std@@QEAA@AEBV01@@Z ; std::basic_string<char,std::char_traits<char>,std::allocator<char> >::basic_string<char,std::char_traits<char>,std::allocator<char> >
	movups	xmm0, XMMWORD PTR [rdi]
	movaps	XMMWORD PTR $T5[rsp], xmm0
	mov	r8, rax
	lea	rdx, QWORD PTR $T5[rsp]
	lea	rcx, QWORD PTR $T2[rsp]
	call	?_Makestr@_System_error@std@@CA?AV?$basic_string@DU?$char_traits@D@std@@V?$allocator@D@2@@2@Verror_code@2@V32@@Z ; std::_System_error::_Makestr
; File C:\Program Files\Microsoft Visual Studio\2022\Community\VC\Tools\MSVC\14.40.33807\include\xstring

; 2244 :         return _Myres > _Small_string_capacity;

	cmp	QWORD PTR [rax+24], 15

; 2236 :         if (_Large_mode_engaged()) {

	jbe	SHORT $LN34@system_err

; 2237 :             _Result = _Unfancy(_Bx._Ptr);

	mov	rax, QWORD PTR [rax]
$LN34@system_err:
; File C:\Program Files\Microsoft Visual Studio\2022\Community\VC\Tools\MSVC\14.40.33807\include\vcruntime_exception.h

; 60   :     {

	lea	rcx, OFFSET FLAT:??_7exception@std@@6B@
	mov	QWORD PTR [rbx], rcx

; 59   :         : _Data()

	lea	rdx, QWORD PTR [rbx+8]
	xorps	xmm0, xmm0
	movups	XMMWORD PTR [rdx], xmm0

; 61   :         __std_exception_data _InitData = { _Message, true };

	mov	QWORD PTR _InitData$4[rsp], rax
	mov	BYTE PTR _InitData$4[rsp+8], 1

; 62   :         __std_exception_copy(&_InitData, &_Data);

	lea	rcx, QWORD PTR _InitData$4[rsp]
	call	__std_exception_copy
; File C:\Program Files\Microsoft Visual Studio\2022\Community\VC\Tools\MSVC\14.40.33807\include\stdexcept

; 104  :     explicit runtime_error(const string& _Message) : _Mybase(_Message.c_str()) {}

	lea	rax, OFFSET FLAT:??_7runtime_error@std@@6B@
	mov	QWORD PTR [rbx], rax
; File C:\Program Files\Microsoft Visual Studio\2022\Community\VC\Tools\MSVC\14.40.33807\include\xstring

; 2244 :         return _Myres > _Small_string_capacity;

	mov	rdx, QWORD PTR $T2[rsp+24]
	cmp	rdx, 15

; 4868 :         if (_My_data._Large_mode_engaged()) {

	jbe	SHORT $LN60@system_err

; 2643 :         _Al.deallocate(_Old_ptr, _Capacity + 1); // +1 for null terminator

	inc	rdx
; File C:\Program Files\Microsoft Visual Studio\2022\Community\VC\Tools\MSVC\14.40.33807\include\xmemory

; 950  :         _STD _Deallocate<_New_alignof<_Ty>>(_Ptr, sizeof(_Ty) * _Count);

	mov	rcx, QWORD PTR $T2[rsp]
	mov	rax, rcx

; 253  :         if (_Bytes >= _Big_allocation_threshold) {

	cmp	rdx, 4096				; 00001000H
	jb	SHORT $LN74@system_err

; 171  :     _Bytes += _Non_user_size;

	add	rdx, 39					; 00000027H

; 172  : 
; 173  :     const uintptr_t* const _Ptr_user = static_cast<uintptr_t*>(_Ptr);
; 174  :     const uintptr_t _Ptr_container   = _Ptr_user[-1];

	mov	rcx, QWORD PTR [rcx-8]
	sub	rax, rcx

; 188  :     _STL_VERIFY(_Back_shift >= _Min_back_shift && _Back_shift <= _Non_user_size, "invalid argument");

	add	rax, -8
	cmp	rax, 31
	ja	$LN122@system_err
$LN74@system_err:

; 258  :         ::operator delete(_Ptr, _Bytes);

	call	??3@YAXPEAX_K@Z				; operator delete
$LN60@system_err:
; File C:\Program Files\Microsoft Visual Studio\2022\Community\VC\Tools\MSVC\14.40.33807\include\system_error

; 476  :         : runtime_error(_Makestr(_Errcode, _Message)), _Mycode(_Errcode) {}

	lea	rax, OFFSET FLAT:??_7_System_error@std@@6B@
	mov	QWORD PTR [rbx], rax
	movups	xmm0, XMMWORD PTR [rdi]
	movups	XMMWORD PTR [rbx+24], xmm0
; File C:\Program Files\Microsoft Visual Studio\2022\Community\VC\Tools\MSVC\14.40.33807\include\xstring

; 2244 :         return _Myres > _Small_string_capacity;

	mov	rdx, QWORD PTR $T1[rsp+24]
	cmp	rdx, 15

; 4868 :         if (_My_data._Large_mode_engaged()) {

	jbe	SHORT $LN99@system_err

; 2643 :         _Al.deallocate(_Old_ptr, _Capacity + 1); // +1 for null terminator

	inc	rdx
; File C:\Program Files\Microsoft Visual Studio\2022\Community\VC\Tools\MSVC\14.40.33807\include\xmemory

; 950  :         _STD _Deallocate<_New_alignof<_Ty>>(_Ptr, sizeof(_Ty) * _Count);

	mov	rcx, QWORD PTR $T1[rsp]
	mov	rax, rcx

; 253  :         if (_Bytes >= _Big_allocation_threshold) {

	cmp	rdx, 4096				; 00001000H
	jb	SHORT $LN113@system_err

; 171  :     _Bytes += _Non_user_size;

	add	rdx, 39					; 00000027H

; 172  : 
; 173  :     const uintptr_t* const _Ptr_user = static_cast<uintptr_t*>(_Ptr);
; 174  :     const uintptr_t _Ptr_container   = _Ptr_user[-1];

	mov	rcx, QWORD PTR [rcx-8]
	sub	rax, rcx

; 188  :     _STL_VERIFY(_Back_shift >= _Min_back_shift && _Back_shift <= _Non_user_size, "invalid argument");

	add	rax, -8
	cmp	rax, 31
	ja	SHORT $LN123@system_err
$LN113@system_err:

; 258  :         ::operator delete(_Ptr, _Bytes);

	call	??3@YAXPEAX_K@Z				; operator delete
$LN99@system_err:
; File C:\Program Files\Microsoft Visual Studio\2022\Community\VC\Tools\MSVC\14.40.33807\include\system_error

; 490  :     system_error(error_code _Errcode, const char* _Message) : _Mybase(_Errcode, _Message) {}

	lea	rax, OFFSET FLAT:??_7system_error@std@@6B@
	mov	QWORD PTR [rbx], rax
	mov	rax, rbx
	mov	rcx, QWORD PTR __$ArrayPad$[rsp]
	xor	rcx, rsp
	call	__security_check_cookie
	mov	rbx, QWORD PTR [rsp+200]
	add	rsp, 160				; 000000a0H
	pop	rdi
	ret	0
$LN123@system_err:
; File C:\Program Files\Microsoft Visual Studio\2022\Community\VC\Tools\MSVC\14.40.33807\include\xmemory

; 188  :     _STL_VERIFY(_Back_shift >= _Min_back_shift && _Back_shift <= _Non_user_size, "invalid argument");

	call	_invalid_parameter_noinfo_noreturn
	npad	1
$LN122@system_err:
	call	_invalid_parameter_noinfo_noreturn
	npad	1
$LN120@system_err:
??0system_error@std@@QEAA@Verror_code@1@PEBD@Z ENDP	; std::system_error::system_error
_TEXT	ENDS
; Function compile flags: /Ogtpy
;	COMDAT text$x
text$x	SEGMENT
$T1 = 32
$T2 = 64
$T3 = 96
_InitData$4 = 128
$T5 = 128
this$GSCopy$ = 128
__$ArrayPad$ = 144
this$ = 176
_Errcode$ = 184
_Message$ = 192
?dtor$0@?0???0system_error@std@@QEAA@Verror_code@1@PEBD@Z@4HA PROC ; `std::system_error::system_error'::`1'::dtor$0
	lea	rcx, QWORD PTR $T1[rdx]
	jmp	??1?$basic_string@DU?$char_traits@D@std@@V?$allocator@D@2@@std@@QEAA@XZ ; std::basic_string<char,std::char_traits<char>,std::allocator<char> >::~basic_string<char,std::char_traits<char>,std::allocator<char> >
?dtor$0@?0???0system_error@std@@QEAA@Verror_code@1@PEBD@Z@4HA ENDP ; `std::system_error::system_error'::`1'::dtor$0
text$x	ENDS
; Function compile flags: /Ogtpy
; File C:\Program Files\Microsoft Visual Studio\2022\Community\VC\Tools\MSVC\14.40.33807\include\vcruntime_exception.h
;	COMDAT ??_Gsystem_error@std@@UEAAPEAXI@Z
_TEXT	SEGMENT
this$ = 48
__flags$ = 56
??_Gsystem_error@std@@UEAAPEAXI@Z PROC			; std::system_error::`scalar deleting destructor', COMDAT
$LN27:
	mov	QWORD PTR [rsp+8], rbx
	push	rdi
	sub	rsp, 32					; 00000020H

; 90   :     {

	lea	rax, OFFSET FLAT:??_7exception@std@@6B@
	mov	rdi, rcx
	mov	QWORD PTR [rcx], rax
	mov	ebx, edx

; 91   :         __std_exception_destroy(&_Data);

	add	rcx, 8
	call	__std_exception_destroy
	test	bl, 1
	je	SHORT $LN23@scalar
	mov	edx, 40					; 00000028H
	mov	rcx, rdi
	call	??3@YAXPEAX_K@Z				; operator delete
$LN23@scalar:
	mov	rbx, QWORD PTR [rsp+48]
	mov	rax, rdi
	add	rsp, 32					; 00000020H
	pop	rdi
	ret	0
??_Gsystem_error@std@@UEAAPEAXI@Z ENDP			; std::system_error::`scalar deleting destructor'
_TEXT	ENDS
; Function compile flags: /Ogtpy
; File C:\Program Files\Microsoft Visual Studio\2022\Community\VC\Tools\MSVC\14.40.33807\include\vcruntime_exception.h
;	COMDAT ??1system_error@std@@UEAA@XZ
_TEXT	SEGMENT
this$ = 8
??1system_error@std@@UEAA@XZ PROC			; std::system_error::~system_error, COMDAT

; 90   :     {

	lea	rax, OFFSET FLAT:??_7exception@std@@6B@
	mov	QWORD PTR [rcx], rax

; 91   :         __std_exception_destroy(&_Data);

	add	rcx, 8
	jmp	__std_exception_destroy
??1system_error@std@@UEAA@XZ ENDP			; std::system_error::~system_error
_TEXT	ENDS
; Function compile flags: /Ogtpy
; File C:\Program Files\Microsoft Visual Studio\2022\Community\VC\Tools\MSVC\14.40.33807\include\vcruntime_exception.h
;	COMDAT ??0system_error@std@@QEAA@AEBV01@@Z
_TEXT	SEGMENT
this$ = 48
__that$ = 56
??0system_error@std@@QEAA@AEBV01@@Z PROC		; std::system_error::system_error, COMDAT
$LN19:
	mov	QWORD PTR [rsp+8], rbx
	push	rdi
	sub	rsp, 32					; 00000020H
	mov	rbx, rdx

; 73   :     {

	lea	rax, OFFSET FLAT:??_7exception@std@@6B@
	mov	QWORD PTR [rcx], rax
	lea	rdx, QWORD PTR [rcx+8]
	mov	rdi, rcx
	xorps	xmm0, xmm0

; 72   :         : _Data()

	movups	XMMWORD PTR [rdx], xmm0

; 74   :         __std_exception_copy(&_Other._Data, &_Data);

	lea	rcx, QWORD PTR [rbx+8]
	call	__std_exception_copy
	lea	rax, OFFSET FLAT:??_7_System_error@std@@6B@
	mov	QWORD PTR [rdi], rax
	lea	rax, OFFSET FLAT:??_7system_error@std@@6B@
	movups	xmm0, XMMWORD PTR [rbx+24]
	mov	rbx, QWORD PTR [rsp+48]
	mov	QWORD PTR [rdi], rax
	mov	rax, rdi
	movups	XMMWORD PTR [rdi+24], xmm0
	add	rsp, 32					; 00000020H
	pop	rdi
	ret	0
??0system_error@std@@QEAA@AEBV01@@Z ENDP		; std::system_error::system_error
_TEXT	ENDS
; Function compile flags: /Ogtpy
; File C:\Program Files\Microsoft Visual Studio\2022\Community\VC\Tools\MSVC\14.40.33807\include\vcruntime_exception.h
;	COMDAT ??0_System_error@std@@QEAA@AEBV01@@Z
_TEXT	SEGMENT
this$ = 48
__that$ = 56
??0_System_error@std@@QEAA@AEBV01@@Z PROC		; std::_System_error::_System_error, COMDAT
$LN14:
	mov	QWORD PTR [rsp+8], rbx
	push	rdi
	sub	rsp, 32					; 00000020H
	mov	rbx, rdx

; 73   :     {

	lea	rax, OFFSET FLAT:??_7exception@std@@6B@
	mov	QWORD PTR [rcx], rax
	lea	rdx, QWORD PTR [rcx+8]
	mov	rdi, rcx
	xorps	xmm0, xmm0

; 72   :         : _Data()

	movups	XMMWORD PTR [rdx], xmm0

; 74   :         __std_exception_copy(&_Other._Data, &_Data);

	lea	rcx, QWORD PTR [rbx+8]
	call	__std_exception_copy
	lea	rax, OFFSET FLAT:??_7_System_error@std@@6B@
	mov	QWORD PTR [rdi], rax
	mov	rax, rdi
	movups	xmm0, XMMWORD PTR [rbx+24]
	mov	rbx, QWORD PTR [rsp+48]
	movups	XMMWORD PTR [rdi+24], xmm0
	add	rsp, 32					; 00000020H
	pop	rdi
	ret	0
??0_System_error@std@@QEAA@AEBV01@@Z ENDP		; std::_System_error::_System_error
_TEXT	ENDS
; Function compile flags: /Ogtpy
; File C:\Program Files\Microsoft Visual Studio\2022\Community\VC\Tools\MSVC\14.40.33807\include\system_error
;	COMDAT ?name@_Iostream_error_category2@std@@UEBAPEBDXZ
_TEXT	SEGMENT
this$ = 8
?name@_Iostream_error_category2@std@@UEBAPEBDXZ PROC	; std::_Iostream_error_category2::name, COMDAT

; 552  :         return "iostream";

	lea	rax, OFFSET FLAT:??_C@_08LLGCOLLL@iostream@

; 553  :     }

	ret	0
?name@_Iostream_error_category2@std@@UEBAPEBDXZ ENDP	; std::_Iostream_error_category2::name
_TEXT	ENDS
; Function compile flags: /Ogtpy
; File C:\Program Files\Microsoft Visual Studio\2022\Community\VC\Tools\MSVC\14.40.33807\include\system_error
; File C:\Program Files\Microsoft Visual Studio\2022\Community\VC\Tools\MSVC\14.40.33807\include\xstring
; File C:\Program Files\Microsoft Visual Studio\2022\Community\VC\Tools\MSVC\14.40.33807\include\system_error
; File C:\Program Files\Microsoft Visual Studio\2022\Community\VC\Tools\MSVC\14.40.33807\include\xstring
; File C:\Program Files\Microsoft Visual Studio\2022\Community\VC\Tools\MSVC\14.40.33807\include\system_error
;	COMDAT ?message@_Iostream_error_category2@std@@UEBA?AV?$basic_string@DU?$char_traits@D@std@@V?$allocator@D@2@@2@H@Z
_TEXT	SEGMENT
this$ = 64
__$ReturnUdt$ = 72
_Errcode$ = 80
?message@_Iostream_error_category2@std@@UEBA?AV?$basic_string@DU?$char_traits@D@std@@V?$allocator@D@2@@2@H@Z PROC ; std::_Iostream_error_category2::message, COMDAT

; 555  :     _NODISCARD string message(int _Errcode) const override {

$LN46:
	mov	QWORD PTR [rsp+8], rbx
	push	rdi
	sub	rsp, 48					; 00000030H
	xor	edi, edi
	mov	rbx, rdx

; 556  :         if (_Errcode == static_cast<int>(io_errc::stream)) {

	cmp	r8d, 1
	jne	SHORT $LN2@message
	xorps	xmm0, xmm0
; File C:\Program Files\Microsoft Visual Studio\2022\Community\VC\Tools\MSVC\14.40.33807\include\xstring

; 2547 :         _Construct<_Construct_strategy::_From_ptr>(_Ptr, _Count);

	mov	r8d, 21

; 2284 :         _CONSTEXPR20 _Bxty() noexcept : _Buf() {} // user-provided, for fancy pointers

	movups	XMMWORD PTR [rdx], xmm0

; 2308 :     size_type _Mysize = 0; // current length of string (size)

	mov	QWORD PTR [rdx+16], rdi

; 2309 :     size_type _Myres  = 0; // current storage reserved for string (capacity)

	mov	QWORD PTR [rdx+24], rdi

; 2547 :         _Construct<_Construct_strategy::_From_ptr>(_Ptr, _Count);

	lea	rdx, OFFSET FLAT:?_Iostream_error@?4??message@_Iostream_error_category2@std@@UEBA?AV?$basic_string@DU?$char_traits@D@std@@V?$allocator@D@2@@3@H@Z@4QBDB ; `std::_Iostream_error_category2::message'::`5'::_Iostream_error
; File C:\Program Files\Microsoft Visual Studio\2022\Community\VC\Tools\MSVC\14.40.33807\include\system_error

; 559  :             return string{_Iostream_error, _Iostream_error_length};

	jmp	SHORT $LN43@message
$LN2@message:

; 560  :         } else {
; 561  :             return _Syserror_map(_Errcode);

	mov	ecx, r8d
	call	?_Syserror_map@std@@YAPEBDH@Z		; std::_Syserror_map
	xorps	xmm0, xmm0
; File C:\Program Files\Microsoft Visual Studio\2022\Community\VC\Tools\MSVC\14.40.33807\include\xstring

; 398  :             return __builtin_strlen(_First);

	mov	r8, -1

; 2284 :         _CONSTEXPR20 _Bxty() noexcept : _Buf() {} // user-provided, for fancy pointers

	movups	XMMWORD PTR [rbx], xmm0

; 2308 :     size_type _Mysize = 0; // current length of string (size)

	mov	QWORD PTR [rbx+16], rdi

; 2309 :     size_type _Myres  = 0; // current storage reserved for string (capacity)

	mov	QWORD PTR [rbx+24], rdi
	npad	1
$LL40@message:

; 398  :             return __builtin_strlen(_First);

	inc	r8
	cmp	BYTE PTR [rax+r8], dil
	jne	SHORT $LL40@message

; 2560 :         _Construct<_Construct_strategy::_From_ptr>(_Ptr, _Convert_size<size_type>(_Traits::length(_Ptr)));

	mov	rdx, rax
$LN43@message:
; File C:\Program Files\Microsoft Visual Studio\2022\Community\VC\Tools\MSVC\14.40.33807\include\system_error

; 563  :     }

	mov	rcx, rbx
	call	??$_Construct@$00PEBD@?$basic_string@DU?$char_traits@D@std@@V?$allocator@D@2@@std@@AEAAXQEBD_K@Z ; std::basic_string<char,std::char_traits<char>,std::allocator<char> >::_Construct<1,char const *>
	mov	rax, rbx
	mov	rbx, QWORD PTR [rsp+64]
	add	rsp, 48					; 00000030H
	pop	rdi
	ret	0
?message@_Iostream_error_category2@std@@UEBA?AV?$basic_string@DU?$char_traits@D@std@@V?$allocator@D@2@@2@H@Z ENDP ; std::_Iostream_error_category2::message
_TEXT	ENDS
; Function compile flags: /Ogtpy
;	COMDAT ??_G_Iostream_error_category2@std@@UEAAPEAXI@Z
_TEXT	SEGMENT
this$ = 48
__flags$ = 56
??_G_Iostream_error_category2@std@@UEAAPEAXI@Z PROC	; std::_Iostream_error_category2::`scalar deleting destructor', COMDAT
$LN9:
	push	rbx
	sub	rsp, 32					; 00000020H
	mov	rbx, rcx
	test	dl, 1
	je	SHORT $LN5@scalar
	mov	edx, 16
	call	??3@YAXPEAX_K@Z				; operator delete
$LN5@scalar:
	mov	rax, rbx
	add	rsp, 32					; 00000020H
	pop	rbx
	ret	0
??_G_Iostream_error_category2@std@@UEAAPEAXI@Z ENDP	; std::_Iostream_error_category2::`scalar deleting destructor'
_TEXT	ENDS
; Function compile flags: /Ogtpy
;	COMDAT ??1_Iostream_error_category2@std@@UEAA@XZ
_TEXT	SEGMENT
this$ = 8
??1_Iostream_error_category2@std@@UEAA@XZ PROC		; std::_Iostream_error_category2::~_Iostream_error_category2, COMDAT
	ret	0
??1_Iostream_error_category2@std@@UEAA@XZ ENDP		; std::_Iostream_error_category2::~_Iostream_error_category2
_TEXT	ENDS
; Function compile flags: /Ogtpy
; File C:\Program Files\Microsoft Visual Studio\2022\Community\VC\Tools\MSVC\14.40.33807\include\system_error
;	COMDAT ?iostream_category@std@@YAAEBVerror_category@1@XZ
_TEXT	SEGMENT
?iostream_category@std@@YAAEBVerror_category@1@XZ PROC	; std::iostream_category, COMDAT

; 697  :     return _Immortalize_memcpy_image<_Iostream_error_category2>();

	lea	rax, OFFSET FLAT:?_Static@?1???$_Immortalize_memcpy_image@V_Iostream_error_category2@std@@@std@@YAAEBV_Iostream_error_category2@1@XZ@4V21@B ; `std::_Immortalize_memcpy_image<std::_Iostream_error_category2>'::`2'::_Static

; 698  : }

	ret	0
?iostream_category@std@@YAAEBVerror_category@1@XZ ENDP	; std::iostream_category
_TEXT	ENDS
; Function compile flags: /Ogtpy
; File C:\Program Files\Microsoft Visual Studio\2022\Community\VC\Tools\MSVC\14.40.33807\include\vcruntime_typeinfo.h
; File C:\Program Files\Microsoft Visual Studio\2022\Community\VC\Tools\MSVC\14.40.33807\include\vcruntime_exception.h
; File C:\Program Files\Microsoft Visual Studio\2022\Community\VC\Tools\MSVC\14.40.33807\include\vcruntime_typeinfo.h
;	COMDAT ??0bad_cast@std@@QEAA@XZ
_TEXT	SEGMENT
this$ = 8
??0bad_cast@std@@QEAA@XZ PROC				; std::bad_cast::bad_cast, COMDAT
; File C:\Program Files\Microsoft Visual Studio\2022\Community\VC\Tools\MSVC\14.40.33807\include\vcruntime_exception.h

; 68   :         _Data._What = _Message;

	lea	rax, OFFSET FLAT:??_C@_08EPJLHIJG@bad?5cast@
	mov	QWORD PTR [rcx+16], 0
	mov	QWORD PTR [rcx+8], rax
; File C:\Program Files\Microsoft Visual Studio\2022\Community\VC\Tools\MSVC\14.40.33807\include\vcruntime_typeinfo.h

; 153  :     {

	lea	rax, OFFSET FLAT:??_7bad_cast@std@@6B@
	mov	QWORD PTR [rcx], rax

; 154  :     }

	mov	rax, rcx
	ret	0
??0bad_cast@std@@QEAA@XZ ENDP				; std::bad_cast::bad_cast
_TEXT	ENDS
; Function compile flags: /Ogtpy
; File C:\Program Files\Microsoft Visual Studio\2022\Community\VC\Tools\MSVC\14.40.33807\include\vcruntime_exception.h
;	COMDAT ??_Gbad_cast@std@@UEAAPEAXI@Z
_TEXT	SEGMENT
this$ = 48
__flags$ = 56
??_Gbad_cast@std@@UEAAPEAXI@Z PROC			; std::bad_cast::`scalar deleting destructor', COMDAT
$LN17:
	mov	QWORD PTR [rsp+8], rbx
	push	rdi
	sub	rsp, 32					; 00000020H

; 90   :     {

	lea	rax, OFFSET FLAT:??_7exception@std@@6B@
	mov	rdi, rcx
	mov	QWORD PTR [rcx], rax
	mov	ebx, edx

; 91   :         __std_exception_destroy(&_Data);

	add	rcx, 8
	call	__std_exception_destroy
	test	bl, 1
	je	SHORT $LN13@scalar
	mov	edx, 24
	mov	rcx, rdi
	call	??3@YAXPEAX_K@Z				; operator delete
$LN13@scalar:
	mov	rbx, QWORD PTR [rsp+48]
	mov	rax, rdi
	add	rsp, 32					; 00000020H
	pop	rdi
	ret	0
??_Gbad_cast@std@@UEAAPEAXI@Z ENDP			; std::bad_cast::`scalar deleting destructor'
_TEXT	ENDS
; Function compile flags: /Ogtpy
; File C:\Program Files\Microsoft Visual Studio\2022\Community\VC\Tools\MSVC\14.40.33807\include\vcruntime_exception.h
;	COMDAT ??1bad_cast@std@@UEAA@XZ
_TEXT	SEGMENT
this$ = 8
??1bad_cast@std@@UEAA@XZ PROC				; std::bad_cast::~bad_cast, COMDAT

; 90   :     {

	lea	rax, OFFSET FLAT:??_7exception@std@@6B@
	mov	QWORD PTR [rcx], rax

; 91   :         __std_exception_destroy(&_Data);

	add	rcx, 8
	jmp	__std_exception_destroy
??1bad_cast@std@@UEAA@XZ ENDP				; std::bad_cast::~bad_cast
_TEXT	ENDS
; Function compile flags: /Ogtpy
; File C:\Program Files\Microsoft Visual Studio\2022\Community\VC\Tools\MSVC\14.40.33807\include\typeinfo
;	COMDAT ?_Throw_bad_cast@std@@YAXXZ
_TEXT	SEGMENT
$T1 = 32
?_Throw_bad_cast@std@@YAXXZ PROC			; std::_Throw_bad_cast, COMDAT

; 77   : [[noreturn]] inline void _Throw_bad_cast() {

$LN4:
	sub	rsp, 72					; 00000048H

; 78   :     _THROW(bad_cast{});

	lea	rcx, QWORD PTR $T1[rsp]
	call	??0bad_cast@std@@QEAA@XZ		; std::bad_cast::bad_cast
	lea	rdx, OFFSET FLAT:_TI2?AVbad_cast@std@@
	lea	rcx, QWORD PTR $T1[rsp]
	call	_CxxThrowException
	int	3
$LN3@Throw_bad_:
?_Throw_bad_cast@std@@YAXXZ ENDP			; std::_Throw_bad_cast
_TEXT	ENDS
; Function compile flags: /Ogtpy
; File C:\Program Files\Microsoft Visual Studio\2022\Community\VC\Tools\MSVC\14.40.33807\include\vcruntime_exception.h
;	COMDAT ??0bad_cast@std@@QEAA@AEBV01@@Z
_TEXT	SEGMENT
this$ = 48
__that$ = 56
??0bad_cast@std@@QEAA@AEBV01@@Z PROC			; std::bad_cast::bad_cast, COMDAT
$LN9:
	push	rbx
	sub	rsp, 32					; 00000020H
	mov	rbx, rcx
	mov	rax, rdx

; 73   :     {

	lea	rcx, OFFSET FLAT:??_7exception@std@@6B@
	xorps	xmm0, xmm0

; 72   :         : _Data()

	lea	rdx, QWORD PTR [rbx+8]

; 73   :     {

	mov	QWORD PTR [rbx], rcx

; 74   :         __std_exception_copy(&_Other._Data, &_Data);

	lea	rcx, QWORD PTR [rax+8]
	movups	XMMWORD PTR [rdx], xmm0
	call	__std_exception_copy
	lea	rax, OFFSET FLAT:??_7bad_cast@std@@6B@
	mov	QWORD PTR [rbx], rax
	mov	rax, rbx
	add	rsp, 32					; 00000020H
	pop	rbx
	ret	0
??0bad_cast@std@@QEAA@AEBV01@@Z ENDP			; std::bad_cast::bad_cast
_TEXT	ENDS
; Function compile flags: /Ogtpy
; File C:\Program Files\Microsoft Visual Studio\2022\Community\VC\Tools\MSVC\14.40.33807\include\xfacet
;	COMDAT ??1_Facet_base@std@@UEAA@XZ
_TEXT	SEGMENT
this$ = 8
??1_Facet_base@std@@UEAA@XZ PROC			; std::_Facet_base::~_Facet_base, COMDAT

; 25   :     virtual __CLR_OR_THIS_CALL ~_Facet_base() noexcept {} // ensure that derived classes can be destroyed properly

	lea	rax, OFFSET FLAT:??_7_Facet_base@std@@6B@
	mov	QWORD PTR [rcx], rax
	ret	0
??1_Facet_base@std@@UEAA@XZ ENDP			; std::_Facet_base::~_Facet_base
_TEXT	ENDS
; Function compile flags: /Ogtpy
;	COMDAT ??_G_Facet_base@std@@UEAAPEAXI@Z
_TEXT	SEGMENT
this$ = 48
__flags$ = 56
??_G_Facet_base@std@@UEAAPEAXI@Z PROC			; std::_Facet_base::`scalar deleting destructor', COMDAT
$LN9:
	push	rbx
	sub	rsp, 32					; 00000020H
	lea	rax, OFFSET FLAT:??_7_Facet_base@std@@6B@
	mov	rbx, rcx
	mov	QWORD PTR [rcx], rax
	test	dl, 1
	je	SHORT $LN5@scalar
	mov	edx, 8
	call	??3@YAXPEAX_K@Z				; operator delete
$LN5@scalar:
	mov	rax, rbx
	add	rsp, 32					; 00000020H
	pop	rbx
	ret	0
??_G_Facet_base@std@@UEAAPEAXI@Z ENDP			; std::_Facet_base::`scalar deleting destructor'
_TEXT	ENDS
; Function compile flags: /Ogtpy
; File C:\Program Files\Microsoft Visual Studio\2022\Community\VC\Tools\MSVC\14.40.33807\include\xlocinfo
;	COMDAT ??0_Locinfo@std@@QEAA@PEBD@Z
_TEXT	SEGMENT
this$ = 48
_Pch$ = 56
??0_Locinfo@std@@QEAA@PEBD@Z PROC			; std::_Locinfo::_Locinfo, COMDAT

; 234  :     {

$LN32:
	mov	QWORD PTR [rsp+16], rbx
	mov	QWORD PTR [rsp+8], rcx
	push	rdi
	sub	rsp, 32					; 00000020H
	mov	rdi, rdx
	mov	rbx, rcx

; 141  : 
; 142  :     __CLR_OR_THIS_CALL _Yarn(const _Yarn& _Right) noexcept : _Myptr(nullptr), _Nul(0) {
; 143  :         *this = _Right;
; 144  :     }
; 145  : 
; 146  :     __CLR_OR_THIS_CALL _Yarn(const _Elem* _Right) noexcept : _Myptr(nullptr), _Nul(0) {
; 147  :         *this = _Right;
; 148  :     }
; 149  : 
; 150  :     _Yarn& __CLR_OR_THIS_CALL operator=(const _Yarn& _Right) noexcept {
; 151  :         return *this = _Right._Myptr;
; 152  :     }
; 153  : 
; 154  :     _Yarn& __CLR_OR_THIS_CALL operator=(const _Elem* _Right) noexcept {
; 155  :         if (_Myptr != _Right) { // new value, discard old and copy new
; 156  :             _Tidy();
; 157  : 
; 158  :             if (_Right) { // new is not empty, copy it
; 159  :                 const _Elem* _Ptr = _Right;
; 160  :                 while (*_Ptr != _Elem{}) {
; 161  :                     ++_Ptr;
; 162  :                 }
; 163  : 
; 164  :                 const auto _Count = (++_Ptr - _Right) * sizeof(_Elem);
; 165  : 
; 166  : #ifdef _DEBUG
; 167  :                 _Myptr = static_cast<_Elem*>(_malloc_dbg(_Count, _CRT_BLOCK, __FILE__, __LINE__));
; 168  : #else
; 169  :                 _Myptr = static_cast<_Elem*>(_CSTD malloc(_Count));
; 170  : #endif
; 171  : 
; 172  :                 if (_Myptr) {
; 173  :                     _CSTD memcpy(_Myptr, _Right, _Count);
; 174  :                 }
; 175  :             }
; 176  :         }
; 177  : 
; 178  :         return *this;
; 179  :     }
; 180  : 
; 181  :     __CLR_OR_THIS_CALL ~_Yarn() noexcept {
; 182  :         _Tidy();
; 183  :     }
; 184  : 
; 185  :     _NODISCARD bool __CLR_OR_THIS_CALL empty() const noexcept {
; 186  :         return _Myptr == nullptr;
; 187  :     }
; 188  : 
; 189  :     _Ret_z_ const _Elem* __CLR_OR_THIS_CALL c_str() const noexcept {
; 190  :         return _Myptr ? _Myptr : &_Nul;
; 191  :     }
; 192  : 
; 193  :     _NODISCARD bool __CLR_OR_THIS_CALL _Empty() const noexcept {
; 194  :         return _Myptr == nullptr;
; 195  :     }
; 196  : 
; 197  :     _Ret_z_ const _Elem* __CLR_OR_THIS_CALL _C_str() const noexcept {
; 198  :         return _Myptr ? _Myptr : &_Nul;
; 199  :     }
; 200  : 
; 201  : private:
; 202  :     void __CLR_OR_THIS_CALL _Tidy() noexcept {
; 203  :         if (_Myptr) {
; 204  : #ifdef _DEBUG
; 205  :             _free_dbg(_Myptr, _CRT_BLOCK);
; 206  : #else
; 207  :             _CSTD free(_Myptr);
; 208  : #endif
; 209  :         }
; 210  : 
; 211  :         _Myptr = nullptr;
; 212  :     }
; 213  : 
; 214  :     _Elem* _Myptr; // pointer to allocated string
; 215  :     _Elem _Nul; // nul terminator for unallocated string
; 216  : };
; 217  : 
; 218  : extern "C++" class _CRTIMP2_PURE_IMPORT _Locinfo { // summary of all stuff specific to a locale used by standard facets
; 219  : public:
; 220  :     using _Collvec  = ::_Collvec;
; 221  :     using _Ctypevec = ::_Ctypevec;
; 222  :     using _Cvtvec   = ::_Cvtvec;
; 223  :     using _Timevec  = _STD _Timevec;
; 224  : 
; 225  :     static void __CLRCALL_PURE_OR_CDECL _Locinfo_ctor(_Locinfo*, const char*);
; 226  :     static void __CLRCALL_PURE_OR_CDECL _Locinfo_ctor(_Locinfo*, int, const char*);
; 227  :     static void __CLRCALL_PURE_OR_CDECL _Locinfo_dtor(_Locinfo*);
; 228  :     static _Locinfo& __CLRCALL_PURE_OR_CDECL _Locinfo_Addcats(_Locinfo*, int, const char*);
; 229  : 
; 230  :     __CLR_OR_THIS_CALL _Locinfo(const char* _Pch = "C")
; 231  : #ifndef _M_CEE_PURE
; 232  :         : _Lock(_LOCK_LOCALE)

	xor	edx, edx
	call	??0_Lockit@std@@QEAA@H@Z		; std::_Lockit::_Lockit
	npad	1

; 140  :     __CLR_OR_THIS_CALL _Yarn() noexcept : _Myptr(nullptr), _Nul(0) {}

	xor	eax, eax
	mov	QWORD PTR [rbx+8], rax
	mov	BYTE PTR [rbx+16], al
	mov	QWORD PTR [rbx+24], rax
	mov	BYTE PTR [rbx+32], al
	mov	QWORD PTR [rbx+40], rax
	mov	WORD PTR [rbx+48], ax
	mov	QWORD PTR [rbx+56], rax
	mov	WORD PTR [rbx+64], ax
	mov	QWORD PTR [rbx+72], rax
	mov	BYTE PTR [rbx+80], al
	mov	QWORD PTR [rbx+88], rax
	mov	BYTE PTR [rbx+96], al

; 235  :         if (_Pch) {

	test	rdi, rdi
	je	SHORT $LN2@Locinfo

; 236  :             _Locinfo_ctor(this, _Pch);

	mov	rdx, rdi
	mov	rcx, rbx
	call	?_Locinfo_ctor@_Locinfo@std@@SAXPEAV12@PEBD@Z ; std::_Locinfo::_Locinfo_ctor
	npad	1

; 241  :     }

	mov	rax, rbx
	mov	rbx, QWORD PTR [rsp+56]
	add	rsp, 32					; 00000020H
	pop	rdi
	ret	0
$LN2@Locinfo:

; 237  :             return;
; 238  :         }
; 239  : 
; 240  :         _Xruntime_error("bad locale name");

	lea	rcx, OFFSET FLAT:??_C@_0BA@ELKIONDK@bad?5locale?5name@
	call	?_Xruntime_error@std@@YAXPEBD@Z		; std::_Xruntime_error
	int	3
$LN29@Locinfo:
??0_Locinfo@std@@QEAA@PEBD@Z ENDP			; std::_Locinfo::_Locinfo
_TEXT	ENDS
; Function compile flags: /Ogtpy
;	COMDAT text$x
text$x	SEGMENT
this$ = 48
_Pch$ = 56
?dtor$0@?0???0_Locinfo@std@@QEAA@PEBD@Z@4HA PROC	; `std::_Locinfo::_Locinfo'::`1'::dtor$0
	mov	rcx, QWORD PTR this$[rdx]
	jmp	??1_Lockit@std@@QEAA@XZ			; std::_Lockit::~_Lockit
?dtor$0@?0???0_Locinfo@std@@QEAA@PEBD@Z@4HA ENDP	; `std::_Locinfo::_Locinfo'::`1'::dtor$0
text$x	ENDS
; Function compile flags: /Ogtpy
;	COMDAT text$x
text$x	SEGMENT
this$ = 48
_Pch$ = 56
?dtor$1@?0???0_Locinfo@std@@QEAA@PEBD@Z@4HA PROC	; `std::_Locinfo::_Locinfo'::`1'::dtor$1
	mov	rcx, QWORD PTR this$[rdx]
	add	rcx, 8
	jmp	??1?$_Yarn@D@std@@QEAA@XZ		; std::_Yarn<char>::~_Yarn<char>
?dtor$1@?0???0_Locinfo@std@@QEAA@PEBD@Z@4HA ENDP	; `std::_Locinfo::_Locinfo'::`1'::dtor$1
text$x	ENDS
; Function compile flags: /Ogtpy
;	COMDAT text$x
text$x	SEGMENT
this$ = 48
_Pch$ = 56
?dtor$2@?0???0_Locinfo@std@@QEAA@PEBD@Z@4HA PROC	; `std::_Locinfo::_Locinfo'::`1'::dtor$2
	mov	rcx, QWORD PTR this$[rdx]
	add	rcx, 24
	jmp	??1?$_Yarn@D@std@@QEAA@XZ		; std::_Yarn<char>::~_Yarn<char>
?dtor$2@?0???0_Locinfo@std@@QEAA@PEBD@Z@4HA ENDP	; `std::_Locinfo::_Locinfo'::`1'::dtor$2
text$x	ENDS
; Function compile flags: /Ogtpy
;	COMDAT text$x
text$x	SEGMENT
this$ = 48
_Pch$ = 56
?dtor$3@?0???0_Locinfo@std@@QEAA@PEBD@Z@4HA PROC	; `std::_Locinfo::_Locinfo'::`1'::dtor$3
	mov	rcx, QWORD PTR this$[rdx]
	add	rcx, 40					; 00000028H
	jmp	??1?$_Yarn@_W@std@@QEAA@XZ		; std::_Yarn<wchar_t>::~_Yarn<wchar_t>
?dtor$3@?0???0_Locinfo@std@@QEAA@PEBD@Z@4HA ENDP	; `std::_Locinfo::_Locinfo'::`1'::dtor$3
text$x	ENDS
; Function compile flags: /Ogtpy
;	COMDAT text$x
text$x	SEGMENT
this$ = 48
_Pch$ = 56
?dtor$4@?0???0_Locinfo@std@@QEAA@PEBD@Z@4HA PROC	; `std::_Locinfo::_Locinfo'::`1'::dtor$4
	mov	rcx, QWORD PTR this$[rdx]
	add	rcx, 56					; 00000038H
	jmp	??1?$_Yarn@_W@std@@QEAA@XZ		; std::_Yarn<wchar_t>::~_Yarn<wchar_t>
?dtor$4@?0???0_Locinfo@std@@QEAA@PEBD@Z@4HA ENDP	; `std::_Locinfo::_Locinfo'::`1'::dtor$4
text$x	ENDS
; Function compile flags: /Ogtpy
;	COMDAT text$x
text$x	SEGMENT
this$ = 48
_Pch$ = 56
?dtor$5@?0???0_Locinfo@std@@QEAA@PEBD@Z@4HA PROC	; `std::_Locinfo::_Locinfo'::`1'::dtor$5
	mov	rcx, QWORD PTR this$[rdx]
	add	rcx, 72					; 00000048H
	jmp	??1?$_Yarn@D@std@@QEAA@XZ		; std::_Yarn<char>::~_Yarn<char>
?dtor$5@?0???0_Locinfo@std@@QEAA@PEBD@Z@4HA ENDP	; `std::_Locinfo::_Locinfo'::`1'::dtor$5
text$x	ENDS
; Function compile flags: /Ogtpy
;	COMDAT text$x
text$x	SEGMENT
this$ = 48
_Pch$ = 56
?dtor$6@?0???0_Locinfo@std@@QEAA@PEBD@Z@4HA PROC	; `std::_Locinfo::_Locinfo'::`1'::dtor$6
	mov	rcx, QWORD PTR this$[rdx]
	add	rcx, 88					; 00000058H
	jmp	??1?$_Yarn@D@std@@QEAA@XZ		; std::_Yarn<char>::~_Yarn<char>
?dtor$6@?0???0_Locinfo@std@@QEAA@PEBD@Z@4HA ENDP	; `std::_Locinfo::_Locinfo'::`1'::dtor$6
text$x	ENDS
; Function compile flags: /Ogtpy
; File C:\Program Files\Microsoft Visual Studio\2022\Community\VC\Tools\MSVC\14.40.33807\include\xlocinfo
;	COMDAT ??1_Locinfo@std@@QEAA@XZ
_TEXT	SEGMENT
this$ = 48
??1_Locinfo@std@@QEAA@XZ PROC				; std::_Locinfo::~_Locinfo, COMDAT

; 256  :     __CLR_OR_THIS_CALL ~_Locinfo() noexcept {

$LN48:
	mov	QWORD PTR [rsp+8], rbx
	push	rdi
	sub	rsp, 32					; 00000020H
	mov	rbx, rcx

; 257  :         _Locinfo_dtor(this);

	call	?_Locinfo_dtor@_Locinfo@std@@SAXPEAV12@@Z ; std::_Locinfo::_Locinfo_dtor

; 203  :         if (_Myptr) {

	mov	rcx, QWORD PTR [rbx+88]
	test	rcx, rcx
	je	SHORT $LN8@Locinfo

; 204  : #ifdef _DEBUG
; 205  :             _free_dbg(_Myptr, _CRT_BLOCK);
; 206  : #else
; 207  :             _CSTD free(_Myptr);

	call	free
$LN8@Locinfo:

; 208  : #endif
; 209  :         }
; 210  : 
; 211  :         _Myptr = nullptr;

	xor	edi, edi
	mov	QWORD PTR [rbx+88], rdi

; 203  :         if (_Myptr) {

	mov	rcx, QWORD PTR [rbx+72]
	test	rcx, rcx
	je	SHORT $LN15@Locinfo

; 204  : #ifdef _DEBUG
; 205  :             _free_dbg(_Myptr, _CRT_BLOCK);
; 206  : #else
; 207  :             _CSTD free(_Myptr);

	call	free
$LN15@Locinfo:

; 208  : #endif
; 209  :         }
; 210  : 
; 211  :         _Myptr = nullptr;

	mov	QWORD PTR [rbx+72], rdi

; 203  :         if (_Myptr) {

	mov	rcx, QWORD PTR [rbx+56]
	test	rcx, rcx
	je	SHORT $LN22@Locinfo

; 204  : #ifdef _DEBUG
; 205  :             _free_dbg(_Myptr, _CRT_BLOCK);
; 206  : #else
; 207  :             _CSTD free(_Myptr);

	call	free
$LN22@Locinfo:

; 208  : #endif
; 209  :         }
; 210  : 
; 211  :         _Myptr = nullptr;

	mov	QWORD PTR [rbx+56], rdi

; 203  :         if (_Myptr) {

	mov	rcx, QWORD PTR [rbx+40]
	test	rcx, rcx
	je	SHORT $LN29@Locinfo

; 204  : #ifdef _DEBUG
; 205  :             _free_dbg(_Myptr, _CRT_BLOCK);
; 206  : #else
; 207  :             _CSTD free(_Myptr);

	call	free
$LN29@Locinfo:

; 208  : #endif
; 209  :         }
; 210  : 
; 211  :         _Myptr = nullptr;

	mov	QWORD PTR [rbx+40], rdi

; 203  :         if (_Myptr) {

	mov	rcx, QWORD PTR [rbx+24]
	test	rcx, rcx
	je	SHORT $LN36@Locinfo

; 204  : #ifdef _DEBUG
; 205  :             _free_dbg(_Myptr, _CRT_BLOCK);
; 206  : #else
; 207  :             _CSTD free(_Myptr);

	call	free
$LN36@Locinfo:

; 208  : #endif
; 209  :         }
; 210  : 
; 211  :         _Myptr = nullptr;

	mov	QWORD PTR [rbx+24], rdi

; 203  :         if (_Myptr) {

	mov	rcx, QWORD PTR [rbx+8]
	test	rcx, rcx
	je	SHORT $LN43@Locinfo

; 204  : #ifdef _DEBUG
; 205  :             _free_dbg(_Myptr, _CRT_BLOCK);
; 206  : #else
; 207  :             _CSTD free(_Myptr);

	call	free
$LN43@Locinfo:

; 208  : #endif
; 209  :         }
; 210  : 
; 211  :         _Myptr = nullptr;

	mov	QWORD PTR [rbx+8], rdi

; 258  :     }

	mov	rcx, rbx
	mov	rbx, QWORD PTR [rsp+48]
	add	rsp, 32					; 00000020H
	pop	rdi
	jmp	??1_Lockit@std@@QEAA@XZ			; std::_Lockit::~_Lockit
??1_Locinfo@std@@QEAA@XZ ENDP				; std::_Locinfo::~_Locinfo
_TEXT	ENDS
; Function compile flags: /Ogtpy
; File C:\Program Files\Microsoft Visual Studio\2022\Community\VC\Tools\MSVC\14.40.33807\include\xlocinfo
;	COMDAT ?_Getctype@_Locinfo@std@@QEBA?AU_Ctypevec@@XZ
_TEXT	SEGMENT
$T1 = 32
this$ = 80
__$ReturnUdt$ = 88
?_Getctype@_Locinfo@std@@QEBA?AU_Ctypevec@@XZ PROC	; std::_Locinfo::_Getctype, COMDAT

; 276  :     _Ctypevec __CLR_OR_THIS_CALL _Getctype() const {

$LN4:
	push	rbx
	sub	rsp, 64					; 00000040H

; 277  :         return ::_Getctype();

	lea	rcx, QWORD PTR $T1[rsp]
	mov	rbx, rdx
	call	_Getctype
	movups	xmm0, XMMWORD PTR [rax]
	movups	xmm1, XMMWORD PTR [rax+16]
	mov	rax, rbx
	movups	XMMWORD PTR [rbx], xmm0
	movups	XMMWORD PTR [rbx+16], xmm1

; 278  :     }

	add	rsp, 64					; 00000040H
	pop	rbx
	ret	0
?_Getctype@_Locinfo@std@@QEBA?AU_Ctypevec@@XZ ENDP	; std::_Locinfo::_Getctype
_TEXT	ENDS
; Function compile flags: /Ogtpy
; File C:\Program Files\Microsoft Visual Studio\2022\Community\VC\Tools\MSVC\14.40.33807\include\xlocale
;	COMDAT ??Bid@locale@std@@QEAA_KXZ
_TEXT	SEGMENT
_Lock$1 = 32
__$ArrayPad$ = 40
this$ = 64
??Bid@locale@std@@QEAA_KXZ PROC				; std::locale::id::operator unsigned __int64, COMDAT

; 82   :         __CLR_OR_THIS_CALL operator size_t() { // get stamp, with lazy allocation

$LN10:
	push	rbx
	sub	rsp, 48					; 00000030H
	mov	rax, QWORD PTR __security_cookie
	xor	rax, rsp
	mov	QWORD PTR __$ArrayPad$[rsp], rax

; 83   :             if (_Id == 0) { // still zero, allocate stamp

	cmp	QWORD PTR [rcx], 0
	mov	rbx, rcx
	jne	SHORT $LN5@operator

; 84   :                 _BEGIN_LOCK(_LOCK_LOCALE)

	xor	edx, edx
	lea	rcx, QWORD PTR _Lock$1[rsp]
	call	??0_Lockit@std@@QEAA@H@Z		; std::_Lockit::_Lockit

; 85   :                 if (_Id == 0) {

	cmp	QWORD PTR [rbx], 0
	jne	SHORT $LN3@operator

; 86   :                     _Id = static_cast<size_t>(++_Id_cnt);

	mov	ecx, DWORD PTR ?_Id_cnt@id@locale@std@@0HA ; std::locale::id::_Id_cnt
	inc	ecx
	mov	DWORD PTR ?_Id_cnt@id@locale@std@@0HA, ecx ; std::locale::id::_Id_cnt
	movsxd	rcx, ecx
	mov	QWORD PTR [rbx], rcx
$LN3@operator:

; 87   :                 }
; 88   :                 _END_LOCK()

	lea	rcx, QWORD PTR _Lock$1[rsp]
	call	??1_Lockit@std@@QEAA@XZ			; std::_Lockit::~_Lockit

; 89   :             }
; 90   :             return _Id;

	mov	rax, QWORD PTR [rbx]

; 91   :         }

	mov	rcx, QWORD PTR __$ArrayPad$[rsp]
	xor	rcx, rsp
	call	__security_check_cookie
	add	rsp, 48					; 00000030H
	pop	rbx
	ret	0
$LN5@operator:

; 89   :             }
; 90   :             return _Id;

	mov	rax, QWORD PTR [rcx]

; 91   :         }

	mov	rcx, QWORD PTR __$ArrayPad$[rsp]
	xor	rcx, rsp
	call	__security_check_cookie
	add	rsp, 48					; 00000030H
	pop	rbx
	ret	0
??Bid@locale@std@@QEAA_KXZ ENDP				; std::locale::id::operator unsigned __int64
_TEXT	ENDS
; Function compile flags: /Ogtpy
; File C:\Program Files\Microsoft Visual Studio\2022\Community\VC\Tools\MSVC\14.40.33807\include\xlocale
;	COMDAT ?_Incref@facet@locale@std@@UEAAXXZ
_TEXT	SEGMENT
this$ = 8
?_Incref@facet@locale@std@@UEAAXXZ PROC			; std::locale::facet::_Incref, COMDAT

; 113  :             _MT_INCR(_Myrefs);

	lock inc DWORD PTR [rcx+8]

; 114  :         }

	ret	0
?_Incref@facet@locale@std@@UEAAXXZ ENDP			; std::locale::facet::_Incref
_TEXT	ENDS
; Function compile flags: /Ogtpy
; File C:\Program Files\Microsoft Visual Studio\2022\Community\VC\Tools\MSVC\14.40.33807\include\xlocale
;	COMDAT ?_Decref@facet@locale@std@@UEAAPEAV_Facet_base@3@XZ
_TEXT	SEGMENT
this$ = 8
?_Decref@facet@locale@std@@UEAAPEAV_Facet_base@3@XZ PROC ; std::locale::facet::_Decref, COMDAT

; 117  :             if (_MT_DECR(_Myrefs) == 0) {

	lock add DWORD PTR [rcx+8], -1
	mov	eax, 0
	cmove	rax, rcx

; 118  :                 return this;
; 119  :             }
; 120  : 
; 121  :             return nullptr;
; 122  :         }

	ret	0
?_Decref@facet@locale@std@@UEAAPEAV_Facet_base@3@XZ ENDP ; std::locale::facet::_Decref
_TEXT	ENDS
; Function compile flags: /Ogtpy
; File C:\Program Files\Microsoft Visual Studio\2022\Community\VC\Tools\MSVC\14.40.33807\include\xlocale
;	COMDAT ??0facet@locale@std@@IEAA@_K@Z
_TEXT	SEGMENT
this$ = 8
_Initrefs$ = 16
??0facet@locale@std@@IEAA@_K@Z PROC			; std::locale::facet::facet, COMDAT

; 130  :         {}

	lea	rax, OFFSET FLAT:??_7facet@locale@std@@6B@

; 129  :             : _Myrefs(static_cast<_Atomic_counter_t>(_Initrefs)) // non-atomic initialization

	mov	DWORD PTR [rcx+8], edx
	mov	QWORD PTR [rcx], rax

; 130  :         {}

	mov	rax, rcx
	ret	0
??0facet@locale@std@@IEAA@_K@Z ENDP			; std::locale::facet::facet
_TEXT	ENDS
; Function compile flags: /Ogtpy
; File C:\Program Files\Microsoft Visual Studio\2022\Community\VC\Tools\MSVC\14.40.33807\include\xlocale
;	COMDAT ??1facet@locale@std@@MEAA@XZ
_TEXT	SEGMENT
this$ = 8
??1facet@locale@std@@MEAA@XZ PROC			; std::locale::facet::~facet, COMDAT

; 132  :         __CLR_OR_THIS_CALL ~facet() noexcept override {}

	lea	rax, OFFSET FLAT:??_7_Facet_base@std@@6B@
	mov	QWORD PTR [rcx], rax
	ret	0
??1facet@locale@std@@MEAA@XZ ENDP			; std::locale::facet::~facet
_TEXT	ENDS
; Function compile flags: /Ogtpy
; File C:\Program Files\Microsoft Visual Studio\2022\Community\VC\Tools\MSVC\14.40.33807\include\xlocale
;	COMDAT ??0locale@std@@QEAA@AEBV01@@Z
_TEXT	SEGMENT
this$ = 48
_Right$ = 56
??0locale@std@@QEAA@AEBV01@@Z PROC			; std::locale::locale, COMDAT

; 254  :     locale(const locale& _Right) noexcept : _Ptr(_Right._Ptr) {

$LN6:
	push	rbx
	sub	rsp, 32					; 00000020H
	mov	rbx, rcx
	mov	rcx, QWORD PTR [rdx+8]
	mov	QWORD PTR [rbx+8], rcx

; 255  :         _Ptr->_Incref();

	mov	rax, QWORD PTR [rcx]
	call	QWORD PTR [rax+8]

; 256  :     }

	mov	rax, rbx
	add	rsp, 32					; 00000020H
	pop	rbx
	ret	0
??0locale@std@@QEAA@AEBV01@@Z ENDP			; std::locale::locale
_TEXT	ENDS
; Function compile flags: /Ogtpy
; File C:\Program Files\Microsoft Visual Studio\2022\Community\VC\Tools\MSVC\14.40.33807\include\xlocale
;	COMDAT ??1locale@std@@QEAA@XZ
_TEXT	SEGMENT
this$ = 48
??1locale@std@@QEAA@XZ PROC				; std::locale::~locale, COMDAT

; 339  :     ~locale() noexcept {

$LN9:
	sub	rsp, 40					; 00000028H

; 340  :         if (_Ptr) {

	mov	rcx, QWORD PTR [rcx+8]
	test	rcx, rcx
	je	SHORT $LN4@locale

; 341  :             delete _Ptr->_Decref();

	mov	rax, QWORD PTR [rcx]
	call	QWORD PTR [rax+16]
	test	rax, rax
	je	SHORT $LN4@locale
	mov	r8, QWORD PTR [rax]
	mov	edx, 1
	mov	rcx, rax

; 342  :         }
; 343  :     }

	add	rsp, 40					; 00000028H

; 341  :             delete _Ptr->_Decref();

	rex_jmp	QWORD PTR [r8]
$LN4@locale:

; 342  :         }
; 343  :     }

	add	rsp, 40					; 00000028H
	ret	0
??1locale@std@@QEAA@XZ ENDP				; std::locale::~locale
_TEXT	ENDS
; Function compile flags: /Ogtpy
; File C:\Program Files\Microsoft Visual Studio\2022\Community\VC\Tools\MSVC\14.40.33807\include\xlocale
; File C:\Program Files\Microsoft Visual Studio\2022\Community\VC\Tools\MSVC\14.40.33807\include\xlocinfo
; File C:\Program Files\Microsoft Visual Studio\2022\Community\VC\Tools\MSVC\14.40.33807\include\xlocale
;	COMDAT ?_C_str@locale@std@@QEBAPEBDXZ
_TEXT	SEGMENT
this$ = 8
?_C_str@locale@std@@QEBAPEBDXZ PROC			; std::locale::_C_str, COMDAT

; 359  :         return _Ptr ? _Ptr->_Name.c_str() : "";

	mov	rdx, QWORD PTR [rcx+8]
	test	rdx, rdx
	je	SHORT $LN3@C_str
; File C:\Program Files\Microsoft Visual Studio\2022\Community\VC\Tools\MSVC\14.40.33807\include\xlocinfo

; 190  :         return _Myptr ? _Myptr : &_Nul;

	mov	rax, QWORD PTR [rdx+40]
	test	rax, rax
	jne	SHORT $LN4@C_str
	lea	rax, QWORD PTR [rdx+48]
; File C:\Program Files\Microsoft Visual Studio\2022\Community\VC\Tools\MSVC\14.40.33807\include\xlocale

; 360  :     }

	ret	0
$LN3@C_str:

; 359  :         return _Ptr ? _Ptr->_Name.c_str() : "";

	lea	rax, OFFSET FLAT:??_C@_00CNPNBAHC@@
$LN4@C_str:

; 360  :     }

	ret	0
?_C_str@locale@std@@QEBAPEBDXZ ENDP			; std::locale::_C_str
_TEXT	ENDS
; Function compile flags: /Ogtpy
; File C:\Program Files\Microsoft Visual Studio\2022\Community\VC\Tools\MSVC\14.40.33807\include\xlocale
;	COMDAT ?_Getfacet@locale@std@@QEBAPEBVfacet@12@_K@Z
_TEXT	SEGMENT
this$ = 48
_Id$ = 56
?_Getfacet@locale@std@@QEBAPEBVfacet@12@_K@Z PROC	; std::locale::_Getfacet, COMDAT

; 362  :     const facet* _Getfacet(size_t _Id) const { // look up a facet in locale object

$LN13:
	mov	QWORD PTR [rsp+8], rbx
	push	rdi
	sub	rsp, 32					; 00000020H
	mov	rbx, rdx

; 363  :         const facet* _Facptr = _Id < _Ptr->_Facetcount ? _Ptr->_Facetvec[_Id] : nullptr; // null if id off end

	mov	rdx, QWORD PTR [rcx+8]
	lea	rdi, QWORD PTR [rbx*8]
	cmp	rbx, QWORD PTR [rdx+24]
	jae	SHORT $LN6@Getfacet
	mov	rax, QWORD PTR [rdx+16]
	mov	rax, QWORD PTR [rdi+rax]

; 364  :         if (_Facptr || !_Ptr->_Xparent) {

	test	rax, rax
	jne	SHORT $LN3@Getfacet
	jmp	SHORT $LN8@Getfacet
$LN6@Getfacet:

; 363  :         const facet* _Facptr = _Id < _Ptr->_Facetcount ? _Ptr->_Facetvec[_Id] : nullptr; // null if id off end

	xor	eax, eax
$LN8@Getfacet:

; 364  :         if (_Facptr || !_Ptr->_Xparent) {

	cmp	BYTE PTR [rdx+36], 0
	je	SHORT $LN3@Getfacet

; 365  :             return _Facptr; // found facet or not transparent
; 366  :         }
; 367  : 
; 368  :         // look in current locale
; 369  :         locale::_Locimp* _Ptr0 = _Getgloballocale();

	call	?_Getgloballocale@locale@std@@CAPEAV_Locimp@12@XZ ; std::locale::_Getgloballocale

; 370  :         if (_Id < _Ptr0->_Facetcount) {

	cmp	rbx, QWORD PTR [rax+24]
	jae	SHORT $LN4@Getfacet

; 371  :             return _Ptr0->_Facetvec[_Id]; // get from current locale

	mov	rax, QWORD PTR [rax+16]
	mov	rax, QWORD PTR [rdi+rax]

; 375  :     }

	mov	rbx, QWORD PTR [rsp+48]
	add	rsp, 32					; 00000020H
	pop	rdi
	ret	0
$LN4@Getfacet:

; 372  :         }
; 373  : 
; 374  :         return nullptr; // no entry in current locale

	xor	eax, eax
$LN3@Getfacet:

; 375  :     }

	mov	rbx, QWORD PTR [rsp+48]
	add	rsp, 32					; 00000020H
	pop	rdi
	ret	0
?_Getfacet@locale@std@@QEBAPEBVfacet@12@_K@Z ENDP	; std::locale::_Getfacet
_TEXT	ENDS
; Function compile flags: /Ogtpy
;	COMDAT ??_Gfacet@locale@std@@MEAAPEAXI@Z
_TEXT	SEGMENT
this$ = 48
__flags$ = 56
??_Gfacet@locale@std@@MEAAPEAXI@Z PROC			; std::locale::facet::`scalar deleting destructor', COMDAT
$LN9:
	push	rbx
	sub	rsp, 32					; 00000020H
	lea	rax, OFFSET FLAT:??_7_Facet_base@std@@6B@
	mov	rbx, rcx
	mov	QWORD PTR [rcx], rax
	test	dl, 1
	je	SHORT $LN5@scalar
	mov	edx, 16
	call	??3@YAXPEAX_K@Z				; operator delete
$LN5@scalar:
	mov	rax, rbx
	add	rsp, 32					; 00000020H
	pop	rbx
	ret	0
??_Gfacet@locale@std@@MEAAPEAXI@Z ENDP			; std::locale::facet::`scalar deleting destructor'
_TEXT	ENDS
; Function compile flags: /Ogtpy
;	COMDAT ??0_Facet_base@std@@QEAA@XZ
_TEXT	SEGMENT
this$ = 8
??0_Facet_base@std@@QEAA@XZ PROC			; std::_Facet_base::_Facet_base, COMDAT
	lea	rax, OFFSET FLAT:??_7_Facet_base@std@@6B@
	mov	QWORD PTR [rcx], rax
	mov	rax, rcx
	ret	0
??0_Facet_base@std@@QEAA@XZ ENDP			; std::_Facet_base::_Facet_base
_TEXT	ENDS
; Function compile flags: /Ogtpy
; File C:\Program Files\Microsoft Visual Studio\2022\Community\VC\Tools\MSVC\14.40.33807\include\xlocale
;	COMDAT ??0ctype_base@std@@QEAA@_K@Z
_TEXT	SEGMENT
this$ = 8
_Refs$ = 16
??0ctype_base@std@@QEAA@_K@Z PROC			; std::ctype_base::ctype_base, COMDAT

; 2374 :         : locale::facet(_Refs) {}

	lea	rax, OFFSET FLAT:??_7ctype_base@std@@6B@

; 129  :             : _Myrefs(static_cast<_Atomic_counter_t>(_Initrefs)) // non-atomic initialization

	mov	DWORD PTR [rcx+8], edx

; 2374 :         : locale::facet(_Refs) {}

	mov	QWORD PTR [rcx], rax
	mov	rax, rcx
	ret	0
??0ctype_base@std@@QEAA@_K@Z ENDP			; std::ctype_base::ctype_base
_TEXT	ENDS
; Function compile flags: /Ogtpy
; File C:\Program Files\Microsoft Visual Studio\2022\Community\VC\Tools\MSVC\14.40.33807\include\xlocale
;	COMDAT ??1ctype_base@std@@UEAA@XZ
_TEXT	SEGMENT
this$ = 8
??1ctype_base@std@@UEAA@XZ PROC				; std::ctype_base::~ctype_base, COMDAT

; 2376 :     __CLR_OR_THIS_CALL ~ctype_base() noexcept override {}

	lea	rax, OFFSET FLAT:??_7_Facet_base@std@@6B@
	mov	QWORD PTR [rcx], rax
	ret	0
??1ctype_base@std@@UEAA@XZ ENDP				; std::ctype_base::~ctype_base
_TEXT	ENDS
; Function compile flags: /Ogtpy
;	COMDAT ??_Gctype_base@std@@UEAAPEAXI@Z
_TEXT	SEGMENT
this$ = 48
__flags$ = 56
??_Gctype_base@std@@UEAAPEAXI@Z PROC			; std::ctype_base::`scalar deleting destructor', COMDAT
$LN9:
	push	rbx
	sub	rsp, 32					; 00000020H
	lea	rax, OFFSET FLAT:??_7_Facet_base@std@@6B@
	mov	rbx, rcx
	mov	QWORD PTR [rcx], rax
	test	dl, 1
	je	SHORT $LN5@scalar
	mov	edx, 16
	call	??3@YAXPEAX_K@Z				; operator delete
$LN5@scalar:
	mov	rax, rbx
	add	rsp, 32					; 00000020H
	pop	rbx
	ret	0
??_Gctype_base@std@@UEAAPEAXI@Z ENDP			; std::ctype_base::`scalar deleting destructor'
_TEXT	ENDS
; Function compile flags: /Ogtpy
; File C:\Program Files\Microsoft Visual Studio\2022\Community\VC\Tools\MSVC\14.40.33807\include\xlocale
;	COMDAT ?widen@?$ctype@D@std@@QEBADD@Z
_TEXT	SEGMENT
this$ = 8
_Byte$ = 16
?widen@?$ctype@D@std@@QEBADD@Z PROC			; std::ctype<char>::widen, COMDAT

; 2681 :         return do_widen(_Byte);

	mov	rax, QWORD PTR [rcx]
	rex_jmp	QWORD PTR [rax+64]
?widen@?$ctype@D@std@@QEBADD@Z ENDP			; std::ctype<char>::widen
_TEXT	ENDS
; Function compile flags: /Ogtpy
; File C:\Program Files\Microsoft Visual Studio\2022\Community\VC\Tools\MSVC\14.40.33807\include\xlocale
; File C:\Program Files\Microsoft Visual Studio\2022\Community\VC\Tools\MSVC\14.40.33807\include\xlocinfo
; File C:\Program Files\Microsoft Visual Studio\2022\Community\VC\Tools\MSVC\14.40.33807\include\xlocale
;	COMDAT ??0?$ctype@D@std@@QEAA@AEBV_Locinfo@1@_K@Z
_TEXT	SEGMENT
$T1 = 32
this$ = 80
_Lobj$ = 88
_Refs$ = 96
??0?$ctype@D@std@@QEAA@AEBV_Locinfo@1@_K@Z PROC		; std::ctype<char>::ctype<char>, COMDAT

; 2717 :     __CLR_OR_THIS_CALL ctype(const _Locinfo& _Lobj, size_t _Refs = 0) : ctype_base(_Refs) {

$LN22:
	push	rbx
	sub	rsp, 64					; 00000040H
	lea	rax, OFFSET FLAT:??_7?$ctype@D@std@@6B@

; 129  :             : _Myrefs(static_cast<_Atomic_counter_t>(_Initrefs)) // non-atomic initialization

	mov	DWORD PTR [rcx+8], r8d

; 2717 :     __CLR_OR_THIS_CALL ctype(const _Locinfo& _Lobj, size_t _Refs = 0) : ctype_base(_Refs) {

	mov	QWORD PTR [rcx], rax
	mov	rbx, rcx
; File C:\Program Files\Microsoft Visual Studio\2022\Community\VC\Tools\MSVC\14.40.33807\include\xlocinfo

; 277  :         return ::_Getctype();

	lea	rcx, QWORD PTR $T1[rsp]
	call	_Getctype
	movups	xmm0, XMMWORD PTR [rax]
	movups	xmm1, XMMWORD PTR [rax+16]
; File C:\Program Files\Microsoft Visual Studio\2022\Community\VC\Tools\MSVC\14.40.33807\include\xlocale

; 2719 :     }

	mov	rax, rbx

; 2745 :         _Ctype = _Lobj._Getctype();

	movups	XMMWORD PTR [rbx+16], xmm0
	movups	XMMWORD PTR [rbx+32], xmm1

; 2719 :     }

	add	rsp, 64					; 00000040H
	pop	rbx
	ret	0
??0?$ctype@D@std@@QEAA@AEBV_Locinfo@1@_K@Z ENDP		; std::ctype<char>::ctype<char>
_TEXT	ENDS
; Function compile flags: /Ogtpy
; File C:\Program Files\Microsoft Visual Studio\2022\Community\VC\Tools\MSVC\14.40.33807\include\xlocale
; File C:\Program Files\Microsoft Visual Studio\2022\Community\VC\Tools\MSVC\14.40.33807\include\xlocinfo
; File C:\Program Files\Microsoft Visual Studio\2022\Community\VC\Tools\MSVC\14.40.33807\include\xlocale
; File C:\Program Files\Microsoft Visual Studio\2022\Community\VC\Tools\MSVC\14.40.33807\include\xlocinfo
; File C:\Program Files\Microsoft Visual Studio\2022\Community\VC\Tools\MSVC\14.40.33807\include\xlocale
; File C:\Program Files\Microsoft Visual Studio\2022\Community\VC\Tools\MSVC\14.40.33807\include\xlocinfo
; File C:\Program Files\Microsoft Visual Studio\2022\Community\VC\Tools\MSVC\14.40.33807\include\xlocale
; File C:\Program Files\Microsoft Visual Studio\2022\Community\VC\Tools\MSVC\14.40.33807\include\xlocinfo
; File C:\Program Files\Microsoft Visual Studio\2022\Community\VC\Tools\MSVC\14.40.33807\include\xlocale
; File C:\Program Files\Microsoft Visual Studio\2022\Community\VC\Tools\MSVC\14.40.33807\include\xlocinfo
; File C:\Program Files\Microsoft Visual Studio\2022\Community\VC\Tools\MSVC\14.40.33807\include\xlocale
;	COMDAT ?_Getcat@?$ctype@D@std@@SA_KPEAPEBVfacet@locale@2@PEBV42@@Z
_TEXT	SEGMENT
$T1 = 32
$T2 = 136
$T3 = 208
_Ppf$ = 208
_Ploc$ = 216
?_Getcat@?$ctype@D@std@@SA_KPEAPEBVfacet@locale@2@PEBV42@@Z PROC ; std::ctype<char>::_Getcat, COMDAT

; 2721 :     static size_t __CLRCALL_OR_CDECL _Getcat(const locale::facet** _Ppf = nullptr, const locale* _Ploc = nullptr) {

$LN118:
	mov	QWORD PTR [rsp+16], rbx
	mov	QWORD PTR [rsp+24], rsi
	push	rbp
	push	rdi
	push	r14
	lea	rbp, QWORD PTR [rsp-71]
	sub	rsp, 176				; 000000b0H
	mov	rbx, rdx
	mov	rdi, rcx
	xor	r14d, r14d

; 2722 :         if (_Ppf && !*_Ppf) {

	test	rcx, rcx
	je	$LN69@Getcat
	cmp	QWORD PTR [rcx], r14
	jne	$LN69@Getcat

; 2723 :             *_Ppf = new ctype<_Elem>(_Locinfo(_Ploc->_C_str()));

	mov	ecx, 48					; 00000030H
	call	??2@YAPEAX_K@Z				; operator new
	mov	rsi, rax
	mov	QWORD PTR $T3[rbp-105], rax

; 359  :         return _Ptr ? _Ptr->_Name.c_str() : "";

	mov	rcx, QWORD PTR [rbx+8]
	test	rcx, rcx
	je	SHORT $LN12@Getcat
; File C:\Program Files\Microsoft Visual Studio\2022\Community\VC\Tools\MSVC\14.40.33807\include\xlocinfo

; 190  :         return _Myptr ? _Myptr : &_Nul;

	mov	rbx, QWORD PTR [rcx+40]
	test	rbx, rbx
	jne	SHORT $LN13@Getcat
	lea	rbx, QWORD PTR [rcx+48]
; File C:\Program Files\Microsoft Visual Studio\2022\Community\VC\Tools\MSVC\14.40.33807\include\xlocale

; 359  :         return _Ptr ? _Ptr->_Name.c_str() : "";

	jmp	SHORT $LN13@Getcat
$LN12@Getcat:
	lea	rbx, OFFSET FLAT:??_C@_00CNPNBAHC@@
$LN13@Getcat:
; File C:\Program Files\Microsoft Visual Studio\2022\Community\VC\Tools\MSVC\14.40.33807\include\xlocinfo

; 232  :         : _Lock(_LOCK_LOCALE)

	xor	edx, edx
	lea	rcx, QWORD PTR $T1[rbp-105]
	call	??0_Lockit@std@@QEAA@H@Z		; std::_Lockit::_Lockit
	npad	1

; 140  :     __CLR_OR_THIS_CALL _Yarn() noexcept : _Myptr(nullptr), _Nul(0) {}

	mov	QWORD PTR $T1[rbp-97], r14
	mov	BYTE PTR $T1[rbp-89], 0
	mov	QWORD PTR $T1[rbp-81], r14
	mov	BYTE PTR $T1[rbp-73], 0
	mov	QWORD PTR $T1[rbp-65], r14
	mov	WORD PTR $T1[rbp-57], r14w
	mov	QWORD PTR $T1[rbp-49], r14
	mov	WORD PTR $T1[rbp-41], r14w
	mov	QWORD PTR $T1[rbp-33], r14
	mov	BYTE PTR $T1[rbp-25], 0
	mov	QWORD PTR $T1[rbp-17], r14
	mov	BYTE PTR $T1[rbp-9], 0

; 235  :         if (_Pch) {

	test	rbx, rbx
	je	$LN21@Getcat

; 236  :             _Locinfo_ctor(this, _Pch);

	mov	rdx, rbx
	lea	rcx, QWORD PTR $T1[rbp-105]
	call	?_Locinfo_ctor@_Locinfo@std@@SAXPEAV12@PEBD@Z ; std::_Locinfo::_Locinfo_ctor
	npad	1
; File C:\Program Files\Microsoft Visual Studio\2022\Community\VC\Tools\MSVC\14.40.33807\include\xlocale

; 129  :             : _Myrefs(static_cast<_Atomic_counter_t>(_Initrefs)) // non-atomic initialization

	mov	DWORD PTR [rsi+8], r14d

; 2717 :     __CLR_OR_THIS_CALL ctype(const _Locinfo& _Lobj, size_t _Refs = 0) : ctype_base(_Refs) {

	lea	rax, OFFSET FLAT:??_7?$ctype@D@std@@6B@
	mov	QWORD PTR [rsi], rax
; File C:\Program Files\Microsoft Visual Studio\2022\Community\VC\Tools\MSVC\14.40.33807\include\xlocinfo

; 277  :         return ::_Getctype();

	lea	rcx, QWORD PTR $T2[rbp-105]
	call	_Getctype
	movups	xmm0, XMMWORD PTR [rax]
	movups	xmm1, XMMWORD PTR [rax+16]
; File C:\Program Files\Microsoft Visual Studio\2022\Community\VC\Tools\MSVC\14.40.33807\include\xlocale

; 2745 :         _Ctype = _Lobj._Getctype();

	movups	XMMWORD PTR [rsi+16], xmm0
	movups	XMMWORD PTR [rsi+32], xmm1

; 2723 :             *_Ppf = new ctype<_Elem>(_Locinfo(_Ploc->_C_str()));

	mov	QWORD PTR [rdi], rsi
; File C:\Program Files\Microsoft Visual Studio\2022\Community\VC\Tools\MSVC\14.40.33807\include\xlocinfo

; 257  :         _Locinfo_dtor(this);

	lea	rcx, QWORD PTR $T1[rbp-105]
	call	?_Locinfo_dtor@_Locinfo@std@@SAXPEAV12@@Z ; std::_Locinfo::_Locinfo_dtor

; 203  :         if (_Myptr) {

	mov	rcx, QWORD PTR $T1[rbp-17]
	test	rcx, rcx
	je	SHORT $LN77@Getcat

; 204  : #ifdef _DEBUG
; 205  :             _free_dbg(_Myptr, _CRT_BLOCK);
; 206  : #else
; 207  :             _CSTD free(_Myptr);

	call	free
$LN77@Getcat:

; 208  : #endif
; 209  :         }
; 210  : 
; 211  :         _Myptr = nullptr;

	mov	QWORD PTR $T1[rbp-17], r14

; 203  :         if (_Myptr) {

	mov	rcx, QWORD PTR $T1[rbp-33]
	test	rcx, rcx
	je	SHORT $LN84@Getcat

; 204  : #ifdef _DEBUG
; 205  :             _free_dbg(_Myptr, _CRT_BLOCK);
; 206  : #else
; 207  :             _CSTD free(_Myptr);

	call	free
$LN84@Getcat:

; 208  : #endif
; 209  :         }
; 210  : 
; 211  :         _Myptr = nullptr;

	mov	QWORD PTR $T1[rbp-33], r14

; 203  :         if (_Myptr) {

	mov	rcx, QWORD PTR $T1[rbp-49]
	test	rcx, rcx
	je	SHORT $LN91@Getcat

; 204  : #ifdef _DEBUG
; 205  :             _free_dbg(_Myptr, _CRT_BLOCK);
; 206  : #else
; 207  :             _CSTD free(_Myptr);

	call	free
$LN91@Getcat:

; 208  : #endif
; 209  :         }
; 210  : 
; 211  :         _Myptr = nullptr;

	mov	QWORD PTR $T1[rbp-49], r14

; 203  :         if (_Myptr) {

	mov	rcx, QWORD PTR $T1[rbp-65]
	test	rcx, rcx
	je	SHORT $LN98@Getcat

; 204  : #ifdef _DEBUG
; 205  :             _free_dbg(_Myptr, _CRT_BLOCK);
; 206  : #else
; 207  :             _CSTD free(_Myptr);

	call	free
$LN98@Getcat:

; 208  : #endif
; 209  :         }
; 210  : 
; 211  :         _Myptr = nullptr;

	mov	QWORD PTR $T1[rbp-65], r14

; 203  :         if (_Myptr) {

	mov	rcx, QWORD PTR $T1[rbp-81]
	test	rcx, rcx
	je	SHORT $LN105@Getcat

; 204  : #ifdef _DEBUG
; 205  :             _free_dbg(_Myptr, _CRT_BLOCK);
; 206  : #else
; 207  :             _CSTD free(_Myptr);

	call	free
$LN105@Getcat:

; 208  : #endif
; 209  :         }
; 210  : 
; 211  :         _Myptr = nullptr;

	mov	QWORD PTR $T1[rbp-81], r14

; 203  :         if (_Myptr) {

	mov	rcx, QWORD PTR $T1[rbp-97]
	test	rcx, rcx
	je	SHORT $LN112@Getcat

; 204  : #ifdef _DEBUG
; 205  :             _free_dbg(_Myptr, _CRT_BLOCK);
; 206  : #else
; 207  :             _CSTD free(_Myptr);

	call	free
$LN112@Getcat:

; 208  : #endif
; 209  :         }
; 210  : 
; 211  :         _Myptr = nullptr;

	mov	QWORD PTR $T1[rbp-97], r14

; 258  :     }

	lea	rcx, QWORD PTR $T1[rbp-105]
	call	??1_Lockit@std@@QEAA@XZ			; std::_Lockit::~_Lockit
	npad	1
$LN69@Getcat:
; File C:\Program Files\Microsoft Visual Studio\2022\Community\VC\Tools\MSVC\14.40.33807\include\xlocale

; 2726 :         return _X_CTYPE;

	mov	eax, 2

; 2727 :     }

	lea	r11, QWORD PTR [rsp+176]
	mov	rbx, QWORD PTR [r11+40]
	mov	rsi, QWORD PTR [r11+48]
	mov	rsp, r11
	pop	r14
	pop	rdi
	pop	rbp
	ret	0
$LN21@Getcat:
; File C:\Program Files\Microsoft Visual Studio\2022\Community\VC\Tools\MSVC\14.40.33807\include\xlocinfo

; 240  :         _Xruntime_error("bad locale name");

	lea	rcx, OFFSET FLAT:??_C@_0BA@ELKIONDK@bad?5locale?5name@
	call	?_Xruntime_error@std@@YAXPEBD@Z		; std::_Xruntime_error
	int	3
$LN115@Getcat:
?_Getcat@?$ctype@D@std@@SA_KPEAPEBVfacet@locale@2@PEBV42@@Z ENDP ; std::ctype<char>::_Getcat
_TEXT	ENDS
; Function compile flags: /Ogtpy
;	COMDAT text$x
text$x	SEGMENT
$T1 = 32
$T2 = 136
$T3 = 208
_Ppf$ = 208
_Ploc$ = 216
?dtor$0@?0??_Getcat@?$ctype@D@std@@SA_KPEAPEBVfacet@locale@2@PEBV42@@Z@4HA PROC ; `std::ctype<char>::_Getcat'::`1'::dtor$0
	push	rbp
	sub	rsp, 32					; 00000020H
	mov	rbp, rdx
	mov	edx, 48					; 00000030H
	mov	rcx, QWORD PTR $T3[rbp]
	call	??3@YAXPEAX_K@Z				; operator delete
	add	rsp, 32					; 00000020H
	pop	rbp
	ret	0
?dtor$0@?0??_Getcat@?$ctype@D@std@@SA_KPEAPEBVfacet@locale@2@PEBV42@@Z@4HA ENDP ; `std::ctype<char>::_Getcat'::`1'::dtor$0
text$x	ENDS
; Function compile flags: /Ogtpy
;	COMDAT text$x
text$x	SEGMENT
$T1 = 32
$T2 = 136
$T3 = 208
_Ppf$ = 208
_Ploc$ = 216
?dtor$2@?0??_Getcat@?$ctype@D@std@@SA_KPEAPEBVfacet@locale@2@PEBV42@@Z@4HA PROC ; `std::ctype<char>::_Getcat'::`1'::dtor$2
	lea	rcx, QWORD PTR $T1[rdx]
	jmp	??1_Lockit@std@@QEAA@XZ			; std::_Lockit::~_Lockit
?dtor$2@?0??_Getcat@?$ctype@D@std@@SA_KPEAPEBVfacet@locale@2@PEBV42@@Z@4HA ENDP ; `std::ctype<char>::_Getcat'::`1'::dtor$2
text$x	ENDS
; Function compile flags: /Ogtpy
;	COMDAT text$x
text$x	SEGMENT
$T1 = 32
$T2 = 136
$T3 = 208
_Ppf$ = 208
_Ploc$ = 216
?dtor$3@?0??_Getcat@?$ctype@D@std@@SA_KPEAPEBVfacet@locale@2@PEBV42@@Z@4HA PROC ; `std::ctype<char>::_Getcat'::`1'::dtor$3
	lea	rcx, QWORD PTR $T1[rdx]
	add	rcx, 8
	jmp	??1?$_Yarn@D@std@@QEAA@XZ		; std::_Yarn<char>::~_Yarn<char>
?dtor$3@?0??_Getcat@?$ctype@D@std@@SA_KPEAPEBVfacet@locale@2@PEBV42@@Z@4HA ENDP ; `std::ctype<char>::_Getcat'::`1'::dtor$3
text$x	ENDS
; Function compile flags: /Ogtpy
;	COMDAT text$x
text$x	SEGMENT
$T1 = 32
$T2 = 136
$T3 = 208
_Ppf$ = 208
_Ploc$ = 216
?dtor$4@?0??_Getcat@?$ctype@D@std@@SA_KPEAPEBVfacet@locale@2@PEBV42@@Z@4HA PROC ; `std::ctype<char>::_Getcat'::`1'::dtor$4
	lea	rcx, QWORD PTR $T1[rdx]
	add	rcx, 24
	jmp	??1?$_Yarn@D@std@@QEAA@XZ		; std::_Yarn<char>::~_Yarn<char>
?dtor$4@?0??_Getcat@?$ctype@D@std@@SA_KPEAPEBVfacet@locale@2@PEBV42@@Z@4HA ENDP ; `std::ctype<char>::_Getcat'::`1'::dtor$4
text$x	ENDS
; Function compile flags: /Ogtpy
;	COMDAT text$x
text$x	SEGMENT
$T1 = 32
$T2 = 136
$T3 = 208
_Ppf$ = 208
_Ploc$ = 216
?dtor$5@?0??_Getcat@?$ctype@D@std@@SA_KPEAPEBVfacet@locale@2@PEBV42@@Z@4HA PROC ; `std::ctype<char>::_Getcat'::`1'::dtor$5
	lea	rcx, QWORD PTR $T1[rdx]
	add	rcx, 40					; 00000028H
	jmp	??1?$_Yarn@_W@std@@QEAA@XZ		; std::_Yarn<wchar_t>::~_Yarn<wchar_t>
?dtor$5@?0??_Getcat@?$ctype@D@std@@SA_KPEAPEBVfacet@locale@2@PEBV42@@Z@4HA ENDP ; `std::ctype<char>::_Getcat'::`1'::dtor$5
text$x	ENDS
; Function compile flags: /Ogtpy
;	COMDAT text$x
text$x	SEGMENT
$T1 = 32
$T2 = 136
$T3 = 208
_Ppf$ = 208
_Ploc$ = 216
?dtor$6@?0??_Getcat@?$ctype@D@std@@SA_KPEAPEBVfacet@locale@2@PEBV42@@Z@4HA PROC ; `std::ctype<char>::_Getcat'::`1'::dtor$6
	lea	rcx, QWORD PTR $T1[rdx]
	add	rcx, 56					; 00000038H
	jmp	??1?$_Yarn@_W@std@@QEAA@XZ		; std::_Yarn<wchar_t>::~_Yarn<wchar_t>
?dtor$6@?0??_Getcat@?$ctype@D@std@@SA_KPEAPEBVfacet@locale@2@PEBV42@@Z@4HA ENDP ; `std::ctype<char>::_Getcat'::`1'::dtor$6
text$x	ENDS
; Function compile flags: /Ogtpy
;	COMDAT text$x
text$x	SEGMENT
$T1 = 32
$T2 = 136
$T3 = 208
_Ppf$ = 208
_Ploc$ = 216
?dtor$7@?0??_Getcat@?$ctype@D@std@@SA_KPEAPEBVfacet@locale@2@PEBV42@@Z@4HA PROC ; `std::ctype<char>::_Getcat'::`1'::dtor$7
	lea	rcx, QWORD PTR $T1[rdx]
	add	rcx, 72					; 00000048H
	jmp	??1?$_Yarn@D@std@@QEAA@XZ		; std::_Yarn<char>::~_Yarn<char>
