; Listing generated by Microsoft (R) Optimizing Compiler Version 19.40.33811.0 

include listing.inc

INCLUDELIB OLDNAMES

PUBLIC	?piecewise_construct@std@@3Upiecewise_construct_t@1@B ; std::piecewise_construct
PUBLIC	?_Min_buckets@?$_Hash@V?$_Umap_traits@JV?$tuple@VClient@@V?$basic_string@DU?$char_traits@D@std@@V?$allocator@D@2@@std@@V23@@std@@V?$_Uhash_compare@JU?$hash@J@std@@U?$equal_to@J@2@@2@V?$allocator@U?$pair@$$CBJV?$tuple@VClient@@V?$basic_string@DU?$char_traits@D@std@@V?$allocator@D@2@@std@@V23@@std@@@std@@@2@$0A@@std@@@std@@2_KB ; std::_Hash<std::_Umap_traits<long,std::tuple<Client,std::basic_string<char,std::char_traits<char>,std::allocator<char> >,std::basic_string<char,std::char_traits<char>,std::allocator<char> > >,std::_Uhash_compare<long,std::hash<long>,std::equal_to<long> >,std::allocator<std::pair<long const ,std::tuple<Client,std::basic_string<char,std::char_traits<char>,std::allocator<char> >,std::basic_string<char,std::char_traits<char>,std::allocator<char> > > > >,0> >::_Min_buckets
PUBLIC	??_R0?AVout_of_range@std@@@8			; std::out_of_range `RTTI Type Descriptor'
EXTRN	_Mtx_unlock:PROC
EXTRN	_Mtx_lock:PROC
EXTRN	?_Throw_Cpp_error@std@@YAXH@Z:PROC		; std::_Throw_Cpp_error
EXTRN	__imp_htons:PROC
;	COMDAT ??_R0?AVout_of_range@std@@@8
data$r	SEGMENT
??_R0?AVout_of_range@std@@@8 DQ FLAT:??_7type_info@@6B@	; std::out_of_range `RTTI Type Descriptor'
	DQ	0000000000000000H
	DB	'.?AVout_of_range@std@@', 00H
data$r	ENDS
;	COMDAT ?_Min_buckets@?$_Hash@V?$_Umap_traits@JV?$tuple@VClient@@V?$basic_string@DU?$char_traits@D@std@@V?$allocator@D@2@@std@@V23@@std@@V?$_Uhash_compare@JU?$hash@J@std@@U?$equal_to@J@2@@2@V?$allocator@U?$pair@$$CBJV?$tuple@VClient@@V?$basic_string@DU?$char_traits@D@std@@V?$allocator@D@2@@std@@V23@@std@@@std@@@2@$0A@@std@@@std@@2_KB
CONST	SEGMENT
?_Min_buckets@?$_Hash@V?$_Umap_traits@JV?$tuple@VClient@@V?$basic_string@DU?$char_traits@D@std@@V?$allocator@D@2@@std@@V23@@std@@V?$_Uhash_compare@JU?$hash@J@std@@U?$equal_to@J@2@@2@V?$allocator@U?$pair@$$CBJV?$tuple@VClient@@V?$basic_string@DU?$char_traits@D@std@@V?$allocator@D@2@@std@@V23@@std@@@std@@@2@$0A@@std@@@std@@2_KB DQ 0000000000000008H ; std::_Hash<std::_Umap_traits<long,std::tuple<Client,std::basic_string<char,std::char_traits<char>,std::allocator<char> >,std::basic_string<char,std::char_traits<char>,std::allocator<char> > >,std::_Uhash_compare<long,std::hash<long>,std::equal_to<long> >,std::allocator<std::pair<long const ,std::tuple<Client,std::basic_string<char,std::char_traits<char>,std::allocator<char> >,std::basic_string<char,std::char_traits<char>,std::allocator<char> > > > >,0> >::_Min_buckets
CONST	ENDS
;	COMDAT ?piecewise_construct@std@@3Upiecewise_construct_t@1@B
CONST	SEGMENT
?piecewise_construct@std@@3Upiecewise_construct_t@1@B	ORG $+1 ; std::piecewise_construct
PUBLIC	??$move@AEAV?$tuple@AEBJ@std@@@std@@YA$$QEAV?$tuple@AEBJ@0@AEAV10@@Z ; std::move<std::tuple<long const &> &>
PUBLIC	??$_Tuple_get@$0A@AEBJ@std@@YA$$QEA_P$$QEAV?$tuple@AEBJ@0@@Z ; std::_Tuple_get<0,long const &>
PUBLIC	??$?0V?$tuple@AEBJ@std@@V?$tuple@$$V@1@$0A@$$Z$S@?$pair@$$CBJV?$tuple@VClient@@V?$basic_string@DU?$char_traits@D@std@@V?$allocator@D@2@@std@@V23@@std@@@std@@QEAA@AEAV?$tuple@AEBJ@1@AEAV?$tuple@$$V@1@U?$integer_sequence@_K$0A@@1@U?$integer_sequence@_K$S@1@@Z ; std::pair<long const ,std::tuple<Client,std::basic_string<char,std::char_traits<char>,std::allocator<char> >,std::basic_string<char,std::char_traits<char>,std::allocator<char> > > >::pair<long const ,std::tuple<Client,std::basic_string<char,std::char_traits<char>,std::allocator<char> >,std::basic_string<char,std::char_traits<char>,std::allocator<char> > > ><std::tuple<long const &>,std::tuple<>,0>
PUBLIC	??$construct_at@EAEAE$0A@@std@@YAPEAEQEAEAEAE@Z	; std::construct_at<unsigned char,unsigned char &,0>
PUBLIC	??$?0AEBJ@?$_Tuple_val@AEBJ@std@@QEAA@AEBJ@Z	; std::_Tuple_val<long const &>::_Tuple_val<long const &><long const &>
PUBLIC	??$?0U_Exact_args_t@std@@$0A@@?$tuple@$$V@std@@QEAA@U_Exact_args_t@1@@Z ; std::tuple<>::tuple<><std::_Exact_args_t,0>
PUBLIC	??$?0AEAV?$basic_string@DU?$char_traits@D@std@@V?$allocator@D@2@@std@@@?$_Tuple_val@V?$basic_string@DU?$char_traits@D@std@@V?$allocator@D@2@@std@@@std@@QEAA@AEAV?$basic_string@DU?$char_traits@D@std@@V?$allocator@D@2@@1@@Z ; std::_Tuple_val<std::basic_string<char,std::char_traits<char>,std::allocator<char> > >::_Tuple_val<std::basic_string<char,std::char_traits<char>,std::allocator<char> > ><std::basic_string<char,std::char_traits<char>,std::allocator<char> > &>
PUBLIC	??$?0U_Exact_args_t@std@@AEAV?$basic_string@DU?$char_traits@D@std@@V?$allocator@D@2@@1@$$V$0A@@?$tuple@V?$basic_string@DU?$char_traits@D@std@@V?$allocator@D@2@@std@@@std@@QEAA@U_Exact_args_t@1@AEAV?$basic_string@DU?$char_traits@D@std@@V?$allocator@D@2@@1@@Z ; std::tuple<std::basic_string<char,std::char_traits<char>,std::allocator<char> > >::tuple<std::basic_string<char,std::char_traits<char>,std::allocator<char> > ><std::_Exact_args_t,std::basic_string<char,std::char_traits<char>,std::allocator<char> > &,0>
PUBLIC	??$?0AEBJ$$Z$$V@?$pair@$$CBJV?$tuple@VClient@@V?$basic_string@DU?$char_traits@D@std@@V?$allocator@D@2@@std@@V23@@std@@@std@@QEAA@Upiecewise_construct_t@1@V?$tuple@AEBJ@1@V?$tuple@$$V@1@@Z ; std::pair<long const ,std::tuple<Client,std::basic_string<char,std::char_traits<char>,std::allocator<char> >,std::basic_string<char,std::char_traits<char>,std::allocator<char> > > >::pair<long const ,std::tuple<Client,std::basic_string<char,std::char_traits<char>,std::allocator<char> >,std::basic_string<char,std::char_traits<char>,std::allocator<char> > > ><long const &>
PUBLIC	??0?$tuple@AEBJ@std@@QEAA@$$QEAV01@@Z		; std::tuple<long const &>::tuple<long const &>
PUBLIC	??$construct_at@V?$_List_unchecked_iterator@V?$_List_val@U?$_List_simple_types@U?$pair@$$CBJV?$tuple@VClient@@V?$basic_string@DU?$char_traits@D@std@@V?$allocator@D@2@@std@@V23@@std@@@std@@@std@@@std@@@std@@AEBV12@$0A@@std@@YAPEAV?$_List_unchecked_iterator@V?$_List_val@U?$_List_simple_types@U?$pair@$$CBJV?$tuple@VClient@@V?$basic_string@DU?$char_traits@D@std@@V?$allocator@D@2@@std@@V23@@std@@@std@@@std@@@std@@@0@QEAV10@AEBV10@@Z ; std::construct_at<std::_List_unchecked_iterator<std::_List_val<std::_List_simple_types<std::pair<long const ,std::tuple<Client,std::basic_string<char,std::char_traits<char>,std::allocator<char> >,std::basic_string<char,std::char_traits<char>,std::allocator<char> > > > > > >,std::_List_unchecked_iterator<std::_List_val<std::_List_simple_types<std::pair<long const ,std::tuple<Client,std::basic_string<char,std::char_traits<char>,std::allocator<char> >,std::basic_string<char,std::char_traits<char>,std::allocator<char> > > > > > > const &,0>
PUBLIC	??$addressof@V?$_List_unchecked_iterator@V?$_List_val@U?$_List_simple_types@U?$pair@$$CBJV?$tuple@VClient@@V?$basic_string@DU?$char_traits@D@std@@V?$allocator@D@2@@std@@V23@@std@@@std@@@std@@@std@@@std@@@std@@YAPEAV?$_List_unchecked_iterator@V?$_List_val@U?$_List_simple_types@U?$pair@$$CBJV?$tuple@VClient@@V?$basic_string@DU?$char_traits@D@std@@V?$allocator@D@2@@std@@V23@@std@@@std@@@std@@@std@@@0@AEAV10@@Z ; std::addressof<std::_List_unchecked_iterator<std::_List_val<std::_List_simple_types<std::pair<long const ,std::tuple<Client,std::basic_string<char,std::char_traits<char>,std::allocator<char> >,std::basic_string<char,std::char_traits<char>,std::allocator<char> > > > > > > >
PUBLIC	??$construct@EAEAE@?$_Default_allocator_traits@V?$allocator@E@std@@@std@@SAXAEAV?$allocator@E@1@QEAEAEAE@Z ; std::_Default_allocator_traits<std::allocator<unsigned char> >::construct<unsigned char,unsigned char &>
PUBLIC	??$forward@AEAE@std@@YAAEAEAEAE@Z		; std::forward<unsigned char &>
PUBLIC	??$construct_at@U?$pair@$$CBJV?$tuple@VClient@@V?$basic_string@DU?$char_traits@D@std@@V?$allocator@D@2@@std@@V23@@std@@@std@@AEBUpiecewise_construct_t@2@V?$tuple@AEBJ@2@V?$tuple@$$V@2@$0A@@std@@YAPEAU?$pair@$$CBJV?$tuple@VClient@@V?$basic_string@DU?$char_traits@D@std@@V?$allocator@D@2@@std@@V23@@std@@@0@QEAU10@AEBUpiecewise_construct_t@0@$$QEAV?$tuple@AEBJ@0@$$QEAV?$tuple@$$V@0@@Z ; std::construct_at<std::pair<long const ,std::tuple<Client,std::basic_string<char,std::char_traits<char>,std::allocator<char> >,std::basic_string<char,std::char_traits<char>,std::allocator<char> > > >,std::piecewise_construct_t const &,std::tuple<long const &>,std::tuple<>,0>
PUBLIC	??$?0U_Exact_args_t@std@@AEBJ$$V$0A@@?$tuple@AEBJ@std@@QEAA@U_Exact_args_t@1@AEBJ@Z ; std::tuple<long const &>::tuple<long const &><std::_Exact_args_t,long const &,0>
PUBLIC	??$?0AEAVClient@@@?$_Tuple_val@VClient@@@std@@QEAA@AEAVClient@@@Z ; std::_Tuple_val<Client>::_Tuple_val<Client><Client &>
PUBLIC	??$?0U_Exact_args_t@std@@AEAV?$basic_string@DU?$char_traits@D@std@@V?$allocator@D@2@@1@AEAV21@$0A@@?$tuple@V?$basic_string@DU?$char_traits@D@std@@V?$allocator@D@2@@std@@V12@@std@@QEAA@U_Exact_args_t@1@AEAV?$basic_string@DU?$char_traits@D@std@@V?$allocator@D@2@@1@1@Z ; std::tuple<std::basic_string<char,std::char_traits<char>,std::allocator<char> >,std::basic_string<char,std::char_traits<char>,std::allocator<char> > >::tuple<std::basic_string<char,std::char_traits<char>,std::allocator<char> >,std::basic_string<char,std::char_traits<char>,std::allocator<char> > ><std::_Exact_args_t,std::basic_string<char,std::char_traits<char>,std::allocator<char> > &,std::basic_string<char,std::char_traits<char>,std::allocator<char> > &,0>
PUBLIC	?_Refill_lower@?$mersenne_twister@I$0CA@$0CHA@$0BIN@$0BP@$0JJAILANP@$0L@$06$0JNCMFGIA@$0P@$0OPMGAAAA@$0BC@@std@@IEAAXXZ ; std::mersenne_twister<unsigned int,32,624,397,31,2567483615,11,7,2636928640,15,4022730752,18>::_Refill_lower
PUBLIC	?_Refill_upper@?$mersenne_twister@I$0CA@$0CHA@$0BIN@$0BP@$0JJAILANP@$0L@$06$0JNCMFGIA@$0P@$0OPMGAAAA@$0BC@@std@@IEAAXXZ ; std::mersenne_twister<unsigned int,32,624,397,31,2567483615,11,7,2636928640,15,4022730752,18>::_Refill_upper
PUBLIC	??R?$mersenne_twister@I$0CA@$0CHA@$0BIN@$0BP@$0JJAILANP@$0L@$06$0JNCMFGIA@$0P@$0OPMGAAAA@$0BC@@std@@QEAAIXZ ; std::mersenne_twister<unsigned int,32,624,397,31,2567483615,11,7,2636928640,15,4022730752,18>::operator()
PUBLIC	??R?$mersenne_twister_engine@I$0CA@$0CHA@$0BIN@$0BP@$0JJAILANP@$0L@$0PPPPPPPP@$06$0JNCMFGIA@$0P@$0OPMGAAAA@$0BC@$0GMAHIJGF@@std@@QEAAIXZ ; std::mersenne_twister_engine<unsigned int,32,624,397,31,2567483615,11,4294967295,7,2636928640,15,4022730752,18,1812433253>::operator()
PUBLIC	?_Get_bits@?$_Rng_from_urng_v2@KV?$mersenne_twister_engine@I$0CA@$0CHA@$0BIN@$0BP@$0JJAILANP@$0L@$0PPPPPPPP@$06$0JNCMFGIA@$0P@$0OPMGAAAA@$0BC@$0GMAHIJGF@@std@@@std@@AEAAIXZ ; std::_Rng_from_urng_v2<unsigned long,std::mersenne_twister_engine<unsigned int,32,624,397,31,2567483615,11,4294967295,7,2636928640,15,4022730752,18,1812433253> >::_Get_bits
PUBLIC	?_Get_random_product@?$_Rng_from_urng_v2@KV?$mersenne_twister_engine@I$0CA@$0CHA@$0BIN@$0BP@$0JJAILANP@$0L@$0PPPPPPPP@$06$0JNCMFGIA@$0P@$0OPMGAAAA@$0BC@$0GMAHIJGF@@std@@@std@@AEAA_KKI@Z ; std::_Rng_from_urng_v2<unsigned long,std::mersenne_twister_engine<unsigned int,32,624,397,31,2567483615,11,4294967295,7,2636928640,15,4022730752,18,1812433253> >::_Get_random_product
PUBLIC	?_Adjust@?$uniform_int@J@std@@CAKK@Z		; std::uniform_int<long>::_Adjust
PUBLIC	?_Get_rest@?$tuple@V?$basic_string@DU?$char_traits@D@std@@V?$allocator@D@2@@std@@@std@@QEAAAEAV?$tuple@$$V@2@XZ ; std::tuple<std::basic_string<char,std::char_traits<char>,std::allocator<char> > >::_Get_rest
PUBLIC	??0?$_Rng_from_urng_v2@KV?$mersenne_twister_engine@I$0CA@$0CHA@$0BIN@$0BP@$0JJAILANP@$0L@$0PPPPPPPP@$06$0JNCMFGIA@$0P@$0OPMGAAAA@$0BC@$0GMAHIJGF@@std@@@std@@QEAA@AEAV?$mersenne_twister_engine@I$0CA@$0CHA@$0BIN@$0BP@$0JJAILANP@$0L@$0PPPPPPPP@$06$0JNCMFGIA@$0P@$0OPMGAAAA@$0BC@$0GMAHIJGF@@1@@Z ; std::_Rng_from_urng_v2<unsigned long,std::mersenne_twister_engine<unsigned int,32,624,397,31,2567483615,11,4294967295,7,2636928640,15,4022730752,18,1812433253> >::_Rng_from_urng_v2<unsigned long,std::mersenne_twister_engine<unsigned int,32,624,397,31,2567483615,11,4294967295,7,2636928640,15,4022730752,18,1812433253> >
PUBLIC	??R?$_Rng_from_urng_v2@KV?$mersenne_twister_engine@I$0CA@$0CHA@$0BIN@$0BP@$0JJAILANP@$0L@$0PPPPPPPP@$06$0JNCMFGIA@$0P@$0OPMGAAAA@$0BC@$0GMAHIJGF@@std@@@std@@QEAAKK@Z ; std::_Rng_from_urng_v2<unsigned long,std::mersenne_twister_engine<unsigned int,32,624,397,31,2567483615,11,4294967295,7,2636928640,15,4022730752,18,1812433253> >::operator()
PUBLIC	?_Get_all_bits@?$_Rng_from_urng_v2@KV?$mersenne_twister_engine@I$0CA@$0CHA@$0BIN@$0BP@$0JJAILANP@$0L@$0PPPPPPPP@$06$0JNCMFGIA@$0P@$0OPMGAAAA@$0BC@$0GMAHIJGF@@std@@@std@@QEAAIXZ ; std::_Rng_from_urng_v2<unsigned long,std::mersenne_twister_engine<unsigned int,32,624,397,31,2567483615,11,4294967295,7,2636928640,15,4022730752,18,1812433253> >::_Get_all_bits
PUBLIC	??_G?$pair@$$CBJV?$tuple@VClient@@V?$basic_string@DU?$char_traits@D@std@@V?$allocator@D@2@@std@@V23@@std@@@std@@QEAAPEAXI@Z ; std::pair<long const ,std::tuple<Client,std::basic_string<char,std::char_traits<char>,std::allocator<char> >,std::basic_string<char,std::char_traits<char>,std::allocator<char> > > >::`scalar deleting destructor'
PUBLIC	??$_Fnv1a_append_value@J@std@@YA_K_KAEBJ@Z	; std::_Fnv1a_append_value<long>
PUBLIC	??$construct_at@PEAU?$_List_node@U?$pair@$$CBJV?$tuple@VClient@@V?$basic_string@DU?$char_traits@D@std@@V?$allocator@D@2@@std@@V23@@std@@@std@@PEAX@std@@AEBQEAU12@$0A@@std@@YAPEAPEAU?$_List_node@U?$pair@$$CBJV?$tuple@VClient@@V?$basic_string@DU?$char_traits@D@std@@V?$allocator@D@2@@std@@V23@@std@@@std@@PEAX@0@QEAPEAU10@AEBQEAU10@@Z ; std::construct_at<std::_List_node<std::pair<long const ,std::tuple<Client,std::basic_string<char,std::char_traits<char>,std::allocator<char> >,std::basic_string<char,std::char_traits<char>,std::allocator<char> > > >,void *> *,std::_List_node<std::pair<long const ,std::tuple<Client,std::basic_string<char,std::char_traits<char>,std::allocator<char> >,std::basic_string<char,std::char_traits<char>,std::allocator<char> > > >,void *> * const &,0>
PUBLIC	??$forward@AEBQEAU?$_List_node@U?$pair@$$CBJV?$tuple@VClient@@V?$basic_string@DU?$char_traits@D@std@@V?$allocator@D@2@@std@@V23@@std@@@std@@PEAX@std@@@std@@YAAEBQEAU?$_List_node@U?$pair@$$CBJV?$tuple@VClient@@V?$basic_string@DU?$char_traits@D@std@@V?$allocator@D@2@@std@@V23@@std@@@std@@PEAX@0@AEBQEAU10@@Z ; std::forward<std::_List_node<std::pair<long const ,std::tuple<Client,std::basic_string<char,std::char_traits<char>,std::allocator<char> >,std::basic_string<char,std::char_traits<char>,std::allocator<char> > > >,void *> * const &>
PUBLIC	??1?$pair@$$CBJV?$tuple@VClient@@V?$basic_string@DU?$char_traits@D@std@@V?$allocator@D@2@@std@@V23@@std@@@std@@QEAA@XZ ; std::pair<long const ,std::tuple<Client,std::basic_string<char,std::char_traits<char>,std::allocator<char> >,std::basic_string<char,std::char_traits<char>,std::allocator<char> > > >::~pair<long const ,std::tuple<Client,std::basic_string<char,std::char_traits<char>,std::allocator<char> >,std::basic_string<char,std::char_traits<char>,std::allocator<char> > > >
PUBLIC	??$destroy_at@U?$pair@$$CBJV?$tuple@VClient@@V?$basic_string@DU?$char_traits@D@std@@V?$allocator@D@2@@std@@V23@@std@@@std@@@std@@YAXQEAU?$pair@$$CBJV?$tuple@VClient@@V?$basic_string@DU?$char_traits@D@std@@V?$allocator@D@2@@std@@V23@@std@@@0@@Z ; std::destroy_at<std::pair<long const ,std::tuple<Client,std::basic_string<char,std::char_traits<char>,std::allocator<char> >,std::basic_string<char,std::char_traits<char>,std::allocator<char> > > > >
PUBLIC	??$_Construct_in_place@V?$_List_unchecked_iterator@V?$_List_val@U?$_List_simple_types@U?$pair@$$CBJV?$tuple@VClient@@V?$basic_string@DU?$char_traits@D@std@@V?$allocator@D@2@@std@@V23@@std@@@std@@@std@@@std@@@std@@AEBV12@@std@@YAXAEAV?$_List_unchecked_iterator@V?$_List_val@U?$_List_simple_types@U?$pair@$$CBJV?$tuple@VClient@@V?$basic_string@DU?$char_traits@D@std@@V?$allocator@D@2@@std@@V23@@std@@@std@@@std@@@std@@@0@AEBV10@@Z ; std::_Construct_in_place<std::_List_unchecked_iterator<std::_List_val<std::_List_simple_types<std::pair<long const ,std::tuple<Client,std::basic_string<char,std::char_traits<char>,std::allocator<char> >,std::basic_string<char,std::char_traits<char>,std::allocator<char> > > > > > >,std::_List_unchecked_iterator<std::_List_val<std::_List_simple_types<std::pair<long const ,std::tuple<Client,std::basic_string<char,std::char_traits<char>,std::allocator<char> >,std::basic_string<char,std::char_traits<char>,std::allocator<char> > > > > > > const &>
PUBLIC	??$forward@AEBV?$_List_unchecked_iterator@V?$_List_val@U?$_List_simple_types@U?$pair@$$CBJV?$tuple@VClient@@V?$basic_string@DU?$char_traits@D@std@@V?$allocator@D@2@@std@@V23@@std@@@std@@@std@@@std@@@std@@@std@@YAAEBV?$_List_unchecked_iterator@V?$_List_val@U?$_List_simple_types@U?$pair@$$CBJV?$tuple@VClient@@V?$basic_string@DU?$char_traits@D@std@@V?$allocator@D@2@@std@@V23@@std@@@std@@@std@@@std@@@0@AEBV10@@Z ; std::forward<std::_List_unchecked_iterator<std::_List_val<std::_List_simple_types<std::pair<long const ,std::tuple<Client,std::basic_string<char,std::char_traits<char>,std::allocator<char> >,std::basic_string<char,std::char_traits<char>,std::allocator<char> > > > > > > const &>
PUBLIC	??$_Emplace_back@AEAE@?$_Uninitialized_backout_al@V?$allocator@E@std@@@std@@QEAAXAEAE@Z ; std::_Uninitialized_backout_al<std::allocator<unsigned char> >::_Emplace_back<unsigned char &>
PUBLIC	??$move@AEAPEAE@std@@YA$$QEAPEAEAEAPEAE@Z	; std::move<unsigned char * &>
PUBLIC	??$forward@PEAU?$_List_node@U?$pair@$$CBJV?$tuple@VClient@@V?$basic_string@DU?$char_traits@D@std@@V?$allocator@D@2@@std@@V23@@std@@@std@@PEAX@std@@@std@@YA$$QEAPEAU?$_List_node@U?$pair@$$CBJV?$tuple@VClient@@V?$basic_string@DU?$char_traits@D@std@@V?$allocator@D@2@@std@@V23@@std@@@std@@PEAX@0@AEAPEAU10@@Z ; std::forward<std::_List_node<std::pair<long const ,std::tuple<Client,std::basic_string<char,std::char_traits<char>,std::allocator<char> >,std::basic_string<char,std::char_traits<char>,std::allocator<char> > > >,void *> *>
PUBLIC	??$construct@U?$pair@$$CBJV?$tuple@VClient@@V?$basic_string@DU?$char_traits@D@std@@V?$allocator@D@2@@std@@V23@@std@@@std@@AEBUpiecewise_construct_t@2@V?$tuple@AEBJ@2@V?$tuple@$$V@2@@?$_Default_allocator_traits@V?$allocator@U?$_List_node@U?$pair@$$CBJV?$tuple@VClient@@V?$basic_string@DU?$char_traits@D@std@@V?$allocator@D@2@@std@@V23@@std@@@std@@PEAX@std@@@std@@@std@@SAXAEAV?$allocator@U?$_List_node@U?$pair@$$CBJV?$tuple@VClient@@V?$basic_string@DU?$char_traits@D@std@@V?$allocator@D@2@@std@@V23@@std@@@std@@PEAX@std@@@1@QEAU?$pair@$$CBJV?$tuple@VClient@@V?$basic_string@DU?$char_traits@D@std@@V?$allocator@D@2@@std@@V23@@std@@@1@AEBUpiecewise_construct_t@1@$$QEAV?$tuple@AEBJ@1@$$QEAV?$tuple@$$V@1@@Z ; std::_Default_allocator_traits<std::allocator<std::_List_node<std::pair<long const ,std::tuple<Client,std::basic_string<char,std::char_traits<char>,std::allocator<char> >,std::basic_string<char,std::char_traits<char>,std::allocator<char> > > >,void *> > >::construct<std::pair<long const ,std::tuple<Client,std::basic_string<char,std::char_traits<char>,std::allocator<char> >,std::basic_string<char,std::char_traits<char>,std::allocator<char> > > >,std::piecewise_construct_t const &,std::tuple<long const &>,std::tuple<> >
PUBLIC	??$forward@V?$tuple@$$V@std@@@std@@YA$$QEAV?$tuple@$$V@0@AEAV10@@Z ; std::forward<std::tuple<> >
PUBLIC	??$forward@V?$tuple@AEBJ@std@@@std@@YA$$QEAV?$tuple@AEBJ@0@AEAV10@@Z ; std::forward<std::tuple<long const &> >
PUBLIC	??$forward@AEBUpiecewise_construct_t@std@@@std@@YAAEBUpiecewise_construct_t@0@AEBU10@@Z ; std::forward<std::piecewise_construct_t const &>
PUBLIC	??$?0AEBJ$0A@@?$tuple@AEBJ@std@@QEAA@AEBJ@Z	; std::tuple<long const &>::tuple<long const &><long const &,0>
PUBLIC	??$?4V?$tuple@V?$basic_string@DU?$char_traits@D@std@@V?$allocator@D@2@@std@@@std@@V?$basic_string@DU?$char_traits@D@std@@V?$allocator@D@2@@1@$0A@@?$tuple@V?$basic_string@DU?$char_traits@D@std@@V?$allocator@D@2@@std@@@std@@QEAAAEAV01@$$QEAV01@@Z ; std::tuple<std::basic_string<char,std::char_traits<char>,std::allocator<char> > >::operator=<std::tuple<std::basic_string<char,std::char_traits<char>,std::allocator<char> > >,std::basic_string<char,std::char_traits<char>,std::allocator<char> >,0>
PUBLIC	??$forward@V?$tuple@V?$basic_string@DU?$char_traits@D@std@@V?$allocator@D@2@@std@@@std@@@std@@YA$$QEAV?$tuple@V?$basic_string@DU?$char_traits@D@std@@V?$allocator@D@2@@std@@@0@AEAV10@@Z ; std::forward<std::tuple<std::basic_string<char,std::char_traits<char>,std::allocator<char> > > >
PUBLIC	??$forward@V?$basic_string@DU?$char_traits@D@std@@V?$allocator@D@2@@std@@@std@@YA$$QEAV?$basic_string@DU?$char_traits@D@std@@V?$allocator@D@2@@0@AEAV10@@Z ; std::forward<std::basic_string<char,std::char_traits<char>,std::allocator<char> > >
PUBLIC	??$?0U_Exact_args_t@std@@AEAVClient@@AEAV?$basic_string@DU?$char_traits@D@std@@V?$allocator@D@2@@1@AEAV31@$0A@@?$tuple@VClient@@V?$basic_string@DU?$char_traits@D@std@@V?$allocator@D@2@@std@@V23@@std@@QEAA@U_Exact_args_t@1@AEAVClient@@AEAV?$basic_string@DU?$char_traits@D@std@@V?$allocator@D@2@@1@2@Z ; std::tuple<Client,std::basic_string<char,std::char_traits<char>,std::allocator<char> >,std::basic_string<char,std::char_traits<char>,std::allocator<char> > >::tuple<Client,std::basic_string<char,std::char_traits<char>,std::allocator<char> >,std::basic_string<char,std::char_traits<char>,std::allocator<char> > ><std::_Exact_args_t,Client &,std::basic_string<char,std::char_traits<char>,std::allocator<char> > &,std::basic_string<char,std::char_traits<char>,std::allocator<char> > &,0>
PUBLIC	??$?0V?$basic_string@DU?$char_traits@D@std@@V?$allocator@D@2@@std@@$0A@@?$tuple@V?$basic_string@DU?$char_traits@D@std@@V?$allocator@D@2@@std@@@std@@QEAA@XZ ; std::tuple<std::basic_string<char,std::char_traits<char>,std::allocator<char> > >::tuple<std::basic_string<char,std::char_traits<char>,std::allocator<char> > ><std::basic_string<char,std::char_traits<char>,std::allocator<char> >,0>
PUBLIC	??$_Eval@V?$mersenne_twister_engine@I$0CA@$0CHA@$0BIN@$0BP@$0JJAILANP@$0L@$0PPPPPPPP@$06$0JNCMFGIA@$0P@$0OPMGAAAA@$0BC@$0GMAHIJGF@@std@@@?$uniform_int@J@std@@AEBAJAEAV?$mersenne_twister_engine@I$0CA@$0CHA@$0BIN@$0BP@$0JJAILANP@$0L@$0PPPPPPPP@$06$0JNCMFGIA@$0P@$0OPMGAAAA@$0BC@$0GMAHIJGF@@1@JJ@Z ; std::uniform_int<long>::_Eval<std::mersenne_twister_engine<unsigned int,32,624,397,31,2567483615,11,4294967295,7,2636928640,15,4022730752,18,1812433253> >
PUBLIC	??R?$equal_to@J@std@@QEBA_NAEBJ0@Z		; std::equal_to<long>::operator()
PUBLIC	?_Get_first@?$_Compressed_pair@U?$equal_to@J@std@@M$00@std@@QEBAAEBU?$equal_to@J@2@XZ ; std::_Compressed_pair<std::equal_to<long>,float,1>::_Get_first
PUBLIC	??0?$_Tuple_val@V?$basic_string@DU?$char_traits@D@std@@V?$allocator@D@2@@std@@@std@@QEAA@XZ ; std::_Tuple_val<std::basic_string<char,std::char_traits<char>,std::allocator<char> > >::_Tuple_val<std::basic_string<char,std::char_traits<char>,std::allocator<char> > >
PUBLIC	?_Get_rest@?$tuple@V?$basic_string@DU?$char_traits@D@std@@V?$allocator@D@2@@std@@V12@@std@@QEAAAEAV?$tuple@V?$basic_string@DU?$char_traits@D@std@@V?$allocator@D@2@@std@@@2@XZ ; std::tuple<std::basic_string<char,std::char_traits<char>,std::allocator<char> >,std::basic_string<char,std::char_traits<char>,std::allocator<char> > >::_Get_rest
PUBLIC	??0?$_Alloc_construct_ptr@V?$allocator@U?$_List_node@U?$pair@$$CBJV?$tuple@VClient@@V?$basic_string@DU?$char_traits@D@std@@V?$allocator@D@2@@std@@V23@@std@@@std@@PEAX@std@@@std@@@std@@QEAA@AEAV?$allocator@U?$_List_node@U?$pair@$$CBJV?$tuple@VClient@@V?$basic_string@DU?$char_traits@D@std@@V?$allocator@D@2@@std@@V23@@std@@@std@@PEAX@std@@@1@@Z ; std::_Alloc_construct_ptr<std::allocator<std::_List_node<std::pair<long const ,std::tuple<Client,std::basic_string<char,std::char_traits<char>,std::allocator<char> >,std::basic_string<char,std::char_traits<char>,std::allocator<char> > > >,void *> > >::_Alloc_construct_ptr<std::allocator<std::_List_node<std::pair<long const ,std::tuple<Client,std::basic_string<char,std::char_traits<char>,std::allocator<char> >,std::basic_string<char,std::char_traits<char>,std::allocator<char> > > >,void *> > >
PUBLIC	?_Allocate@?$_Alloc_construct_ptr@V?$allocator@U?$_List_node@U?$pair@$$CBJV?$tuple@VClient@@V?$basic_string@DU?$char_traits@D@std@@V?$allocator@D@2@@std@@V23@@std@@@std@@PEAX@std@@@std@@@std@@QEAAXXZ ; std::_Alloc_construct_ptr<std::allocator<std::_List_node<std::pair<long const ,std::tuple<Client,std::basic_string<char,std::char_traits<char>,std::allocator<char> >,std::basic_string<char,std::char_traits<char>,std::allocator<char> > > >,void *> > >::_Allocate
PUBLIC	??$_Hash_representation@J@std@@YA_KAEBJ@Z	; std::_Hash_representation<long>
PUBLIC	??$_Pocma@V?$allocator@D@std@@@std@@YAXAEAV?$allocator@D@0@0@Z ; std::_Pocma<std::allocator<char> >
PUBLIC	??$addressof@V?$basic_string@DU?$char_traits@D@std@@V?$allocator@D@2@@std@@@std@@YAPEAV?$basic_string@DU?$char_traits@D@std@@V?$allocator@D@2@@0@AEAV10@@Z ; std::addressof<std::basic_string<char,std::char_traits<char>,std::allocator<char> > >
PUBLIC	??$_Construct_in_place@PEAU?$_List_node@U?$pair@$$CBJV?$tuple@VClient@@V?$basic_string@DU?$char_traits@D@std@@V?$allocator@D@2@@std@@V23@@std@@@std@@PEAX@std@@AEBQEAU12@@std@@YAXAEAPEAU?$_List_node@U?$pair@$$CBJV?$tuple@VClient@@V?$basic_string@DU?$char_traits@D@std@@V?$allocator@D@2@@std@@V23@@std@@@std@@PEAX@0@AEBQEAU10@@Z ; std::_Construct_in_place<std::_List_node<std::pair<long const ,std::tuple<Client,std::basic_string<char,std::char_traits<char>,std::allocator<char> >,std::basic_string<char,std::char_traits<char>,std::allocator<char> > > >,void *> *,std::_List_node<std::pair<long const ,std::tuple<Client,std::basic_string<char,std::char_traits<char>,std::allocator<char> >,std::basic_string<char,std::char_traits<char>,std::allocator<char> > > >,void *> * const &>
PUBLIC	??$exchange@PEAU?$_List_node@U?$pair@$$CBJV?$tuple@VClient@@V?$basic_string@DU?$char_traits@D@std@@V?$allocator@D@2@@std@@V23@@std@@@std@@PEAX@std@@$$T@std@@YAPEAU?$_List_node@U?$pair@$$CBJV?$tuple@VClient@@V?$basic_string@DU?$char_traits@D@std@@V?$allocator@D@2@@std@@V23@@std@@@std@@PEAX@0@AEAPEAU10@$$QEA$$T@Z ; std::exchange<std::_List_node<std::pair<long const ,std::tuple<Client,std::basic_string<char,std::char_traits<char>,std::allocator<char> >,std::basic_string<char,std::char_traits<char>,std::allocator<char> > > >,void *> *,std::nullptr_t>
PUBLIC	??$destroy@U?$pair@$$CBJV?$tuple@VClient@@V?$basic_string@DU?$char_traits@D@std@@V?$allocator@D@2@@std@@V23@@std@@@std@@@?$_Default_allocator_traits@V?$allocator@U?$_List_node@U?$pair@$$CBJV?$tuple@VClient@@V?$basic_string@DU?$char_traits@D@std@@V?$allocator@D@2@@std@@V23@@std@@@std@@PEAX@std@@@std@@@std@@SAXAEAV?$allocator@U?$_List_node@U?$pair@$$CBJV?$tuple@VClient@@V?$basic_string@DU?$char_traits@D@std@@V?$allocator@D@2@@std@@V23@@std@@@std@@PEAX@std@@@1@QEAU?$pair@$$CBJV?$tuple@VClient@@V?$basic_string@DU?$char_traits@D@std@@V?$allocator@D@2@@std@@V23@@std@@@1@@Z ; std::_Default_allocator_traits<std::allocator<std::_List_node<std::pair<long const ,std::tuple<Client,std::basic_string<char,std::char_traits<char>,std::allocator<char> >,std::basic_string<char,std::char_traits<char>,std::allocator<char> > > >,void *> > >::destroy<std::pair<long const ,std::tuple<Client,std::basic_string<char,std::char_traits<char>,std::allocator<char> >,std::basic_string<char,std::char_traits<char>,std::allocator<char> > > > >
PUBLIC	??$addressof@U?$pair@$$CBJV?$tuple@VClient@@V?$basic_string@DU?$char_traits@D@std@@V?$allocator@D@2@@std@@V23@@std@@@std@@@std@@YAPEAU?$pair@$$CBJV?$tuple@VClient@@V?$basic_string@DU?$char_traits@D@std@@V?$allocator@D@2@@std@@V23@@std@@@0@AEAU10@@Z ; std::addressof<std::pair<long const ,std::tuple<Client,std::basic_string<char,std::char_traits<char>,std::allocator<char> >,std::basic_string<char,std::char_traits<char>,std::allocator<char> > > > >
PUBLIC	??$forward@AEAPEAU?$_List_node@U?$pair@$$CBJV?$tuple@VClient@@V?$basic_string@DU?$char_traits@D@std@@V?$allocator@D@2@@std@@V23@@std@@@std@@PEAX@std@@@std@@YAAEAPEAU?$_List_node@U?$pair@$$CBJV?$tuple@VClient@@V?$basic_string@DU?$char_traits@D@std@@V?$allocator@D@2@@std@@V23@@std@@@std@@PEAX@0@AEAPEAU10@@Z ; std::forward<std::_List_node<std::pair<long const ,std::tuple<Client,std::basic_string<char,std::char_traits<char>,std::allocator<char> >,std::basic_string<char,std::char_traits<char>,std::allocator<char> > > >,void *> * &>
PUBLIC	??$addressof@PEAU?$_List_node@U?$pair@$$CBJV?$tuple@VClient@@V?$basic_string@DU?$char_traits@D@std@@V?$allocator@D@2@@std@@V23@@std@@@std@@PEAX@std@@@std@@YAPEAPEAU?$_List_node@U?$pair@$$CBJV?$tuple@VClient@@V?$basic_string@DU?$char_traits@D@std@@V?$allocator@D@2@@std@@V23@@std@@@std@@PEAX@0@AEAPEAU10@@Z ; std::addressof<std::_List_node<std::pair<long const ,std::tuple<Client,std::basic_string<char,std::char_traits<char>,std::allocator<char> >,std::basic_string<char,std::char_traits<char>,std::allocator<char> > > >,void *> *>
PUBLIC	??$_Emplace_back@AEBV?$_List_unchecked_iterator@V?$_List_val@U?$_List_simple_types@U?$pair@$$CBJV?$tuple@VClient@@V?$basic_string@DU?$char_traits@D@std@@V?$allocator@D@2@@std@@V23@@std@@@std@@@std@@@std@@@std@@@?$_Uninitialized_backout@PEAV?$_List_unchecked_iterator@V?$_List_val@U?$_List_simple_types@U?$pair@$$CBJV?$tuple@VClient@@V?$basic_string@DU?$char_traits@D@std@@V?$allocator@D@2@@std@@V23@@std@@@std@@@std@@@std@@@std@@@std@@QEAAXAEBV?$_List_unchecked_iterator@V?$_List_val@U?$_List_simple_types@U?$pair@$$CBJV?$tuple@VClient@@V?$basic_string@DU?$char_traits@D@std@@V?$allocator@D@2@@std@@V23@@std@@@std@@@std@@@std@@@1@@Z ; std::_Uninitialized_backout<std::_List_unchecked_iterator<std::_List_val<std::_List_simple_types<std::pair<long const ,std::tuple<Client,std::basic_string<char,std::char_traits<char>,std::allocator<char> >,std::basic_string<char,std::char_traits<char>,std::allocator<char> > > > > > > *>::_Emplace_back<std::_List_unchecked_iterator<std::_List_val<std::_List_simple_types<std::pair<long const ,std::tuple<Client,std::basic_string<char,std::char_traits<char>,std::allocator<char> >,std::basic_string<char,std::char_traits<char>,std::allocator<char> > > > > > > const &>
PUBLIC	??$_Adl_verify_range@PEAV?$_List_unchecked_iterator@V?$_List_val@U?$_List_simple_types@U?$pair@$$CBJV?$tuple@VClient@@V?$basic_string@DU?$char_traits@D@std@@V?$allocator@D@2@@std@@V23@@std@@@std@@@std@@@std@@@std@@PEAV12@@std@@YAXAEBQEAV?$_List_unchecked_iterator@V?$_List_val@U?$_List_simple_types@U?$pair@$$CBJV?$tuple@VClient@@V?$basic_string@DU?$char_traits@D@std@@V?$allocator@D@2@@std@@V23@@std@@@std@@@std@@@std@@@0@0@Z ; std::_Adl_verify_range<std::_List_unchecked_iterator<std::_List_val<std::_List_simple_types<std::pair<long const ,std::tuple<Client,std::basic_string<char,std::char_traits<char>,std::allocator<char> >,std::basic_string<char,std::char_traits<char>,std::allocator<char> > > > > > > *,std::_List_unchecked_iterator<std::_List_val<std::_List_simple_types<std::pair<long const ,std::tuple<Client,std::basic_string<char,std::char_traits<char>,std::allocator<char> >,std::basic_string<char,std::char_traits<char>,std::allocator<char> > > > > > > *>
PUBLIC	??$_Destroy_in_place@PEAU?$_List_node@U?$pair@$$CBJV?$tuple@VClient@@V?$basic_string@DU?$char_traits@D@std@@V?$allocator@D@2@@std@@V23@@std@@@std@@PEAX@std@@@std@@YAXAEAPEAU?$_List_node@U?$pair@$$CBJV?$tuple@VClient@@V?$basic_string@DU?$char_traits@D@std@@V?$allocator@D@2@@std@@V23@@std@@@std@@PEAX@0@@Z ; std::_Destroy_in_place<std::_List_node<std::pair<long const ,std::tuple<Client,std::basic_string<char,std::char_traits<char>,std::allocator<char> >,std::basic_string<char,std::char_traits<char>,std::allocator<char> > > >,void *> *>
PUBLIC	??$_Freenode@V?$allocator@U?$_List_node@U?$pair@$$CBJV?$tuple@VClient@@V?$basic_string@DU?$char_traits@D@std@@V?$allocator@D@2@@std@@V23@@std@@@std@@PEAX@std@@@std@@@?$_List_node@U?$pair@$$CBJV?$tuple@VClient@@V?$basic_string@DU?$char_traits@D@std@@V?$allocator@D@2@@std@@V23@@std@@@std@@PEAX@std@@SAXAEAV?$allocator@U?$_List_node@U?$pair@$$CBJV?$tuple@VClient@@V?$basic_string@DU?$char_traits@D@std@@V?$allocator@D@2@@std@@V23@@std@@@std@@PEAX@std@@@1@PEAU01@@Z ; std::_List_node<std::pair<long const ,std::tuple<Client,std::basic_string<char,std::char_traits<char>,std::allocator<char> >,std::basic_string<char,std::char_traits<char>,std::allocator<char> > > >,void *>::_Freenode<std::allocator<std::_List_node<std::pair<long const ,std::tuple<Client,std::basic_string<char,std::char_traits<char>,std::allocator<char> >,std::basic_string<char,std::char_traits<char>,std::allocator<char> > > >,void *> > >
PUBLIC	??$_Uninitialized_copy@PEAEPEAEV?$allocator@E@std@@@std@@YAPEAEPEAE00AEAV?$allocator@E@0@@Z ; std::_Uninitialized_copy<unsigned char *,unsigned char *,std::allocator<unsigned char> >
PUBLIC	??$_Unwrap_sent@PEAEPEAE@ranges@std@@YA?A_T$$QEAPEAE@Z ; std::ranges::_Unwrap_sent<unsigned char *,unsigned char *>
PUBLIC	??$_Unwrap_iter@PEAEPEAE@ranges@std@@YA?A_T$$QEAPEAE@Z ; std::ranges::_Unwrap_iter<unsigned char *,unsigned char *>
PUBLIC	??$forward@AEBQEAE@std@@YAAEBQEAEAEBQEAE@Z	; std::forward<unsigned char * const &>
PUBLIC	??$?0PEAU?$_List_node@U?$pair@$$CBJV?$tuple@VClient@@V?$basic_string@DU?$char_traits@D@std@@V?$allocator@D@2@@std@@V23@@std@@@std@@PEAX@std@@_N$0A@@?$pair@PEAU?$_List_node@U?$pair@$$CBJV?$tuple@VClient@@V?$basic_string@DU?$char_traits@D@std@@V?$allocator@D@2@@std@@V23@@std@@@std@@PEAX@std@@_N@std@@QEAA@$$QEAPEAU?$_List_node@U?$pair@$$CBJV?$tuple@VClient@@V?$basic_string@DU?$char_traits@D@std@@V?$allocator@D@2@@std@@V23@@std@@@std@@PEAX@1@$$QEA_N@Z ; std::pair<std::_List_node<std::pair<long const ,std::tuple<Client,std::basic_string<char,std::char_traits<char>,std::allocator<char> >,std::basic_string<char,std::char_traits<char>,std::allocator<char> > > >,void *> *,bool>::pair<std::_List_node<std::pair<long const ,std::tuple<Client,std::basic_string<char,std::char_traits<char>,std::allocator<char> >,std::basic_string<char,std::char_traits<char>,std::allocator<char> > > >,void *> *,bool><std::_List_node<std::pair<long const ,std::tuple<Client,std::basic_string<char,std::char_traits<char>,std::allocator<char> >,std::basic_string<char,std::char_traits<char>,std::allocator<char> > > >,void *> *,bool,0>
PUBLIC	??$?0AEAPEAU?$_List_node@U?$pair@$$CBJV?$tuple@VClient@@V?$basic_string@DU?$char_traits@D@std@@V?$allocator@D@2@@std@@V23@@std@@@std@@PEAX@std@@_N$0A@@?$pair@PEAU?$_List_node@U?$pair@$$CBJV?$tuple@VClient@@V?$basic_string@DU?$char_traits@D@std@@V?$allocator@D@2@@std@@V23@@std@@@std@@PEAX@std@@_N@std@@QEAA@AEAPEAU?$_List_node@U?$pair@$$CBJV?$tuple@VClient@@V?$basic_string@DU?$char_traits@D@std@@V?$allocator@D@2@@std@@V23@@std@@@std@@PEAX@1@$$QEA_N@Z ; std::pair<std::_List_node<std::pair<long const ,std::tuple<Client,std::basic_string<char,std::char_traits<char>,std::allocator<char> >,std::basic_string<char,std::char_traits<char>,std::allocator<char> > > >,void *> *,bool>::pair<std::_List_node<std::pair<long const ,std::tuple<Client,std::basic_string<char,std::char_traits<char>,std::allocator<char> >,std::basic_string<char,std::char_traits<char>,std::allocator<char> > > >,void *> *,bool><std::_List_node<std::pair<long const ,std::tuple<Client,std::basic_string<char,std::char_traits<char>,std::allocator<char> >,std::basic_string<char,std::char_traits<char>,std::allocator<char> > > >,void *> * &,bool,0>
PUBLIC	??$?0AEBUpiecewise_construct_t@std@@V?$tuple@AEBJ@1@V?$tuple@$$V@1@@?$_List_node_emplace_op2@V?$allocator@U?$_List_node@U?$pair@$$CBJV?$tuple@VClient@@V?$basic_string@DU?$char_traits@D@std@@V?$allocator@D@2@@std@@V23@@std@@@std@@PEAX@std@@@std@@@std@@QEAA@AEAV?$allocator@U?$_List_node@U?$pair@$$CBJV?$tuple@VClient@@V?$basic_string@DU?$char_traits@D@std@@V?$allocator@D@2@@std@@V23@@std@@@std@@PEAX@std@@@1@AEBUpiecewise_construct_t@1@$$QEAV?$tuple@AEBJ@1@$$QEAV?$tuple@$$V@1@@Z ; std::_List_node_emplace_op2<std::allocator<std::_List_node<std::pair<long const ,std::tuple<Client,std::basic_string<char,std::char_traits<char>,std::allocator<char> >,std::basic_string<char,std::char_traits<char>,std::allocator<char> > > >,void *> > >::_List_node_emplace_op2<std::allocator<std::_List_node<std::pair<long const ,std::tuple<Client,std::basic_string<char,std::char_traits<char>,std::allocator<char> >,std::basic_string<char,std::char_traits<char>,std::allocator<char> > > >,void *> > ><std::piecewise_construct_t const &,std::tuple<long const &>,std::tuple<> >
PUBLIC	??$forward_as_tuple@$$V@std@@YA?AV?$tuple@$$V@0@XZ ; std::forward_as_tuple<>
PUBLIC	??$forward_as_tuple@AEBJ@std@@YA?AV?$tuple@AEBJ@0@AEBJ@Z ; std::forward_as_tuple<long const &>
PUBLIC	??$forward@AEBJ@std@@YAAEBJAEBJ@Z		; std::forward<long const &>
PUBLIC	??$_Kfn@$$CBJV?$tuple@VClient@@V?$basic_string@DU?$char_traits@D@std@@V?$allocator@D@2@@std@@V23@@std@@@?$_Umap_traits@JV?$tuple@VClient@@V?$basic_string@DU?$char_traits@D@std@@V?$allocator@D@2@@std@@V23@@std@@V?$_Uhash_compare@JU?$hash@J@std@@U?$equal_to@J@2@@2@V?$allocator@U?$pair@$$CBJV?$tuple@VClient@@V?$basic_string@DU?$char_traits@D@std@@V?$allocator@D@2@@std@@V23@@std@@@std@@@2@$0A@@std@@SAAEBJAEBU?$pair@$$CBJV?$tuple@VClient@@V?$basic_string@DU?$char_traits@D@std@@V?$allocator@D@2@@std@@V23@@std@@@1@@Z ; std::_Umap_traits<long,std::tuple<Client,std::basic_string<char,std::char_traits<char>,std::allocator<char> >,std::basic_string<char,std::char_traits<char>,std::allocator<char> > >,std::_Uhash_compare<long,std::hash<long>,std::equal_to<long> >,std::allocator<std::pair<long const ,std::tuple<Client,std::basic_string<char,std::char_traits<char>,std::allocator<char> >,std::basic_string<char,std::char_traits<char>,std::allocator<char> > > > >,0>::_Kfn<long const ,std::tuple<Client,std::basic_string<char,std::char_traits<char>,std::allocator<char> >,std::basic_string<char,std::char_traits<char>,std::allocator<char> > > >
PUBLIC	??$DecryptInternetData@UClientResponse@@@NetCommon@@YA?AUClientResponse@@V?$vector@EV?$allocator@E@std@@@std@@V?$basic_string@DU?$char_traits@D@std@@V?$allocator@D@2@@3@@Z ; NetCommon::DecryptInternetData<ClientResponse>
PUBLIC	??$DecryptInternetData@UClientRequest@@@NetCommon@@YA?AUClientRequest@@V?$vector@EV?$allocator@E@std@@@std@@V?$basic_string@DU?$char_traits@D@std@@V?$allocator@D@2@@3@@Z ; NetCommon::DecryptInternetData<ClientRequest>
PUBLIC	??$get@$00VClient@@V?$basic_string@DU?$char_traits@D@std@@V?$allocator@D@2@@std@@V23@@std@@YAAEAV?$basic_string@DU?$char_traits@D@std@@V?$allocator@D@2@@0@AEAV?$tuple@VClient@@V?$basic_string@DU?$char_traits@D@std@@V?$allocator@D@2@@std@@V23@@0@@Z ; std::get<1,Client,std::basic_string<char,std::char_traits<char>,std::allocator<char> >,std::basic_string<char,std::char_traits<char>,std::allocator<char> > >
PUBLIC	??$?4V?$tuple@V?$basic_string@DU?$char_traits@D@std@@V?$allocator@D@2@@std@@V12@@std@@V?$basic_string@DU?$char_traits@D@std@@V?$allocator@D@2@@1@$0A@@?$tuple@V?$basic_string@DU?$char_traits@D@std@@V?$allocator@D@2@@std@@V12@@std@@QEAAAEAV01@$$QEAV01@@Z ; std::tuple<std::basic_string<char,std::char_traits<char>,std::allocator<char> >,std::basic_string<char,std::char_traits<char>,std::allocator<char> > >::operator=<std::tuple<std::basic_string<char,std::char_traits<char>,std::allocator<char> >,std::basic_string<char,std::char_traits<char>,std::allocator<char> > >,std::basic_string<char,std::char_traits<char>,std::allocator<char> >,0>
PUBLIC	??$forward@V?$tuple@V?$basic_string@DU?$char_traits@D@std@@V?$allocator@D@2@@std@@V12@@std@@@std@@YA$$QEAV?$tuple@V?$basic_string@DU?$char_traits@D@std@@V?$allocator@D@2@@std@@V12@@0@AEAV10@@Z ; std::forward<std::tuple<std::basic_string<char,std::char_traits<char>,std::allocator<char> >,std::basic_string<char,std::char_traits<char>,std::allocator<char> > > >
PUBLIC	??$forward@VClient@@@std@@YA$$QEAVClient@@AEAV1@@Z ; std::forward<Client>
PUBLIC	??$?0AEAVClient@@AEAV?$basic_string@DU?$char_traits@D@std@@V?$allocator@D@2@@std@@AEAV12@$0A@@?$tuple@VClient@@V?$basic_string@DU?$char_traits@D@std@@V?$allocator@D@2@@std@@V23@@std@@QEAA@AEAVClient@@AEAV?$basic_string@DU?$char_traits@D@std@@V?$allocator@D@2@@1@1@Z ; std::tuple<Client,std::basic_string<char,std::char_traits<char>,std::allocator<char> >,std::basic_string<char,std::char_traits<char>,std::allocator<char> > >::tuple<Client,std::basic_string<char,std::char_traits<char>,std::allocator<char> >,std::basic_string<char,std::char_traits<char>,std::allocator<char> > ><Client &,std::basic_string<char,std::char_traits<char>,std::allocator<char> > &,std::basic_string<char,std::char_traits<char>,std::allocator<char> > &,0>
PUBLIC	??$forward@AEAV?$basic_string@DU?$char_traits@D@std@@V?$allocator@D@2@@std@@@std@@YAAEAV?$basic_string@DU?$char_traits@D@std@@V?$allocator@D@2@@0@AEAV10@@Z ; std::forward<std::basic_string<char,std::char_traits<char>,std::allocator<char> > &>
PUBLIC	??$forward@AEAVClient@@@std@@YAAEAVClient@@AEAV1@@Z ; std::forward<Client &>
PUBLIC	??$?0V?$basic_string@DU?$char_traits@D@std@@V?$allocator@D@2@@std@@$0A@@?$tuple@V?$basic_string@DU?$char_traits@D@std@@V?$allocator@D@2@@std@@V12@@std@@QEAA@XZ ; std::tuple<std::basic_string<char,std::char_traits<char>,std::allocator<char> >,std::basic_string<char,std::char_traits<char>,std::allocator<char> > >::tuple<std::basic_string<char,std::char_traits<char>,std::allocator<char> >,std::basic_string<char,std::char_traits<char>,std::allocator<char> > ><std::basic_string<char,std::char_traits<char>,std::allocator<char> >,0>
PUBLIC	??$?RV?$mersenne_twister_engine@I$0CA@$0CHA@$0BIN@$0BP@$0JJAILANP@$0L@$0PPPPPPPP@$06$0JNCMFGIA@$0P@$0OPMGAAAA@$0BC@$0GMAHIJGF@@std@@@?$uniform_int@J@std@@QEAAJAEAV?$mersenne_twister_engine@I$0CA@$0CHA@$0BIN@$0BP@$0JJAILANP@$0L@$0PPPPPPPP@$06$0JNCMFGIA@$0P@$0OPMGAAAA@$0BC@$0GMAHIJGF@@1@@Z ; std::uniform_int<long>::operator()<std::mersenne_twister_engine<unsigned int,32,624,397,31,2567483615,11,4294967295,7,2636928640,15,4022730752,18,1812433253> >
PUBLIC	??$?RJJ@?$_Uhash_compare@JU?$hash@J@std@@U?$equal_to@J@2@@std@@QEBA_NAEBJ0@Z ; std::_Uhash_compare<long,std::hash<long>,std::equal_to<long> >::operator()<long,long>
PUBLIC	?_Orphan_non_end@?$_List_val@U?$_List_simple_types@U?$pair@$$CBJV?$tuple@VClient@@V?$basic_string@DU?$char_traits@D@std@@V?$allocator@D@2@@std@@V23@@std@@@std@@@std@@@std@@QEAAXXZ ; std::_List_val<std::_List_simple_types<std::pair<long const ,std::tuple<Client,std::basic_string<char,std::char_traits<char>,std::allocator<char> >,std::basic_string<char,std::char_traits<char>,std::allocator<char> > > > > >::_Orphan_non_end
PUBLIC	??0_Range_eraser@?$_Hash@V?$_Umap_traits@JV?$tuple@VClient@@V?$basic_string@DU?$char_traits@D@std@@V?$allocator@D@2@@std@@V23@@std@@V?$_Uhash_compare@JU?$hash@J@std@@U?$equal_to@J@2@@2@V?$allocator@U?$pair@$$CBJV?$tuple@VClient@@V?$basic_string@DU?$char_traits@D@std@@V?$allocator@D@2@@std@@V23@@std@@@std@@@2@$0A@@std@@@std@@QEAA@AEAV?$list@U?$pair@$$CBJV?$tuple@VClient@@V?$basic_string@DU?$char_traits@D@std@@V?$allocator@D@2@@std@@V23@@std@@@std@@V?$allocator@U?$pair@$$CBJV?$tuple@VClient@@V?$basic_string@DU?$char_traits@D@std@@V?$allocator@D@2@@std@@V23@@std@@@std@@@2@@2@QEAU?$_List_node@U?$pair@$$CBJV?$tuple@VClient@@V?$basic_string@DU?$char_traits@D@std@@V?$allocator@D@2@@std@@V23@@std@@@std@@PEAX@2@@Z ; std::_Hash<std::_Umap_traits<long,std::tuple<Client,std::basic_string<char,std::char_traits<char>,std::allocator<char> >,std::basic_string<char,std::char_traits<char>,std::allocator<char> > >,std::_Uhash_compare<long,std::hash<long>,std::equal_to<long> >,std::allocator<std::pair<long const ,std::tuple<Client,std::basic_string<char,std::char_traits<char>,std::allocator<char> >,std::basic_string<char,std::char_traits<char>,std::allocator<char> > > > >,0> >::_Range_eraser::_Range_eraser
PUBLIC	?_Bump_erased@_Range_eraser@?$_Hash@V?$_Umap_traits@JV?$tuple@VClient@@V?$basic_string@DU?$char_traits@D@std@@V?$allocator@D@2@@std@@V23@@std@@V?$_Uhash_compare@JU?$hash@J@std@@U?$equal_to@J@2@@2@V?$allocator@U?$pair@$$CBJV?$tuple@VClient@@V?$basic_string@DU?$char_traits@D@std@@V?$allocator@D@2@@std@@V23@@std@@@std@@@2@$0A@@std@@@std@@QEAAXXZ ; std::_Hash<std::_Umap_traits<long,std::tuple<Client,std::basic_string<char,std::char_traits<char>,std::allocator<char> >,std::basic_string<char,std::char_traits<char>,std::allocator<char> > >,std::_Uhash_compare<long,std::hash<long>,std::equal_to<long> >,std::allocator<std::pair<long const ,std::tuple<Client,std::basic_string<char,std::char_traits<char>,std::allocator<char> >,std::basic_string<char,std::char_traits<char>,std::allocator<char> > > > >,0> >::_Range_eraser::_Bump_erased
PUBLIC	??1_Range_eraser@?$_Hash@V?$_Umap_traits@JV?$tuple@VClient@@V?$basic_string@DU?$char_traits@D@std@@V?$allocator@D@2@@std@@V23@@std@@V?$_Uhash_compare@JU?$hash@J@std@@U?$equal_to@J@2@@2@V?$allocator@U?$pair@$$CBJV?$tuple@VClient@@V?$basic_string@DU?$char_traits@D@std@@V?$allocator@D@2@@std@@V23@@std@@@std@@@2@$0A@@std@@@std@@QEAA@XZ ; std::_Hash<std::_Umap_traits<long,std::tuple<Client,std::basic_string<char,std::char_traits<char>,std::allocator<char> >,std::basic_string<char,std::char_traits<char>,std::allocator<char> > >,std::_Uhash_compare<long,std::hash<long>,std::equal_to<long> >,std::allocator<std::pair<long const ,std::tuple<Client,std::basic_string<char,std::char_traits<char>,std::allocator<char> >,std::basic_string<char,std::char_traits<char>,std::allocator<char> > > > >,0> >::_Range_eraser::~_Range_eraser
PUBLIC	?clear@?$list@U?$pair@$$CBJV?$tuple@VClient@@V?$basic_string@DU?$char_traits@D@std@@V?$allocator@D@2@@std@@V23@@std@@@std@@V?$allocator@U?$pair@$$CBJV?$tuple@VClient@@V?$basic_string@DU?$char_traits@D@std@@V?$allocator@D@2@@std@@V23@@std@@@std@@@2@@std@@QEAAXXZ ; std::list<std::pair<long const ,std::tuple<Client,std::basic_string<char,std::char_traits<char>,std::allocator<char> >,std::basic_string<char,std::char_traits<char>,std::allocator<char> > > >,std::allocator<std::pair<long const ,std::tuple<Client,std::basic_string<char,std::char_traits<char>,std::allocator<char> >,std::basic_string<char,std::char_traits<char>,std::allocator<char> > > > > >::clear
PUBLIC	?_Unchecked_erase@?$_Hash@V?$_Umap_traits@JV?$tuple@VClient@@V?$basic_string@DU?$char_traits@D@std@@V?$allocator@D@2@@std@@V23@@std@@V?$_Uhash_compare@JU?$hash@J@std@@U?$equal_to@J@2@@2@V?$allocator@U?$pair@$$CBJV?$tuple@VClient@@V?$basic_string@DU?$char_traits@D@std@@V?$allocator@D@2@@std@@V23@@std@@@std@@@2@$0A@@std@@@std@@AEAAPEAU?$_List_node@U?$pair@$$CBJV?$tuple@VClient@@V?$basic_string@DU?$char_traits@D@std@@V?$allocator@D@2@@std@@V23@@std@@@std@@PEAX@2@PEAU32@QEAU32@@Z ; std::_Hash<std::_Umap_traits<long,std::tuple<Client,std::basic_string<char,std::char_traits<char>,std::allocator<char> >,std::basic_string<char,std::char_traits<char>,std::allocator<char> > >,std::_Uhash_compare<long,std::hash<long>,std::equal_to<long> >,std::allocator<std::pair<long const ,std::tuple<Client,std::basic_string<char,std::char_traits<char>,std::allocator<char> >,std::basic_string<char,std::char_traits<char>,std::allocator<char> > > > >,0> >::_Unchecked_erase
PUBLIC	?_Get_max_bucket_size@?$_Uhash_compare@JU?$hash@J@std@@U?$equal_to@J@2@@std@@QEBAAEBMXZ ; std::_Uhash_compare<long,std::hash<long>,std::equal_to<long> >::_Get_max_bucket_size
PUBLIC	?_Unchecked_begin@?$list@U?$pair@$$CBJV?$tuple@VClient@@V?$basic_string@DU?$char_traits@D@std@@V?$allocator@D@2@@std@@V23@@std@@@std@@V?$allocator@U?$pair@$$CBJV?$tuple@VClient@@V?$basic_string@DU?$char_traits@D@std@@V?$allocator@D@2@@std@@V23@@std@@@std@@@2@@std@@QEAA?AV?$_List_unchecked_iterator@V?$_List_val@U?$_List_simple_types@U?$pair@$$CBJV?$tuple@VClient@@V?$basic_string@DU?$char_traits@D@std@@V?$allocator@D@2@@std@@V23@@std@@@std@@@std@@@std@@@2@XZ ; std::list<std::pair<long const ,std::tuple<Client,std::basic_string<char,std::char_traits<char>,std::allocator<char> >,std::basic_string<char,std::char_traits<char>,std::allocator<char> > > >,std::allocator<std::pair<long const ,std::tuple<Client,std::basic_string<char,std::char_traits<char>,std::allocator<char> >,std::basic_string<char,std::char_traits<char>,std::allocator<char> > > > > >::_Unchecked_begin
PUBLIC	?_Get_first@?$_Compressed_pair@V?$allocator@U?$_List_node@U?$pair@$$CBJV?$tuple@VClient@@V?$basic_string@DU?$char_traits@D@std@@V?$allocator@D@2@@std@@V23@@std@@@std@@PEAX@std@@@std@@V?$_List_val@U?$_List_simple_types@U?$pair@$$CBJV?$tuple@VClient@@V?$basic_string@DU?$char_traits@D@std@@V?$allocator@D@2@@std@@V23@@std@@@std@@@std@@@2@$00@std@@QEBAAEBV?$allocator@U?$_List_node@U?$pair@$$CBJV?$tuple@VClient@@V?$basic_string@DU?$char_traits@D@std@@V?$allocator@D@2@@std@@V23@@std@@@std@@PEAX@std@@@2@XZ ; std::_Compressed_pair<std::allocator<std::_List_node<std::pair<long const ,std::tuple<Client,std::basic_string<char,std::char_traits<char>,std::allocator<char> >,std::basic_string<char,std::char_traits<char>,std::allocator<char> > > >,void *> >,std::_List_val<std::_List_simple_types<std::pair<long const ,std::tuple<Client,std::basic_string<char,std::char_traits<char>,std::allocator<char> >,std::basic_string<char,std::char_traits<char>,std::allocator<char> > > > > >,1>::_Get_first
PUBLIC	?clear@?$_Hash@V?$_Umap_traits@JV?$tuple@VClient@@V?$basic_string@DU?$char_traits@D@std@@V?$allocator@D@2@@std@@V23@@std@@V?$_Uhash_compare@JU?$hash@J@std@@U?$equal_to@J@2@@2@V?$allocator@U?$pair@$$CBJV?$tuple@VClient@@V?$basic_string@DU?$char_traits@D@std@@V?$allocator@D@2@@std@@V23@@std@@@std@@@2@$0A@@std@@@std@@QEAAXXZ ; std::_Hash<std::_Umap_traits<long,std::tuple<Client,std::basic_string<char,std::char_traits<char>,std::allocator<char> >,std::basic_string<char,std::char_traits<char>,std::allocator<char> > >,std::_Uhash_compare<long,std::hash<long>,std::equal_to<long> >,std::allocator<std::pair<long const ,std::tuple<Client,std::basic_string<char,std::char_traits<char>,std::allocator<char> >,std::basic_string<char,std::char_traits<char>,std::allocator<char> > > > >,0> >::clear
PUBLIC	?max_size@?$_Default_allocator_traits@V?$allocator@V?$_List_unchecked_iterator@V?$_List_val@U?$_List_simple_types@U?$pair@$$CBJV?$tuple@VClient@@V?$basic_string@DU?$char_traits@D@std@@V?$allocator@D@2@@std@@V23@@std@@@std@@@std@@@std@@@std@@@std@@@std@@SA_KAEBV?$allocator@V?$_List_unchecked_iterator@V?$_List_val@U?$_List_simple_types@U?$pair@$$CBJV?$tuple@VClient@@V?$basic_string@DU?$char_traits@D@std@@V?$allocator@D@2@@std@@V23@@std@@@std@@@std@@@std@@@std@@@2@@Z ; std::_Default_allocator_traits<std::allocator<std::_List_unchecked_iterator<std::_List_val<std::_List_simple_types<std::pair<long const ,std::tuple<Client,std::basic_string<char,std::char_traits<char>,std::allocator<char> >,std::basic_string<char,std::char_traits<char>,std::allocator<char> > > > > > > > >::max_size
PUBLIC	?_Get_first@?$_Compressed_pair@V?$allocator@V?$_List_unchecked_iterator@V?$_List_val@U?$_List_simple_types@U?$pair@$$CBJV?$tuple@VClient@@V?$basic_string@DU?$char_traits@D@std@@V?$allocator@D@2@@std@@V23@@std@@@std@@@std@@@std@@@std@@@std@@V?$_Vector_val@U?$_Simple_types@V?$_List_unchecked_iterator@V?$_List_val@U?$_List_simple_types@U?$pair@$$CBJV?$tuple@VClient@@V?$basic_string@DU?$char_traits@D@std@@V?$allocator@D@2@@std@@V23@@std@@@std@@@std@@@std@@@std@@@std@@@2@$00@std@@QEBAAEBV?$allocator@V?$_List_unchecked_iterator@V?$_List_val@U?$_List_simple_types@U?$pair@$$CBJV?$tuple@VClient@@V?$basic_string@DU?$char_traits@D@std@@V?$allocator@D@2@@std@@V23@@std@@@std@@@std@@@std@@@std@@@2@XZ ; std::_Compressed_pair<std::allocator<std::_List_unchecked_iterator<std::_List_val<std::_List_simple_types<std::pair<long const ,std::tuple<Client,std::basic_string<char,std::char_traits<char>,std::allocator<char> >,std::basic_string<char,std::char_traits<char>,std::allocator<char> > > > > > > >,std::_Vector_val<std::_Simple_types<std::_List_unchecked_iterator<std::_List_val<std::_List_simple_types<std::pair<long const ,std::tuple<Client,std::basic_string<char,std::char_traits<char>,std::allocator<char> >,std::basic_string<char,std::char_traits<char>,std::allocator<char> > > > > > > > >,1>::_Get_first
PUBLIC	?max_size@?$_Default_allocator_traits@V?$allocator@U?$_List_node@U?$pair@$$CBJV?$tuple@VClient@@V?$basic_string@DU?$char_traits@D@std@@V?$allocator@D@2@@std@@V23@@std@@@std@@PEAX@std@@@std@@@std@@SA_KAEBV?$allocator@U?$_List_node@U?$pair@$$CBJV?$tuple@VClient@@V?$basic_string@DU?$char_traits@D@std@@V?$allocator@D@2@@std@@V23@@std@@@std@@PEAX@std@@@2@@Z ; std::_Default_allocator_traits<std::allocator<std::_List_node<std::pair<long const ,std::tuple<Client,std::basic_string<char,std::char_traits<char>,std::allocator<char> >,std::basic_string<char,std::char_traits<char>,std::allocator<char> > > >,void *> > >::max_size
PUBLIC	?_Getal@?$list@U?$pair@$$CBJV?$tuple@VClient@@V?$basic_string@DU?$char_traits@D@std@@V?$allocator@D@2@@std@@V23@@std@@@std@@V?$allocator@U?$pair@$$CBJV?$tuple@VClient@@V?$basic_string@DU?$char_traits@D@std@@V?$allocator@D@2@@std@@V23@@std@@@std@@@2@@std@@AEBAAEBV?$allocator@U?$_List_node@U?$pair@$$CBJV?$tuple@VClient@@V?$basic_string@DU?$char_traits@D@std@@V?$allocator@D@2@@std@@V23@@std@@@std@@PEAX@std@@@2@XZ ; std::list<std::pair<long const ,std::tuple<Client,std::basic_string<char,std::char_traits<char>,std::allocator<char> >,std::basic_string<char,std::char_traits<char>,std::allocator<char> > > >,std::allocator<std::pair<long const ,std::tuple<Client,std::basic_string<char,std::char_traits<char>,std::allocator<char> >,std::basic_string<char,std::char_traits<char>,std::allocator<char> > > > > >::_Getal
PUBLIC	?_Unchecked_splice@?$_List_val@U?$_List_simple_types@U?$pair@$$CBJV?$tuple@VClient@@V?$basic_string@DU?$char_traits@D@std@@V?$allocator@D@2@@std@@V23@@std@@@std@@@std@@@std@@SAPEAU?$_List_node@U?$pair@$$CBJV?$tuple@VClient@@V?$basic_string@DU?$char_traits@D@std@@V?$allocator@D@2@@std@@V23@@std@@@std@@PEAX@2@QEAU32@00@Z ; std::_List_val<std::_List_simple_types<std::pair<long const ,std::tuple<Client,std::basic_string<char,std::char_traits<char>,std::allocator<char> >,std::basic_string<char,std::char_traits<char>,std::allocator<char> > > > > >::_Unchecked_splice
PUBLIC	?_Unchecked_begin@?$_Hash@V?$_Umap_traits@JV?$tuple@VClient@@V?$basic_string@DU?$char_traits@D@std@@V?$allocator@D@2@@std@@V23@@std@@V?$_Uhash_compare@JU?$hash@J@std@@U?$equal_to@J@2@@2@V?$allocator@U?$pair@$$CBJV?$tuple@VClient@@V?$basic_string@DU?$char_traits@D@std@@V?$allocator@D@2@@std@@V23@@std@@@std@@@2@$0A@@std@@@std@@QEAA?AV?$_List_unchecked_iterator@V?$_List_val@U?$_List_simple_types@U?$pair@$$CBJV?$tuple@VClient@@V?$basic_string@DU?$char_traits@D@std@@V?$allocator@D@2@@std@@V23@@std@@@std@@@std@@@std@@@2@XZ ; std::_Hash<std::_Umap_traits<long,std::tuple<Client,std::basic_string<char,std::char_traits<char>,std::allocator<char> >,std::basic_string<char,std::char_traits<char>,std::allocator<char> > >,std::_Uhash_compare<long,std::hash<long>,std::equal_to<long> >,std::allocator<std::pair<long const ,std::tuple<Client,std::basic_string<char,std::char_traits<char>,std::allocator<char> >,std::basic_string<char,std::char_traits<char>,std::allocator<char> > > > >,0> >::_Unchecked_begin
PUBLIC	?_Unchecked_end@?$_Hash@V?$_Umap_traits@JV?$tuple@VClient@@V?$basic_string@DU?$char_traits@D@std@@V?$allocator@D@2@@std@@V23@@std@@V?$_Uhash_compare@JU?$hash@J@std@@U?$equal_to@J@2@@2@V?$allocator@U?$pair@$$CBJV?$tuple@VClient@@V?$basic_string@DU?$char_traits@D@std@@V?$allocator@D@2@@std@@V23@@std@@@std@@@2@$0A@@std@@@std@@QEAA?AV?$_List_unchecked_iterator@V?$_List_val@U?$_List_simple_types@U?$pair@$$CBJV?$tuple@VClient@@V?$basic_string@DU?$char_traits@D@std@@V?$allocator@D@2@@std@@V23@@std@@@std@@@std@@@std@@@2@XZ ; std::_Hash<std::_Umap_traits<long,std::tuple<Client,std::basic_string<char,std::char_traits<char>,std::allocator<char> >,std::basic_string<char,std::char_traits<char>,std::allocator<char> > >,std::_Uhash_compare<long,std::hash<long>,std::equal_to<long> >,std::allocator<std::pair<long const ,std::tuple<Client,std::basic_string<char,std::char_traits<char>,std::allocator<char> >,std::basic_string<char,std::char_traits<char>,std::allocator<char> > > > >,0> >::_Unchecked_end
PUBLIC	?bucket@?$_Hash@V?$_Umap_traits@JV?$tuple@VClient@@V?$basic_string@DU?$char_traits@D@std@@V?$allocator@D@2@@std@@V23@@std@@V?$_Uhash_compare@JU?$hash@J@std@@U?$equal_to@J@2@@2@V?$allocator@U?$pair@$$CBJV?$tuple@VClient@@V?$basic_string@DU?$char_traits@D@std@@V?$allocator@D@2@@std@@V23@@std@@@std@@@2@$0A@@std@@@std@@QEBA_KAEBJ@Z ; std::_Hash<std::_Umap_traits<long,std::tuple<Client,std::basic_string<char,std::char_traits<char>,std::allocator<char> >,std::basic_string<char,std::char_traits<char>,std::allocator<char> > >,std::_Uhash_compare<long,std::hash<long>,std::equal_to<long> >,std::allocator<std::pair<long const ,std::tuple<Client,std::basic_string<char,std::char_traits<char>,std::allocator<char> >,std::basic_string<char,std::char_traits<char>,std::allocator<char> > > > >,0> >::bucket
PUBLIC	?_Min_load_factor_buckets@?$_Hash@V?$_Umap_traits@JV?$tuple@VClient@@V?$basic_string@DU?$char_traits@D@std@@V?$allocator@D@2@@std@@V23@@std@@V?$_Uhash_compare@JU?$hash@J@std@@U?$equal_to@J@2@@2@V?$allocator@U?$pair@$$CBJV?$tuple@VClient@@V?$basic_string@DU?$char_traits@D@std@@V?$allocator@D@2@@std@@V23@@std@@@std@@@2@$0A@@std@@@std@@IEBA_K_K@Z ; std::_Hash<std::_Umap_traits<long,std::tuple<Client,std::basic_string<char,std::char_traits<char>,std::allocator<char> >,std::basic_string<char,std::char_traits<char>,std::allocator<char> > >,std::_Uhash_compare<long,std::hash<long>,std::equal_to<long> >,std::allocator<std::pair<long const ,std::tuple<Client,std::basic_string<char,std::char_traits<char>,std::allocator<char> >,std::basic_string<char,std::char_traits<char>,std::allocator<char> > > > >,0> >::_Min_load_factor_buckets
PUBLIC	?_Max_bucket_size@?$_Hash@V?$_Umap_traits@JV?$tuple@VClient@@V?$basic_string@DU?$char_traits@D@std@@V?$allocator@D@2@@std@@V23@@std@@V?$_Uhash_compare@JU?$hash@J@std@@U?$equal_to@J@2@@2@V?$allocator@U?$pair@$$CBJV?$tuple@VClient@@V?$basic_string@DU?$char_traits@D@std@@V?$allocator@D@2@@std@@V23@@std@@@std@@@2@$0A@@std@@@std@@IEBAAEBMXZ ; std::_Hash<std::_Umap_traits<long,std::tuple<Client,std::basic_string<char,std::char_traits<char>,std::allocator<char> >,std::basic_string<char,std::char_traits<char>,std::allocator<char> > >,std::_Uhash_compare<long,std::hash<long>,std::equal_to<long> >,std::allocator<std::pair<long const ,std::tuple<Client,std::basic_string<char,std::char_traits<char>,std::allocator<char> >,std::basic_string<char,std::char_traits<char>,std::allocator<char> > > > >,0> >::_Max_bucket_size
PUBLIC	?max_size@?$_Hash_vec@V?$allocator@V?$_List_unchecked_iterator@V?$_List_val@U?$_List_simple_types@U?$pair@$$CBJV?$tuple@VClient@@V?$basic_string@DU?$char_traits@D@std@@V?$allocator@D@2@@std@@V23@@std@@@std@@@std@@@std@@@std@@@std@@@std@@QEBA_KXZ ; std::_Hash_vec<std::allocator<std::_List_unchecked_iterator<std::_List_val<std::_List_simple_types<std::pair<long const ,std::tuple<Client,std::basic_string<char,std::char_traits<char>,std::allocator<char> >,std::basic_string<char,std::char_traits<char>,std::allocator<char> > > > > > > > >::max_size
PUBLIC	??D?$_List_unchecked_const_iterator@V?$_List_val@U?$_List_simple_types@U?$pair@$$CBJV?$tuple@VClient@@V?$basic_string@DU?$char_traits@D@std@@V?$allocator@D@2@@std@@V23@@std@@@std@@@std@@@std@@U_Iterator_base0@2@@std@@QEBAAEBU?$pair@$$CBJV?$tuple@VClient@@V?$basic_string@DU?$char_traits@D@std@@V?$allocator@D@2@@std@@V23@@std@@@1@XZ ; std::_List_unchecked_const_iterator<std::_List_val<std::_List_simple_types<std::pair<long const ,std::tuple<Client,std::basic_string<char,std::char_traits<char>,std::allocator<char> >,std::basic_string<char,std::char_traits<char>,std::allocator<char> > > > > >,std::_Iterator_base0>::operator*
PUBLIC	??E?$_List_unchecked_const_iterator@V?$_List_val@U?$_List_simple_types@U?$pair@$$CBJV?$tuple@VClient@@V?$basic_string@DU?$char_traits@D@std@@V?$allocator@D@2@@std@@V23@@std@@@std@@@std@@@std@@U_Iterator_base0@2@@std@@QEAAAEAV01@XZ ; std::_List_unchecked_const_iterator<std::_List_val<std::_List_simple_types<std::pair<long const ,std::tuple<Client,std::basic_string<char,std::char_traits<char>,std::allocator<char> >,std::basic_string<char,std::char_traits<char>,std::allocator<char> > > > > >,std::_Iterator_base0>::operator++
PUBLIC	??F?$_List_unchecked_const_iterator@V?$_List_val@U?$_List_simple_types@U?$pair@$$CBJV?$tuple@VClient@@V?$basic_string@DU?$char_traits@D@std@@V?$allocator@D@2@@std@@V23@@std@@@std@@@std@@@std@@U_Iterator_base0@2@@std@@QEAAAEAV01@XZ ; std::_List_unchecked_const_iterator<std::_List_val<std::_List_simple_types<std::pair<long const ,std::tuple<Client,std::basic_string<char,std::char_traits<char>,std::allocator<char> >,std::basic_string<char,std::char_traits<char>,std::allocator<char> > > > > >,std::_Iterator_base0>::operator--
PUBLIC	??8?$_List_unchecked_const_iterator@V?$_List_val@U?$_List_simple_types@U?$pair@$$CBJV?$tuple@VClient@@V?$basic_string@DU?$char_traits@D@std@@V?$allocator@D@2@@std@@V23@@std@@@std@@@std@@@std@@U_Iterator_base0@2@@std@@QEBA_NAEBV01@@Z ; std::_List_unchecked_const_iterator<std::_List_val<std::_List_simple_types<std::pair<long const ,std::tuple<Client,std::basic_string<char,std::char_traits<char>,std::allocator<char> >,std::basic_string<char,std::char_traits<char>,std::allocator<char> > > > > >,std::_Iterator_base0>::operator==
PUBLIC	??D?$_List_unchecked_iterator@V?$_List_val@U?$_List_simple_types@U?$pair@$$CBJV?$tuple@VClient@@V?$basic_string@DU?$char_traits@D@std@@V?$allocator@D@2@@std@@V23@@std@@@std@@@std@@@std@@@std@@QEBAAEAU?$pair@$$CBJV?$tuple@VClient@@V?$basic_string@DU?$char_traits@D@std@@V?$allocator@D@2@@std@@V23@@std@@@1@XZ ; std::_List_unchecked_iterator<std::_List_val<std::_List_simple_types<std::pair<long const ,std::tuple<Client,std::basic_string<char,std::char_traits<char>,std::allocator<char> >,std::basic_string<char,std::char_traits<char>,std::allocator<char> > > > > > >::operator*
PUBLIC	??E?$_List_unchecked_iterator@V?$_List_val@U?$_List_simple_types@U?$pair@$$CBJV?$tuple@VClient@@V?$basic_string@DU?$char_traits@D@std@@V?$allocator@D@2@@std@@V23@@std@@@std@@@std@@@std@@@std@@QEAAAEAV01@XZ ; std::_List_unchecked_iterator<std::_List_val<std::_List_simple_types<std::pair<long const ,std::tuple<Client,std::basic_string<char,std::char_traits<char>,std::allocator<char> >,std::basic_string<char,std::char_traits<char>,std::allocator<char> > > > > > >::operator++
PUBLIC	??0_Clear_guard@?$_Hash@V?$_Umap_traits@JV?$tuple@VClient@@V?$basic_string@DU?$char_traits@D@std@@V?$allocator@D@2@@std@@V23@@std@@V?$_Uhash_compare@JU?$hash@J@std@@U?$equal_to@J@2@@2@V?$allocator@U?$pair@$$CBJV?$tuple@VClient@@V?$basic_string@DU?$char_traits@D@std@@V?$allocator@D@2@@std@@V23@@std@@@std@@@2@$0A@@std@@@std@@QEAA@QEAV12@@Z ; std::_Hash<std::_Umap_traits<long,std::tuple<Client,std::basic_string<char,std::char_traits<char>,std::allocator<char> >,std::basic_string<char,std::char_traits<char>,std::allocator<char> > >,std::_Uhash_compare<long,std::hash<long>,std::equal_to<long> >,std::allocator<std::pair<long const ,std::tuple<Client,std::basic_string<char,std::char_traits<char>,std::allocator<char> >,std::basic_string<char,std::char_traits<char>,std::allocator<char> > > > >,0> >::_Clear_guard::_Clear_guard
PUBLIC	??1_Clear_guard@?$_Hash@V?$_Umap_traits@JV?$tuple@VClient@@V?$basic_string@DU?$char_traits@D@std@@V?$allocator@D@2@@std@@V23@@std@@V?$_Uhash_compare@JU?$hash@J@std@@U?$equal_to@J@2@@2@V?$allocator@U?$pair@$$CBJV?$tuple@VClient@@V?$basic_string@DU?$char_traits@D@std@@V?$allocator@D@2@@std@@V23@@std@@@std@@@2@$0A@@std@@@std@@QEAA@XZ ; std::_Hash<std::_Umap_traits<long,std::tuple<Client,std::basic_string<char,std::char_traits<char>,std::allocator<char> >,std::basic_string<char,std::char_traits<char>,std::allocator<char> > >,std::_Uhash_compare<long,std::hash<long>,std::equal_to<long> >,std::allocator<std::pair<long const ,std::tuple<Client,std::basic_string<char,std::char_traits<char>,std::allocator<char> >,std::basic_string<char,std::char_traits<char>,std::allocator<char> > > > >,0> >::_Clear_guard::~_Clear_guard
PUBLIC	?__autoclassinit2@?$_List_unchecked_const_iterator@V?$_List_val@U?$_List_simple_types@U?$pair@$$CBJV?$tuple@VClient@@V?$basic_string@DU?$char_traits@D@std@@V?$allocator@D@2@@std@@V23@@std@@@std@@@std@@@std@@U_Iterator_base0@2@@std@@QEAAX_K@Z ; std::_List_unchecked_const_iterator<std::_List_val<std::_List_simple_types<std::pair<long const ,std::tuple<Client,std::basic_string<char,std::char_traits<char>,std::allocator<char> >,std::basic_string<char,std::char_traits<char>,std::allocator<char> > > > > >,std::_Iterator_base0>::__autoclassinit2
PUBLIC	?__autoclassinit2@?$_List_unchecked_iterator@V?$_List_val@U?$_List_simple_types@U?$pair@$$CBJV?$tuple@VClient@@V?$basic_string@DU?$char_traits@D@std@@V?$allocator@D@2@@std@@V23@@std@@@std@@@std@@@std@@@std@@QEAAX_K@Z ; std::_List_unchecked_iterator<std::_List_val<std::_List_simple_types<std::pair<long const ,std::tuple<Client,std::basic_string<char,std::char_traits<char>,std::allocator<char> >,std::basic_string<char,std::char_traits<char>,std::allocator<char> > > > > > >::__autoclassinit2
PUBLIC	?_Buy_raw@?$vector@EV?$allocator@E@std@@@std@@AEAAX_K@Z ; std::vector<unsigned char,std::allocator<unsigned char> >::_Buy_raw
PUBLIC	?_Do_hash@?$hash@J@std@@SA_KAEBJ@Z		; std::hash<long>::_Do_hash
PUBLIC	?deallocate@?$allocator@U?$_List_node@U?$pair@$$CBJV?$tuple@VClient@@V?$basic_string@DU?$char_traits@D@std@@V?$allocator@D@2@@std@@V23@@std@@@std@@PEAX@std@@@std@@QEAAXQEAU?$_List_node@U?$pair@$$CBJV?$tuple@VClient@@V?$basic_string@DU?$char_traits@D@std@@V?$allocator@D@2@@std@@V23@@std@@@std@@PEAX@2@_K@Z ; std::allocator<std::_List_node<std::pair<long const ,std::tuple<Client,std::basic_string<char,std::char_traits<char>,std::allocator<char> >,std::basic_string<char,std::char_traits<char>,std::allocator<char> > > >,void *> >::deallocate
PUBLIC	?max_size@?$list@U?$pair@$$CBJV?$tuple@VClient@@V?$basic_string@DU?$char_traits@D@std@@V?$allocator@D@2@@std@@V23@@std@@@std@@V?$allocator@U?$pair@$$CBJV?$tuple@VClient@@V?$basic_string@DU?$char_traits@D@std@@V?$allocator@D@2@@std@@V23@@std@@@std@@@2@@std@@QEBA_KXZ ; std::list<std::pair<long const ,std::tuple<Client,std::basic_string<char,std::char_traits<char>,std::allocator<char> >,std::basic_string<char,std::char_traits<char>,std::allocator<char> > > >,std::allocator<std::pair<long const ,std::tuple<Client,std::basic_string<char,std::char_traits<char>,std::allocator<char> >,std::basic_string<char,std::char_traits<char>,std::allocator<char> > > > > >::max_size
PUBLIC	?_Orphan_ptr2@?$_List_val@U?$_List_simple_types@U?$pair@$$CBJV?$tuple@VClient@@V?$basic_string@DU?$char_traits@D@std@@V?$allocator@D@2@@std@@V23@@std@@@std@@@std@@@std@@QEAAXPEAU?$_List_node@U?$pair@$$CBJV?$tuple@VClient@@V?$basic_string@DU?$char_traits@D@std@@V?$allocator@D@2@@std@@V23@@std@@@std@@PEAX@2@@Z ; std::_List_val<std::_List_simple_types<std::pair<long const ,std::tuple<Client,std::basic_string<char,std::char_traits<char>,std::allocator<char> >,std::basic_string<char,std::char_traits<char>,std::allocator<char> > > > > >::_Orphan_ptr2
PUBLIC	?bucket_count@?$_Hash@V?$_Umap_traits@JV?$tuple@VClient@@V?$basic_string@DU?$char_traits@D@std@@V?$allocator@D@2@@std@@V23@@std@@V?$_Uhash_compare@JU?$hash@J@std@@U?$equal_to@J@2@@2@V?$allocator@U?$pair@$$CBJV?$tuple@VClient@@V?$basic_string@DU?$char_traits@D@std@@V?$allocator@D@2@@std@@V23@@std@@@std@@@2@$0A@@std@@@std@@QEBA_KXZ ; std::_Hash<std::_Umap_traits<long,std::tuple<Client,std::basic_string<char,std::char_traits<char>,std::allocator<char> >,std::basic_string<char,std::char_traits<char>,std::allocator<char> > >,std::_Uhash_compare<long,std::hash<long>,std::equal_to<long> >,std::allocator<std::pair<long const ,std::tuple<Client,std::basic_string<char,std::char_traits<char>,std::allocator<char> >,std::basic_string<char,std::char_traits<char>,std::allocator<char> > > > >,0> >::bucket_count
PUBLIC	?max_load_factor@?$_Hash@V?$_Umap_traits@JV?$tuple@VClient@@V?$basic_string@DU?$char_traits@D@std@@V?$allocator@D@2@@std@@V23@@std@@V?$_Uhash_compare@JU?$hash@J@std@@U?$equal_to@J@2@@2@V?$allocator@U?$pair@$$CBJV?$tuple@VClient@@V?$basic_string@DU?$char_traits@D@std@@V?$allocator@D@2@@std@@V23@@std@@@std@@@2@$0A@@std@@@std@@QEBAMXZ ; std::_Hash<std::_Umap_traits<long,std::tuple<Client,std::basic_string<char,std::char_traits<char>,std::allocator<char> >,std::basic_string<char,std::char_traits<char>,std::allocator<char> > >,std::_Uhash_compare<long,std::hash<long>,std::equal_to<long> >,std::allocator<std::pair<long const ,std::tuple<Client,std::basic_string<char,std::char_traits<char>,std::allocator<char> >,std::basic_string<char,std::char_traits<char>,std::allocator<char> > > > >,0> >::max_load_factor
PUBLIC	?_Desired_grow_bucket_count@?$_Hash@V?$_Umap_traits@JV?$tuple@VClient@@V?$basic_string@DU?$char_traits@D@std@@V?$allocator@D@2@@std@@V23@@std@@V?$_Uhash_compare@JU?$hash@J@std@@U?$equal_to@J@2@@2@V?$allocator@U?$pair@$$CBJV?$tuple@VClient@@V?$basic_string@DU?$char_traits@D@std@@V?$allocator@D@2@@std@@V23@@std@@@std@@@2@$0A@@std@@@std@@IEBA_K_K@Z ; std::_Hash<std::_Umap_traits<long,std::tuple<Client,std::basic_string<char,std::char_traits<char>,std::allocator<char> >,std::basic_string<char,std::char_traits<char>,std::allocator<char> > >,std::_Uhash_compare<long,std::hash<long>,std::equal_to<long> >,std::allocator<std::pair<long const ,std::tuple<Client,std::basic_string<char,std::char_traits<char>,std::allocator<char> >,std::basic_string<char,std::char_traits<char>,std::allocator<char> > > > >,0> >::_Desired_grow_bucket_count
PUBLIC	?_Forced_rehash@?$_Hash@V?$_Umap_traits@JV?$tuple@VClient@@V?$basic_string@DU?$char_traits@D@std@@V?$allocator@D@2@@std@@V23@@std@@V?$_Uhash_compare@JU?$hash@J@std@@U?$equal_to@J@2@@2@V?$allocator@U?$pair@$$CBJV?$tuple@VClient@@V?$basic_string@DU?$char_traits@D@std@@V?$allocator@D@2@@std@@V23@@std@@@std@@@2@$0A@@std@@@std@@IEAAX_K@Z ; std::_Hash<std::_Umap_traits<long,std::tuple<Client,std::basic_string<char,std::char_traits<char>,std::allocator<char> >,std::basic_string<char,std::char_traits<char>,std::allocator<char> > >,std::_Uhash_compare<long,std::hash<long>,std::equal_to<long> >,std::allocator<std::pair<long const ,std::tuple<Client,std::basic_string<char,std::char_traits<char>,std::allocator<char> >,std::basic_string<char,std::char_traits<char>,std::allocator<char> > > > >,0> >::_Forced_rehash
PUBLIC	??1?$_Alloc_construct_ptr@V?$allocator@U?$_List_node@U?$pair@$$CBJV?$tuple@VClient@@V?$basic_string@DU?$char_traits@D@std@@V?$allocator@D@2@@std@@V23@@std@@@std@@PEAX@std@@@std@@@std@@QEAA@XZ ; std::_Alloc_construct_ptr<std::allocator<std::_List_node<std::pair<long const ,std::tuple<Client,std::basic_string<char,std::char_traits<char>,std::allocator<char> >,std::basic_string<char,std::char_traits<char>,std::allocator<char> > > >,void *> > >::~_Alloc_construct_ptr<std::allocator<std::_List_node<std::pair<long const ,std::tuple<Client,std::basic_string<char,std::char_traits<char>,std::allocator<char> >,std::basic_string<char,std::char_traits<char>,std::allocator<char> > > >,void *> > >
PUBLIC	??4?$basic_string@DU?$char_traits@D@std@@V?$allocator@D@2@@std@@QEAAAEAV01@$$QEAV01@@Z ; std::basic_string<char,std::char_traits<char>,std::allocator<char> >::operator=
PUBLIC	?_Buy_nonzero@?$vector@EV?$allocator@E@std@@@std@@AEAAX_K@Z ; std::vector<unsigned char,std::allocator<unsigned char> >::_Buy_nonzero
PUBLIC	??R?$_Conditionally_enabled_hash@J$00@std@@QEBA_KAEBJ@Z ; std::_Conditionally_enabled_hash<long,1>::operator()
PUBLIC	?_Get_first@?$_Compressed_pair@U?$hash@J@std@@V?$_Compressed_pair@U?$equal_to@J@std@@M$00@2@$00@std@@QEBAAEBU?$hash@J@2@XZ ; std::_Compressed_pair<std::hash<long>,std::_Compressed_pair<std::equal_to<long>,float,1>,1>::_Get_first
PUBLIC	?deallocate@?$_Default_allocator_traits@V?$allocator@U?$_List_node@U?$pair@$$CBJV?$tuple@VClient@@V?$basic_string@DU?$char_traits@D@std@@V?$allocator@D@2@@std@@V23@@std@@@std@@PEAX@std@@@std@@@std@@SAXAEAV?$allocator@U?$_List_node@U?$pair@$$CBJV?$tuple@VClient@@V?$basic_string@DU?$char_traits@D@std@@V?$allocator@D@2@@std@@V23@@std@@@std@@PEAX@std@@@2@QEAU?$_List_node@U?$pair@$$CBJV?$tuple@VClient@@V?$basic_string@DU?$char_traits@D@std@@V?$allocator@D@2@@std@@V23@@std@@@std@@PEAX@2@_K@Z ; std::_Default_allocator_traits<std::allocator<std::_List_node<std::pair<long const ,std::tuple<Client,std::basic_string<char,std::char_traits<char>,std::allocator<char> >,std::basic_string<char,std::char_traits<char>,std::allocator<char> > > >,void *> > >::deallocate
PUBLIC	?_Unchecked_erase@?$list@U?$pair@$$CBJV?$tuple@VClient@@V?$basic_string@DU?$char_traits@D@std@@V?$allocator@D@2@@std@@V23@@std@@@std@@V?$allocator@U?$pair@$$CBJV?$tuple@VClient@@V?$basic_string@DU?$char_traits@D@std@@V?$allocator@D@2@@std@@V23@@std@@@std@@@2@@std@@AEAAPEAU?$_List_node@U?$pair@$$CBJV?$tuple@VClient@@V?$basic_string@DU?$char_traits@D@std@@V?$allocator@D@2@@std@@V23@@std@@@std@@PEAX@2@QEAU32@@Z ; std::list<std::pair<long const ,std::tuple<Client,std::basic_string<char,std::char_traits<char>,std::allocator<char> >,std::basic_string<char,std::char_traits<char>,std::allocator<char> > > >,std::allocator<std::pair<long const ,std::tuple<Client,std::basic_string<char,std::char_traits<char>,std::allocator<char> >,std::basic_string<char,std::char_traits<char>,std::allocator<char> > > > > >::_Unchecked_erase
PUBLIC	?_Insert_new_node_before@?$_Hash@V?$_Umap_traits@JV?$tuple@VClient@@V?$basic_string@DU?$char_traits@D@std@@V?$allocator@D@2@@std@@V23@@std@@V?$_Uhash_compare@JU?$hash@J@std@@U?$equal_to@J@2@@2@V?$allocator@U?$pair@$$CBJV?$tuple@VClient@@V?$basic_string@DU?$char_traits@D@std@@V?$allocator@D@2@@std@@V23@@std@@@std@@@2@$0A@@std@@@std@@IEAAPEAU?$_List_node@U?$pair@$$CBJV?$tuple@VClient@@V?$basic_string@DU?$char_traits@D@std@@V?$allocator@D@2@@std@@V23@@std@@@std@@PEAX@2@_KQEAU32@1@Z ; std::_Hash<std::_Umap_traits<long,std::tuple<Client,std::basic_string<char,std::char_traits<char>,std::allocator<char> >,std::basic_string<char,std::char_traits<char>,std::allocator<char> > >,std::_Uhash_compare<long,std::hash<long>,std::equal_to<long> >,std::allocator<std::pair<long const ,std::tuple<Client,std::basic_string<char,std::char_traits<char>,std::allocator<char> >,std::basic_string<char,std::char_traits<char>,std::allocator<char> > > > >,0> >::_Insert_new_node_before
PUBLIC	?_Check_max_size@?$_Hash@V?$_Umap_traits@JV?$tuple@VClient@@V?$basic_string@DU?$char_traits@D@std@@V?$allocator@D@2@@std@@V23@@std@@V?$_Uhash_compare@JU?$hash@J@std@@U?$equal_to@J@2@@2@V?$allocator@U?$pair@$$CBJV?$tuple@VClient@@V?$basic_string@DU?$char_traits@D@std@@V?$allocator@D@2@@std@@V23@@std@@@std@@@2@$0A@@std@@@std@@IEBAXXZ ; std::_Hash<std::_Umap_traits<long,std::tuple<Client,std::basic_string<char,std::char_traits<char>,std::allocator<char> >,std::basic_string<char,std::char_traits<char>,std::allocator<char> > >,std::_Uhash_compare<long,std::hash<long>,std::equal_to<long> >,std::allocator<std::pair<long const ,std::tuple<Client,std::basic_string<char,std::char_traits<char>,std::allocator<char> >,std::basic_string<char,std::char_traits<char>,std::allocator<char> > > > >,0> >::_Check_max_size
PUBLIC	?_Check_rehash_required_1@?$_Hash@V?$_Umap_traits@JV?$tuple@VClient@@V?$basic_string@DU?$char_traits@D@std@@V?$allocator@D@2@@std@@V23@@std@@V?$_Uhash_compare@JU?$hash@J@std@@U?$equal_to@J@2@@2@V?$allocator@U?$pair@$$CBJV?$tuple@VClient@@V?$basic_string@DU?$char_traits@D@std@@V?$allocator@D@2@@std@@V23@@std@@@std@@@2@$0A@@std@@@std@@IEBA_NXZ ; std::_Hash<std::_Umap_traits<long,std::tuple<Client,std::basic_string<char,std::char_traits<char>,std::allocator<char> >,std::basic_string<char,std::char_traits<char>,std::allocator<char> > >,std::_Uhash_compare<long,std::hash<long>,std::equal_to<long> >,std::allocator<std::pair<long const ,std::tuple<Client,std::basic_string<char,std::char_traits<char>,std::allocator<char> >,std::basic_string<char,std::char_traits<char>,std::allocator<char> > > > >,0> >::_Check_rehash_required_1
PUBLIC	?_Rehash_for_1@?$_Hash@V?$_Umap_traits@JV?$tuple@VClient@@V?$basic_string@DU?$char_traits@D@std@@V?$allocator@D@2@@std@@V23@@std@@V?$_Uhash_compare@JU?$hash@J@std@@U?$equal_to@J@2@@2@V?$allocator@U?$pair@$$CBJV?$tuple@VClient@@V?$basic_string@DU?$char_traits@D@std@@V?$allocator@D@2@@std@@V23@@std@@@std@@@2@$0A@@std@@@std@@IEAAXXZ ; std::_Hash<std::_Umap_traits<long,std::tuple<Client,std::basic_string<char,std::char_traits<char>,std::allocator<char> >,std::basic_string<char,std::char_traits<char>,std::allocator<char> > >,std::_Uhash_compare<long,std::hash<long>,std::equal_to<long> >,std::allocator<std::pair<long const ,std::tuple<Client,std::basic_string<char,std::char_traits<char>,std::allocator<char> >,std::basic_string<char,std::char_traits<char>,std::allocator<char> > > > >,0> >::_Rehash_for_1
PUBLIC	?_Erase_bucket@?$_Hash@V?$_Umap_traits@JV?$tuple@VClient@@V?$basic_string@DU?$char_traits@D@std@@V?$allocator@D@2@@std@@V23@@std@@V?$_Uhash_compare@JU?$hash@J@std@@U?$equal_to@J@2@@2@V?$allocator@U?$pair@$$CBJV?$tuple@VClient@@V?$basic_string@DU?$char_traits@D@std@@V?$allocator@D@2@@std@@V23@@std@@@std@@@2@$0A@@std@@@std@@IEAAXPEAU?$_List_node@U?$pair@$$CBJV?$tuple@VClient@@V?$basic_string@DU?$char_traits@D@std@@V?$allocator@D@2@@std@@V23@@std@@@std@@PEAX@2@_K@Z ; std::_Hash<std::_Umap_traits<long,std::tuple<Client,std::basic_string<char,std::char_traits<char>,std::allocator<char> >,std::basic_string<char,std::char_traits<char>,std::allocator<char> > >,std::_Uhash_compare<long,std::hash<long>,std::equal_to<long> >,std::allocator<std::pair<long const ,std::tuple<Client,std::basic_string<char,std::char_traits<char>,std::allocator<char> >,std::basic_string<char,std::char_traits<char>,std::allocator<char> > > > >,0> >::_Erase_bucket
PUBLIC	?_Get_rest@?$tuple@VClient@@V?$basic_string@DU?$char_traits@D@std@@V?$allocator@D@2@@std@@V23@@std@@QEAAAEAV?$tuple@V?$basic_string@DU?$char_traits@D@std@@V?$allocator@D@2@@std@@V12@@2@XZ ; std::tuple<Client,std::basic_string<char,std::char_traits<char>,std::allocator<char> >,std::basic_string<char,std::char_traits<char>,std::allocator<char> > >::_Get_rest
PUBLIC	??0?$_Tuple_val@VClient@@@std@@QEAA@XZ		; std::_Tuple_val<Client>::_Tuple_val<Client>
PUBLIC	?_Release@?$_Alloc_construct_ptr@V?$allocator@U?$_List_node@U?$pair@$$CBJV?$tuple@VClient@@V?$basic_string@DU?$char_traits@D@std@@V?$allocator@D@2@@std@@V23@@std@@@std@@PEAX@std@@@std@@@std@@QEAAPEAU?$_List_node@U?$pair@$$CBJV?$tuple@VClient@@V?$basic_string@DU?$char_traits@D@std@@V?$allocator@D@2@@std@@V23@@std@@@std@@PEAX@2@XZ ; std::_Alloc_construct_ptr<std::allocator<std::_List_node<std::pair<long const ,std::tuple<Client,std::basic_string<char,std::char_traits<char>,std::allocator<char> >,std::basic_string<char,std::char_traits<char>,std::allocator<char> > > >,void *> > >::_Release
PUBLIC	??1?$_List_node_emplace_op2@V?$allocator@U?$_List_node@U?$pair@$$CBJV?$tuple@VClient@@V?$basic_string@DU?$char_traits@D@std@@V?$allocator@D@2@@std@@V23@@std@@@std@@PEAX@std@@@std@@@std@@QEAA@XZ ; std::_List_node_emplace_op2<std::allocator<std::_List_node<std::pair<long const ,std::tuple<Client,std::basic_string<char,std::char_traits<char>,std::allocator<char> >,std::basic_string<char,std::char_traits<char>,std::allocator<char> > > >,void *> > >::~_List_node_emplace_op2<std::allocator<std::_List_node<std::pair<long const ,std::tuple<Client,std::basic_string<char,std::char_traits<char>,std::allocator<char> >,std::basic_string<char,std::char_traits<char>,std::allocator<char> > > >,void *> > >
PUBLIC	??1?$_Tidy_guard@V?$vector@EV?$allocator@E@std@@@std@@@std@@QEAA@XZ ; std::_Tidy_guard<std::vector<unsigned char,std::allocator<unsigned char> > >::~_Tidy_guard<std::vector<unsigned char,std::allocator<unsigned char> > >
PUBLIC	??0?$_Uninitialized_backout@PEAV?$_List_unchecked_iterator@V?$_List_val@U?$_List_simple_types@U?$pair@$$CBJV?$tuple@VClient@@V?$basic_string@DU?$char_traits@D@std@@V?$allocator@D@2@@std@@V23@@std@@@std@@@std@@@std@@@std@@@std@@QEAA@PEAV?$_List_unchecked_iterator@V?$_List_val@U?$_List_simple_types@U?$pair@$$CBJV?$tuple@VClient@@V?$basic_string@DU?$char_traits@D@std@@V?$allocator@D@2@@std@@V23@@std@@@std@@@std@@@std@@@1@@Z ; std::_Uninitialized_backout<std::_List_unchecked_iterator<std::_List_val<std::_List_simple_types<std::pair<long const ,std::tuple<Client,std::basic_string<char,std::char_traits<char>,std::allocator<char> >,std::basic_string<char,std::char_traits<char>,std::allocator<char> > > > > > > *>::_Uninitialized_backout<std::_List_unchecked_iterator<std::_List_val<std::_List_simple_types<std::pair<long const ,std::tuple<Client,std::basic_string<char,std::char_traits<char>,std::allocator<char> >,std::basic_string<char,std::char_traits<char>,std::allocator<char> > > > > > > *>
PUBLIC	??1?$_Uninitialized_backout@PEAV?$_List_unchecked_iterator@V?$_List_val@U?$_List_simple_types@U?$pair@$$CBJV?$tuple@VClient@@V?$basic_string@DU?$char_traits@D@std@@V?$allocator@D@2@@std@@V23@@std@@@std@@@std@@@std@@@std@@@std@@QEAA@XZ ; std::_Uninitialized_backout<std::_List_unchecked_iterator<std::_List_val<std::_List_simple_types<std::pair<long const ,std::tuple<Client,std::basic_string<char,std::char_traits<char>,std::allocator<char> >,std::basic_string<char,std::char_traits<char>,std::allocator<char> > > > > > > *>::~_Uninitialized_backout<std::_List_unchecked_iterator<std::_List_val<std::_List_simple_types<std::pair<long const ,std::tuple<Client,std::basic_string<char,std::char_traits<char>,std::allocator<char> >,std::basic_string<char,std::char_traits<char>,std::allocator<char> > > > > > > *>
PUBLIC	?_Release@?$_Uninitialized_backout@PEAV?$_List_unchecked_iterator@V?$_List_val@U?$_List_simple_types@U?$pair@$$CBJV?$tuple@VClient@@V?$basic_string@DU?$char_traits@D@std@@V?$allocator@D@2@@std@@V23@@std@@@std@@@std@@@std@@@std@@@std@@QEAAPEAV?$_List_unchecked_iterator@V?$_List_val@U?$_List_simple_types@U?$pair@$$CBJV?$tuple@VClient@@V?$basic_string@DU?$char_traits@D@std@@V?$allocator@D@2@@std@@V23@@std@@@std@@@std@@@std@@@2@XZ ; std::_Uninitialized_backout<std::_List_unchecked_iterator<std::_List_val<std::_List_simple_types<std::pair<long const ,std::tuple<Client,std::basic_string<char,std::char_traits<char>,std::allocator<char> >,std::basic_string<char,std::char_traits<char>,std::allocator<char> > > > > > > *>::_Release
PUBLIC	??0ClientResponse@@QEAA@$$QEAU0@@Z		; ClientResponse::ClientResponse
PUBLIC	??0ClientRequest@@QEAA@$$QEAU0@@Z		; ClientRequest::ClientRequest
PUBLIC	??$_Get_size_of_n@$0BCA@@std@@YA_K_K@Z		; std::_Get_size_of_n<288>
PUBLIC	??$fill@PEAV?$_List_unchecked_iterator@V?$_List_val@U?$_List_simple_types@U?$pair@$$CBJV?$tuple@VClient@@V?$basic_string@DU?$char_traits@D@std@@V?$allocator@D@2@@std@@V23@@std@@@std@@@std@@@std@@@std@@V12@@std@@YAXQEAV?$_List_unchecked_iterator@V?$_List_val@U?$_List_simple_types@U?$pair@$$CBJV?$tuple@VClient@@V?$basic_string@DU?$char_traits@D@std@@V?$allocator@D@2@@std@@V23@@std@@@std@@@std@@@std@@@0@0AEBV10@@Z ; std::fill<std::_List_unchecked_iterator<std::_List_val<std::_List_simple_types<std::pair<long const ,std::tuple<Client,std::basic_string<char,std::char_traits<char>,std::allocator<char> >,std::basic_string<char,std::char_traits<char>,std::allocator<char> > > > > > > *,std::_List_unchecked_iterator<std::_List_val<std::_List_simple_types<std::pair<long const ,std::tuple<Client,std::basic_string<char,std::char_traits<char>,std::allocator<char> >,std::basic_string<char,std::char_traits<char>,std::allocator<char> > > > > > > >
PUBLIC	??$uninitialized_fill@PEAV?$_List_unchecked_iterator@V?$_List_val@U?$_List_simple_types@U?$pair@$$CBJV?$tuple@VClient@@V?$basic_string@DU?$char_traits@D@std@@V?$allocator@D@2@@std@@V23@@std@@@std@@@std@@@std@@@std@@V12@@std@@YAXQEAV?$_List_unchecked_iterator@V?$_List_val@U?$_List_simple_types@U?$pair@$$CBJV?$tuple@VClient@@V?$basic_string@DU?$char_traits@D@std@@V?$allocator@D@2@@std@@V23@@std@@@std@@@std@@@std@@@0@0AEBV10@@Z ; std::uninitialized_fill<std::_List_unchecked_iterator<std::_List_val<std::_List_simple_types<std::pair<long const ,std::tuple<Client,std::basic_string<char,std::char_traits<char>,std::allocator<char> >,std::basic_string<char,std::char_traits<char>,std::allocator<char> > > > > > > *,std::_List_unchecked_iterator<std::_List_val<std::_List_simple_types<std::pair<long const ,std::tuple<Client,std::basic_string<char,std::char_traits<char>,std::allocator<char> >,std::basic_string<char,std::char_traits<char>,std::allocator<char> > > > > > > >
PUBLIC	??$_Get_unwrapped@AEBQEAV?$_List_unchecked_iterator@V?$_List_val@U?$_List_simple_types@U?$pair@$$CBJV?$tuple@VClient@@V?$basic_string@DU?$char_traits@D@std@@V?$allocator@D@2@@std@@V23@@std@@@std@@@std@@@std@@@std@@@std@@YA?A_TAEBQEAV?$_List_unchecked_iterator@V?$_List_val@U?$_List_simple_types@U?$pair@$$CBJV?$tuple@VClient@@V?$basic_string@DU?$char_traits@D@std@@V?$allocator@D@2@@std@@V23@@std@@@std@@@std@@@std@@@0@@Z ; std::_Get_unwrapped<std::_List_unchecked_iterator<std::_List_val<std::_List_simple_types<std::pair<long const ,std::tuple<Client,std::basic_string<char,std::char_traits<char>,std::allocator<char> >,std::basic_string<char,std::char_traits<char>,std::allocator<char> > > > > > > * const &>
PUBLIC	??$_Freenode0@V?$allocator@U?$_List_node@U?$pair@$$CBJV?$tuple@VClient@@V?$basic_string@DU?$char_traits@D@std@@V?$allocator@D@2@@std@@V23@@std@@@std@@PEAX@std@@@std@@@?$_List_node@U?$pair@$$CBJV?$tuple@VClient@@V?$basic_string@DU?$char_traits@D@std@@V?$allocator@D@2@@std@@V23@@std@@@std@@PEAX@std@@SAXAEAV?$allocator@U?$_List_node@U?$pair@$$CBJV?$tuple@VClient@@V?$basic_string@DU?$char_traits@D@std@@V?$allocator@D@2@@std@@V23@@std@@@std@@PEAX@std@@@1@PEAU01@@Z ; std::_List_node<std::pair<long const ,std::tuple<Client,std::basic_string<char,std::char_traits<char>,std::allocator<char> >,std::basic_string<char,std::char_traits<char>,std::allocator<char> > > >,void *>::_Freenode0<std::allocator<std::_List_node<std::pair<long const ,std::tuple<Client,std::basic_string<char,std::char_traits<char>,std::allocator<char> >,std::basic_string<char,std::char_traits<char>,std::allocator<char> > > >,void *> > >
PUBLIC	??$_Free_non_head@V?$allocator@U?$_List_node@U?$pair@$$CBJV?$tuple@VClient@@V?$basic_string@DU?$char_traits@D@std@@V?$allocator@D@2@@std@@V23@@std@@@std@@PEAX@std@@@std@@@?$_List_node@U?$pair@$$CBJV?$tuple@VClient@@V?$basic_string@DU?$char_traits@D@std@@V?$allocator@D@2@@std@@V23@@std@@@std@@PEAX@std@@SAXAEAV?$allocator@U?$_List_node@U?$pair@$$CBJV?$tuple@VClient@@V?$basic_string@DU?$char_traits@D@std@@V?$allocator@D@2@@std@@V23@@std@@@std@@PEAX@std@@@1@PEAU01@@Z ; std::_List_node<std::pair<long const ,std::tuple<Client,std::basic_string<char,std::char_traits<char>,std::allocator<char> >,std::basic_string<char,std::char_traits<char>,std::allocator<char> > > >,void *>::_Free_non_head<std::allocator<std::_List_node<std::pair<long const ,std::tuple<Client,std::basic_string<char,std::char_traits<char>,std::allocator<char> >,std::basic_string<char,std::char_traits<char>,std::allocator<char> > > >,void *> > >
PUBLIC	??$_Destroy_range@PEAV?$_List_unchecked_iterator@V?$_List_val@U?$_List_simple_types@U?$pair@$$CBJV?$tuple@VClient@@V?$basic_string@DU?$char_traits@D@std@@V?$allocator@D@2@@std@@V23@@std@@@std@@@std@@@std@@@std@@PEAV12@@std@@YAXPEAV?$_List_unchecked_iterator@V?$_List_val@U?$_List_simple_types@U?$pair@$$CBJV?$tuple@VClient@@V?$basic_string@DU?$char_traits@D@std@@V?$allocator@D@2@@std@@V23@@std@@@std@@@std@@@std@@@0@QEAV10@@Z ; std::_Destroy_range<std::_List_unchecked_iterator<std::_List_val<std::_List_simple_types<std::pair<long const ,std::tuple<Client,std::basic_string<char,std::char_traits<char>,std::allocator<char> >,std::basic_string<char,std::char_traits<char>,std::allocator<char> > > > > > > *,std::_List_unchecked_iterator<std::_List_val<std::_List_simple_types<std::pair<long const ,std::tuple<Client,std::basic_string<char,std::char_traits<char>,std::allocator<char> >,std::basic_string<char,std::char_traits<char>,std::allocator<char> > > > > > > *>
PUBLIC	??$_Construct_n@AEBQEAEAEBQEAE@?$vector@EV?$allocator@E@std@@@std@@AEAAX_KAEBQEAE1@Z ; std::vector<unsigned char,std::allocator<unsigned char> >::_Construct_n<unsigned char * const &,unsigned char * const &>
PUBLIC	??$?0V?$allocator@E@std@@$$V@?$_Compressed_pair@V?$allocator@E@std@@V?$_Vector_val@U?$_Simple_types@E@std@@@2@$00@std@@QEAA@U_One_then_variadic_args_t@1@$$QEAV?$allocator@E@1@@Z ; std::_Compressed_pair<std::allocator<unsigned char>,std::_Vector_val<std::_Simple_types<unsigned char> >,1>::_Compressed_pair<std::allocator<unsigned char>,std::_Vector_val<std::_Simple_types<unsigned char> >,1><std::allocator<unsigned char> >
PUBLIC	??$_Try_emplace@AEBJ$$V@?$_Hash@V?$_Umap_traits@JV?$tuple@VClient@@V?$basic_string@DU?$char_traits@D@std@@V?$allocator@D@2@@std@@V23@@std@@V?$_Uhash_compare@JU?$hash@J@std@@U?$equal_to@J@2@@2@V?$allocator@U?$pair@$$CBJV?$tuple@VClient@@V?$basic_string@DU?$char_traits@D@std@@V?$allocator@D@2@@std@@V23@@std@@@std@@@2@$0A@@std@@@std@@IEAA?AU?$pair@PEAU?$_List_node@U?$pair@$$CBJV?$tuple@VClient@@V?$basic_string@DU?$char_traits@D@std@@V?$allocator@D@2@@std@@V23@@std@@@std@@PEAX@std@@_N@1@AEBJ@Z ; std::_Hash<std::_Umap_traits<long,std::tuple<Client,std::basic_string<char,std::char_traits<char>,std::allocator<char> >,std::basic_string<char,std::char_traits<char>,std::allocator<char> > >,std::_Uhash_compare<long,std::hash<long>,std::equal_to<long> >,std::allocator<std::pair<long const ,std::tuple<Client,std::basic_string<char,std::char_traits<char>,std::allocator<char> >,std::basic_string<char,std::char_traits<char>,std::allocator<char> > > > >,0> >::_Try_emplace<long const &>
PUBLIC	??$_Find_last@J@?$_Hash@V?$_Umap_traits@JV?$tuple@VClient@@V?$basic_string@DU?$char_traits@D@std@@V?$allocator@D@2@@std@@V23@@std@@V?$_Uhash_compare@JU?$hash@J@std@@U?$equal_to@J@2@@2@V?$allocator@U?$pair@$$CBJV?$tuple@VClient@@V?$basic_string@DU?$char_traits@D@std@@V?$allocator@D@2@@std@@V23@@std@@@std@@@2@$0A@@std@@@std@@IEBA?AU?$_Hash_find_last_result@PEAU?$_List_node@U?$pair@$$CBJV?$tuple@VClient@@V?$basic_string@DU?$char_traits@D@std@@V?$allocator@D@2@@std@@V23@@std@@@std@@PEAX@std@@@1@AEBJ_K@Z ; std::_Hash<std::_Umap_traits<long,std::tuple<Client,std::basic_string<char,std::char_traits<char>,std::allocator<char> >,std::basic_string<char,std::char_traits<char>,std::allocator<char> > >,std::_Uhash_compare<long,std::hash<long>,std::equal_to<long> >,std::allocator<std::pair<long const ,std::tuple<Client,std::basic_string<char,std::char_traits<char>,std::allocator<char> >,std::basic_string<char,std::char_traits<char>,std::allocator<char> > > > >,0> >::_Find_last<long>
PUBLIC	??$DecryptClientData@UClientResponse@@@ServerInterface@@IEAA?AUClientResponse@@V?$vector@EV?$allocator@E@std@@@std@@J@Z ; ServerInterface::DecryptClientData<ClientResponse>
PUBLIC	??$DecryptClientData@UClientRequest@@@ServerInterface@@IEAA?AUClientRequest@@V?$vector@EV?$allocator@E@std@@@std@@J@Z ; ServerInterface::DecryptClientData<ClientRequest>
PUBLIC	??4ClientResponse@@QEAAAEAU0@$$QEAU0@@Z		; ClientResponse::operator=
PUBLIC	??4Client@@QEAAAEAV0@$$QEAV0@@Z			; Client::operator=
PUBLIC	??$?4V?$tuple@VClient@@V?$basic_string@DU?$char_traits@D@std@@V?$allocator@D@2@@std@@V23@@std@@VClient@@$0A@@?$tuple@VClient@@V?$basic_string@DU?$char_traits@D@std@@V?$allocator@D@2@@std@@V23@@std@@QEAAAEAV01@$$QEAV01@@Z ; std::tuple<Client,std::basic_string<char,std::char_traits<char>,std::allocator<char> >,std::basic_string<char,std::char_traits<char>,std::allocator<char> > >::operator=<std::tuple<Client,std::basic_string<char,std::char_traits<char>,std::allocator<char> >,std::basic_string<char,std::char_traits<char>,std::allocator<char> > >,Client,0>
PUBLIC	??$make_tuple@AEAVClient@@AEAV?$basic_string@DU?$char_traits@D@std@@V?$allocator@D@2@@std@@AEAV23@@std@@YA?AV?$tuple@VClient@@V?$basic_string@DU?$char_traits@D@std@@V?$allocator@D@2@@std@@V23@@0@AEAVClient@@AEAV?$basic_string@DU?$char_traits@D@std@@V?$allocator@D@2@@0@1@Z ; std::make_tuple<Client &,std::basic_string<char,std::char_traits<char>,std::allocator<char> > &,std::basic_string<char,std::char_traits<char>,std::allocator<char> > &>
PUBLIC	??$get@$0A@VClient@@V?$basic_string@DU?$char_traits@D@std@@V?$allocator@D@2@@std@@V23@@std@@YAAEAVClient@@AEAV?$tuple@VClient@@V?$basic_string@DU?$char_traits@D@std@@V?$allocator@D@2@@std@@V23@@0@@Z ; std::get<0,Client,std::basic_string<char,std::char_traits<char>,std::allocator<char> >,std::basic_string<char,std::char_traits<char>,std::allocator<char> > >
PUBLIC	??$?0VClient@@$0A@@?$tuple@VClient@@V?$basic_string@DU?$char_traits@D@std@@V?$allocator@D@2@@std@@V23@@std@@QEAA@XZ ; std::tuple<Client,std::basic_string<char,std::char_traits<char>,std::allocator<char> >,std::basic_string<char,std::char_traits<char>,std::allocator<char> > >::tuple<Client,std::basic_string<char,std::char_traits<char>,std::allocator<char> >,std::basic_string<char,std::char_traits<char>,std::allocator<char> > ><Client,0>
PUBLIC	??$?RJ@?$_Uhash_compare@JU?$hash@J@std@@U?$equal_to@J@2@@std@@QEBA_KAEBJ@Z ; std::_Uhash_compare<long,std::hash<long>,std::equal_to<long> >::operator()<long>
PUBLIC	??$_Erase@J@?$_Hash@V?$_Umap_traits@JV?$tuple@VClient@@V?$basic_string@DU?$char_traits@D@std@@V?$allocator@D@2@@std@@V23@@std@@V?$_Uhash_compare@JU?$hash@J@std@@U?$equal_to@J@2@@2@V?$allocator@U?$pair@$$CBJV?$tuple@VClient@@V?$basic_string@DU?$char_traits@D@std@@V?$allocator@D@2@@std@@V23@@std@@@std@@@2@$0A@@std@@@std@@AEAA_KAEBJ@Z ; std::_Hash<std::_Umap_traits<long,std::tuple<Client,std::basic_string<char,std::char_traits<char>,std::allocator<char> >,std::basic_string<char,std::char_traits<char>,std::allocator<char> > >,std::_Uhash_compare<long,std::hash<long>,std::equal_to<long> >,std::allocator<std::pair<long const ,std::tuple<Client,std::basic_string<char,std::char_traits<char>,std::allocator<char> >,std::basic_string<char,std::char_traits<char>,std::allocator<char> > > > >,0> >::_Erase<long>
PUBLIC	??$?RV?$mersenne_twister_engine@I$0CA@$0CHA@$0BIN@$0BP@$0JJAILANP@$0L@$0PPPPPPPP@$06$0JNCMFGIA@$0P@$0OPMGAAAA@$0BC@$0GMAHIJGF@@std@@@?$uniform_int_distribution@J@std@@QEAAJAEAV?$mersenne_twister_engine@I$0CA@$0CHA@$0BIN@$0BP@$0JJAILANP@$0L@$0PPPPPPPP@$06$0JNCMFGIA@$0P@$0OPMGAAAA@$0BC@$0GMAHIJGF@@1@@Z ; std::uniform_int_distribution<long>::operator()<std::mersenne_twister_engine<unsigned int,32,624,397,31,2567483615,11,4294967295,7,2636928640,15,4022730752,18,1812433253> >
PUBLIC	?allocate@?$allocator@U?$_List_node@U?$pair@$$CBJV?$tuple@VClient@@V?$basic_string@DU?$char_traits@D@std@@V?$allocator@D@2@@std@@V23@@std@@@std@@PEAX@std@@@std@@QEAAPEAU?$_List_node@U?$pair@$$CBJV?$tuple@VClient@@V?$basic_string@DU?$char_traits@D@std@@V?$allocator@D@2@@std@@V23@@std@@@std@@PEAX@2@_K@Z ; std::allocator<std::_List_node<std::pair<long const ,std::tuple<Client,std::basic_string<char,std::char_traits<char>,std::allocator<char> >,std::basic_string<char,std::char_traits<char>,std::allocator<char> > > >,void *> >::allocate
PUBLIC	?_Init@param_type@?$uniform_int@J@std@@QEAAXJJ@Z ; std::uniform_int<long>::param_type::_Init
PUBLIC	?_Get_first@?$_Compressed_pair@V?$allocator@U?$_List_node@U?$pair@$$CBJV?$tuple@VClient@@V?$basic_string@DU?$char_traits@D@std@@V?$allocator@D@2@@std@@V23@@std@@@std@@PEAX@std@@@std@@V?$_List_val@U?$_List_simple_types@U?$pair@$$CBJV?$tuple@VClient@@V?$basic_string@DU?$char_traits@D@std@@V?$allocator@D@2@@std@@V23@@std@@@std@@@std@@@2@$00@std@@QEAAAEAV?$allocator@U?$_List_node@U?$pair@$$CBJV?$tuple@VClient@@V?$basic_string@DU?$char_traits@D@std@@V?$allocator@D@2@@std@@V23@@std@@@std@@PEAX@std@@@2@XZ ; std::_Compressed_pair<std::allocator<std::_List_node<std::pair<long const ,std::tuple<Client,std::basic_string<char,std::char_traits<char>,std::allocator<char> >,std::basic_string<char,std::char_traits<char>,std::allocator<char> > > >,void *> >,std::_List_val<std::_List_simple_types<std::pair<long const ,std::tuple<Client,std::basic_string<char,std::char_traits<char>,std::allocator<char> >,std::basic_string<char,std::char_traits<char>,std::allocator<char> > > > > >,1>::_Get_first
PUBLIC	?allocate@?$allocator@V?$_List_unchecked_iterator@V?$_List_val@U?$_List_simple_types@U?$pair@$$CBJV?$tuple@VClient@@V?$basic_string@DU?$char_traits@D@std@@V?$allocator@D@2@@std@@V23@@std@@@std@@@std@@@std@@@std@@@std@@QEAAPEAV?$_List_unchecked_iterator@V?$_List_val@U?$_List_simple_types@U?$pair@$$CBJV?$tuple@VClient@@V?$basic_string@DU?$char_traits@D@std@@V?$allocator@D@2@@std@@V23@@std@@@std@@@std@@@std@@@2@_K@Z ; std::allocator<std::_List_unchecked_iterator<std::_List_val<std::_List_simple_types<std::pair<long const ,std::tuple<Client,std::basic_string<char,std::char_traits<char>,std::allocator<char> >,std::basic_string<char,std::char_traits<char>,std::allocator<char> > > > > > > >::allocate
PUBLIC	?size@?$_Hash_vec@V?$allocator@V?$_List_unchecked_iterator@V?$_List_val@U?$_List_simple_types@U?$pair@$$CBJV?$tuple@VClient@@V?$basic_string@DU?$char_traits@D@std@@V?$allocator@D@2@@std@@V23@@std@@@std@@@std@@@std@@@std@@@std@@@std@@QEBA_KXZ ; std::_Hash_vec<std::allocator<std::_List_unchecked_iterator<std::_List_val<std::_List_simple_types<std::pair<long const ,std::tuple<Client,std::basic_string<char,std::char_traits<char>,std::allocator<char> >,std::basic_string<char,std::char_traits<char>,std::allocator<char> > > > > > > > >::size
PUBLIC	??0?$_List_unchecked_const_iterator@V?$_List_val@U?$_List_simple_types@U?$pair@$$CBJV?$tuple@VClient@@V?$basic_string@DU?$char_traits@D@std@@V?$allocator@D@2@@std@@V23@@std@@@std@@@std@@@std@@U_Iterator_base0@2@@std@@QEAA@PEAU?$_List_node@U?$pair@$$CBJV?$tuple@VClient@@V?$basic_string@DU?$char_traits@D@std@@V?$allocator@D@2@@std@@V23@@std@@@std@@PEAX@1@PEBV?$_List_val@U?$_List_simple_types@U?$pair@$$CBJV?$tuple@VClient@@V?$basic_string@DU?$char_traits@D@std@@V?$allocator@D@2@@std@@V23@@std@@@std@@@std@@@1@@Z ; std::_List_unchecked_const_iterator<std::_List_val<std::_List_simple_types<std::pair<long const ,std::tuple<Client,std::basic_string<char,std::char_traits<char>,std::allocator<char> >,std::basic_string<char,std::char_traits<char>,std::allocator<char> > > > > >,std::_Iterator_base0>::_List_unchecked_const_iterator<std::_List_val<std::_List_simple_types<std::pair<long const ,std::tuple<Client,std::basic_string<char,std::char_traits<char>,std::allocator<char> >,std::basic_string<char,std::char_traits<char>,std::allocator<char> > > > > >,std::_Iterator_base0>
PUBLIC	??0?$_List_unchecked_iterator@V?$_List_val@U?$_List_simple_types@U?$pair@$$CBJV?$tuple@VClient@@V?$basic_string@DU?$char_traits@D@std@@V?$allocator@D@2@@std@@V23@@std@@@std@@@std@@@std@@@std@@QEAA@PEAU?$_List_node@U?$pair@$$CBJV?$tuple@VClient@@V?$basic_string@DU?$char_traits@D@std@@V?$allocator@D@2@@std@@V23@@std@@@std@@PEAX@1@PEBV?$_List_val@U?$_List_simple_types@U?$pair@$$CBJV?$tuple@VClient@@V?$basic_string@DU?$char_traits@D@std@@V?$allocator@D@2@@std@@V23@@std@@@std@@@std@@@1@@Z ; std::_List_unchecked_iterator<std::_List_val<std::_List_simple_types<std::pair<long const ,std::tuple<Client,std::basic_string<char,std::char_traits<char>,std::allocator<char> >,std::basic_string<char,std::char_traits<char>,std::allocator<char> > > > > > >::_List_unchecked_iterator<std::_List_val<std::_List_simple_types<std::pair<long const ,std::tuple<Client,std::basic_string<char,std::char_traits<char>,std::allocator<char> >,std::basic_string<char,std::char_traits<char>,std::allocator<char> > > > > > >
PUBLIC	?seed@?$mersenne_twister@I$0CA@$0CHA@$0BIN@$0BP@$0JJAILANP@$0L@$06$0JNCMFGIA@$0P@$0OPMGAAAA@$0BC@@std@@QEAAXII@Z ; std::mersenne_twister<unsigned int,32,624,397,31,2567483615,11,7,2636928640,15,4022730752,18>::seed
PUBLIC	??0param_type@?$uniform_int@J@std@@QEAA@JJ@Z	; std::uniform_int<long>::param_type::param_type
PUBLIC	?_Unchecked_end@?$list@U?$pair@$$CBJV?$tuple@VClient@@V?$basic_string@DU?$char_traits@D@std@@V?$allocator@D@2@@std@@V23@@std@@@std@@V?$allocator@U?$pair@$$CBJV?$tuple@VClient@@V?$basic_string@DU?$char_traits@D@std@@V?$allocator@D@2@@std@@V23@@std@@@std@@@2@@std@@QEAA?AV?$_List_unchecked_iterator@V?$_List_val@U?$_List_simple_types@U?$pair@$$CBJV?$tuple@VClient@@V?$basic_string@DU?$char_traits@D@std@@V?$allocator@D@2@@std@@V23@@std@@@std@@@std@@@std@@@2@XZ ; std::list<std::pair<long const ,std::tuple<Client,std::basic_string<char,std::char_traits<char>,std::allocator<char> >,std::basic_string<char,std::char_traits<char>,std::allocator<char> > > >,std::allocator<std::pair<long const ,std::tuple<Client,std::basic_string<char,std::char_traits<char>,std::allocator<char> >,std::basic_string<char,std::char_traits<char>,std::allocator<char> > > > > >::_Unchecked_end
PUBLIC	?_Getal@?$list@U?$pair@$$CBJV?$tuple@VClient@@V?$basic_string@DU?$char_traits@D@std@@V?$allocator@D@2@@std@@V23@@std@@@std@@V?$allocator@U?$pair@$$CBJV?$tuple@VClient@@V?$basic_string@DU?$char_traits@D@std@@V?$allocator@D@2@@std@@V23@@std@@@std@@@2@@std@@AEAAAEAV?$allocator@U?$_List_node@U?$pair@$$CBJV?$tuple@VClient@@V?$basic_string@DU?$char_traits@D@std@@V?$allocator@D@2@@std@@V23@@std@@@std@@PEAX@std@@@2@XZ ; std::list<std::pair<long const ,std::tuple<Client,std::basic_string<char,std::char_traits<char>,std::allocator<char> >,std::basic_string<char,std::char_traits<char>,std::allocator<char> > > >,std::allocator<std::pair<long const ,std::tuple<Client,std::basic_string<char,std::char_traits<char>,std::allocator<char> >,std::basic_string<char,std::char_traits<char>,std::allocator<char> > > > > >::_Getal
PUBLIC	?deallocate@?$allocator@V?$_List_unchecked_iterator@V?$_List_val@U?$_List_simple_types@U?$pair@$$CBJV?$tuple@VClient@@V?$basic_string@DU?$char_traits@D@std@@V?$allocator@D@2@@std@@V23@@std@@@std@@@std@@@std@@@std@@@std@@QEAAXQEAV?$_List_unchecked_iterator@V?$_List_val@U?$_List_simple_types@U?$pair@$$CBJV?$tuple@VClient@@V?$basic_string@DU?$char_traits@D@std@@V?$allocator@D@2@@std@@V23@@std@@@std@@@std@@@std@@@2@_K@Z ; std::allocator<std::_List_unchecked_iterator<std::_List_val<std::_List_simple_types<std::pair<long const ,std::tuple<Client,std::basic_string<char,std::char_traits<char>,std::allocator<char> >,std::basic_string<char,std::char_traits<char>,std::allocator<char> > > > > > > >::deallocate
PUBLIC	?capacity@?$_Hash_vec@V?$allocator@V?$_List_unchecked_iterator@V?$_List_val@U?$_List_simple_types@U?$pair@$$CBJV?$tuple@VClient@@V?$basic_string@DU?$char_traits@D@std@@V?$allocator@D@2@@std@@V23@@std@@@std@@@std@@@std@@@std@@@std@@@std@@QEBA_KXZ ; std::_Hash_vec<std::allocator<std::_List_unchecked_iterator<std::_List_val<std::_List_simple_types<std::pair<long const ,std::tuple<Client,std::basic_string<char,std::char_traits<char>,std::allocator<char> >,std::basic_string<char,std::char_traits<char>,std::allocator<char> > > > > > > > >::capacity
PUBLIC	?_Assign_grow@?$_Hash_vec@V?$allocator@V?$_List_unchecked_iterator@V?$_List_val@U?$_List_simple_types@U?$pair@$$CBJV?$tuple@VClient@@V?$basic_string@DU?$char_traits@D@std@@V?$allocator@D@2@@std@@V23@@std@@@std@@@std@@@std@@@std@@@std@@@std@@QEAAX_KV?$_List_unchecked_iterator@V?$_List_val@U?$_List_simple_types@U?$pair@$$CBJV?$tuple@VClient@@V?$basic_string@DU?$char_traits@D@std@@V?$allocator@D@2@@std@@V23@@std@@@std@@@std@@@std@@@2@@Z ; std::_Hash_vec<std::allocator<std::_List_unchecked_iterator<std::_List_val<std::_List_simple_types<std::pair<long const ,std::tuple<Client,std::basic_string<char,std::char_traits<char>,std::allocator<char> >,std::basic_string<char,std::char_traits<char>,std::allocator<char> > > > > > > > >::_Assign_grow
PUBLIC	?_Get_first@?$_Compressed_pair@V?$allocator@V?$_List_unchecked_iterator@V?$_List_val@U?$_List_simple_types@U?$pair@$$CBJV?$tuple@VClient@@V?$basic_string@DU?$char_traits@D@std@@V?$allocator@D@2@@std@@V23@@std@@@std@@@std@@@std@@@std@@@std@@V?$_Vector_val@U?$_Simple_types@V?$_List_unchecked_iterator@V?$_List_val@U?$_List_simple_types@U?$pair@$$CBJV?$tuple@VClient@@V?$basic_string@DU?$char_traits@D@std@@V?$allocator@D@2@@std@@V23@@std@@@std@@@std@@@std@@@std@@@std@@@2@$00@std@@QEAAAEAV?$allocator@V?$_List_unchecked_iterator@V?$_List_val@U?$_List_simple_types@U?$pair@$$CBJV?$tuple@VClient@@V?$basic_string@DU?$char_traits@D@std@@V?$allocator@D@2@@std@@V23@@std@@@std@@@std@@@std@@@std@@@2@XZ ; std::_Compressed_pair<std::allocator<std::_List_unchecked_iterator<std::_List_val<std::_List_simple_types<std::pair<long const ,std::tuple<Client,std::basic_string<char,std::char_traits<char>,std::allocator<char> >,std::basic_string<char,std::char_traits<char>,std::allocator<char> > > > > > > >,std::_Vector_val<std::_Simple_types<std::_List_unchecked_iterator<std::_List_val<std::_List_simple_types<std::pair<long const ,std::tuple<Client,std::basic_string<char,std::char_traits<char>,std::allocator<char> >,std::basic_string<char,std::char_traits<char>,std::allocator<char> > > > > > > > >,1>::_Get_first
PUBLIC	?_Construct_empty@?$basic_string@DU?$char_traits@D@std@@V?$allocator@D@2@@std@@AEAAXXZ ; std::basic_string<char,std::char_traits<char>,std::allocator<char> >::_Construct_empty
PUBLIC	?select_on_container_copy_construction@?$_Default_allocator_traits@V?$allocator@E@std@@@std@@SA?AV?$allocator@E@2@AEBV32@@Z ; std::_Default_allocator_traits<std::allocator<unsigned char> >::select_on_container_copy_construction
PUBLIC	??0?$mersenne_twister@I$0CA@$0CHA@$0BIN@$0BP@$0JJAILANP@$0L@$06$0JNCMFGIA@$0P@$0OPMGAAAA@$0BC@@std@@QEAA@III@Z ; std::mersenne_twister<unsigned int,32,624,397,31,2567483615,11,7,2636928640,15,4022730752,18>::mersenne_twister<unsigned int,32,624,397,31,2567483615,11,7,2636928640,15,4022730752,18>
PUBLIC	??0?$uniform_int@J@std@@QEAA@JJ@Z		; std::uniform_int<long>::uniform_int<long>
PUBLIC	??0?$basic_string@DU?$char_traits@D@std@@V?$allocator@D@2@@std@@QEAA@XZ ; std::basic_string<char,std::char_traits<char>,std::allocator<char> >::basic_string<char,std::char_traits<char>,std::allocator<char> >
PUBLIC	??0?$vector@EV?$allocator@E@std@@@std@@QEAA@AEBV01@@Z ; std::vector<unsigned char,std::allocator<unsigned char> >::vector<unsigned char,std::allocator<unsigned char> >
PUBLIC	?decrypt_block@?$Aes@$0BAA@@Cipher@@QEAAXPEAE@Z	; Cipher::Aes<256>::decrypt_block
PUBLIC	??0?$mersenne_twister_engine@I$0CA@$0CHA@$0BIN@$0BP@$0JJAILANP@$0L@$0PPPPPPPP@$06$0JNCMFGIA@$0P@$0OPMGAAAA@$0BC@$0GMAHIJGF@@std@@QEAA@XZ ; std::mersenne_twister_engine<unsigned int,32,624,397,31,2567483615,11,4294967295,7,2636928640,15,4022730752,18,1812433253>::mersenne_twister_engine<unsigned int,32,624,397,31,2567483615,11,4294967295,7,2636928640,15,4022730752,18,1812433253>
PUBLIC	??0?$uniform_int_distribution@J@std@@QEAA@JJ@Z	; std::uniform_int_distribution<long>::uniform_int_distribution<long>
PUBLIC	??0?$lock_guard@Vmutex@std@@@std@@QEAA@AEAVmutex@1@@Z ; std::lock_guard<std::mutex>::lock_guard<std::mutex>
PUBLIC	??1?$lock_guard@Vmutex@std@@@std@@QEAA@XZ	; std::lock_guard<std::mutex>::~lock_guard<std::mutex>
PUBLIC	?erase@?$_Hash@V?$_Umap_traits@JV?$tuple@VClient@@V?$basic_string@DU?$char_traits@D@std@@V?$allocator@D@2@@std@@V23@@std@@V?$_Uhash_compare@JU?$hash@J@std@@U?$equal_to@J@2@@2@V?$allocator@U?$pair@$$CBJV?$tuple@VClient@@V?$basic_string@DU?$char_traits@D@std@@V?$allocator@D@2@@std@@V23@@std@@@std@@@2@$0A@@std@@@std@@QEAA_KAEBJ@Z ; std::_Hash<std::_Umap_traits<long,std::tuple<Client,std::basic_string<char,std::char_traits<char>,std::allocator<char> >,std::basic_string<char,std::char_traits<char>,std::allocator<char> > >,std::_Uhash_compare<long,std::hash<long>,std::equal_to<long> >,std::allocator<std::pair<long const ,std::tuple<Client,std::basic_string<char,std::char_traits<char>,std::allocator<char> >,std::basic_string<char,std::char_traits<char>,std::allocator<char> > > > >,0> >::erase
PUBLIC	??A?$unordered_map@JV?$tuple@VClient@@V?$basic_string@DU?$char_traits@D@std@@V?$allocator@D@2@@std@@V23@@std@@U?$hash@J@2@U?$equal_to@J@2@V?$allocator@U?$pair@$$CBJV?$tuple@VClient@@V?$basic_string@DU?$char_traits@D@std@@V?$allocator@D@2@@std@@V23@@std@@@std@@@2@@std@@QEAAAEAV?$tuple@VClient@@V?$basic_string@DU?$char_traits@D@std@@V?$allocator@D@2@@std@@V23@@1@AEBJ@Z ; std::unordered_map<long,std::tuple<Client,std::basic_string<char,std::char_traits<char>,std::allocator<char> >,std::basic_string<char,std::char_traits<char>,std::allocator<char> > >,std::hash<long>,std::equal_to<long>,std::allocator<std::pair<long const ,std::tuple<Client,std::basic_string<char,std::char_traits<char>,std::allocator<char> >,std::basic_string<char,std::char_traits<char>,std::allocator<char> > > > > >::operator[]
PUBLIC	?at@?$unordered_map@JV?$tuple@VClient@@V?$basic_string@DU?$char_traits@D@std@@V?$allocator@D@2@@std@@V23@@std@@U?$hash@J@2@U?$equal_to@J@2@V?$allocator@U?$pair@$$CBJV?$tuple@VClient@@V?$basic_string@DU?$char_traits@D@std@@V?$allocator@D@2@@std@@V23@@std@@@std@@@2@@std@@QEAAAEAV?$tuple@VClient@@V?$basic_string@DU?$char_traits@D@std@@V?$allocator@D@2@@std@@V23@@2@AEBJ@Z ; std::unordered_map<long,std::tuple<Client,std::basic_string<char,std::char_traits<char>,std::allocator<char> >,std::basic_string<char,std::char_traits<char>,std::allocator<char> > >,std::hash<long>,std::equal_to<long>,std::allocator<std::pair<long const ,std::tuple<Client,std::basic_string<char,std::char_traits<char>,std::allocator<char> >,std::basic_string<char,std::char_traits<char>,std::allocator<char> > > > > >::at
PUBLIC	?IsCUIDInUse@ServerInterface@@QEAAHJ@Z		; ServerInterface::IsCUIDInUse
PUBLIC	?EncryptServerRequest@ServerInterface@@QEAA?AV?$vector@EV?$allocator@E@std@@@std@@UServerCommand@@@Z ; ServerInterface::EncryptServerRequest
PUBLIC	?DecryptClientResponse@ServerInterface@@QEAA?AUClientResponse@@JV?$vector@EV?$allocator@E@std@@@std@@@Z ; ServerInterface::DecryptClientResponse
PUBLIC	?DecryptClientRequest@ServerInterface@@QEAA?AUClientRequest@@JV?$vector@EV?$allocator@E@std@@@std@@@Z ; ServerInterface::DecryptClientRequest
PUBLIC	?IsClientAlive@ServerInterface@@QEAAHJ@Z	; ServerInterface::IsClientAlive
PUBLIC	?AddToClientList@ServerInterface@@QEAAHVClient@@@Z ; ServerInterface::AddToClientList
PUBLIC	?ClientIsInClientList@ServerInterface@@QEAAHJ@Z	; ServerInterface::ClientIsInClientList
PUBLIC	?PingClient@ServerInterface@@QEAA?AUClientResponse@@J@Z ; ServerInterface::PingClient
PUBLIC	?PerformUDPRequest@ServerInterface@@IEAAHV?$vector@EV?$allocator@E@std@@@std@@@Z ; ServerInterface::PerformUDPRequest
PUBLIC	?AcceptTCPConnection@ServerInterface@@QEAAJVClient@@@Z ; ServerInterface::AcceptTCPConnection
PUBLIC	?UDPSendMessageToClient@ServerInterface@@QEAAHJUUDPResponse@@@Z ; ServerInterface::UDPSendMessageToClient
PUBLIC	?WaitForClientResponse@ServerInterface@@QEAA?AUClientResponse@@J@Z ; ServerInterface::WaitForClientResponse
PUBLIC	?TCPSendMessageToClient@ServerInterface@@QEAAHJUServerCommand@@@Z ; ServerInterface::TCPSendMessageToClient
PUBLIC	?NewServerInstance@ServerInterface@@QEAA?AUServer@@W4SocketTypes@@H@Z ; ServerInterface::NewServerInstance
PUBLIC	??0ClientResponse@@QEAA@AEBU0@@Z		; ClientResponse::ClientResponse
PUBLIC	??0Client@@QEAA@AEBV0@@Z			; Client::Client
PUBLIC	??0?$_Tuple_val@VClient@@@std@@QEAA@AEBU01@@Z	; std::_Tuple_val<Client>::_Tuple_val<Client>
PUBLIC	??0?$_Tuple_val@V?$basic_string@DU?$char_traits@D@std@@V?$allocator@D@2@@std@@@std@@QEAA@AEBU01@@Z ; std::_Tuple_val<std::basic_string<char,std::char_traits<char>,std::allocator<char> > >::_Tuple_val<std::basic_string<char,std::char_traits<char>,std::allocator<char> > >
PUBLIC	??0?$tuple@V?$basic_string@DU?$char_traits@D@std@@V?$allocator@D@2@@std@@@std@@QEAA@AEBV01@@Z ; std::tuple<std::basic_string<char,std::char_traits<char>,std::allocator<char> > >::tuple<std::basic_string<char,std::char_traits<char>,std::allocator<char> > >
PUBLIC	??0?$tuple@V?$basic_string@DU?$char_traits@D@std@@V?$allocator@D@2@@std@@V12@@std@@QEAA@AEBV01@@Z ; std::tuple<std::basic_string<char,std::char_traits<char>,std::allocator<char> >,std::basic_string<char,std::char_traits<char>,std::allocator<char> > >::tuple<std::basic_string<char,std::char_traits<char>,std::allocator<char> >,std::basic_string<char,std::char_traits<char>,std::allocator<char> > >
PUBLIC	??0?$tuple@VClient@@V?$basic_string@DU?$char_traits@D@std@@V?$allocator@D@2@@std@@V23@@std@@QEAA@AEBV01@@Z ; std::tuple<Client,std::basic_string<char,std::char_traits<char>,std::allocator<char> >,std::basic_string<char,std::char_traits<char>,std::allocator<char> > >::tuple<Client,std::basic_string<char,std::char_traits<char>,std::allocator<char> >,std::basic_string<char,std::char_traits<char>,std::allocator<char> > >
PUBLIC	??1Client@@QEAA@XZ				; Client::~Client
PUBLIC	??1?$_Tuple_val@VClient@@@std@@QEAA@XZ		; std::_Tuple_val<Client>::~_Tuple_val<Client>
PUBLIC	??1?$_Tuple_val@V?$basic_string@DU?$char_traits@D@std@@V?$allocator@D@2@@std@@@std@@QEAA@XZ ; std::_Tuple_val<std::basic_string<char,std::char_traits<char>,std::allocator<char> > >::~_Tuple_val<std::basic_string<char,std::char_traits<char>,std::allocator<char> > >
PUBLIC	??1?$tuple@V?$basic_string@DU?$char_traits@D@std@@V?$allocator@D@2@@std@@@std@@QEAA@XZ ; std::tuple<std::basic_string<char,std::char_traits<char>,std::allocator<char> > >::~tuple<std::basic_string<char,std::char_traits<char>,std::allocator<char> > >
PUBLIC	??1?$tuple@V?$basic_string@DU?$char_traits@D@std@@V?$allocator@D@2@@std@@V12@@std@@QEAA@XZ ; std::tuple<std::basic_string<char,std::char_traits<char>,std::allocator<char> >,std::basic_string<char,std::char_traits<char>,std::allocator<char> > >::~tuple<std::basic_string<char,std::char_traits<char>,std::allocator<char> >,std::basic_string<char,std::char_traits<char>,std::allocator<char> > >
PUBLIC	??1?$tuple@VClient@@V?$basic_string@DU?$char_traits@D@std@@V?$allocator@D@2@@std@@V23@@std@@QEAA@XZ ; std::tuple<Client,std::basic_string<char,std::char_traits<char>,std::allocator<char> >,std::basic_string<char,std::char_traits<char>,std::allocator<char> > >::~tuple<Client,std::basic_string<char,std::char_traits<char>,std::allocator<char> >,std::basic_string<char,std::char_traits<char>,std::allocator<char> > >
PUBLIC	??1ClientResponse@@QEAA@XZ			; ClientResponse::~ClientResponse
PUBLIC	?GetClientList@ServerInterface@@QEAAAEAV?$unordered_map@JV?$tuple@VClient@@V?$basic_string@DU?$char_traits@D@std@@V?$allocator@D@2@@std@@V23@@std@@U?$hash@J@2@U?$equal_to@J@2@V?$allocator@U?$pair@$$CBJV?$tuple@VClient@@V?$basic_string@DU?$char_traits@D@std@@V?$allocator@D@2@@std@@V23@@std@@@std@@@2@@std@@XZ ; ServerInterface::GetClientList
PUBLIC	??0ClientResponse@@QEAA@XZ			; ClientResponse::ClientResponse
PUBLIC	??0Client@@QEAA@XZ				; Client::Client
PUBLIC	?GetClientData@ServerInterface@@QEAA?BV?$tuple@VClient@@V?$basic_string@DU?$char_traits@D@std@@V?$allocator@D@2@@std@@V23@@std@@J@Z ; ServerInterface::GetClientData
PUBLIC	?RemoveClientFromClientList@ServerInterface@@QEAAHJ@Z ; ServerInterface::RemoveClientFromClientList
PUBLIC	?_Mymtx@_Mutex_base@std@@AEAAPEAU_Mtx_internal_imp_t@@XZ ; std::_Mutex_base::_Mymtx
PUBLIC	?_Verify_ownership_levels@_Mutex_base@std@@IEAA_NXZ ; std::_Mutex_base::_Verify_ownership_levels
PUBLIC	?unlock@_Mutex_base@std@@QEAAXXZ		; std::_Mutex_base::unlock
PUBLIC	?lock@_Mutex_base@std@@QEAAXXZ			; std::_Mutex_base::lock
PUBLIC	?SetClientID@Client@@QEAAXJ@Z			; Client::SetClientID
PUBLIC	?GenerateCUID@Client@@QEAAJXZ			; Client::GenerateCUID
PUBLIC	?RequestToBlob@NetCommon@@YA?AUNET_BLOB@@UServerCommand@@V?$basic_string@DU?$char_traits@D@std@@V?$allocator@D@2@@std@@@Z ; NetCommon::RequestToBlob
PUBLIC	?DecryptByteString@NetCommon@@YAXAEAV?$vector@EV?$allocator@E@std@@@std@@V?$basic_string@DU?$char_traits@D@std@@V?$allocator@D@2@@3@@Z ; NetCommon::DecryptByteString
PUBLIC	??0Server@@QEAA@XZ				; Server::Server
PUBLIC	??0?$tuple@$$V@std@@QEAA@AEBV01@@Z		; std::tuple<>::tuple<>
;	COMDAT pdata
pdata	SEGMENT
$pdata$??$?0V?$tuple@AEBJ@std@@V?$tuple@$$V@1@$0A@$$Z$S@?$pair@$$CBJV?$tuple@VClient@@V?$basic_string@DU?$char_traits@D@std@@V?$allocator@D@2@@std@@V23@@std@@@std@@QEAA@AEAV?$tuple@AEBJ@1@AEAV?$tuple@$$V@1@U?$integer_sequence@_K$0A@@1@U?$integer_sequence@_K$S@1@@Z DD imagerel $LN5
	DD	imagerel $LN5+34
	DD	imagerel $unwind$??$?0V?$tuple@AEBJ@std@@V?$tuple@$$V@1@$0A@$$Z$S@?$pair@$$CBJV?$tuple@VClient@@V?$basic_string@DU?$char_traits@D@std@@V?$allocator@D@2@@std@@V23@@std@@@std@@QEAA@AEAV?$tuple@AEBJ@1@AEAV?$tuple@$$V@1@U?$integer_sequence@_K$0A@@1@U?$integer_sequence@_K$S@1@@Z
pdata	ENDS
;	COMDAT pdata
pdata	SEGMENT
$pdata$??$?0AEAV?$basic_string@DU?$char_traits@D@std@@V?$allocator@D@2@@std@@@?$_Tuple_val@V?$basic_string@DU?$char_traits@D@std@@V?$allocator@D@2@@std@@@std@@QEAA@AEAV?$basic_string@DU?$char_traits@D@std@@V?$allocator@D@2@@1@@Z DD imagerel $LN6
	DD	imagerel $LN6+23
	DD	imagerel $unwind$??$?0AEAV?$basic_string@DU?$char_traits@D@std@@V?$allocator@D@2@@std@@@?$_Tuple_val@V?$basic_string@DU?$char_traits@D@std@@V?$allocator@D@2@@std@@@std@@QEAA@AEAV?$basic_string@DU?$char_traits@D@std@@V?$allocator@D@2@@1@@Z
pdata	ENDS
;	COMDAT pdata
pdata	SEGMENT
$pdata$??$?0U_Exact_args_t@std@@AEAV?$basic_string@DU?$char_traits@D@std@@V?$allocator@D@2@@1@$$V$0A@@?$tuple@V?$basic_string@DU?$char_traits@D@std@@V?$allocator@D@2@@std@@@std@@QEAA@U_Exact_args_t@1@AEAV?$basic_string@DU?$char_traits@D@std@@V?$allocator@D@2@@1@@Z DD imagerel $LN9
	DD	imagerel $LN9+26
	DD	imagerel $unwind$??$?0U_Exact_args_t@std@@AEAV?$basic_string@DU?$char_traits@D@std@@V?$allocator@D@2@@1@$$V$0A@@?$tuple@V?$basic_string@DU?$char_traits@D@std@@V?$allocator@D@2@@std@@@std@@QEAA@U_Exact_args_t@1@AEAV?$basic_string@DU?$char_traits@D@std@@V?$allocator@D@2@@1@@Z
pdata	ENDS
;	COMDAT pdata
pdata	SEGMENT
$pdata$??$?0AEBJ$$Z$$V@?$pair@$$CBJV?$tuple@VClient@@V?$basic_string@DU?$char_traits@D@std@@V?$allocator@D@2@@std@@V23@@std@@@std@@QEAA@Upiecewise_construct_t@1@V?$tuple@AEBJ@1@V?$tuple@$$V@1@@Z DD imagerel $LN7
	DD	imagerel $LN7+34
	DD	imagerel $unwind$??$?0AEBJ$$Z$$V@?$pair@$$CBJV?$tuple@VClient@@V?$basic_string@DU?$char_traits@D@std@@V?$allocator@D@2@@std@@V23@@std@@@std@@QEAA@Upiecewise_construct_t@1@V?$tuple@AEBJ@1@V?$tuple@$$V@1@@Z
pdata	ENDS
;	COMDAT pdata
pdata	SEGMENT
$pdata$??$construct_at@U?$pair@$$CBJV?$tuple@VClient@@V?$basic_string@DU?$char_traits@D@std@@V?$allocator@D@2@@std@@V23@@std@@@std@@AEBUpiecewise_construct_t@2@V?$tuple@AEBJ@2@V?$tuple@$$V@2@$0A@@std@@YAPEAU?$pair@$$CBJV?$tuple@VClient@@V?$basic_string@DU?$char_traits@D@std@@V?$allocator@D@2@@std@@V23@@std@@@0@QEAU10@AEBUpiecewise_construct_t@0@$$QEAV?$tuple@AEBJ@0@$$QEAV?$tuple@$$V@0@@Z DD imagerel $LN12
	DD	imagerel $LN12+34
	DD	imagerel $unwind$??$construct_at@U?$pair@$$CBJV?$tuple@VClient@@V?$basic_string@DU?$char_traits@D@std@@V?$allocator@D@2@@std@@V23@@std@@@std@@AEBUpiecewise_construct_t@2@V?$tuple@AEBJ@2@V?$tuple@$$V@2@$0A@@std@@YAPEAU?$pair@$$CBJV?$tuple@VClient@@V?$basic_string@DU?$char_traits@D@std@@V?$allocator@D@2@@std@@V23@@std@@@0@QEAU10@AEBUpiecewise_construct_t@0@$$QEAV?$tuple@AEBJ@0@$$QEAV?$tuple@$$V@0@@Z
pdata	ENDS
;	COMDAT pdata
pdata	SEGMENT
$pdata$??$?0AEAVClient@@@?$_Tuple_val@VClient@@@std@@QEAA@AEAVClient@@@Z DD imagerel $LN6
	DD	imagerel $LN6+23
	DD	imagerel $unwind$??$?0AEAVClient@@@?$_Tuple_val@VClient@@@std@@QEAA@AEAVClient@@@Z
pdata	ENDS
;	COMDAT pdata
pdata	SEGMENT
$pdata$??$?0U_Exact_args_t@std@@AEAV?$basic_string@DU?$char_traits@D@std@@V?$allocator@D@2@@1@AEAV21@$0A@@?$tuple@V?$basic_string@DU?$char_traits@D@std@@V?$allocator@D@2@@std@@V12@@std@@QEAA@U_Exact_args_t@1@AEAV?$basic_string@DU?$char_traits@D@std@@V?$allocator@D@2@@1@1@Z DD imagerel $LN16
	DD	imagerel $LN16+57
	DD	imagerel $unwind$??$?0U_Exact_args_t@std@@AEAV?$basic_string@DU?$char_traits@D@std@@V?$allocator@D@2@@1@AEAV21@$0A@@?$tuple@V?$basic_string@DU?$char_traits@D@std@@V?$allocator@D@2@@std@@V12@@std@@QEAA@U_Exact_args_t@1@AEAV?$basic_string@DU?$char_traits@D@std@@V?$allocator@D@2@@1@1@Z
pdata	ENDS
;	COMDAT pdata
pdata	SEGMENT
$pdata$?_Refill_lower@?$mersenne_twister@I$0CA@$0CHA@$0BIN@$0BP@$0JJAILANP@$0L@$06$0JNCMFGIA@$0P@$0OPMGAAAA@$0BC@@std@@IEAAXXZ DD imagerel $LN20
	DD	imagerel $LN20+235
	DD	imagerel $unwind$?_Refill_lower@?$mersenne_twister@I$0CA@$0CHA@$0BIN@$0BP@$0JJAILANP@$0L@$06$0JNCMFGIA@$0P@$0OPMGAAAA@$0BC@@std@@IEAAXXZ
pdata	ENDS
;	COMDAT pdata
pdata	SEGMENT
$pdata$??R?$mersenne_twister@I$0CA@$0CHA@$0BIN@$0BP@$0JJAILANP@$0L@$06$0JNCMFGIA@$0P@$0OPMGAAAA@$0BC@@std@@QEAAIXZ DD imagerel $LN37
	DD	imagerel $LN37+116
	DD	imagerel $unwind$??R?$mersenne_twister@I$0CA@$0CHA@$0BIN@$0BP@$0JJAILANP@$0L@$06$0JNCMFGIA@$0P@$0OPMGAAAA@$0BC@@std@@QEAAIXZ
pdata	ENDS
;	COMDAT pdata
pdata	SEGMENT
$pdata$0$??R?$mersenne_twister@I$0CA@$0CHA@$0BIN@$0BP@$0JJAILANP@$0L@$06$0JNCMFGIA@$0P@$0OPMGAAAA@$0BC@@std@@QEAAIXZ DD imagerel $LN37+116
	DD	imagerel $LN37+331
	DD	imagerel $chain$0$??R?$mersenne_twister@I$0CA@$0CHA@$0BIN@$0BP@$0JJAILANP@$0L@$06$0JNCMFGIA@$0P@$0OPMGAAAA@$0BC@@std@@QEAAIXZ
pdata	ENDS
;	COMDAT pdata
pdata	SEGMENT
$pdata$1$??R?$mersenne_twister@I$0CA@$0CHA@$0BIN@$0BP@$0JJAILANP@$0L@$06$0JNCMFGIA@$0P@$0OPMGAAAA@$0BC@@std@@QEAAIXZ DD imagerel $LN37+331
	DD	imagerel $LN37+396
	DD	imagerel $chain$1$??R?$mersenne_twister@I$0CA@$0CHA@$0BIN@$0BP@$0JJAILANP@$0L@$06$0JNCMFGIA@$0P@$0OPMGAAAA@$0BC@@std@@QEAAIXZ
pdata	ENDS
;	COMDAT pdata
pdata	SEGMENT
$pdata$?_Get_random_product@?$_Rng_from_urng_v2@KV?$mersenne_twister_engine@I$0CA@$0CHA@$0BIN@$0BP@$0JJAILANP@$0L@$0PPPPPPPP@$06$0JNCMFGIA@$0P@$0OPMGAAAA@$0BC@$0GMAHIJGF@@std@@@std@@AEAA_KKI@Z DD imagerel $LN17
	DD	imagerel $LN17+28
	DD	imagerel $unwind$?_Get_random_product@?$_Rng_from_urng_v2@KV?$mersenne_twister_engine@I$0CA@$0CHA@$0BIN@$0BP@$0JJAILANP@$0L@$0PPPPPPPP@$06$0JNCMFGIA@$0P@$0OPMGAAAA@$0BC@$0GMAHIJGF@@std@@@std@@AEAA_KKI@Z
pdata	ENDS
;	COMDAT pdata
pdata	SEGMENT
$pdata$??R?$_Rng_from_urng_v2@KV?$mersenne_twister_engine@I$0CA@$0CHA@$0BIN@$0BP@$0JJAILANP@$0L@$0PPPPPPPP@$06$0JNCMFGIA@$0P@$0OPMGAAAA@$0BC@$0GMAHIJGF@@std@@@std@@QEAAKK@Z DD imagerel $LN42
	DD	imagerel $LN42+107
	DD	imagerel $unwind$??R?$_Rng_from_urng_v2@KV?$mersenne_twister_engine@I$0CA@$0CHA@$0BIN@$0BP@$0JJAILANP@$0L@$0PPPPPPPP@$06$0JNCMFGIA@$0P@$0OPMGAAAA@$0BC@$0GMAHIJGF@@std@@@std@@QEAAKK@Z
pdata	ENDS
;	COMDAT pdata
pdata	SEGMENT
$pdata$??_G?$pair@$$CBJV?$tuple@VClient@@V?$basic_string@DU?$char_traits@D@std@@V?$allocator@D@2@@std@@V23@@std@@@std@@QEAAPEAXI@Z DD imagerel $LN22
	DD	imagerel $LN22+45
	DD	imagerel $unwind$??_G?$pair@$$CBJV?$tuple@VClient@@V?$basic_string@DU?$char_traits@D@std@@V?$allocator@D@2@@std@@V23@@std@@@std@@QEAAPEAXI@Z
pdata	ENDS
;	COMDAT pdata
pdata	SEGMENT
$pdata$??1?$pair@$$CBJV?$tuple@VClient@@V?$basic_string@DU?$char_traits@D@std@@V?$allocator@D@2@@std@@V23@@std@@@std@@QEAA@XZ DD imagerel $LN16
	DD	imagerel $LN16+32
	DD	imagerel $unwind$??1?$pair@$$CBJV?$tuple@VClient@@V?$basic_string@DU?$char_traits@D@std@@V?$allocator@D@2@@std@@V23@@std@@@std@@QEAA@XZ
pdata	ENDS
;	COMDAT pdata
pdata	SEGMENT
$pdata$??$destroy_at@U?$pair@$$CBJV?$tuple@VClient@@V?$basic_string@DU?$char_traits@D@std@@V?$allocator@D@2@@std@@V23@@std@@@std@@@std@@YAXQEAU?$pair@$$CBJV?$tuple@VClient@@V?$basic_string@DU?$char_traits@D@std@@V?$allocator@D@2@@std@@V23@@std@@@0@@Z DD imagerel $LN25
	DD	imagerel $LN25+32
	DD	imagerel $unwind$??$destroy_at@U?$pair@$$CBJV?$tuple@VClient@@V?$basic_string@DU?$char_traits@D@std@@V?$allocator@D@2@@std@@V23@@std@@@std@@@std@@YAXQEAU?$pair@$$CBJV?$tuple@VClient@@V?$basic_string@DU?$char_traits@D@std@@V?$allocator@D@2@@std@@V23@@std@@@0@@Z
pdata	ENDS
;	COMDAT pdata
pdata	SEGMENT
$pdata$??$?4V?$tuple@V?$basic_string@DU?$char_traits@D@std@@V?$allocator@D@2@@std@@@std@@V?$basic_string@DU?$char_traits@D@std@@V?$allocator@D@2@@1@$0A@@?$tuple@V?$basic_string@DU?$char_traits@D@std@@V?$allocator@D@2@@std@@@std@@QEAAAEAV01@$$QEAV01@@Z DD imagerel $LN9
	DD	imagerel $LN9+23
	DD	imagerel $unwind$??$?4V?$tuple@V?$basic_string@DU?$char_traits@D@std@@V?$allocator@D@2@@std@@@std@@V?$basic_string@DU?$char_traits@D@std@@V?$allocator@D@2@@1@$0A@@?$tuple@V?$basic_string@DU?$char_traits@D@std@@V?$allocator@D@2@@std@@@std@@QEAAAEAV01@$$QEAV01@@Z
pdata	ENDS
;	COMDAT pdata
pdata	SEGMENT
$pdata$??$?0U_Exact_args_t@std@@AEAVClient@@AEAV?$basic_string@DU?$char_traits@D@std@@V?$allocator@D@2@@1@AEAV31@$0A@@?$tuple@VClient@@V?$basic_string@DU?$char_traits@D@std@@V?$allocator@D@2@@std@@V23@@std@@QEAA@U_Exact_args_t@1@AEAVClient@@AEAV?$basic_string@DU?$char_traits@D@std@@V?$allocator@D@2@@1@2@Z DD imagerel $LN23
	DD	imagerel $LN23+85
	DD	imagerel $unwind$??$?0U_Exact_args_t@std@@AEAVClient@@AEAV?$basic_string@DU?$char_traits@D@std@@V?$allocator@D@2@@1@AEAV31@$0A@@?$tuple@VClient@@V?$basic_string@DU?$char_traits@D@std@@V?$allocator@D@2@@std@@V23@@std@@QEAA@U_Exact_args_t@1@AEAVClient@@AEAV?$basic_string@DU?$char_traits@D@std@@V?$allocator@D@2@@1@2@Z
pdata	ENDS
;	COMDAT pdata
pdata	SEGMENT
$pdata$??$_Eval@V?$mersenne_twister_engine@I$0CA@$0CHA@$0BIN@$0BP@$0JJAILANP@$0L@$0PPPPPPPP@$06$0JNCMFGIA@$0P@$0OPMGAAAA@$0BC@$0GMAHIJGF@@std@@@?$uniform_int@J@std@@AEBAJAEAV?$mersenne_twister_engine@I$0CA@$0CHA@$0BIN@$0BP@$0JJAILANP@$0L@$0PPPPPPPP@$06$0JNCMFGIA@$0P@$0OPMGAAAA@$0BC@$0GMAHIJGF@@1@JJ@Z DD imagerel $LN74
	DD	imagerel $LN74+162
	DD	imagerel $unwind$??$_Eval@V?$mersenne_twister_engine@I$0CA@$0CHA@$0BIN@$0BP@$0JJAILANP@$0L@$0PPPPPPPP@$06$0JNCMFGIA@$0P@$0OPMGAAAA@$0BC@$0GMAHIJGF@@std@@@?$uniform_int@J@std@@AEBAJAEAV?$mersenne_twister_engine@I$0CA@$0CHA@$0BIN@$0BP@$0JJAILANP@$0L@$0PPPPPPPP@$06$0JNCMFGIA@$0P@$0OPMGAAAA@$0BC@$0GMAHIJGF@@1@JJ@Z
pdata	ENDS
;	COMDAT pdata
pdata	SEGMENT
$pdata$?_Allocate@?$_Alloc_construct_ptr@V?$allocator@U?$_List_node@U?$pair@$$CBJV?$tuple@VClient@@V?$basic_string@DU?$char_traits@D@std@@V?$allocator@D@2@@std@@V23@@std@@@std@@PEAX@std@@@std@@@std@@QEAAXXZ DD imagerel $LN31
	DD	imagerel $LN31+37
	DD	imagerel $unwind$?_Allocate@?$_Alloc_construct_ptr@V?$allocator@U?$_List_node@U?$pair@$$CBJV?$tuple@VClient@@V?$basic_string@DU?$char_traits@D@std@@V?$allocator@D@2@@std@@V23@@std@@@std@@PEAX@std@@@std@@@std@@QEAAXXZ
pdata	ENDS
;	COMDAT pdata
pdata	SEGMENT
$pdata$??$destroy@U?$pair@$$CBJV?$tuple@VClient@@V?$basic_string@DU?$char_traits@D@std@@V?$allocator@D@2@@std@@V23@@std@@@std@@@?$_Default_allocator_traits@V?$allocator@U?$_List_node@U?$pair@$$CBJV?$tuple@VClient@@V?$basic_string@DU?$char_traits@D@std@@V?$allocator@D@2@@std@@V23@@std@@@std@@PEAX@std@@@std@@@std@@SAXAEAV?$allocator@U?$_List_node@U?$pair@$$CBJV?$tuple@VClient@@V?$basic_string@DU?$char_traits@D@std@@V?$allocator@D@2@@std@@V23@@std@@@std@@PEAX@std@@@1@QEAU?$pair@$$CBJV?$tuple@VClient@@V?$basic_string@DU?$char_traits@D@std@@V?$allocator@D@2@@std@@V23@@std@@@1@@Z DD imagerel $LN27
	DD	imagerel $LN27+32
	DD	imagerel $unwind$??$destroy@U?$pair@$$CBJV?$tuple@VClient@@V?$basic_string@DU?$char_traits@D@std@@V?$allocator@D@2@@std@@V23@@std@@@std@@@?$_Default_allocator_traits@V?$allocator@U?$_List_node@U?$pair@$$CBJV?$tuple@VClient@@V?$basic_string@DU?$char_traits@D@std@@V?$allocator@D@2@@std@@V23@@std@@@std@@PEAX@std@@@std@@@std@@SAXAEAV?$allocator@U?$_List_node@U?$pair@$$CBJV?$tuple@VClient@@V?$basic_string@DU?$char_traits@D@std@@V?$allocator@D@2@@std@@V23@@std@@@std@@PEAX@std@@@1@QEAU?$pair@$$CBJV?$tuple@VClient@@V?$basic_string@DU?$char_traits@D@std@@V?$allocator@D@2@@std@@V23@@std@@@1@@Z
pdata	ENDS
;	COMDAT pdata
pdata	SEGMENT
$pdata$??$_Freenode@V?$allocator@U?$_List_node@U?$pair@$$CBJV?$tuple@VClient@@V?$basic_string@DU?$char_traits@D@std@@V?$allocator@D@2@@std@@V23@@std@@@std@@PEAX@std@@@std@@@?$_List_node@U?$pair@$$CBJV?$tuple@VClient@@V?$basic_string@DU?$char_traits@D@std@@V?$allocator@D@2@@std@@V23@@std@@@std@@PEAX@std@@SAXAEAV?$allocator@U?$_List_node@U?$pair@$$CBJV?$tuple@VClient@@V?$basic_string@DU?$char_traits@D@std@@V?$allocator@D@2@@std@@V23@@std@@@std@@PEAX@std@@@1@PEAU01@@Z DD imagerel $LN75
	DD	imagerel $LN75+54
	DD	imagerel $unwind$??$_Freenode@V?$allocator@U?$_List_node@U?$pair@$$CBJV?$tuple@VClient@@V?$basic_string@DU?$char_traits@D@std@@V?$allocator@D@2@@std@@V23@@std@@@std@@PEAX@std@@@std@@@?$_List_node@U?$pair@$$CBJV?$tuple@VClient@@V?$basic_string@DU?$char_traits@D@std@@V?$allocator@D@2@@std@@V23@@std@@@std@@PEAX@std@@SAXAEAV?$allocator@U?$_List_node@U?$pair@$$CBJV?$tuple@VClient@@V?$basic_string@DU?$char_traits@D@std@@V?$allocator@D@2@@std@@V23@@std@@@std@@PEAX@std@@@1@PEAU01@@Z
pdata	ENDS
;	COMDAT pdata
pdata	SEGMENT
$pdata$??$_Uninitialized_copy@PEAEPEAEV?$allocator@E@std@@@std@@YAPEAEPEAE00AEAV?$allocator@E@0@@Z DD imagerel $LN24
	DD	imagerel $LN24+49
	DD	imagerel $unwind$??$_Uninitialized_copy@PEAEPEAEV?$allocator@E@std@@@std@@YAPEAEPEAE00AEAV?$allocator@E@0@@Z
pdata	ENDS
;	COMDAT pdata
pdata	SEGMENT
$pdata$??$?0AEBUpiecewise_construct_t@std@@V?$tuple@AEBJ@1@V?$tuple@$$V@1@@?$_List_node_emplace_op2@V?$allocator@U?$_List_node@U?$pair@$$CBJV?$tuple@VClient@@V?$basic_string@DU?$char_traits@D@std@@V?$allocator@D@2@@std@@V23@@std@@@std@@PEAX@std@@@std@@@std@@QEAA@AEAV?$allocator@U?$_List_node@U?$pair@$$CBJV?$tuple@VClient@@V?$basic_string@DU?$char_traits@D@std@@V?$allocator@D@2@@std@@V23@@std@@@std@@PEAX@std@@@1@AEBUpiecewise_construct_t@1@$$QEAV?$tuple@AEBJ@1@$$QEAV?$tuple@$$V@1@@Z DD imagerel $LN49
	DD	imagerel $LN49+76
	DD	imagerel $unwind$??$?0AEBUpiecewise_construct_t@std@@V?$tuple@AEBJ@1@V?$tuple@$$V@1@@?$_List_node_emplace_op2@V?$allocator@U?$_List_node@U?$pair@$$CBJV?$tuple@VClient@@V?$basic_string@DU?$char_traits@D@std@@V?$allocator@D@2@@std@@V23@@std@@@std@@PEAX@std@@@std@@@std@@QEAA@AEAV?$allocator@U?$_List_node@U?$pair@$$CBJV?$tuple@VClient@@V?$basic_string@DU?$char_traits@D@std@@V?$allocator@D@2@@std@@V23@@std@@@std@@PEAX@std@@@1@AEBUpiecewise_construct_t@1@$$QEAV?$tuple@AEBJ@1@$$QEAV?$tuple@$$V@1@@Z
pdata	ENDS
;	COMDAT pdata
pdata	SEGMENT
$pdata$??$DecryptInternetData@UClientResponse@@@NetCommon@@YA?AUClientResponse@@V?$vector@EV?$allocator@E@std@@@std@@V?$basic_string@DU?$char_traits@D@std@@V?$allocator@D@2@@3@@Z DD imagerel $LN80
	DD	imagerel $LN80+275
	DD	imagerel $unwind$??$DecryptInternetData@UClientResponse@@@NetCommon@@YA?AUClientResponse@@V?$vector@EV?$allocator@E@std@@@std@@V?$basic_string@DU?$char_traits@D@std@@V?$allocator@D@2@@3@@Z
pdata	ENDS
;	COMDAT pdata
pdata	SEGMENT
$pdata$??$DecryptInternetData@UClientRequest@@@NetCommon@@YA?AUClientRequest@@V?$vector@EV?$allocator@E@std@@@std@@V?$basic_string@DU?$char_traits@D@std@@V?$allocator@D@2@@3@@Z DD imagerel $LN80
	DD	imagerel $LN80+289
	DD	imagerel $unwind$??$DecryptInternetData@UClientRequest@@@NetCommon@@YA?AUClientRequest@@V?$vector@EV?$allocator@E@std@@@std@@V?$basic_string@DU?$char_traits@D@std@@V?$allocator@D@2@@3@@Z
pdata	ENDS
;	COMDAT pdata
pdata	SEGMENT
$pdata$??$?4V?$tuple@V?$basic_string@DU?$char_traits@D@std@@V?$allocator@D@2@@std@@V12@@std@@V?$basic_string@DU?$char_traits@D@std@@V?$allocator@D@2@@1@$0A@@?$tuple@V?$basic_string@DU?$char_traits@D@std@@V?$allocator@D@2@@std@@V12@@std@@QEAAAEAV01@$$QEAV01@@Z DD imagerel $LN15
	DD	imagerel $LN15+54
	DD	imagerel $unwind$??$?4V?$tuple@V?$basic_string@DU?$char_traits@D@std@@V?$allocator@D@2@@std@@V12@@std@@V?$basic_string@DU?$char_traits@D@std@@V?$allocator@D@2@@1@$0A@@?$tuple@V?$basic_string@DU?$char_traits@D@std@@V?$allocator@D@2@@std@@V12@@std@@QEAAAEAV01@$$QEAV01@@Z
pdata	ENDS
;	COMDAT pdata
pdata	SEGMENT
$pdata$??$?0AEAVClient@@AEAV?$basic_string@DU?$char_traits@D@std@@V?$allocator@D@2@@std@@AEAV12@$0A@@?$tuple@VClient@@V?$basic_string@DU?$char_traits@D@std@@V?$allocator@D@2@@std@@V23@@std@@QEAA@AEAVClient@@AEAV?$basic_string@DU?$char_traits@D@std@@V?$allocator@D@2@@1@1@Z DD imagerel $LN26
	DD	imagerel $LN26+83
	DD	imagerel $unwind$??$?0AEAVClient@@AEAV?$basic_string@DU?$char_traits@D@std@@V?$allocator@D@2@@std@@AEAV12@$0A@@?$tuple@VClient@@V?$basic_string@DU?$char_traits@D@std@@V?$allocator@D@2@@std@@V23@@std@@QEAA@AEAVClient@@AEAV?$basic_string@DU?$char_traits@D@std@@V?$allocator@D@2@@1@1@Z
pdata	ENDS
;	COMDAT pdata
pdata	SEGMENT
$pdata$??$?RV?$mersenne_twister_engine@I$0CA@$0CHA@$0BIN@$0BP@$0JJAILANP@$0L@$0PPPPPPPP@$06$0JNCMFGIA@$0P@$0OPMGAAAA@$0BC@$0GMAHIJGF@@std@@@?$uniform_int@J@std@@QEAAJAEAV?$mersenne_twister_engine@I$0CA@$0CHA@$0BIN@$0BP@$0JJAILANP@$0L@$0PPPPPPPP@$06$0JNCMFGIA@$0P@$0OPMGAAAA@$0BC@$0GMAHIJGF@@1@@Z DD imagerel $LN76
	DD	imagerel $LN76+155
	DD	imagerel $unwind$??$?RV?$mersenne_twister_engine@I$0CA@$0CHA@$0BIN@$0BP@$0JJAILANP@$0L@$0PPPPPPPP@$06$0JNCMFGIA@$0P@$0OPMGAAAA@$0BC@$0GMAHIJGF@@std@@@?$uniform_int@J@std@@QEAAJAEAV?$mersenne_twister_engine@I$0CA@$0CHA@$0BIN@$0BP@$0JJAILANP@$0L@$0PPPPPPPP@$06$0JNCMFGIA@$0P@$0OPMGAAAA@$0BC@$0GMAHIJGF@@1@@Z
pdata	ENDS
;	COMDAT pdata
pdata	SEGMENT
$pdata$?_Bump_erased@_Range_eraser@?$_Hash@V?$_Umap_traits@JV?$tuple@VClient@@V?$basic_string@DU?$char_traits@D@std@@V?$allocator@D@2@@std@@V23@@std@@V?$_Uhash_compare@JU?$hash@J@std@@U?$equal_to@J@2@@2@V?$allocator@U?$pair@$$CBJV?$tuple@VClient@@V?$basic_string@DU?$char_traits@D@std@@V?$allocator@D@2@@std@@V23@@std@@@std@@@2@$0A@@std@@@std@@QEAAXXZ DD imagerel $LN79
	DD	imagerel $LN79+83
	DD	imagerel $unwind$?_Bump_erased@_Range_eraser@?$_Hash@V?$_Umap_traits@JV?$tuple@VClient@@V?$basic_string@DU?$char_traits@D@std@@V?$allocator@D@2@@std@@V23@@std@@V?$_Uhash_compare@JU?$hash@J@std@@U?$equal_to@J@2@@2@V?$allocator@U?$pair@$$CBJV?$tuple@VClient@@V?$basic_string@DU?$char_traits@D@std@@V?$allocator@D@2@@std@@V23@@std@@@std@@@2@$0A@@std@@@std@@QEAAXXZ
pdata	ENDS
;	COMDAT pdata
pdata	SEGMENT
$pdata$?clear@?$list@U?$pair@$$CBJV?$tuple@VClient@@V?$basic_string@DU?$char_traits@D@std@@V?$allocator@D@2@@std@@V23@@std@@@std@@V?$allocator@U?$pair@$$CBJV?$tuple@VClient@@V?$basic_string@DU?$char_traits@D@std@@V?$allocator@D@2@@std@@V23@@std@@@std@@@2@@std@@QEAAXXZ DD imagerel $LN92
	DD	imagerel $LN92+36
	DD	imagerel $unwind$?clear@?$list@U?$pair@$$CBJV?$tuple@VClient@@V?$basic_string@DU?$char_traits@D@std@@V?$allocator@D@2@@std@@V23@@std@@@std@@V?$allocator@U?$pair@$$CBJV?$tuple@VClient@@V?$basic_string@DU?$char_traits@D@std@@V?$allocator@D@2@@std@@V23@@std@@@std@@@2@@std@@QEAAXXZ
pdata	ENDS
;	COMDAT pdata
pdata	SEGMENT
$pdata$1$?clear@?$list@U?$pair@$$CBJV?$tuple@VClient@@V?$basic_string@DU?$char_traits@D@std@@V?$allocator@D@2@@std@@V23@@std@@@std@@V?$allocator@U?$pair@$$CBJV?$tuple@VClient@@V?$basic_string@DU?$char_traits@D@std@@V?$allocator@D@2@@std@@V23@@std@@@std@@@2@@std@@QEAAXXZ DD imagerel $LN92+36
	DD	imagerel $LN92+100
	DD	imagerel $chain$1$?clear@?$list@U?$pair@$$CBJV?$tuple@VClient@@V?$basic_string@DU?$char_traits@D@std@@V?$allocator@D@2@@std@@V23@@std@@@std@@V?$allocator@U?$pair@$$CBJV?$tuple@VClient@@V?$basic_string@DU?$char_traits@D@std@@V?$allocator@D@2@@std@@V23@@std@@@std@@@2@@std@@QEAAXXZ
pdata	ENDS
;	COMDAT pdata
pdata	SEGMENT
$pdata$2$?clear@?$list@U?$pair@$$CBJV?$tuple@VClient@@V?$basic_string@DU?$char_traits@D@std@@V?$allocator@D@2@@std@@V23@@std@@@std@@V?$allocator@U?$pair@$$CBJV?$tuple@VClient@@V?$basic_string@DU?$char_traits@D@std@@V?$allocator@D@2@@std@@V23@@std@@@std@@@2@@std@@QEAAXXZ DD imagerel $LN92+100
	DD	imagerel $LN92+133
	DD	imagerel $chain$2$?clear@?$list@U?$pair@$$CBJV?$tuple@VClient@@V?$basic_string@DU?$char_traits@D@std@@V?$allocator@D@2@@std@@V23@@std@@@std@@V?$allocator@U?$pair@$$CBJV?$tuple@VClient@@V?$basic_string@DU?$char_traits@D@std@@V?$allocator@D@2@@std@@V23@@std@@@std@@@2@@std@@QEAAXXZ
pdata	ENDS
;	COMDAT pdata
pdata	SEGMENT
$pdata$?_Unchecked_erase@?$_Hash@V?$_Umap_traits@JV?$tuple@VClient@@V?$basic_string@DU?$char_traits@D@std@@V?$allocator@D@2@@std@@V23@@std@@V?$_Uhash_compare@JU?$hash@J@std@@U?$equal_to@J@2@@2@V?$allocator@U?$pair@$$CBJV?$tuple@VClient@@V?$basic_string@DU?$char_traits@D@std@@V?$allocator@D@2@@std@@V23@@std@@@std@@@2@$0A@@std@@@std@@AEAAPEAU?$_List_node@U?$pair@$$CBJV?$tuple@VClient@@V?$basic_string@DU?$char_traits@D@std@@V?$allocator@D@2@@std@@V23@@std@@@std@@PEAX@2@PEAU32@QEAU32@@Z DD imagerel $LN275
	DD	imagerel $LN275+45
	DD	imagerel $unwind$?_Unchecked_erase@?$_Hash@V?$_Umap_traits@JV?$tuple@VClient@@V?$basic_string@DU?$char_traits@D@std@@V?$allocator@D@2@@std@@V23@@std@@V?$_Uhash_compare@JU?$hash@J@std@@U?$equal_to@J@2@@2@V?$allocator@U?$pair@$$CBJV?$tuple@VClient@@V?$basic_string@DU?$char_traits@D@std@@V?$allocator@D@2@@std@@V23@@std@@@std@@@2@$0A@@std@@@std@@AEAAPEAU?$_List_node@U?$pair@$$CBJV?$tuple@VClient@@V?$basic_string@DU?$char_traits@D@std@@V?$allocator@D@2@@std@@V23@@std@@@std@@PEAX@2@PEAU32@QEAU32@@Z
pdata	ENDS
;	COMDAT pdata
pdata	SEGMENT
$pdata$4$?_Unchecked_erase@?$_Hash@V?$_Umap_traits@JV?$tuple@VClient@@V?$basic_string@DU?$char_traits@D@std@@V?$allocator@D@2@@std@@V23@@std@@V?$_Uhash_compare@JU?$hash@J@std@@U?$equal_to@J@2@@2@V?$allocator@U?$pair@$$CBJV?$tuple@VClient@@V?$basic_string@DU?$char_traits@D@std@@V?$allocator@D@2@@std@@V23@@std@@@std@@@2@$0A@@std@@@std@@AEAAPEAU?$_List_node@U?$pair@$$CBJV?$tuple@VClient@@V?$basic_string@DU?$char_traits@D@std@@V?$allocator@D@2@@std@@V23@@std@@@std@@PEAX@2@PEAU32@QEAU32@@Z DD imagerel $LN275+45
	DD	imagerel $LN275+520
	DD	imagerel $chain$4$?_Unchecked_erase@?$_Hash@V?$_Umap_traits@JV?$tuple@VClient@@V?$basic_string@DU?$char_traits@D@std@@V?$allocator@D@2@@std@@V23@@std@@V?$_Uhash_compare@JU?$hash@J@std@@U?$equal_to@J@2@@2@V?$allocator@U?$pair@$$CBJV?$tuple@VClient@@V?$basic_string@DU?$char_traits@D@std@@V?$allocator@D@2@@std@@V23@@std@@@std@@@2@$0A@@std@@@std@@AEAAPEAU?$_List_node@U?$pair@$$CBJV?$tuple@VClient@@V?$basic_string@DU?$char_traits@D@std@@V?$allocator@D@2@@std@@V23@@std@@@std@@PEAX@2@PEAU32@QEAU32@@Z
pdata	ENDS
;	COMDAT pdata
pdata	SEGMENT
$pdata$5$?_Unchecked_erase@?$_Hash@V?$_Umap_traits@JV?$tuple@VClient@@V?$basic_string@DU?$char_traits@D@std@@V?$allocator@D@2@@std@@V23@@std@@V?$_Uhash_compare@JU?$hash@J@std@@U?$equal_to@J@2@@2@V?$allocator@U?$pair@$$CBJV?$tuple@VClient@@V?$basic_string@DU?$char_traits@D@std@@V?$allocator@D@2@@std@@V23@@std@@@std@@@2@$0A@@std@@@std@@AEAAPEAU?$_List_node@U?$pair@$$CBJV?$tuple@VClient@@V?$basic_string@DU?$char_traits@D@std@@V?$allocator@D@2@@std@@V23@@std@@@std@@PEAX@2@PEAU32@QEAU32@@Z DD imagerel $LN275+520
	DD	imagerel $LN275+534
	DD	imagerel $chain$5$?_Unchecked_erase@?$_Hash@V?$_Umap_traits@JV?$tuple@VClient@@V?$basic_string@DU?$char_traits@D@std@@V?$allocator@D@2@@std@@V23@@std@@V?$_Uhash_compare@JU?$hash@J@std@@U?$equal_to@J@2@@2@V?$allocator@U?$pair@$$CBJV?$tuple@VClient@@V?$basic_string@DU?$char_traits@D@std@@V?$allocator@D@2@@std@@V23@@std@@@std@@@2@$0A@@std@@@std@@AEAAPEAU?$_List_node@U?$pair@$$CBJV?$tuple@VClient@@V?$basic_string@DU?$char_traits@D@std@@V?$allocator@D@2@@std@@V23@@std@@@std@@PEAX@2@PEAU32@QEAU32@@Z
pdata	ENDS
;	COMDAT pdata
pdata	SEGMENT
$pdata$6$?_Unchecked_erase@?$_Hash@V?$_Umap_traits@JV?$tuple@VClient@@V?$basic_string@DU?$char_traits@D@std@@V?$allocator@D@2@@std@@V23@@std@@V?$_Uhash_compare@JU?$hash@J@std@@U?$equal_to@J@2@@2@V?$allocator@U?$pair@$$CBJV?$tuple@VClient@@V?$basic_string@DU?$char_traits@D@std@@V?$allocator@D@2@@std@@V23@@std@@@std@@@2@$0A@@std@@@std@@AEAAPEAU?$_List_node@U?$pair@$$CBJV?$tuple@VClient@@V?$basic_string@DU?$char_traits@D@std@@V?$allocator@D@2@@std@@V23@@std@@@std@@PEAX@2@PEAU32@QEAU32@@Z DD imagerel $LN275+534
	DD	imagerel $LN275+558
	DD	imagerel $chain$6$?_Unchecked_erase@?$_Hash@V?$_Umap_traits@JV?$tuple@VClient@@V?$basic_string@DU?$char_traits@D@std@@V?$allocator@D@2@@std@@V23@@std@@V?$_Uhash_compare@JU?$hash@J@std@@U?$equal_to@J@2@@2@V?$allocator@U?$pair@$$CBJV?$tuple@VClient@@V?$basic_string@DU?$char_traits@D@std@@V?$allocator@D@2@@std@@V23@@std@@@std@@@2@$0A@@std@@@std@@AEAAPEAU?$_List_node@U?$pair@$$CBJV?$tuple@VClient@@V?$basic_string@DU?$char_traits@D@std@@V?$allocator@D@2@@std@@V23@@std@@@std@@PEAX@2@PEAU32@QEAU32@@Z
pdata	ENDS
;	COMDAT pdata
pdata	SEGMENT
$pdata$?clear@?$_Hash@V?$_Umap_traits@JV?$tuple@VClient@@V?$basic_string@DU?$char_traits@D@std@@V?$allocator@D@2@@std@@V23@@std@@V?$_Uhash_compare@JU?$hash@J@std@@U?$equal_to@J@2@@2@V?$allocator@U?$pair@$$CBJV?$tuple@VClient@@V?$basic_string@DU?$char_traits@D@std@@V?$allocator@D@2@@std@@V23@@std@@@std@@@2@$0A@@std@@@std@@QEAAXXZ DD imagerel $LN112
	DD	imagerel $LN112+62
	DD	imagerel $unwind$?clear@?$_Hash@V?$_Umap_traits@JV?$tuple@VClient@@V?$basic_string@DU?$char_traits@D@std@@V?$allocator@D@2@@std@@V23@@std@@V?$_Uhash_compare@JU?$hash@J@std@@U?$equal_to@J@2@@2@V?$allocator@U?$pair@$$CBJV?$tuple@VClient@@V?$basic_string@DU?$char_traits@D@std@@V?$allocator@D@2@@std@@V23@@std@@@std@@@2@$0A@@std@@@std@@QEAAXXZ
pdata	ENDS
;	COMDAT pdata
pdata	SEGMENT
$pdata$0$?clear@?$_Hash@V?$_Umap_traits@JV?$tuple@VClient@@V?$basic_string@DU?$char_traits@D@std@@V?$allocator@D@2@@std@@V23@@std@@V?$_Uhash_compare@JU?$hash@J@std@@U?$equal_to@J@2@@2@V?$allocator@U?$pair@$$CBJV?$tuple@VClient@@V?$basic_string@DU?$char_traits@D@std@@V?$allocator@D@2@@std@@V23@@std@@@std@@@2@$0A@@std@@@std@@QEAAXXZ DD imagerel $LN112+62
	DD	imagerel $LN112+86
	DD	imagerel $chain$0$?clear@?$_Hash@V?$_Umap_traits@JV?$tuple@VClient@@V?$basic_string@DU?$char_traits@D@std@@V?$allocator@D@2@@std@@V23@@std@@V?$_Uhash_compare@JU?$hash@J@std@@U?$equal_to@J@2@@2@V?$allocator@U?$pair@$$CBJV?$tuple@VClient@@V?$basic_string@DU?$char_traits@D@std@@V?$allocator@D@2@@std@@V23@@std@@@std@@@2@$0A@@std@@@std@@QEAAXXZ
pdata	ENDS
;	COMDAT pdata
pdata	SEGMENT
$pdata$2$?clear@?$_Hash@V?$_Umap_traits@JV?$tuple@VClient@@V?$basic_string@DU?$char_traits@D@std@@V?$allocator@D@2@@std@@V23@@std@@V?$_Uhash_compare@JU?$hash@J@std@@U?$equal_to@J@2@@2@V?$allocator@U?$pair@$$CBJV?$tuple@VClient@@V?$basic_string@DU?$char_traits@D@std@@V?$allocator@D@2@@std@@V23@@std@@@std@@@2@$0A@@std@@@std@@QEAAXXZ DD imagerel $LN112+86
	DD	imagerel $LN112+148
	DD	imagerel $chain$2$?clear@?$_Hash@V?$_Umap_traits@JV?$tuple@VClient@@V?$basic_string@DU?$char_traits@D@std@@V?$allocator@D@2@@std@@V23@@std@@V?$_Uhash_compare@JU?$hash@J@std@@U?$equal_to@J@2@@2@V?$allocator@U?$pair@$$CBJV?$tuple@VClient@@V?$basic_string@DU?$char_traits@D@std@@V?$allocator@D@2@@std@@V23@@std@@@std@@@2@$0A@@std@@@std@@QEAAXXZ
pdata	ENDS
;	COMDAT pdata
pdata	SEGMENT
$pdata$3$?clear@?$_Hash@V?$_Umap_traits@JV?$tuple@VClient@@V?$basic_string@DU?$char_traits@D@std@@V?$allocator@D@2@@std@@V23@@std@@V?$_Uhash_compare@JU?$hash@J@std@@U?$equal_to@J@2@@2@V?$allocator@U?$pair@$$CBJV?$tuple@VClient@@V?$basic_string@DU?$char_traits@D@std@@V?$allocator@D@2@@std@@V23@@std@@@std@@@2@$0A@@std@@@std@@QEAAXXZ DD imagerel $LN112+148
	DD	imagerel $LN112+203
	DD	imagerel $chain$3$?clear@?$_Hash@V?$_Umap_traits@JV?$tuple@VClient@@V?$basic_string@DU?$char_traits@D@std@@V?$allocator@D@2@@std@@V23@@std@@V?$_Uhash_compare@JU?$hash@J@std@@U?$equal_to@J@2@@2@V?$allocator@U?$pair@$$CBJV?$tuple@VClient@@V?$basic_string@DU?$char_traits@D@std@@V?$allocator@D@2@@std@@V23@@std@@@std@@@2@$0A@@std@@@std@@QEAAXXZ
pdata	ENDS
;	COMDAT pdata
pdata	SEGMENT
$pdata$4$?clear@?$_Hash@V?$_Umap_traits@JV?$tuple@VClient@@V?$basic_string@DU?$char_traits@D@std@@V?$allocator@D@2@@std@@V23@@std@@V?$_Uhash_compare@JU?$hash@J@std@@U?$equal_to@J@2@@2@V?$allocator@U?$pair@$$CBJV?$tuple@VClient@@V?$basic_string@DU?$char_traits@D@std@@V?$allocator@D@2@@std@@V23@@std@@@std@@@2@$0A@@std@@@std@@QEAAXXZ DD imagerel $LN112+203
	DD	imagerel $LN112+209
	DD	imagerel $chain$4$?clear@?$_Hash@V?$_Umap_traits@JV?$tuple@VClient@@V?$basic_string@DU?$char_traits@D@std@@V?$allocator@D@2@@std@@V23@@std@@V?$_Uhash_compare@JU?$hash@J@std@@U?$equal_to@J@2@@2@V?$allocator@U?$pair@$$CBJV?$tuple@VClient@@V?$basic_string@DU?$char_traits@D@std@@V?$allocator@D@2@@std@@V23@@std@@@std@@@2@$0A@@std@@@std@@QEAAXXZ
pdata	ENDS
;	COMDAT pdata
pdata	SEGMENT
$pdata$?_Min_load_factor_buckets@?$_Hash@V?$_Umap_traits@JV?$tuple@VClient@@V?$basic_string@DU?$char_traits@D@std@@V?$allocator@D@2@@std@@V23@@std@@V?$_Uhash_compare@JU?$hash@J@std@@U?$equal_to@J@2@@2@V?$allocator@U?$pair@$$CBJV?$tuple@VClient@@V?$basic_string@DU?$char_traits@D@std@@V?$allocator@D@2@@std@@V23@@std@@@std@@@2@$0A@@std@@@std@@IEBA_K_K@Z DD imagerel $LN12
	DD	imagerel $LN12+99
	DD	imagerel $unwind$?_Min_load_factor_buckets@?$_Hash@V?$_Umap_traits@JV?$tuple@VClient@@V?$basic_string@DU?$char_traits@D@std@@V?$allocator@D@2@@std@@V23@@std@@V?$_Uhash_compare@JU?$hash@J@std@@U?$equal_to@J@2@@2@V?$allocator@U?$pair@$$CBJV?$tuple@VClient@@V?$basic_string@DU?$char_traits@D@std@@V?$allocator@D@2@@std@@V23@@std@@@std@@@2@$0A@@std@@@std@@IEBA_K_K@Z
pdata	ENDS
;	COMDAT pdata
pdata	SEGMENT
$pdata$??1_Clear_guard@?$_Hash@V?$_Umap_traits@JV?$tuple@VClient@@V?$basic_string@DU?$char_traits@D@std@@V?$allocator@D@2@@std@@V23@@std@@V?$_Uhash_compare@JU?$hash@J@std@@U?$equal_to@J@2@@2@V?$allocator@U?$pair@$$CBJV?$tuple@VClient@@V?$basic_string@DU?$char_traits@D@std@@V?$allocator@D@2@@std@@V23@@std@@@std@@@2@$0A@@std@@@std@@QEAA@XZ DD imagerel $LN118
	DD	imagerel $LN118+71
	DD	imagerel $unwind$??1_Clear_guard@?$_Hash@V?$_Umap_traits@JV?$tuple@VClient@@V?$basic_string@DU?$char_traits@D@std@@V?$allocator@D@2@@std@@V23@@std@@V?$_Uhash_compare@JU?$hash@J@std@@U?$equal_to@J@2@@2@V?$allocator@U?$pair@$$CBJV?$tuple@VClient@@V?$basic_string@DU?$char_traits@D@std@@V?$allocator@D@2@@std@@V23@@std@@@std@@@2@$0A@@std@@@std@@QEAA@XZ
pdata	ENDS
;	COMDAT pdata
pdata	SEGMENT
$pdata$0$??1_Clear_guard@?$_Hash@V?$_Umap_traits@JV?$tuple@VClient@@V?$basic_string@DU?$char_traits@D@std@@V?$allocator@D@2@@std@@V23@@std@@V?$_Uhash_compare@JU?$hash@J@std@@U?$equal_to@J@2@@2@V?$allocator@U?$pair@$$CBJV?$tuple@VClient@@V?$basic_string@DU?$char_traits@D@std@@V?$allocator@D@2@@std@@V23@@std@@@std@@@2@$0A@@std@@@std@@QEAA@XZ DD imagerel $LN118+71
	DD	imagerel $LN118+95
	DD	imagerel $chain$0$??1_Clear_guard@?$_Hash@V?$_Umap_traits@JV?$tuple@VClient@@V?$basic_string@DU?$char_traits@D@std@@V?$allocator@D@2@@std@@V23@@std@@V?$_Uhash_compare@JU?$hash@J@std@@U?$equal_to@J@2@@2@V?$allocator@U?$pair@$$CBJV?$tuple@VClient@@V?$basic_string@DU?$char_traits@D@std@@V?$allocator@D@2@@std@@V23@@std@@@std@@@2@$0A@@std@@@std@@QEAA@XZ
pdata	ENDS
;	COMDAT pdata
pdata	SEGMENT
$pdata$2$??1_Clear_guard@?$_Hash@V?$_Umap_traits@JV?$tuple@VClient@@V?$basic_string@DU?$char_traits@D@std@@V?$allocator@D@2@@std@@V23@@std@@V?$_Uhash_compare@JU?$hash@J@std@@U?$equal_to@J@2@@2@V?$allocator@U?$pair@$$CBJV?$tuple@VClient@@V?$basic_string@DU?$char_traits@D@std@@V?$allocator@D@2@@std@@V23@@std@@@std@@@2@$0A@@std@@@std@@QEAA@XZ DD imagerel $LN118+95
	DD	imagerel $LN118+164
	DD	imagerel $chain$2$??1_Clear_guard@?$_Hash@V?$_Umap_traits@JV?$tuple@VClient@@V?$basic_string@DU?$char_traits@D@std@@V?$allocator@D@2@@std@@V23@@std@@V?$_Uhash_compare@JU?$hash@J@std@@U?$equal_to@J@2@@2@V?$allocator@U?$pair@$$CBJV?$tuple@VClient@@V?$basic_string@DU?$char_traits@D@std@@V?$allocator@D@2@@std@@V23@@std@@@std@@@2@$0A@@std@@@std@@QEAA@XZ
pdata	ENDS
;	COMDAT pdata
pdata	SEGMENT
$pdata$3$??1_Clear_guard@?$_Hash@V?$_Umap_traits@JV?$tuple@VClient@@V?$basic_string@DU?$char_traits@D@std@@V?$allocator@D@2@@std@@V23@@std@@V?$_Uhash_compare@JU?$hash@J@std@@U?$equal_to@J@2@@2@V?$allocator@U?$pair@$$CBJV?$tuple@VClient@@V?$basic_string@DU?$char_traits@D@std@@V?$allocator@D@2@@std@@V23@@std@@@std@@@2@$0A@@std@@@std@@QEAA@XZ DD imagerel $LN118+164
	DD	imagerel $LN118+219
	DD	imagerel $chain$3$??1_Clear_guard@?$_Hash@V?$_Umap_traits@JV?$tuple@VClient@@V?$basic_string@DU?$char_traits@D@std@@V?$allocator@D@2@@std@@V23@@std@@V?$_Uhash_compare@JU?$hash@J@std@@U?$equal_to@J@2@@2@V?$allocator@U?$pair@$$CBJV?$tuple@VClient@@V?$basic_string@DU?$char_traits@D@std@@V?$allocator@D@2@@std@@V23@@std@@@std@@@2@$0A@@std@@@std@@QEAA@XZ
pdata	ENDS
;	COMDAT pdata
pdata	SEGMENT
$pdata$4$??1_Clear_guard@?$_Hash@V?$_Umap_traits@JV?$tuple@VClient@@V?$basic_string@DU?$char_traits@D@std@@V?$allocator@D@2@@std@@V23@@std@@V?$_Uhash_compare@JU?$hash@J@std@@U?$equal_to@J@2@@2@V?$allocator@U?$pair@$$CBJV?$tuple@VClient@@V?$basic_string@DU?$char_traits@D@std@@V?$allocator@D@2@@std@@V23@@std@@@std@@@2@$0A@@std@@@std@@QEAA@XZ DD imagerel $LN118+219
	DD	imagerel $LN118+225
	DD	imagerel $chain$4$??1_Clear_guard@?$_Hash@V?$_Umap_traits@JV?$tuple@VClient@@V?$basic_string@DU?$char_traits@D@std@@V?$allocator@D@2@@std@@V23@@std@@V?$_Uhash_compare@JU?$hash@J@std@@U?$equal_to@J@2@@2@V?$allocator@U?$pair@$$CBJV?$tuple@VClient@@V?$basic_string@DU?$char_traits@D@std@@V?$allocator@D@2@@std@@V23@@std@@@std@@@2@$0A@@std@@@std@@QEAA@XZ
pdata	ENDS
;	COMDAT pdata
pdata	SEGMENT
$pdata$?_Buy_raw@?$vector@EV?$allocator@E@std@@@std@@AEAAX_K@Z DD imagerel $LN40
	DD	imagerel $LN40+115
	DD	imagerel $unwind$?_Buy_raw@?$vector@EV?$allocator@E@std@@@std@@AEAAX_K@Z
pdata	ENDS
;	COMDAT pdata
pdata	SEGMENT
$pdata$?_Desired_grow_bucket_count@?$_Hash@V?$_Umap_traits@JV?$tuple@VClient@@V?$basic_string@DU?$char_traits@D@std@@V?$allocator@D@2@@std@@V23@@std@@V?$_Uhash_compare@JU?$hash@J@std@@U?$equal_to@J@2@@2@V?$allocator@U?$pair@$$CBJV?$tuple@VClient@@V?$basic_string@DU?$char_traits@D@std@@V?$allocator@D@2@@std@@V23@@std@@@std@@@2@$0A@@std@@@std@@IEBA_K_K@Z DD imagerel $LN25
	DD	imagerel $LN25+159
	DD	imagerel $unwind$?_Desired_grow_bucket_count@?$_Hash@V?$_Umap_traits@JV?$tuple@VClient@@V?$basic_string@DU?$char_traits@D@std@@V?$allocator@D@2@@std@@V23@@std@@V?$_Uhash_compare@JU?$hash@J@std@@U?$equal_to@J@2@@2@V?$allocator@U?$pair@$$CBJV?$tuple@VClient@@V?$basic_string@DU?$char_traits@D@std@@V?$allocator@D@2@@std@@V23@@std@@@std@@@2@$0A@@std@@@std@@IEBA_K_K@Z
pdata	ENDS
;	COMDAT pdata
pdata	SEGMENT
$pdata$?_Forced_rehash@?$_Hash@V?$_Umap_traits@JV?$tuple@VClient@@V?$basic_string@DU?$char_traits@D@std@@V?$allocator@D@2@@std@@V23@@std@@V?$_Uhash_compare@JU?$hash@J@std@@U?$equal_to@J@2@@2@V?$allocator@U?$pair@$$CBJV?$tuple@VClient@@V?$basic_string@DU?$char_traits@D@std@@V?$allocator@D@2@@std@@V23@@std@@@std@@@2@$0A@@std@@@std@@IEAAX_K@Z DD imagerel $LN291
	DD	imagerel $LN291+47
	DD	imagerel $unwind$?_Forced_rehash@?$_Hash@V?$_Umap_traits@JV?$tuple@VClient@@V?$basic_string@DU?$char_traits@D@std@@V?$allocator@D@2@@std@@V23@@std@@V?$_Uhash_compare@JU?$hash@J@std@@U?$equal_to@J@2@@2@V?$allocator@U?$pair@$$CBJV?$tuple@VClient@@V?$basic_string@DU?$char_traits@D@std@@V?$allocator@D@2@@std@@V23@@std@@@std@@@2@$0A@@std@@@std@@IEAAX_K@Z
pdata	ENDS
;	COMDAT pdata
pdata	SEGMENT
$pdata$1$?_Forced_rehash@?$_Hash@V?$_Umap_traits@JV?$tuple@VClient@@V?$basic_string@DU?$char_traits@D@std@@V?$allocator@D@2@@std@@V23@@std@@V?$_Uhash_compare@JU?$hash@J@std@@U?$equal_to@J@2@@2@V?$allocator@U?$pair@$$CBJV?$tuple@VClient@@V?$basic_string@DU?$char_traits@D@std@@V?$allocator@D@2@@std@@V23@@std@@@std@@@2@$0A@@std@@@std@@IEAAX_K@Z DD imagerel $LN291+47
	DD	imagerel $LN291+120
	DD	imagerel $chain$1$?_Forced_rehash@?$_Hash@V?$_Umap_traits@JV?$tuple@VClient@@V?$basic_string@DU?$char_traits@D@std@@V?$allocator@D@2@@std@@V23@@std@@V?$_Uhash_compare@JU?$hash@J@std@@U?$equal_to@J@2@@2@V?$allocator@U?$pair@$$CBJV?$tuple@VClient@@V?$basic_string@DU?$char_traits@D@std@@V?$allocator@D@2@@std@@V23@@std@@@std@@@2@$0A@@std@@@std@@IEAAX_K@Z
pdata	ENDS
;	COMDAT pdata
pdata	SEGMENT
$pdata$2$?_Forced_rehash@?$_Hash@V?$_Umap_traits@JV?$tuple@VClient@@V?$basic_string@DU?$char_traits@D@std@@V?$allocator@D@2@@std@@V23@@std@@V?$_Uhash_compare@JU?$hash@J@std@@U?$equal_to@J@2@@2@V?$allocator@U?$pair@$$CBJV?$tuple@VClient@@V?$basic_string@DU?$char_traits@D@std@@V?$allocator@D@2@@std@@V23@@std@@@std@@@2@$0A@@std@@@std@@IEAAX_K@Z DD imagerel $LN291+120
	DD	imagerel $LN291+356
	DD	imagerel $chain$2$?_Forced_rehash@?$_Hash@V?$_Umap_traits@JV?$tuple@VClient@@V?$basic_string@DU?$char_traits@D@std@@V?$allocator@D@2@@std@@V23@@std@@V?$_Uhash_compare@JU?$hash@J@std@@U?$equal_to@J@2@@2@V?$allocator@U?$pair@$$CBJV?$tuple@VClient@@V?$basic_string@DU?$char_traits@D@std@@V?$allocator@D@2@@std@@V23@@std@@@std@@@2@$0A@@std@@@std@@IEAAX_K@Z
pdata	ENDS
;	COMDAT pdata
pdata	SEGMENT
$pdata$3$?_Forced_rehash@?$_Hash@V?$_Umap_traits@JV?$tuple@VClient@@V?$basic_string@DU?$char_traits@D@std@@V?$allocator@D@2@@std@@V23@@std@@V?$_Uhash_compare@JU?$hash@J@std@@U?$equal_to@J@2@@2@V?$allocator@U?$pair@$$CBJV?$tuple@VClient@@V?$basic_string@DU?$char_traits@D@std@@V?$allocator@D@2@@std@@V23@@std@@@std@@@2@$0A@@std@@@std@@IEAAX_K@Z DD imagerel $LN291+356
	DD	imagerel $LN291+373
	DD	imagerel $chain$3$?_Forced_rehash@?$_Hash@V?$_Umap_traits@JV?$tuple@VClient@@V?$basic_string@DU?$char_traits@D@std@@V?$allocator@D@2@@std@@V23@@std@@V?$_Uhash_compare@JU?$hash@J@std@@U?$equal_to@J@2@@2@V?$allocator@U?$pair@$$CBJV?$tuple@VClient@@V?$basic_string@DU?$char_traits@D@std@@V?$allocator@D@2@@std@@V23@@std@@@std@@@2@$0A@@std@@@std@@IEAAX_K@Z
pdata	ENDS
;	COMDAT pdata
pdata	SEGMENT
$pdata$5$?_Forced_rehash@?$_Hash@V?$_Umap_traits@JV?$tuple@VClient@@V?$basic_string@DU?$char_traits@D@std@@V?$allocator@D@2@@std@@V23@@std@@V?$_Uhash_compare@JU?$hash@J@std@@U?$equal_to@J@2@@2@V?$allocator@U?$pair@$$CBJV?$tuple@VClient@@V?$basic_string@DU?$char_traits@D@std@@V?$allocator@D@2@@std@@V23@@std@@@std@@@2@$0A@@std@@@std@@IEAAX_K@Z DD imagerel $LN291+373
	DD	imagerel $LN291+411
	DD	imagerel $chain$5$?_Forced_rehash@?$_Hash@V?$_Umap_traits@JV?$tuple@VClient@@V?$basic_string@DU?$char_traits@D@std@@V?$allocator@D@2@@std@@V23@@std@@V?$_Uhash_compare@JU?$hash@J@std@@U?$equal_to@J@2@@2@V?$allocator@U?$pair@$$CBJV?$tuple@VClient@@V?$basic_string@DU?$char_traits@D@std@@V?$allocator@D@2@@std@@V23@@std@@@std@@@2@$0A@@std@@@std@@IEAAX_K@Z
pdata	ENDS
;	COMDAT pdata
pdata	SEGMENT
$pdata$6$?_Forced_rehash@?$_Hash@V?$_Umap_traits@JV?$tuple@VClient@@V?$basic_string@DU?$char_traits@D@std@@V?$allocator@D@2@@std@@V23@@std@@V?$_Uhash_compare@JU?$hash@J@std@@U?$equal_to@J@2@@2@V?$allocator@U?$pair@$$CBJV?$tuple@VClient@@V?$basic_string@DU?$char_traits@D@std@@V?$allocator@D@2@@std@@V23@@std@@@std@@@2@$0A@@std@@@std@@IEAAX_K@Z DD imagerel $LN291+411
	DD	imagerel $LN291+424
	DD	imagerel $chain$6$?_Forced_rehash@?$_Hash@V?$_Umap_traits@JV?$tuple@VClient@@V?$basic_string@DU?$char_traits@D@std@@V?$allocator@D@2@@std@@V23@@std@@V?$_Uhash_compare@JU?$hash@J@std@@U?$equal_to@J@2@@2@V?$allocator@U?$pair@$$CBJV?$tuple@VClient@@V?$basic_string@DU?$char_traits@D@std@@V?$allocator@D@2@@std@@V23@@std@@@std@@@2@$0A@@std@@@std@@IEAAX_K@Z
pdata	ENDS
;	COMDAT pdata
pdata	SEGMENT
$pdata$??4?$basic_string@DU?$char_traits@D@std@@V?$allocator@D@2@@std@@QEAAAEAV01@$$QEAV01@@Z DD imagerel $LN67
	DD	imagerel $LN67+139
	DD	imagerel $unwind$??4?$basic_string@DU?$char_traits@D@std@@V?$allocator@D@2@@std@@QEAAAEAV01@$$QEAV01@@Z
pdata	ENDS
;	COMDAT pdata
pdata	SEGMENT
$pdata$?_Buy_nonzero@?$vector@EV?$allocator@E@std@@@std@@AEAAX_K@Z DD imagerel $LN46
	DD	imagerel $LN46+136
	DD	imagerel $unwind$?_Buy_nonzero@?$vector@EV?$allocator@E@std@@@std@@AEAAX_K@Z
pdata	ENDS
;	COMDAT pdata
pdata	SEGMENT
$pdata$?_Unchecked_erase@?$list@U?$pair@$$CBJV?$tuple@VClient@@V?$basic_string@DU?$char_traits@D@std@@V?$allocator@D@2@@std@@V23@@std@@@std@@V?$allocator@U?$pair@$$CBJV?$tuple@VClient@@V?$basic_string@DU?$char_traits@D@std@@V?$allocator@D@2@@std@@V23@@std@@@std@@@2@@std@@AEAAPEAU?$_List_node@U?$pair@$$CBJV?$tuple@VClient@@V?$basic_string@DU?$char_traits@D@std@@V?$allocator@D@2@@std@@V23@@std@@@std@@PEAX@2@QEAU32@@Z DD imagerel $LN79
	DD	imagerel $LN79+90
	DD	imagerel $unwind$?_Unchecked_erase@?$list@U?$pair@$$CBJV?$tuple@VClient@@V?$basic_string@DU?$char_traits@D@std@@V?$allocator@D@2@@std@@V23@@std@@@std@@V?$allocator@U?$pair@$$CBJV?$tuple@VClient@@V?$basic_string@DU?$char_traits@D@std@@V?$allocator@D@2@@std@@V23@@std@@@std@@@2@@std@@AEAAPEAU?$_List_node@U?$pair@$$CBJV?$tuple@VClient@@V?$basic_string@DU?$char_traits@D@std@@V?$allocator@D@2@@std@@V23@@std@@@std@@PEAX@2@QEAU32@@Z
pdata	ENDS
;	COMDAT pdata
pdata	SEGMENT
$pdata$?_Check_max_size@?$_Hash@V?$_Umap_traits@JV?$tuple@VClient@@V?$basic_string@DU?$char_traits@D@std@@V?$allocator@D@2@@std@@V23@@std@@V?$_Uhash_compare@JU?$hash@J@std@@U?$equal_to@J@2@@2@V?$allocator@U?$pair@$$CBJV?$tuple@VClient@@V?$basic_string@DU?$char_traits@D@std@@V?$allocator@D@2@@std@@V23@@std@@@std@@@2@$0A@@std@@@std@@IEBAXXZ DD imagerel $LN7
	DD	imagerel $LN7+38
	DD	imagerel $unwind$?_Check_max_size@?$_Hash@V?$_Umap_traits@JV?$tuple@VClient@@V?$basic_string@DU?$char_traits@D@std@@V?$allocator@D@2@@std@@V23@@std@@V?$_Uhash_compare@JU?$hash@J@std@@U?$equal_to@J@2@@2@V?$allocator@U?$pair@$$CBJV?$tuple@VClient@@V?$basic_string@DU?$char_traits@D@std@@V?$allocator@D@2@@std@@V23@@std@@@std@@@2@$0A@@std@@@std@@IEBAXXZ
pdata	ENDS
;	COMDAT pdata
pdata	SEGMENT
$pdata$?_Rehash_for_1@?$_Hash@V?$_Umap_traits@JV?$tuple@VClient@@V?$basic_string@DU?$char_traits@D@std@@V?$allocator@D@2@@std@@V23@@std@@V?$_Uhash_compare@JU?$hash@J@std@@U?$equal_to@J@2@@2@V?$allocator@U?$pair@$$CBJV?$tuple@VClient@@V?$basic_string@DU?$char_traits@D@std@@V?$allocator@D@2@@std@@V23@@std@@@std@@@2@$0A@@std@@@std@@IEAAXXZ DD imagerel $LN27
	DD	imagerel $LN27+175
	DD	imagerel $unwind$?_Rehash_for_1@?$_Hash@V?$_Umap_traits@JV?$tuple@VClient@@V?$basic_string@DU?$char_traits@D@std@@V?$allocator@D@2@@std@@V23@@std@@V?$_Uhash_compare@JU?$hash@J@std@@U?$equal_to@J@2@@2@V?$allocator@U?$pair@$$CBJV?$tuple@VClient@@V?$basic_string@DU?$char_traits@D@std@@V?$allocator@D@2@@std@@V23@@std@@@std@@@2@$0A@@std@@@std@@IEAAXXZ
pdata	ENDS
;	COMDAT pdata
pdata	SEGMENT
$pdata$??1?$_List_node_emplace_op2@V?$allocator@U?$_List_node@U?$pair@$$CBJV?$tuple@VClient@@V?$basic_string@DU?$char_traits@D@std@@V?$allocator@D@2@@std@@V23@@std@@@std@@PEAX@std@@@std@@@std@@QEAA@XZ DD imagerel $LN58
	DD	imagerel $LN58+70
	DD	imagerel $unwind$??1?$_List_node_emplace_op2@V?$allocator@U?$_List_node@U?$pair@$$CBJV?$tuple@VClient@@V?$basic_string@DU?$char_traits@D@std@@V?$allocator@D@2@@std@@V23@@std@@@std@@PEAX@std@@@std@@@std@@QEAA@XZ
pdata	ENDS
;	COMDAT pdata
pdata	SEGMENT
$pdata$??1?$_Tidy_guard@V?$vector@EV?$allocator@E@std@@@std@@@std@@QEAA@XZ DD imagerel $LN37
	DD	imagerel $LN37+92
	DD	imagerel $unwind$??1?$_Tidy_guard@V?$vector@EV?$allocator@E@std@@@std@@@std@@QEAA@XZ
pdata	ENDS
;	COMDAT pdata
pdata	SEGMENT
$pdata$??$fill@PEAV?$_List_unchecked_iterator@V?$_List_val@U?$_List_simple_types@U?$pair@$$CBJV?$tuple@VClient@@V?$basic_string@DU?$char_traits@D@std@@V?$allocator@D@2@@std@@V23@@std@@@std@@@std@@@std@@@std@@V12@@std@@YAXQEAV?$_List_unchecked_iterator@V?$_List_val@U?$_List_simple_types@U?$pair@$$CBJV?$tuple@VClient@@V?$basic_string@DU?$char_traits@D@std@@V?$allocator@D@2@@std@@V23@@std@@@std@@@std@@@std@@@0@0AEBV10@@Z DD imagerel $LN21
	DD	imagerel $LN21+62
	DD	imagerel $unwind$??$fill@PEAV?$_List_unchecked_iterator@V?$_List_val@U?$_List_simple_types@U?$pair@$$CBJV?$tuple@VClient@@V?$basic_string@DU?$char_traits@D@std@@V?$allocator@D@2@@std@@V23@@std@@@std@@@std@@@std@@@std@@V12@@std@@YAXQEAV?$_List_unchecked_iterator@V?$_List_val@U?$_List_simple_types@U?$pair@$$CBJV?$tuple@VClient@@V?$basic_string@DU?$char_traits@D@std@@V?$allocator@D@2@@std@@V23@@std@@@std@@@std@@@std@@@0@0AEBV10@@Z
pdata	ENDS
;	COMDAT pdata
pdata	SEGMENT
$pdata$0$??$fill@PEAV?$_List_unchecked_iterator@V?$_List_val@U?$_List_simple_types@U?$pair@$$CBJV?$tuple@VClient@@V?$basic_string@DU?$char_traits@D@std@@V?$allocator@D@2@@std@@V23@@std@@@std@@@std@@@std@@@std@@V12@@std@@YAXQEAV?$_List_unchecked_iterator@V?$_List_val@U?$_List_simple_types@U?$pair@$$CBJV?$tuple@VClient@@V?$basic_string@DU?$char_traits@D@std@@V?$allocator@D@2@@std@@V23@@std@@@std@@@std@@@std@@@0@0AEBV10@@Z DD imagerel $LN21+62
	DD	imagerel $LN21+98
	DD	imagerel $chain$0$??$fill@PEAV?$_List_unchecked_iterator@V?$_List_val@U?$_List_simple_types@U?$pair@$$CBJV?$tuple@VClient@@V?$basic_string@DU?$char_traits@D@std@@V?$allocator@D@2@@std@@V23@@std@@@std@@@std@@@std@@@std@@V12@@std@@YAXQEAV?$_List_unchecked_iterator@V?$_List_val@U?$_List_simple_types@U?$pair@$$CBJV?$tuple@VClient@@V?$basic_string@DU?$char_traits@D@std@@V?$allocator@D@2@@std@@V23@@std@@@std@@@std@@@std@@@0@0AEBV10@@Z
pdata	ENDS
;	COMDAT pdata
pdata	SEGMENT
$pdata$1$??$fill@PEAV?$_List_unchecked_iterator@V?$_List_val@U?$_List_simple_types@U?$pair@$$CBJV?$tuple@VClient@@V?$basic_string@DU?$char_traits@D@std@@V?$allocator@D@2@@std@@V23@@std@@@std@@@std@@@std@@@std@@V12@@std@@YAXQEAV?$_List_unchecked_iterator@V?$_List_val@U?$_List_simple_types@U?$pair@$$CBJV?$tuple@VClient@@V?$basic_string@DU?$char_traits@D@std@@V?$allocator@D@2@@std@@V23@@std@@@std@@@std@@@std@@@0@0AEBV10@@Z DD imagerel $LN21+98
	DD	imagerel $LN21+132
	DD	imagerel $chain$1$??$fill@PEAV?$_List_unchecked_iterator@V?$_List_val@U?$_List_simple_types@U?$pair@$$CBJV?$tuple@VClient@@V?$basic_string@DU?$char_traits@D@std@@V?$allocator@D@2@@std@@V23@@std@@@std@@@std@@@std@@@std@@V12@@std@@YAXQEAV?$_List_unchecked_iterator@V?$_List_val@U?$_List_simple_types@U?$pair@$$CBJV?$tuple@VClient@@V?$basic_string@DU?$char_traits@D@std@@V?$allocator@D@2@@std@@V23@@std@@@std@@@std@@@std@@@0@0AEBV10@@Z
pdata	ENDS
;	COMDAT pdata
pdata	SEGMENT
$pdata$??$_Free_non_head@V?$allocator@U?$_List_node@U?$pair@$$CBJV?$tuple@VClient@@V?$basic_string@DU?$char_traits@D@std@@V?$allocator@D@2@@std@@V23@@std@@@std@@PEAX@std@@@std@@@?$_List_node@U?$pair@$$CBJV?$tuple@VClient@@V?$basic_string@DU?$char_traits@D@std@@V?$allocator@D@2@@std@@V23@@std@@@std@@PEAX@std@@SAXAEAV?$allocator@U?$_List_node@U?$pair@$$CBJV?$tuple@VClient@@V?$basic_string@DU?$char_traits@D@std@@V?$allocator@D@2@@std@@V23@@std@@@std@@PEAX@std@@@1@PEAU01@@Z DD imagerel $LN88
	DD	imagerel $LN88+25
	DD	imagerel $unwind$??$_Free_non_head@V?$allocator@U?$_List_node@U?$pair@$$CBJV?$tuple@VClient@@V?$basic_string@DU?$char_traits@D@std@@V?$allocator@D@2@@std@@V23@@std@@@std@@PEAX@std@@@std@@@?$_List_node@U?$pair@$$CBJV?$tuple@VClient@@V?$basic_string@DU?$char_traits@D@std@@V?$allocator@D@2@@std@@V23@@std@@@std@@PEAX@std@@SAXAEAV?$allocator@U?$_List_node@U?$pair@$$CBJV?$tuple@VClient@@V?$basic_string@DU?$char_traits@D@std@@V?$allocator@D@2@@std@@V23@@std@@@std@@PEAX@std@@@1@PEAU01@@Z
pdata	ENDS
;	COMDAT pdata
pdata	SEGMENT
$pdata$1$??$_Free_non_head@V?$allocator@U?$_List_node@U?$pair@$$CBJV?$tuple@VClient@@V?$basic_string@DU?$char_traits@D@std@@V?$allocator@D@2@@std@@V23@@std@@@std@@PEAX@std@@@std@@@?$_List_node@U?$pair@$$CBJV?$tuple@VClient@@V?$basic_string@DU?$char_traits@D@std@@V?$allocator@D@2@@std@@V23@@std@@@std@@PEAX@std@@SAXAEAV?$allocator@U?$_List_node@U?$pair@$$CBJV?$tuple@VClient@@V?$basic_string@DU?$char_traits@D@std@@V?$allocator@D@2@@std@@V23@@std@@@std@@PEAX@std@@@1@PEAU01@@Z DD imagerel $LN88+25
	DD	imagerel $LN88+87
	DD	imagerel $chain$1$??$_Free_non_head@V?$allocator@U?$_List_node@U?$pair@$$CBJV?$tuple@VClient@@V?$basic_string@DU?$char_traits@D@std@@V?$allocator@D@2@@std@@V23@@std@@@std@@PEAX@std@@@std@@@?$_List_node@U?$pair@$$CBJV?$tuple@VClient@@V?$basic_string@DU?$char_traits@D@std@@V?$allocator@D@2@@std@@V23@@std@@@std@@PEAX@std@@SAXAEAV?$allocator@U?$_List_node@U?$pair@$$CBJV?$tuple@VClient@@V?$basic_string@DU?$char_traits@D@std@@V?$allocator@D@2@@std@@V23@@std@@@std@@PEAX@std@@@1@PEAU01@@Z
pdata	ENDS
;	COMDAT pdata
pdata	SEGMENT
$pdata$2$??$_Free_non_head@V?$allocator@U?$_List_node@U?$pair@$$CBJV?$tuple@VClient@@V?$basic_string@DU?$char_traits@D@std@@V?$allocator@D@2@@std@@V23@@std@@@std@@PEAX@std@@@std@@@?$_List_node@U?$pair@$$CBJV?$tuple@VClient@@V?$basic_string@DU?$char_traits@D@std@@V?$allocator@D@2@@std@@V23@@std@@@std@@PEAX@std@@SAXAEAV?$allocator@U?$_List_node@U?$pair@$$CBJV?$tuple@VClient@@V?$basic_string@DU?$char_traits@D@std@@V?$allocator@D@2@@std@@V23@@std@@@std@@PEAX@std@@@1@PEAU01@@Z DD imagerel $LN88+87
	DD	imagerel $LN88+93
	DD	imagerel $chain$2$??$_Free_non_head@V?$allocator@U?$_List_node@U?$pair@$$CBJV?$tuple@VClient@@V?$basic_string@DU?$char_traits@D@std@@V?$allocator@D@2@@std@@V23@@std@@@std@@PEAX@std@@@std@@@?$_List_node@U?$pair@$$CBJV?$tuple@VClient@@V?$basic_string@DU?$char_traits@D@std@@V?$allocator@D@2@@std@@V23@@std@@@std@@PEAX@std@@SAXAEAV?$allocator@U?$_List_node@U?$pair@$$CBJV?$tuple@VClient@@V?$basic_string@DU?$char_traits@D@std@@V?$allocator@D@2@@std@@V23@@std@@@std@@PEAX@std@@@1@PEAU01@@Z
pdata	ENDS
;	COMDAT pdata
pdata	SEGMENT
$pdata$??$_Construct_n@AEBQEAEAEBQEAE@?$vector@EV?$allocator@E@std@@@std@@AEAAX_KAEBQEAE1@Z DD imagerel $LN104
	DD	imagerel $LN104+46
	DD	imagerel $unwind$??$_Construct_n@AEBQEAEAEBQEAE@?$vector@EV?$allocator@E@std@@@std@@AEAAX_KAEBQEAE1@Z
pdata	ENDS
;	COMDAT pdata
pdata	SEGMENT
$pdata$0$??$_Construct_n@AEBQEAEAEBQEAE@?$vector@EV?$allocator@E@std@@@std@@AEAAX_KAEBQEAE1@Z DD imagerel $LN104+46
	DD	imagerel $LN104+162
	DD	imagerel $chain$0$??$_Construct_n@AEBQEAEAEBQEAE@?$vector@EV?$allocator@E@std@@@std@@AEAAX_KAEBQEAE1@Z
pdata	ENDS
;	COMDAT pdata
pdata	SEGMENT
$pdata$1$??$_Construct_n@AEBQEAEAEBQEAE@?$vector@EV?$allocator@E@std@@@std@@AEAAX_KAEBQEAE1@Z DD imagerel $LN104+162
	DD	imagerel $LN104+163
	DD	imagerel $chain$1$??$_Construct_n@AEBQEAEAEBQEAE@?$vector@EV?$allocator@E@std@@@std@@AEAAX_KAEBQEAE1@Z
pdata	ENDS
;	COMDAT pdata
pdata	SEGMENT
$pdata$2$??$_Construct_n@AEBQEAEAEBQEAE@?$vector@EV?$allocator@E@std@@@std@@AEAAX_KAEBQEAE1@Z DD imagerel $LN104+163
	DD	imagerel $LN104+169
	DD	imagerel $chain$2$??$_Construct_n@AEBQEAEAEBQEAE@?$vector@EV?$allocator@E@std@@@std@@AEAAX_KAEBQEAE1@Z
pdata	ENDS
;	COMDAT pdata
pdata	SEGMENT
$pdata$3$??$_Construct_n@AEBQEAEAEBQEAE@?$vector@EV?$allocator@E@std@@@std@@AEAAX_KAEBQEAE1@Z DD imagerel $LN104+169
	DD	imagerel $LN104+175
	DD	imagerel $chain$3$??$_Construct_n@AEBQEAEAEBQEAE@?$vector@EV?$allocator@E@std@@@std@@AEAAX_KAEBQEAE1@Z
pdata	ENDS
;	COMDAT pdata
pdata	SEGMENT
$pdata$4$??$_Construct_n@AEBQEAEAEBQEAE@?$vector@EV?$allocator@E@std@@@std@@AEAAX_KAEBQEAE1@Z DD imagerel $LN104+175
	DD	imagerel $LN104+181
	DD	imagerel $chain$4$??$_Construct_n@AEBQEAEAEBQEAE@?$vector@EV?$allocator@E@std@@@std@@AEAAX_KAEBQEAE1@Z
pdata	ENDS
;	COMDAT pdata
pdata	SEGMENT
$pdata$??$_Try_emplace@AEBJ$$V@?$_Hash@V?$_Umap_traits@JV?$tuple@VClient@@V?$basic_string@DU?$char_traits@D@std@@V?$allocator@D@2@@std@@V23@@std@@V?$_Uhash_compare@JU?$hash@J@std@@U?$equal_to@J@2@@2@V?$allocator@U?$pair@$$CBJV?$tuple@VClient@@V?$basic_string@DU?$char_traits@D@std@@V?$allocator@D@2@@std@@V23@@std@@@std@@@2@$0A@@std@@@std@@IEAA?AU?$pair@PEAU?$_List_node@U?$pair@$$CBJV?$tuple@VClient@@V?$basic_string@DU?$char_traits@D@std@@V?$allocator@D@2@@std@@V23@@std@@@std@@PEAX@std@@_N@1@AEBJ@Z DD imagerel $LN245
	DD	imagerel $LN245+682
	DD	imagerel $unwind$??$_Try_emplace@AEBJ$$V@?$_Hash@V?$_Umap_traits@JV?$tuple@VClient@@V?$basic_string@DU?$char_traits@D@std@@V?$allocator@D@2@@std@@V23@@std@@V?$_Uhash_compare@JU?$hash@J@std@@U?$equal_to@J@2@@2@V?$allocator@U?$pair@$$CBJV?$tuple@VClient@@V?$basic_string@DU?$char_traits@D@std@@V?$allocator@D@2@@std@@V23@@std@@@std@@@2@$0A@@std@@@std@@IEAA?AU?$pair@PEAU?$_List_node@U?$pair@$$CBJV?$tuple@VClient@@V?$basic_string@DU?$char_traits@D@std@@V?$allocator@D@2@@std@@V23@@std@@@std@@PEAX@std@@_N@1@AEBJ@Z
pdata	ENDS
;	COMDAT pdata
pdata	SEGMENT
$pdata$??$DecryptClientData@UClientResponse@@@ServerInterface@@IEAA?AUClientResponse@@V?$vector@EV?$allocator@E@std@@@std@@J@Z DD imagerel $LN405
	DD	imagerel $LN405+760
	DD	imagerel $unwind$??$DecryptClientData@UClientResponse@@@ServerInterface@@IEAA?AUClientResponse@@V?$vector@EV?$allocator@E@std@@@std@@J@Z
pdata	ENDS
;	COMDAT pdata
pdata	SEGMENT
$pdata$??$DecryptClientData@UClientRequest@@@ServerInterface@@IEAA?AUClientRequest@@V?$vector@EV?$allocator@E@std@@@std@@J@Z DD imagerel $LN405
	DD	imagerel $LN405+771
	DD	imagerel $unwind$??$DecryptClientData@UClientRequest@@@ServerInterface@@IEAA?AUClientRequest@@V?$vector@EV?$allocator@E@std@@@std@@J@Z
pdata	ENDS
;	COMDAT pdata
pdata	SEGMENT
$pdata$??4ClientResponse@@QEAAAEAU0@$$QEAU0@@Z DD imagerel $LN6
	DD	imagerel $LN6+47
	DD	imagerel $unwind$??4ClientResponse@@QEAAAEAU0@$$QEAU0@@Z
pdata	ENDS
;	COMDAT pdata
pdata	SEGMENT
$pdata$??4Client@@QEAAAEAV0@$$QEAV0@@Z DD imagerel $LN12
	DD	imagerel $LN12+177
	DD	imagerel $unwind$??4Client@@QEAAAEAV0@$$QEAV0@@Z
pdata	ENDS
;	COMDAT pdata
pdata	SEGMENT
$pdata$??$?4V?$tuple@VClient@@V?$basic_string@DU?$char_traits@D@std@@V?$allocator@D@2@@std@@V23@@std@@VClient@@$0A@@?$tuple@VClient@@V?$basic_string@DU?$char_traits@D@std@@V?$allocator@D@2@@std@@V23@@std@@QEAAAEAV01@$$QEAV01@@Z DD imagerel $LN27
	DD	imagerel $LN27+271
	DD	imagerel $unwind$??$?4V?$tuple@VClient@@V?$basic_string@DU?$char_traits@D@std@@V?$allocator@D@2@@std@@V23@@std@@VClient@@$0A@@?$tuple@VClient@@V?$basic_string@DU?$char_traits@D@std@@V?$allocator@D@2@@std@@V23@@std@@QEAAAEAV01@$$QEAV01@@Z
pdata	ENDS
;	COMDAT pdata
pdata	SEGMENT
$pdata$??$make_tuple@AEAVClient@@AEAV?$basic_string@DU?$char_traits@D@std@@V?$allocator@D@2@@std@@AEAV23@@std@@YA?AV?$tuple@VClient@@V?$basic_string@DU?$char_traits@D@std@@V?$allocator@D@2@@std@@V23@@0@AEAVClient@@AEAV?$basic_string@DU?$char_traits@D@std@@V?$allocator@D@2@@0@1@Z DD imagerel $LN30
	DD	imagerel $LN30+83
	DD	imagerel $unwind$??$make_tuple@AEAVClient@@AEAV?$basic_string@DU?$char_traits@D@std@@V?$allocator@D@2@@std@@AEAV23@@std@@YA?AV?$tuple@VClient@@V?$basic_string@DU?$char_traits@D@std@@V?$allocator@D@2@@std@@V23@@0@AEAVClient@@AEAV?$basic_string@DU?$char_traits@D@std@@V?$allocator@D@2@@0@1@Z
pdata	ENDS
;	COMDAT pdata
pdata	SEGMENT
$pdata$??$?0VClient@@$0A@@?$tuple@VClient@@V?$basic_string@DU?$char_traits@D@std@@V?$allocator@D@2@@std@@V23@@std@@QEAA@XZ DD imagerel $LN177
	DD	imagerel $LN177+278
	DD	imagerel $unwind$??$?0VClient@@$0A@@?$tuple@VClient@@V?$basic_string@DU?$char_traits@D@std@@V?$allocator@D@2@@std@@V23@@std@@QEAA@XZ
pdata	ENDS
;	COMDAT pdata
pdata	SEGMENT
$pdata$??$_Erase@J@?$_Hash@V?$_Umap_traits@JV?$tuple@VClient@@V?$basic_string@DU?$char_traits@D@std@@V?$allocator@D@2@@std@@V23@@std@@V?$_Uhash_compare@JU?$hash@J@std@@U?$equal_to@J@2@@2@V?$allocator@U?$pair@$$CBJV?$tuple@VClient@@V?$basic_string@DU?$char_traits@D@std@@V?$allocator@D@2@@std@@V23@@std@@@std@@@2@$0A@@std@@@std@@AEAA_KAEBJ@Z DD imagerel $LN148
	DD	imagerel $LN148+145
	DD	imagerel $unwind$??$_Erase@J@?$_Hash@V?$_Umap_traits@JV?$tuple@VClient@@V?$basic_string@DU?$char_traits@D@std@@V?$allocator@D@2@@std@@V23@@std@@V?$_Uhash_compare@JU?$hash@J@std@@U?$equal_to@J@2@@2@V?$allocator@U?$pair@$$CBJV?$tuple@VClient@@V?$basic_string@DU?$char_traits@D@std@@V?$allocator@D@2@@std@@V23@@std@@@std@@@2@$0A@@std@@@std@@AEAA_KAEBJ@Z
pdata	ENDS
;	COMDAT pdata
pdata	SEGMENT
$pdata$0$??$_Erase@J@?$_Hash@V?$_Umap_traits@JV?$tuple@VClient@@V?$basic_string@DU?$char_traits@D@std@@V?$allocator@D@2@@std@@V23@@std@@V?$_Uhash_compare@JU?$hash@J@std@@U?$equal_to@J@2@@2@V?$allocator@U?$pair@$$CBJV?$tuple@VClient@@V?$basic_string@DU?$char_traits@D@std@@V?$allocator@D@2@@std@@V23@@std@@@std@@@2@$0A@@std@@@std@@AEAA_KAEBJ@Z DD imagerel $LN148+145
	DD	imagerel $LN148+259
	DD	imagerel $chain$0$??$_Erase@J@?$_Hash@V?$_Umap_traits@JV?$tuple@VClient@@V?$basic_string@DU?$char_traits@D@std@@V?$allocator@D@2@@std@@V23@@std@@V?$_Uhash_compare@JU?$hash@J@std@@U?$equal_to@J@2@@2@V?$allocator@U?$pair@$$CBJV?$tuple@VClient@@V?$basic_string@DU?$char_traits@D@std@@V?$allocator@D@2@@std@@V23@@std@@@std@@@2@$0A@@std@@@std@@AEAA_KAEBJ@Z
pdata	ENDS
;	COMDAT pdata
pdata	SEGMENT
$pdata$1$??$_Erase@J@?$_Hash@V?$_Umap_traits@JV?$tuple@VClient@@V?$basic_string@DU?$char_traits@D@std@@V?$allocator@D@2@@std@@V23@@std@@V?$_Uhash_compare@JU?$hash@J@std@@U?$equal_to@J@2@@2@V?$allocator@U?$pair@$$CBJV?$tuple@VClient@@V?$basic_string@DU?$char_traits@D@std@@V?$allocator@D@2@@std@@V23@@std@@@std@@@2@$0A@@std@@@std@@AEAA_KAEBJ@Z DD imagerel $LN148+259
	DD	imagerel $LN148+267
	DD	imagerel $chain$1$??$_Erase@J@?$_Hash@V?$_Umap_traits@JV?$tuple@VClient@@V?$basic_string@DU?$char_traits@D@std@@V?$allocator@D@2@@std@@V23@@std@@V?$_Uhash_compare@JU?$hash@J@std@@U?$equal_to@J@2@@2@V?$allocator@U?$pair@$$CBJV?$tuple@VClient@@V?$basic_string@DU?$char_traits@D@std@@V?$allocator@D@2@@std@@V23@@std@@@std@@@2@$0A@@std@@@std@@AEAA_KAEBJ@Z
pdata	ENDS
;	COMDAT pdata
pdata	SEGMENT
$pdata$??$?RV?$mersenne_twister_engine@I$0CA@$0CHA@$0BIN@$0BP@$0JJAILANP@$0L@$0PPPPPPPP@$06$0JNCMFGIA@$0P@$0OPMGAAAA@$0BC@$0GMAHIJGF@@std@@@?$uniform_int_distribution@J@std@@QEAAJAEAV?$mersenne_twister_engine@I$0CA@$0CHA@$0BIN@$0BP@$0JJAILANP@$0L@$0PPPPPPPP@$06$0JNCMFGIA@$0P@$0OPMGAAAA@$0BC@$0GMAHIJGF@@1@@Z DD imagerel $LN78
	DD	imagerel $LN78+155
	DD	imagerel $unwind$??$?RV?$mersenne_twister_engine@I$0CA@$0CHA@$0BIN@$0BP@$0JJAILANP@$0L@$0PPPPPPPP@$06$0JNCMFGIA@$0P@$0OPMGAAAA@$0BC@$0GMAHIJGF@@std@@@?$uniform_int_distribution@J@std@@QEAAJAEAV?$mersenne_twister_engine@I$0CA@$0CHA@$0BIN@$0BP@$0JJAILANP@$0L@$0PPPPPPPP@$06$0JNCMFGIA@$0P@$0OPMGAAAA@$0BC@$0GMAHIJGF@@1@@Z
pdata	ENDS
;	COMDAT pdata
pdata	SEGMENT
$pdata$?allocate@?$allocator@V?$_List_unchecked_iterator@V?$_List_val@U?$_List_simple_types@U?$pair@$$CBJV?$tuple@VClient@@V?$basic_string@DU?$char_traits@D@std@@V?$allocator@D@2@@std@@V23@@std@@@std@@@std@@@std@@@std@@@std@@QEAAPEAV?$_List_unchecked_iterator@V?$_List_val@U?$_List_simple_types@U?$pair@$$CBJV?$tuple@VClient@@V?$basic_string@DU?$char_traits@D@std@@V?$allocator@D@2@@std@@V23@@std@@@std@@@std@@@std@@@2@_K@Z DD imagerel $LN34
	DD	imagerel $LN34+111
	DD	imagerel $unwind$?allocate@?$allocator@V?$_List_unchecked_iterator@V?$_List_val@U?$_List_simple_types@U?$pair@$$CBJV?$tuple@VClient@@V?$basic_string@DU?$char_traits@D@std@@V?$allocator@D@2@@std@@V23@@std@@@std@@@std@@@std@@@std@@@std@@QEAAPEAV?$_List_unchecked_iterator@V?$_List_val@U?$_List_simple_types@U?$pair@$$CBJV?$tuple@VClient@@V?$basic_string@DU?$char_traits@D@std@@V?$allocator@D@2@@std@@V23@@std@@@std@@@std@@@std@@@2@_K@Z
pdata	ENDS
;	COMDAT pdata
pdata	SEGMENT
$pdata$?deallocate@?$allocator@V?$_List_unchecked_iterator@V?$_List_val@U?$_List_simple_types@U?$pair@$$CBJV?$tuple@VClient@@V?$basic_string@DU?$char_traits@D@std@@V?$allocator@D@2@@std@@V23@@std@@@std@@@std@@@std@@@std@@@std@@QEAAXQEAV?$_List_unchecked_iterator@V?$_List_val@U?$_List_simple_types@U?$pair@$$CBJV?$tuple@VClient@@V?$basic_string@DU?$char_traits@D@std@@V?$allocator@D@2@@std@@V23@@std@@@std@@@std@@@std@@@2@_K@Z DD imagerel $LN23
	DD	imagerel $LN23+66
	DD	imagerel $unwind$?deallocate@?$allocator@V?$_List_unchecked_iterator@V?$_List_val@U?$_List_simple_types@U?$pair@$$CBJV?$tuple@VClient@@V?$basic_string@DU?$char_traits@D@std@@V?$allocator@D@2@@std@@V23@@std@@@std@@@std@@@std@@@std@@@std@@QEAAXQEAV?$_List_unchecked_iterator@V?$_List_val@U?$_List_simple_types@U?$pair@$$CBJV?$tuple@VClient@@V?$basic_string@DU?$char_traits@D@std@@V?$allocator@D@2@@std@@V23@@std@@@std@@@std@@@std@@@2@_K@Z
pdata	ENDS
;	COMDAT pdata
pdata	SEGMENT
$pdata$?_Assign_grow@?$_Hash_vec@V?$allocator@V?$_List_unchecked_iterator@V?$_List_val@U?$_List_simple_types@U?$pair@$$CBJV?$tuple@VClient@@V?$basic_string@DU?$char_traits@D@std@@V?$allocator@D@2@@std@@V23@@std@@@std@@@std@@@std@@@std@@@std@@@std@@QEAAX_KV?$_List_unchecked_iterator@V?$_List_val@U?$_List_simple_types@U?$pair@$$CBJV?$tuple@VClient@@V?$basic_string@DU?$char_traits@D@std@@V?$allocator@D@2@@std@@V23@@std@@@std@@@std@@@std@@@2@@Z DD imagerel $LN103
	DD	imagerel $LN103+54
	DD	imagerel $unwind$?_Assign_grow@?$_Hash_vec@V?$allocator@V?$_List_unchecked_iterator@V?$_List_val@U?$_List_simple_types@U?$pair@$$CBJV?$tuple@VClient@@V?$basic_string@DU?$char_traits@D@std@@V?$allocator@D@2@@std@@V23@@std@@@std@@@std@@@std@@@std@@@std@@@std@@QEAAX_KV?$_List_unchecked_iterator@V?$_List_val@U?$_List_simple_types@U?$pair@$$CBJV?$tuple@VClient@@V?$basic_string@DU?$char_traits@D@std@@V?$allocator@D@2@@std@@V23@@std@@@std@@@std@@@std@@@2@@Z
pdata	ENDS
;	COMDAT pdata
pdata	SEGMENT
$pdata$0$?_Assign_grow@?$_Hash_vec@V?$allocator@V?$_List_unchecked_iterator@V?$_List_val@U?$_List_simple_types@U?$pair@$$CBJV?$tuple@VClient@@V?$basic_string@DU?$char_traits@D@std@@V?$allocator@D@2@@std@@V23@@std@@@std@@@std@@@std@@@std@@@std@@@std@@QEAAX_KV?$_List_unchecked_iterator@V?$_List_val@U?$_List_simple_types@U?$pair@$$CBJV?$tuple@VClient@@V?$basic_string@DU?$char_traits@D@std@@V?$allocator@D@2@@std@@V23@@std@@@std@@@std@@@std@@@2@@Z DD imagerel $LN103+54
	DD	imagerel $LN103+257
	DD	imagerel $chain$0$?_Assign_grow@?$_Hash_vec@V?$allocator@V?$_List_unchecked_iterator@V?$_List_val@U?$_List_simple_types@U?$pair@$$CBJV?$tuple@VClient@@V?$basic_string@DU?$char_traits@D@std@@V?$allocator@D@2@@std@@V23@@std@@@std@@@std@@@std@@@std@@@std@@@std@@QEAAX_KV?$_List_unchecked_iterator@V?$_List_val@U?$_List_simple_types@U?$pair@$$CBJV?$tuple@VClient@@V?$basic_string@DU?$char_traits@D@std@@V?$allocator@D@2@@std@@V23@@std@@@std@@@std@@@std@@@2@@Z
pdata	ENDS
;	COMDAT pdata
pdata	SEGMENT
$pdata$1$?_Assign_grow@?$_Hash_vec@V?$allocator@V?$_List_unchecked_iterator@V?$_List_val@U?$_List_simple_types@U?$pair@$$CBJV?$tuple@VClient@@V?$basic_string@DU?$char_traits@D@std@@V?$allocator@D@2@@std@@V23@@std@@@std@@@std@@@std@@@std@@@std@@@std@@QEAAX_KV?$_List_unchecked_iterator@V?$_List_val@U?$_List_simple_types@U?$pair@$$CBJV?$tuple@VClient@@V?$basic_string@DU?$char_traits@D@std@@V?$allocator@D@2@@std@@V23@@std@@@std@@@std@@@std@@@2@@Z DD imagerel $LN103+257
	DD	imagerel $LN103+306
	DD	imagerel $chain$1$?_Assign_grow@?$_Hash_vec@V?$allocator@V?$_List_unchecked_iterator@V?$_List_val@U?$_List_simple_types@U?$pair@$$CBJV?$tuple@VClient@@V?$basic_string@DU?$char_traits@D@std@@V?$allocator@D@2@@std@@V23@@std@@@std@@@std@@@std@@@std@@@std@@@std@@QEAAX_KV?$_List_unchecked_iterator@V?$_List_val@U?$_List_simple_types@U?$pair@$$CBJV?$tuple@VClient@@V?$basic_string@DU?$char_traits@D@std@@V?$allocator@D@2@@std@@V23@@std@@@std@@@std@@@std@@@2@@Z
pdata	ENDS
;	COMDAT pdata
pdata	SEGMENT
$pdata$2$?_Assign_grow@?$_Hash_vec@V?$allocator@V?$_List_unchecked_iterator@V?$_List_val@U?$_List_simple_types@U?$pair@$$CBJV?$tuple@VClient@@V?$basic_string@DU?$char_traits@D@std@@V?$allocator@D@2@@std@@V23@@std@@@std@@@std@@@std@@@std@@@std@@@std@@QEAAX_KV?$_List_unchecked_iterator@V?$_List_val@U?$_List_simple_types@U?$pair@$$CBJV?$tuple@VClient@@V?$basic_string@DU?$char_traits@D@std@@V?$allocator@D@2@@std@@V23@@std@@@std@@@std@@@std@@@2@@Z DD imagerel $LN103+306
	DD	imagerel $LN103+318
	DD	imagerel $chain$2$?_Assign_grow@?$_Hash_vec@V?$allocator@V?$_List_unchecked_iterator@V?$_List_val@U?$_List_simple_types@U?$pair@$$CBJV?$tuple@VClient@@V?$basic_string@DU?$char_traits@D@std@@V?$allocator@D@2@@std@@V23@@std@@@std@@@std@@@std@@@std@@@std@@@std@@QEAAX_KV?$_List_unchecked_iterator@V?$_List_val@U?$_List_simple_types@U?$pair@$$CBJV?$tuple@VClient@@V?$basic_string@DU?$char_traits@D@std@@V?$allocator@D@2@@std@@V23@@std@@@std@@@std@@@std@@@2@@Z
pdata	ENDS
;	COMDAT pdata
pdata	SEGMENT
$pdata$??0?$vector@EV?$allocator@E@std@@@std@@QEAA@AEBV01@@Z DD imagerel $LN111
	DD	imagerel $LN111+188
	DD	imagerel $unwind$??0?$vector@EV?$allocator@E@std@@@std@@QEAA@AEBV01@@Z
pdata	ENDS
;	COMDAT pdata
pdata	SEGMENT
$pdata$??0?$lock_guard@Vmutex@std@@@std@@QEAA@AEAVmutex@1@@Z DD imagerel $LN20
	DD	imagerel $LN20+82
	DD	imagerel $unwind$??0?$lock_guard@Vmutex@std@@@std@@QEAA@AEAVmutex@1@@Z
pdata	ENDS
;	COMDAT pdata
pdata	SEGMENT
$pdata$?erase@?$_Hash@V?$_Umap_traits@JV?$tuple@VClient@@V?$basic_string@DU?$char_traits@D@std@@V?$allocator@D@2@@std@@V23@@std@@V?$_Uhash_compare@JU?$hash@J@std@@U?$equal_to@J@2@@2@V?$allocator@U?$pair@$$CBJV?$tuple@VClient@@V?$basic_string@DU?$char_traits@D@std@@V?$allocator@D@2@@std@@V23@@std@@@std@@@2@$0A@@std@@@std@@QEAA_KAEBJ@Z DD imagerel $LN152
	DD	imagerel $LN152+145
	DD	imagerel $unwind$?erase@?$_Hash@V?$_Umap_traits@JV?$tuple@VClient@@V?$basic_string@DU?$char_traits@D@std@@V?$allocator@D@2@@std@@V23@@std@@V?$_Uhash_compare@JU?$hash@J@std@@U?$equal_to@J@2@@2@V?$allocator@U?$pair@$$CBJV?$tuple@VClient@@V?$basic_string@DU?$char_traits@D@std@@V?$allocator@D@2@@std@@V23@@std@@@std@@@2@$0A@@std@@@std@@QEAA_KAEBJ@Z
pdata	ENDS
;	COMDAT pdata
pdata	SEGMENT
$pdata$0$?erase@?$_Hash@V?$_Umap_traits@JV?$tuple@VClient@@V?$basic_string@DU?$char_traits@D@std@@V?$allocator@D@2@@std@@V23@@std@@V?$_Uhash_compare@JU?$hash@J@std@@U?$equal_to@J@2@@2@V?$allocator@U?$pair@$$CBJV?$tuple@VClient@@V?$basic_string@DU?$char_traits@D@std@@V?$allocator@D@2@@std@@V23@@std@@@std@@@2@$0A@@std@@@std@@QEAA_KAEBJ@Z DD imagerel $LN152+145
	DD	imagerel $LN152+259
	DD	imagerel $chain$0$?erase@?$_Hash@V?$_Umap_traits@JV?$tuple@VClient@@V?$basic_string@DU?$char_traits@D@std@@V?$allocator@D@2@@std@@V23@@std@@V?$_Uhash_compare@JU?$hash@J@std@@U?$equal_to@J@2@@2@V?$allocator@U?$pair@$$CBJV?$tuple@VClient@@V?$basic_string@DU?$char_traits@D@std@@V?$allocator@D@2@@std@@V23@@std@@@std@@@2@$0A@@std@@@std@@QEAA_KAEBJ@Z
pdata	ENDS
;	COMDAT pdata
pdata	SEGMENT
$pdata$1$?erase@?$_Hash@V?$_Umap_traits@JV?$tuple@VClient@@V?$basic_string@DU?$char_traits@D@std@@V?$allocator@D@2@@std@@V23@@std@@V?$_Uhash_compare@JU?$hash@J@std@@U?$equal_to@J@2@@2@V?$allocator@U?$pair@$$CBJV?$tuple@VClient@@V?$basic_string@DU?$char_traits@D@std@@V?$allocator@D@2@@std@@V23@@std@@@std@@@2@$0A@@std@@@std@@QEAA_KAEBJ@Z DD imagerel $LN152+259
	DD	imagerel $LN152+267
	DD	imagerel $chain$1$?erase@?$_Hash@V?$_Umap_traits@JV?$tuple@VClient@@V?$basic_string@DU?$char_traits@D@std@@V?$allocator@D@2@@std@@V23@@std@@V?$_Uhash_compare@JU?$hash@J@std@@U?$equal_to@J@2@@2@V?$allocator@U?$pair@$$CBJV?$tuple@VClient@@V?$basic_string@DU?$char_traits@D@std@@V?$allocator@D@2@@std@@V23@@std@@@std@@@2@$0A@@std@@@std@@QEAA_KAEBJ@Z
pdata	ENDS
;	COMDAT pdata
pdata	SEGMENT
$pdata$??A?$unordered_map@JV?$tuple@VClient@@V?$basic_string@DU?$char_traits@D@std@@V?$allocator@D@2@@std@@V23@@std@@U?$hash@J@2@U?$equal_to@J@2@V?$allocator@U?$pair@$$CBJV?$tuple@VClient@@V?$basic_string@DU?$char_traits@D@std@@V?$allocator@D@2@@std@@V23@@std@@@std@@@2@@std@@QEAAAEAV?$tuple@VClient@@V?$basic_string@DU?$char_traits@D@std@@V?$allocator@D@2@@std@@V23@@1@AEBJ@Z DD imagerel $LN4
	DD	imagerel $LN4+29
	DD	imagerel $unwind$??A?$unordered_map@JV?$tuple@VClient@@V?$basic_string@DU?$char_traits@D@std@@V?$allocator@D@2@@std@@V23@@std@@U?$hash@J@2@U?$equal_to@J@2@V?$allocator@U?$pair@$$CBJV?$tuple@VClient@@V?$basic_string@DU?$char_traits@D@std@@V?$allocator@D@2@@std@@V23@@std@@@std@@@2@@std@@QEAAAEAV?$tuple@VClient@@V?$basic_string@DU?$char_traits@D@std@@V?$allocator@D@2@@std@@V23@@1@AEBJ@Z
pdata	ENDS
;	COMDAT pdata
pdata	SEGMENT
$pdata$?at@?$unordered_map@JV?$tuple@VClient@@V?$basic_string@DU?$char_traits@D@std@@V?$allocator@D@2@@std@@V23@@std@@U?$hash@J@2@U?$equal_to@J@2@V?$allocator@U?$pair@$$CBJV?$tuple@VClient@@V?$basic_string@DU?$char_traits@D@std@@V?$allocator@D@2@@std@@V23@@std@@@std@@@2@@std@@QEAAAEAV?$tuple@VClient@@V?$basic_string@DU?$char_traits@D@std@@V?$allocator@D@2@@std@@V23@@2@AEBJ@Z DD imagerel $LN56
	DD	imagerel $LN56+148
	DD	imagerel $unwind$?at@?$unordered_map@JV?$tuple@VClient@@V?$basic_string@DU?$char_traits@D@std@@V?$allocator@D@2@@std@@V23@@std@@U?$hash@J@2@U?$equal_to@J@2@V?$allocator@U?$pair@$$CBJV?$tuple@VClient@@V?$basic_string@DU?$char_traits@D@std@@V?$allocator@D@2@@std@@V23@@std@@@std@@@2@@std@@QEAAAEAV?$tuple@VClient@@V?$basic_string@DU?$char_traits@D@std@@V?$allocator@D@2@@std@@V23@@2@AEBJ@Z
pdata	ENDS
;	COMDAT pdata
pdata	SEGMENT
$pdata$?IsCUIDInUse@ServerInterface@@QEAAHJ@Z DD imagerel $LN12
	DD	imagerel $LN12+82
	DD	imagerel $unwind$?IsCUIDInUse@ServerInterface@@QEAAHJ@Z
pdata	ENDS
;	COMDAT pdata
pdata	SEGMENT
$pdata$?catch$0@?0??IsCUIDInUse@ServerInterface@@QEAAHJ@Z@4HA DD imagerel ?catch$0@?0??IsCUIDInUse@ServerInterface@@QEAAHJ@Z@4HA
	DD	imagerel ?catch$0@?0??IsCUIDInUse@ServerInterface@@QEAAHJ@Z@4HA+30
	DD	imagerel $unwind$?catch$0@?0??IsCUIDInUse@ServerInterface@@QEAAHJ@Z@4HA
pdata	ENDS
;	COMDAT pdata
pdata	SEGMENT
$pdata$?EncryptServerRequest@ServerInterface@@QEAA?AV?$vector@EV?$allocator@E@std@@@std@@UServerCommand@@@Z DD imagerel $LN23
	DD	imagerel $LN23+317
	DD	imagerel $unwind$?EncryptServerRequest@ServerInterface@@QEAA?AV?$vector@EV?$allocator@E@std@@@std@@UServerCommand@@@Z
pdata	ENDS
;	COMDAT pdata
pdata	SEGMENT
$pdata$?DecryptClientResponse@ServerInterface@@QEAA?AUClientResponse@@JV?$vector@EV?$allocator@E@std@@@std@@@Z DD imagerel $LN39
	DD	imagerel $LN39+179
	DD	imagerel $unwind$?DecryptClientResponse@ServerInterface@@QEAA?AUClientResponse@@JV?$vector@EV?$allocator@E@std@@@std@@@Z
pdata	ENDS
;	COMDAT pdata
pdata	SEGMENT
$pdata$?DecryptClientRequest@ServerInterface@@QEAA?AUClientRequest@@JV?$vector@EV?$allocator@E@std@@@std@@@Z DD imagerel $LN39
	DD	imagerel $LN39+179
	DD	imagerel $unwind$?DecryptClientRequest@ServerInterface@@QEAA?AUClientRequest@@JV?$vector@EV?$allocator@E@std@@@std@@@Z
pdata	ENDS
;	COMDAT pdata
pdata	SEGMENT
$pdata$?IsClientAlive@ServerInterface@@QEAAHJ@Z DD imagerel $LN194
	DD	imagerel $LN194+405
	DD	imagerel $unwind$?IsClientAlive@ServerInterface@@QEAAHJ@Z
pdata	ENDS
;	COMDAT pdata
pdata	SEGMENT
$pdata$?AddToClientList@ServerInterface@@QEAAHVClient@@@Z DD imagerel $LN343
	DD	imagerel $LN343+743
	DD	imagerel $unwind$?AddToClientList@ServerInterface@@QEAAHVClient@@@Z
pdata	ENDS
;	COMDAT pdata
pdata	SEGMENT
$pdata$?ClientIsInClientList@ServerInterface@@QEAAHJ@Z DD imagerel $LN184
	DD	imagerel $LN184+431
	DD	imagerel $unwind$?ClientIsInClientList@ServerInterface@@QEAAHJ@Z
pdata	ENDS
;	COMDAT pdata
pdata	SEGMENT
$pdata$?catch$18@?0??ClientIsInClientList@ServerInterface@@QEAAHJ@Z@4HA DD imagerel ?catch$18@?0??ClientIsInClientList@ServerInterface@@QEAAHJ@Z@4HA
	DD	imagerel ?catch$18@?0??ClientIsInClientList@ServerInterface@@QEAAHJ@Z@4HA+44
	DD	imagerel $unwind$?catch$18@?0??ClientIsInClientList@ServerInterface@@QEAAHJ@Z@4HA
pdata	ENDS
;	COMDAT pdata
pdata	SEGMENT
$pdata$?PingClient@ServerInterface@@QEAA?AUClientResponse@@J@Z DD imagerel $LN486
	DD	imagerel $LN486+761
	DD	imagerel $unwind$?PingClient@ServerInterface@@QEAA?AUClientResponse@@J@Z
pdata	ENDS
;	COMDAT pdata
pdata	SEGMENT
$pdata$?PerformUDPRequest@ServerInterface@@IEAAHV?$vector@EV?$allocator@E@std@@@std@@@Z DD imagerel $LN166
	DD	imagerel $LN166+518
	DD	imagerel $unwind$?PerformUDPRequest@ServerInterface@@IEAAHV?$vector@EV?$allocator@E@std@@@std@@@Z
pdata	ENDS
;	COMDAT pdata
pdata	SEGMENT
$pdata$?AcceptTCPConnection@ServerInterface@@QEAAJVClient@@@Z DD imagerel $LN5
	DD	imagerel $LN5+19
	DD	imagerel $unwind$?AcceptTCPConnection@ServerInterface@@QEAAJVClient@@@Z
pdata	ENDS
;	COMDAT pdata
pdata	SEGMENT
$pdata$?TCPSendMessageToClient@ServerInterface@@QEAAHJUServerCommand@@@Z DD imagerel $LN5
	DD	imagerel $LN5+22
	DD	imagerel $unwind$?TCPSendMessageToClient@ServerInterface@@QEAAHJUServerCommand@@@Z
pdata	ENDS
;	COMDAT pdata
pdata	SEGMENT
$pdata$?NewServerInstance@ServerInterface@@QEAA?AUServer@@W4SocketTypes@@H@Z DD imagerel $LN15
	DD	imagerel $LN15+150
	DD	imagerel $unwind$?NewServerInstance@ServerInterface@@QEAA?AUServer@@W4SocketTypes@@H@Z
pdata	ENDS
;	COMDAT pdata
pdata	SEGMENT
$pdata$??0ClientResponse@@QEAA@AEBU0@@Z DD imagerel $LN6
	DD	imagerel $LN6+47
	DD	imagerel $unwind$??0ClientResponse@@QEAA@AEBU0@@Z
pdata	ENDS
;	COMDAT pdata
pdata	SEGMENT
$pdata$??0Client@@QEAA@AEBV0@@Z DD imagerel $LN16
	DD	imagerel $LN16+184
	DD	imagerel $unwind$??0Client@@QEAA@AEBV0@@Z
pdata	ENDS
;	COMDAT pdata
pdata	SEGMENT
$pdata$??0?$_Tuple_val@VClient@@@std@@QEAA@AEBU01@@Z DD imagerel $LN6
	DD	imagerel $LN6+23
	DD	imagerel $unwind$??0?$_Tuple_val@VClient@@@std@@QEAA@AEBU01@@Z
pdata	ENDS
;	COMDAT pdata
pdata	SEGMENT
$pdata$??0?$_Tuple_val@V?$basic_string@DU?$char_traits@D@std@@V?$allocator@D@2@@std@@@std@@QEAA@AEBU01@@Z DD imagerel $LN6
	DD	imagerel $LN6+23
	DD	imagerel $unwind$??0?$_Tuple_val@V?$basic_string@DU?$char_traits@D@std@@V?$allocator@D@2@@std@@@std@@QEAA@AEBU01@@Z
pdata	ENDS
;	COMDAT pdata
pdata	SEGMENT
$pdata$??0?$tuple@V?$basic_string@DU?$char_traits@D@std@@V?$allocator@D@2@@std@@@std@@QEAA@AEBV01@@Z DD imagerel $LN9
	DD	imagerel $LN9+23
	DD	imagerel $unwind$??0?$tuple@V?$basic_string@DU?$char_traits@D@std@@V?$allocator@D@2@@std@@@std@@QEAA@AEBV01@@Z
pdata	ENDS
;	COMDAT pdata
pdata	SEGMENT
$pdata$??0?$tuple@V?$basic_string@DU?$char_traits@D@std@@V?$allocator@D@2@@std@@V12@@std@@QEAA@AEBV01@@Z DD imagerel $LN16
	DD	imagerel $LN16+55
	DD	imagerel $unwind$??0?$tuple@V?$basic_string@DU?$char_traits@D@std@@V?$allocator@D@2@@std@@V12@@std@@QEAA@AEBV01@@Z
pdata	ENDS
;	COMDAT pdata
pdata	SEGMENT
$pdata$??0?$tuple@VClient@@V?$basic_string@DU?$char_traits@D@std@@V?$allocator@D@2@@std@@V23@@std@@QEAA@AEBV01@@Z DD imagerel $LN23
	DD	imagerel $LN23+69
	DD	imagerel $unwind$??0?$tuple@VClient@@V?$basic_string@DU?$char_traits@D@std@@V?$allocator@D@2@@std@@V23@@std@@QEAA@AEBV01@@Z
pdata	ENDS
;	COMDAT pdata
pdata	SEGMENT
$pdata$??1Client@@QEAA@XZ DD imagerel $LN220
	DD	imagerel $LN220+427
	DD	imagerel $unwind$??1Client@@QEAA@XZ
pdata	ENDS
;	COMDAT pdata
pdata	SEGMENT
$pdata$??1?$_Tuple_val@V?$basic_string@DU?$char_traits@D@std@@V?$allocator@D@2@@std@@@std@@QEAA@XZ DD imagerel $LN48
	DD	imagerel $LN48+94
	DD	imagerel $unwind$??1?$_Tuple_val@V?$basic_string@DU?$char_traits@D@std@@V?$allocator@D@2@@std@@@std@@QEAA@XZ
pdata	ENDS
;	COMDAT pdata
pdata	SEGMENT
$pdata$??1?$tuple@V?$basic_string@DU?$char_traits@D@std@@V?$allocator@D@2@@std@@@std@@QEAA@XZ DD imagerel $LN54
	DD	imagerel $LN54+94
	DD	imagerel $unwind$??1?$tuple@V?$basic_string@DU?$char_traits@D@std@@V?$allocator@D@2@@std@@@std@@QEAA@XZ
pdata	ENDS
;	COMDAT pdata
pdata	SEGMENT
$pdata$??1?$tuple@V?$basic_string@DU?$char_traits@D@std@@V?$allocator@D@2@@std@@V12@@std@@QEAA@XZ DD imagerel $LN106
	DD	imagerel $LN106+169
	DD	imagerel $unwind$??1?$tuple@V?$basic_string@DU?$char_traits@D@std@@V?$allocator@D@2@@std@@V12@@std@@QEAA@XZ
pdata	ENDS
;	COMDAT pdata
pdata	SEGMENT
$pdata$??1?$tuple@VClient@@V?$basic_string@DU?$char_traits@D@std@@V?$allocator@D@2@@std@@V23@@std@@QEAA@XZ DD imagerel $LN11
	DD	imagerel $LN11+31
	DD	imagerel $unwind$??1?$tuple@VClient@@V?$basic_string@DU?$char_traits@D@std@@V?$allocator@D@2@@std@@V23@@std@@QEAA@XZ
pdata	ENDS
;	COMDAT pdata
pdata	SEGMENT
$pdata$??1ClientResponse@@QEAA@XZ DD imagerel $LN48
	DD	imagerel $LN48+94
	DD	imagerel $unwind$??1ClientResponse@@QEAA@XZ
pdata	ENDS
;	COMDAT pdata
pdata	SEGMENT
$pdata$?GetClientList@ServerInterface@@QEAAAEAV?$unordered_map@JV?$tuple@VClient@@V?$basic_string@DU?$char_traits@D@std@@V?$allocator@D@2@@std@@V23@@std@@U?$hash@J@2@U?$equal_to@J@2@V?$allocator@U?$pair@$$CBJV?$tuple@VClient@@V?$basic_string@DU?$char_traits@D@std@@V?$allocator@D@2@@std@@V23@@std@@@std@@@2@@std@@XZ DD imagerel $LN30
	DD	imagerel $LN30+92
	DD	imagerel $unwind$?GetClientList@ServerInterface@@QEAAAEAV?$unordered_map@JV?$tuple@VClient@@V?$basic_string@DU?$char_traits@D@std@@V?$allocator@D@2@@std@@V23@@std@@U?$hash@J@2@U?$equal_to@J@2@V?$allocator@U?$pair@$$CBJV?$tuple@VClient@@V?$basic_string@DU?$char_traits@D@std@@V?$allocator@D@2@@std@@V23@@std@@@std@@@2@@std@@XZ
pdata	ENDS
;	COMDAT pdata
pdata	SEGMENT
$pdata$?GetClientData@ServerInterface@@QEAA?BV?$tuple@VClient@@V?$basic_string@DU?$char_traits@D@std@@V?$allocator@D@2@@std@@V23@@std@@J@Z DD imagerel $LN65
	DD	imagerel $LN65+237
	DD	imagerel $unwind$?GetClientData@ServerInterface@@QEAA?BV?$tuple@VClient@@V?$basic_string@DU?$char_traits@D@std@@V?$allocator@D@2@@std@@V23@@std@@J@Z
pdata	ENDS
;	COMDAT pdata
pdata	SEGMENT
$pdata$?RemoveClientFromClientList@ServerInterface@@QEAAHJ@Z DD imagerel $LN182
	DD	imagerel $LN182+358
	DD	imagerel $unwind$?RemoveClientFromClientList@ServerInterface@@QEAAHJ@Z
pdata	ENDS
;	COMDAT pdata
pdata	SEGMENT
$pdata$?lock@_Mutex_base@std@@QEAAXXZ DD imagerel $LN17
	DD	imagerel $LN17+62
	DD	imagerel $unwind$?lock@_Mutex_base@std@@QEAAXXZ
pdata	ENDS
;	COMDAT pdata
pdata	SEGMENT
$pdata$?GenerateCUID@Client@@QEAAJXZ DD imagerel $LN105
	DD	imagerel $LN105+193
	DD	imagerel $unwind$?GenerateCUID@Client@@QEAAJXZ
pdata	ENDS
;	COMDAT pdata
pdata	SEGMENT
$pdata$?RequestToBlob@NetCommon@@YA?AUNET_BLOB@@UServerCommand@@V?$basic_string@DU?$char_traits@D@std@@V?$allocator@D@2@@std@@@Z DD imagerel $LN82
	DD	imagerel $LN82+348
	DD	imagerel $unwind$?RequestToBlob@NetCommon@@YA?AUNET_BLOB@@UServerCommand@@V?$basic_string@DU?$char_traits@D@std@@V?$allocator@D@2@@std@@@Z
pdata	ENDS
;	COMDAT pdata
pdata	SEGMENT
$pdata$?DecryptByteString@NetCommon@@YAXAEAV?$vector@EV?$allocator@E@std@@@std@@V?$basic_string@DU?$char_traits@D@std@@V?$allocator@D@2@@3@@Z DD imagerel $LN94
	DD	imagerel $LN94+387
	DD	imagerel $unwind$?DecryptByteString@NetCommon@@YAXAEAV?$vector@EV?$allocator@E@std@@@std@@V?$basic_string@DU?$char_traits@D@std@@V?$allocator@D@2@@3@@Z
;	COMDAT xdata
xdata	SEGMENT
$ip2state$?DecryptByteString@NetCommon@@YAXAEAV?$vector@EV?$allocator@E@std@@@std@@V?$basic_string@DU?$char_traits@D@std@@V?$allocator@D@2@@3@@Z DB 06H
	DB	'|'
	DB	02H
	DB	'M', 03H
	DB	00H
	DB	0ccH
	DB	02H
xdata	ENDS
;	COMDAT xdata
xdata	SEGMENT
$stateUnwindMap$?DecryptByteString@NetCommon@@YAXAEAV?$vector@EV?$allocator@E@std@@@std@@V?$basic_string@DU?$char_traits@D@std@@V?$allocator@D@2@@3@@Z DB 02H
	DB	0cH
	DD	imagerel ??1?$basic_string@DU?$char_traits@D@std@@V?$allocator@D@2@@std@@QEAA@XZ
	DB	090H
xdata	ENDS
;	COMDAT xdata
xdata	SEGMENT
$cppxdata$?DecryptByteString@NetCommon@@YAXAEAV?$vector@EV?$allocator@E@std@@@std@@V?$basic_string@DU?$char_traits@D@std@@V?$allocator@D@2@@3@@Z DB 028H
	DD	imagerel $stateUnwindMap$?DecryptByteString@NetCommon@@YAXAEAV?$vector@EV?$allocator@E@std@@@std@@V?$basic_string@DU?$char_traits@D@std@@V?$allocator@D@2@@3@@Z
	DD	imagerel $ip2state$?DecryptByteString@NetCommon@@YAXAEAV?$vector@EV?$allocator@E@std@@@std@@V?$basic_string@DU?$char_traits@D@std@@V?$allocator@D@2@@3@@Z
xdata	ENDS
;	COMDAT xdata
xdata	SEGMENT
$unwind$?DecryptByteString@NetCommon@@YAXAEAV?$vector@EV?$allocator@E@std@@@std@@V?$basic_string@DU?$char_traits@D@std@@V?$allocator@D@2@@3@@Z DD 051f19H
	DD	032340dH
	DD	02e010dH
	DD	07006H
	DD	imagerel __GSHandlerCheck_EH4
	DD	imagerel $cppxdata$?DecryptByteString@NetCommon@@YAXAEAV?$vector@EV?$allocator@E@std@@@std@@V?$basic_string@DU?$char_traits@D@std@@V?$allocator@D@2@@3@@Z
	DD	0162H
xdata	ENDS
;	COMDAT xdata
xdata	SEGMENT
$ip2state$?RequestToBlob@NetCommon@@YA?AUNET_BLOB@@UServerCommand@@V?$basic_string@DU?$char_traits@D@std@@V?$allocator@D@2@@std@@@Z DB 0aH
	DB	0f4H
	DB	06H
	DB	01cH
	DB	08H
	DB	01cH
	DB	0aH
	DB	0a2H
	DB	0cH
	DB	0beH
	DB	00H
xdata	ENDS
;	COMDAT xdata
xdata	SEGMENT
$stateUnwindMap$?RequestToBlob@NetCommon@@YA?AUNET_BLOB@@UServerCommand@@V?$basic_string@DU?$char_traits@D@std@@V?$allocator@D@2@@std@@@Z DB 0cH
	DB	0cH
	DD	imagerel ??1?$basic_string@DU?$char_traits@D@std@@V?$allocator@D@2@@std@@QEAA@XZ
	DB	0a0H
	DB	034H
	DD	imagerel ??1ServerCommand@@QEAA@XZ
	DB	090H
	DB	034H
	DD	imagerel ??1ClientRequest@@QEAA@XZ
	DB	060H
	DB	036H
	DD	imagerel ?dtor$10@?0??RequestToBlob@NetCommon@@YA?AUNET_BLOB@@UServerCommand@@V?$basic_string@DU?$char_traits@D@std@@V?$allocator@D@2@@std@@@Z@4HA
	DB	02eH
	DD	imagerel ?dtor$11@?0??RequestToBlob@NetCommon@@YA?AUNET_BLOB@@UServerCommand@@V?$basic_string@DU?$char_traits@D@std@@V?$allocator@D@2@@std@@@Z@4HA
	DB	086H
	DD	imagerel ?dtor$4@?0??RequestToBlob@NetCommon@@YA?AUNET_BLOB@@UServerCommand@@V?$basic_string@DU?$char_traits@D@std@@V?$allocator@D@2@@std@@@Z@4HA
xdata	ENDS
;	COMDAT xdata
xdata	SEGMENT
$cppxdata$?RequestToBlob@NetCommon@@YA?AUNET_BLOB@@UServerCommand@@V?$basic_string@DU?$char_traits@D@std@@V?$allocator@D@2@@std@@@Z DB 028H
	DD	imagerel $stateUnwindMap$?RequestToBlob@NetCommon@@YA?AUNET_BLOB@@UServerCommand@@V?$basic_string@DU?$char_traits@D@std@@V?$allocator@D@2@@std@@@Z
	DD	imagerel $ip2state$?RequestToBlob@NetCommon@@YA?AUNET_BLOB@@UServerCommand@@V?$basic_string@DU?$char_traits@D@std@@V?$allocator@D@2@@std@@@Z
xdata	ENDS
;	COMDAT xdata
xdata	SEGMENT
$unwind$?RequestToBlob@NetCommon@@YA?AUNET_BLOB@@UServerCommand@@V?$basic_string@DU?$char_traits@D@std@@V?$allocator@D@2@@std@@@Z DD 061a19H
	DD	0e007b20bH
	DD	060047005H
	DD	030025003H
	DD	imagerel __GSHandlerCheck_EH4
	DD	imagerel $cppxdata$?RequestToBlob@NetCommon@@YA?AUNET_BLOB@@UServerCommand@@V?$basic_string@DU?$char_traits@D@std@@V?$allocator@D@2@@std@@@Z
	DD	05aH
xdata	ENDS
;	COMDAT xdata
xdata	SEGMENT
$unwind$?GenerateCUID@Client@@QEAAJXZ DD 021f19H
	DD	0279010dH
	DD	imagerel __GSHandlerCheck
	DD	013b0H
xdata	ENDS
;	COMDAT xdata
xdata	SEGMENT
$unwind$?lock@_Mutex_base@std@@QEAAXXZ DD 020601H
	DD	030023206H
xdata	ENDS
;	COMDAT xdata
xdata	SEGMENT
$unwind$?RemoveClientFromClientList@ServerInterface@@QEAAHJ@Z DD 081001H
	DD	0c3410H
	DD	0f00c3210H
	DD	07008e00aH
	DD	050066007H
xdata	ENDS
;	COMDAT xdata
xdata	SEGMENT
$ip2state$?GetClientData@ServerInterface@@QEAA?BV?$tuple@VClient@@V?$basic_string@DU?$char_traits@D@std@@V?$allocator@D@2@@std@@V23@@std@@J@Z DB 08H
	DB	'>'
	DB	00H
	DB	011H, 02H
	DB	02H
	DB	01cH
	DB	04H
	DB	01cH
	DB	00H
xdata	ENDS
;	COMDAT xdata
xdata	SEGMENT
$stateUnwindMap$?GetClientData@ServerInterface@@QEAA?BV?$tuple@VClient@@V?$basic_string@DU?$char_traits@D@std@@V?$allocator@D@2@@std@@V23@@std@@J@Z DB 04H
	DB	0cH
	DD	imagerel ??1?$tuple@V?$basic_string@DU?$char_traits@D@std@@V?$allocator@D@2@@std@@@std@@QEAA@XZ
	DB	0b0H
	DB	03cH
	DD	imagerel ??1?$tuple@V?$basic_string@DU?$char_traits@D@std@@V?$allocator@D@2@@std@@V12@@std@@QEAA@XZ
	DB	0b0H
xdata	ENDS
;	COMDAT xdata
xdata	SEGMENT
$cppxdata$?GetClientData@ServerInterface@@QEAA?BV?$tuple@VClient@@V?$basic_string@DU?$char_traits@D@std@@V?$allocator@D@2@@std@@V23@@std@@J@Z DB 028H
	DD	imagerel $stateUnwindMap$?GetClientData@ServerInterface@@QEAA?BV?$tuple@VClient@@V?$basic_string@DU?$char_traits@D@std@@V?$allocator@D@2@@std@@V23@@std@@J@Z
	DD	imagerel $ip2state$?GetClientData@ServerInterface@@QEAA?BV?$tuple@VClient@@V?$basic_string@DU?$char_traits@D@std@@V?$allocator@D@2@@std@@V23@@std@@J@Z
xdata	ENDS
;	COMDAT xdata
xdata	SEGMENT
$unwind$?GetClientData@ServerInterface@@QEAA?BV?$tuple@VClient@@V?$basic_string@DU?$char_traits@D@std@@V?$allocator@D@2@@std@@V23@@std@@J@Z DD 061611H
	DD	0a3416H
	DD	070125216H
	DD	050106011H
	DD	imagerel __CxxFrameHandler4
	DD	imagerel $cppxdata$?GetClientData@ServerInterface@@QEAA?BV?$tuple@VClient@@V?$basic_string@DU?$char_traits@D@std@@V?$allocator@D@2@@std@@V23@@std@@J@Z
xdata	ENDS
;	COMDAT xdata
xdata	SEGMENT
$unwind$?GetClientList@ServerInterface@@QEAAAEAV?$unordered_map@JV?$tuple@VClient@@V?$basic_string@DU?$char_traits@D@std@@V?$allocator@D@2@@std@@V23@@std@@U?$hash@J@2@U?$equal_to@J@2@V?$allocator@U?$pair@$$CBJV?$tuple@VClient@@V?$basic_string@DU?$char_traits@D@std@@V?$allocator@D@2@@std@@V23@@std@@@std@@@2@@std@@XZ DD 040a01H
	DD	06340aH
	DD	07006320aH
xdata	ENDS
;	COMDAT xdata
xdata	SEGMENT
$unwind$??1ClientResponse@@QEAA@XZ DD 020601H
	DD	030023206H
xdata	ENDS
;	COMDAT xdata
xdata	SEGMENT
$unwind$??1?$tuple@VClient@@V?$basic_string@DU?$char_traits@D@std@@V?$allocator@D@2@@std@@V23@@std@@QEAA@XZ DD 020601H
	DD	030023206H
xdata	ENDS
;	COMDAT xdata
xdata	SEGMENT
$unwind$??1?$tuple@V?$basic_string@DU?$char_traits@D@std@@V?$allocator@D@2@@std@@V12@@std@@QEAA@XZ DD 020601H
	DD	030023206H
xdata	ENDS
;	COMDAT xdata
xdata	SEGMENT
$unwind$??1?$tuple@V?$basic_string@DU?$char_traits@D@std@@V?$allocator@D@2@@std@@@std@@QEAA@XZ DD 020601H
	DD	030023206H
xdata	ENDS
;	COMDAT xdata
xdata	SEGMENT
$unwind$??1?$_Tuple_val@V?$basic_string@DU?$char_traits@D@std@@V?$allocator@D@2@@std@@@std@@QEAA@XZ DD 020601H
	DD	030023206H
xdata	ENDS
;	COMDAT xdata
xdata	SEGMENT
$unwind$??1Client@@QEAA@XZ DD 040a01H
	DD	07340aH
	DD	07006320aH
xdata	ENDS
;	COMDAT xdata
xdata	SEGMENT
$ip2state$??0?$tuple@VClient@@V?$basic_string@DU?$char_traits@D@std@@V?$allocator@D@2@@std@@V23@@std@@QEAA@AEBV01@@Z DB 06H
	DB	'*'
	DB	00H
	DB	01cH
	DB	02H
	DB	01cH
	DB	04H
xdata	ENDS
;	COMDAT xdata
xdata	SEGMENT
$stateUnwindMap$??0?$tuple@VClient@@V?$basic_string@DU?$char_traits@D@std@@V?$allocator@D@2@@std@@V23@@std@@QEAA@AEBV01@@Z DB 04H
	DB	0cH
	DD	imagerel ??1?$tuple@V?$basic_string@DU?$char_traits@D@std@@V?$allocator@D@2@@std@@@std@@QEAA@XZ
	DB	060H
	DB	03cH
	DD	imagerel ??1?$tuple@V?$basic_string@DU?$char_traits@D@std@@V?$allocator@D@2@@std@@V12@@std@@QEAA@XZ
	DB	060H
xdata	ENDS
;	COMDAT xdata
xdata	SEGMENT
$cppxdata$??0?$tuple@VClient@@V?$basic_string@DU?$char_traits@D@std@@V?$allocator@D@2@@std@@V23@@std@@QEAA@AEBV01@@Z DB 028H
	DD	imagerel $stateUnwindMap$??0?$tuple@VClient@@V?$basic_string@DU?$char_traits@D@std@@V?$allocator@D@2@@std@@V23@@std@@QEAA@AEBV01@@Z
	DD	imagerel $ip2state$??0?$tuple@VClient@@V?$basic_string@DU?$char_traits@D@std@@V?$allocator@D@2@@std@@V23@@std@@QEAA@AEBV01@@Z
xdata	ENDS
;	COMDAT xdata
xdata	SEGMENT
$unwind$??0?$tuple@VClient@@V?$basic_string@DU?$char_traits@D@std@@V?$allocator@D@2@@std@@V23@@std@@QEAA@AEBV01@@Z DD 040f11H
	DD	07340fH
	DD	0700b320fH
	DD	imagerel __CxxFrameHandler4
	DD	imagerel $cppxdata$??0?$tuple@VClient@@V?$basic_string@DU?$char_traits@D@std@@V?$allocator@D@2@@std@@V23@@std@@QEAA@AEBV01@@Z
xdata	ENDS
;	COMDAT xdata
xdata	SEGMENT
$ip2state$??0?$tuple@V?$basic_string@DU?$char_traits@D@std@@V?$allocator@D@2@@std@@V12@@std@@QEAA@AEBV01@@Z DB 04H
	DB	'*'
	DB	00H
	DB	01cH
	DB	02H
xdata	ENDS
;	COMDAT xdata
xdata	SEGMENT
$stateUnwindMap$??0?$tuple@V?$basic_string@DU?$char_traits@D@std@@V?$allocator@D@2@@std@@V12@@std@@QEAA@AEBV01@@Z DB 02H
	DB	0cH
	DD	imagerel ??1?$tuple@V?$basic_string@DU?$char_traits@D@std@@V?$allocator@D@2@@std@@@std@@QEAA@XZ
	DB	060H
xdata	ENDS
;	COMDAT xdata
xdata	SEGMENT
$cppxdata$??0?$tuple@V?$basic_string@DU?$char_traits@D@std@@V?$allocator@D@2@@std@@V12@@std@@QEAA@AEBV01@@Z DB 028H
	DD	imagerel $stateUnwindMap$??0?$tuple@V?$basic_string@DU?$char_traits@D@std@@V?$allocator@D@2@@std@@V12@@std@@QEAA@AEBV01@@Z
	DD	imagerel $ip2state$??0?$tuple@V?$basic_string@DU?$char_traits@D@std@@V?$allocator@D@2@@std@@V12@@std@@QEAA@AEBV01@@Z
xdata	ENDS
;	COMDAT xdata
xdata	SEGMENT
$unwind$??0?$tuple@V?$basic_string@DU?$char_traits@D@std@@V?$allocator@D@2@@std@@V12@@std@@QEAA@AEBV01@@Z DD 040f11H
	DD	07340fH
	DD	0700b320fH
	DD	imagerel __CxxFrameHandler4
	DD	imagerel $cppxdata$??0?$tuple@V?$basic_string@DU?$char_traits@D@std@@V?$allocator@D@2@@std@@V12@@std@@QEAA@AEBV01@@Z
xdata	ENDS
;	COMDAT xdata
xdata	SEGMENT
$unwind$??0?$tuple@V?$basic_string@DU?$char_traits@D@std@@V?$allocator@D@2@@std@@@std@@QEAA@AEBV01@@Z DD 020601H
	DD	030023206H
xdata	ENDS
;	COMDAT xdata
xdata	SEGMENT
$unwind$??0?$_Tuple_val@V?$basic_string@DU?$char_traits@D@std@@V?$allocator@D@2@@std@@@std@@QEAA@AEBU01@@Z DD 020601H
	DD	030023206H
xdata	ENDS
;	COMDAT xdata
xdata	SEGMENT
$unwind$??0?$_Tuple_val@VClient@@@std@@QEAA@AEBU01@@Z DD 020601H
	DD	030023206H
xdata	ENDS
;	COMDAT xdata
xdata	SEGMENT
$ip2state$??0Client@@QEAA@AEBV0@@Z DB 0aH
	DB	'>'
	DB	00H
	DB	'('
	DB	02H
	DB	'2'
	DB	04H
	DB	'^'
	DB	06H
	DB	'('
	DB	08H
xdata	ENDS
;	COMDAT xdata
xdata	SEGMENT
$stateUnwindMap$??0Client@@QEAA@AEBV0@@Z DB 08H
	DB	0cH
	DD	imagerel ??1?$basic_string@DU?$char_traits@D@std@@V?$allocator@D@2@@std@@QEAA@XZ
	DB	060H
	DB	036H
	DD	imagerel ?dtor$1@?0???0Client@@QEAA@AEBV0@@Z@4HA
	DB	02eH
	DD	imagerel ?dtor$2@?0???0Client@@QEAA@AEBV0@@Z@4HA
	DB	02eH
	DD	imagerel ?dtor$3@?0???0Client@@QEAA@AEBV0@@Z@4HA
xdata	ENDS
;	COMDAT xdata
xdata	SEGMENT
$cppxdata$??0Client@@QEAA@AEBV0@@Z DB 028H
	DD	imagerel $stateUnwindMap$??0Client@@QEAA@AEBV0@@Z
	DD	imagerel $ip2state$??0Client@@QEAA@AEBV0@@Z
xdata	ENDS
;	COMDAT xdata
xdata	SEGMENT
$unwind$??0Client@@QEAA@AEBV0@@Z DD 081911H
	DD	096419H
	DD	085419H
	DD	073419H
	DD	070153219H
	DD	imagerel __CxxFrameHandler4
	DD	imagerel $cppxdata$??0Client@@QEAA@AEBV0@@Z
xdata	ENDS
;	COMDAT xdata
xdata	SEGMENT
$unwind$??0ClientResponse@@QEAA@AEBU0@@Z DD 040a01H
	DD	06340aH
	DD	07006320aH
xdata	ENDS
;	COMDAT xdata
xdata	SEGMENT
$unwind$?NewServerInstance@ServerInterface@@QEAA?AUServer@@W4SocketTypes@@H@Z DD 040a01H
	DD	06340aH
	DD	07006320aH
xdata	ENDS
;	COMDAT xdata
xdata	SEGMENT
$unwind$?TCPSendMessageToClient@ServerInterface@@QEAAHJUServerCommand@@@Z DD 010401H
	DD	04204H
xdata	ENDS
;	COMDAT xdata
xdata	SEGMENT
$unwind$?AcceptTCPConnection@ServerInterface@@QEAAJVClient@@@Z DD 010401H
	DD	04204H
xdata	ENDS
;	COMDAT xdata
xdata	SEGMENT
$ip2state$?PerformUDPRequest@ServerInterface@@IEAAHV?$vector@EV?$allocator@E@std@@@std@@@Z DB 08H
	DB	0c2H
	DB	02H
	DB	0fdH, 02H
	DB	04H
	DB	'&'
	DB	06H
	DB	0b5H, 02H
	DB	00H
xdata	ENDS
;	COMDAT xdata
xdata	SEGMENT
$stateUnwindMap$?PerformUDPRequest@ServerInterface@@IEAAHV?$vector@EV?$allocator@E@std@@@std@@@Z DB 06H
	DB	0cH
	DD	imagerel ??1?$vector@EV?$allocator@E@std@@@std@@QEAA@XZ
	DB	081H
	DB	04H
	DB	03aH
	DD	imagerel ??1ClientRequest@@QEAA@XZ
	DB	0c1H
	DB	03H
	DB	03aH
	DD	imagerel ??1Client@@QEAA@XZ
	DB	0c1H
	DB	04H
xdata	ENDS
;	COMDAT xdata
xdata	SEGMENT
$cppxdata$?PerformUDPRequest@ServerInterface@@IEAAHV?$vector@EV?$allocator@E@std@@@std@@@Z DB 028H
	DD	imagerel $stateUnwindMap$?PerformUDPRequest@ServerInterface@@IEAAHV?$vector@EV?$allocator@E@std@@@std@@@Z
	DD	imagerel $ip2state$?PerformUDPRequest@ServerInterface@@IEAAHV?$vector@EV?$allocator@E@std@@@std@@@Z
xdata	ENDS
;	COMDAT xdata
xdata	SEGMENT
$unwind$?PerformUDPRequest@ServerInterface@@IEAAHV?$vector@EV?$allocator@E@std@@@std@@@Z DD 072419H
	DD	0466412H
	DD	0443412H
	DD	0420112H
	DD	0700bH
	DD	imagerel __GSHandlerCheck_EH4
	DD	imagerel $cppxdata$?PerformUDPRequest@ServerInterface@@IEAAHV?$vector@EV?$allocator@E@std@@@std@@@Z
	DD	0202H
xdata	ENDS
;	COMDAT xdata
xdata	SEGMENT
$ip2state$?PingClient@ServerInterface@@QEAA?AUClientResponse@@J@Z DB 012H
	DB	'v'
	DB	00H
	DB	'|'
	DB	02H
	DB	'"'
	DB	04H
	DB	'a', 03H
	DB	00H
	DB	098H
	DB	06H
	DB	'"'
	DB	08H
	DB	'x'
	DB	0aH
	DB	01eH
	DB	0cH
	DB	01cH
	DB	0eH
xdata	ENDS
;	COMDAT xdata
xdata	SEGMENT
$stateUnwindMap$?PingClient@ServerInterface@@QEAA?AUClientResponse@@J@Z DB 0eH
	DB	0aH
	DD	imagerel ??1?$tuple@VClient@@V?$basic_string@DU?$char_traits@D@std@@V?$allocator@D@2@@std@@V23@@std@@QEAA@XZ
	DB	0c1H
	DB	04H
	DB	03aH
	DD	imagerel ??1Client@@QEAA@XZ
	DB	01H
	DB	09H
	DB	03eH
	DD	imagerel ?dtor$6@?0??PingClient@ServerInterface@@QEAA?AUClientResponse@@J@Z@4HA
	DB	02aH
	DD	imagerel ??1?$basic_string@DU?$char_traits@D@std@@V?$allocator@D@2@@std@@QEAA@XZ
	DB	0a1H
	DB	03H
	DB	09aH
	DD	imagerel ??1ServerCommand@@QEAA@XZ
	DB	0c1H
	DB	02H
	DB	03eH
	DD	imagerel ?dtor$31@?0??PingClient@ServerInterface@@QEAA?AUClientResponse@@J@Z@4HA
	DB	02eH
	DD	imagerel ?dtor$32@?0??PingClient@ServerInterface@@QEAA?AUClientResponse@@J@Z@4HA
xdata	ENDS
;	COMDAT xdata
xdata	SEGMENT
$cppxdata$?PingClient@ServerInterface@@QEAA?AUClientResponse@@J@Z DB 028H
	DD	imagerel $stateUnwindMap$?PingClient@ServerInterface@@QEAA?AUClientResponse@@J@Z
	DD	imagerel $ip2state$?PingClient@ServerInterface@@QEAA?AUClientResponse@@J@Z
xdata	ENDS
;	COMDAT xdata
xdata	SEGMENT
$unwind$?PingClient@ServerInterface@@QEAA?AUClientResponse@@J@Z DD 072719H
	DD	0640116H
	DD	07005e007H
	DD	030036004H
	DD	05002H
	DD	imagerel __GSHandlerCheck_EH4
	DD	imagerel $cppxdata$?PingClient@ServerInterface@@QEAA?AUClientResponse@@J@Z
	DD	0312H
xdata	ENDS
;	COMDAT voltbl
voltbl	SEGMENT
_volmd	DB	00H
voltbl	ENDS
;	COMDAT xdata
xdata	SEGMENT
$unwind$?catch$18@?0??ClientIsInClientList@ServerInterface@@QEAAHJ@Z@4HA DD 020a01H
	DD	05006320aH
xdata	ENDS
;	COMDAT xdata
xdata	SEGMENT
$ip2state$?ClientIsInClientList@ServerInterface@@QEAAHJ@Z DB 0eH
	DB	0f4H
	DB	02H
	DB	','
	DB	04H
	DB	01eH
	DB	06H
	DB	01eH
	DB	02H
	DB	0c1H, 02H
	DB	00H
	DB	'6'
	DB	02H
	DB	'j'
	DB	00H
xdata	ENDS
;	COMDAT xdata
xdata	SEGMENT
$handlerMap$?ClientIsInClientList@ServerInterface@@QEAAHJ@Z DB 02H
	DB	013H
	DB	012H
	DD	imagerel ??_R0?AVout_of_range@std@@@8
	DD	imagerel ?catch$18@?0??ClientIsInClientList@ServerInterface@@QEAAHJ@Z@4HA
	DB	'E', 05H
xdata	ENDS
;	COMDAT xdata
xdata	SEGMENT
$tryMap$?ClientIsInClientList@ServerInterface@@QEAAHJ@Z DB 02H
	DB	00H
	DB	04H
	DB	06H
	DD	imagerel $handlerMap$?ClientIsInClientList@ServerInterface@@QEAAHJ@Z
xdata	ENDS
;	COMDAT xdata
xdata	SEGMENT
$stateUnwindMap$?ClientIsInClientList@ServerInterface@@QEAAHJ@Z DB 08H
	DB	08H
	DB	0aH
	DD	imagerel ??1?$tuple@V?$basic_string@DU?$char_traits@D@std@@V?$allocator@D@2@@std@@@std@@QEAA@XZ
	DB	060H
	DB	03aH
	DD	imagerel ??1?$tuple@V?$basic_string@DU?$char_traits@D@std@@V?$allocator@D@2@@std@@V12@@std@@QEAA@XZ
	DB	060H
	DB	070H
xdata	ENDS
;	COMDAT xdata
xdata	SEGMENT
$cppxdata$?ClientIsInClientList@ServerInterface@@QEAAHJ@Z DB 038H
	DD	imagerel $stateUnwindMap$?ClientIsInClientList@ServerInterface@@QEAAHJ@Z
	DD	imagerel $tryMap$?ClientIsInClientList@ServerInterface@@QEAAHJ@Z
	DD	imagerel $ip2state$?ClientIsInClientList@ServerInterface@@QEAAHJ@Z
xdata	ENDS
;	COMDAT xdata
xdata	SEGMENT
$unwind$?ClientIsInClientList@ServerInterface@@QEAAHJ@Z DD 051f19H
	DD	02e340dH
	DD	02a010dH
	DD	07006H
	DD	imagerel __GSHandlerCheck_EH4
	DD	imagerel $cppxdata$?ClientIsInClientList@ServerInterface@@QEAAHJ@Z
	DD	0143H
xdata	ENDS
;	COMDAT xdata
xdata	SEGMENT
$ip2state$?AddToClientList@ServerInterface@@QEAAHVClient@@@Z DB 0cH
	DB	0e4H
	DB	02H
	DB	'$'
	DB	04H
	DB	01cH
	DB	06H
	DB	'"'
	DB	08H
	DB	0c1H, 07H
	DB	00H
	DB	'Z'
	DB	02H
xdata	ENDS
;	COMDAT xdata
xdata	SEGMENT
$stateUnwindMap$?AddToClientList@ServerInterface@@QEAAHVClient@@@Z DB 08H
	DB	0cH
	DD	imagerel ??1Client@@QEAA@XZ
	DB	01H
	DB	05H
	DB	03aH
	DD	imagerel ??1?$tuple@V?$basic_string@DU?$char_traits@D@std@@V?$allocator@D@2@@std@@@std@@QEAA@XZ
	DB	040H
	DB	06aH
	DD	imagerel ??1?$tuple@V?$basic_string@DU?$char_traits@D@std@@V?$allocator@D@2@@std@@V12@@std@@QEAA@XZ
	DB	040H
	DB	09aH
	DD	imagerel ??1?$tuple@VClient@@V?$basic_string@DU?$char_traits@D@std@@V?$allocator@D@2@@std@@V23@@std@@QEAA@XZ
	DB	040H
xdata	ENDS
;	COMDAT xdata
xdata	SEGMENT
$cppxdata$?AddToClientList@ServerInterface@@QEAAHVClient@@@Z DB 028H
	DD	imagerel $stateUnwindMap$?AddToClientList@ServerInterface@@QEAAHVClient@@@Z
	DD	imagerel $ip2state$?AddToClientList@ServerInterface@@QEAAHVClient@@@Z
xdata	ENDS
;	COMDAT xdata
xdata	SEGMENT
$unwind$?AddToClientList@ServerInterface@@QEAAHVClient@@@Z DD 0b2a19H
	DD	036341cH
	DD	02c011cH
	DD	0e00ef010H
	DD	0c00ad00cH
	DD	060077008H
	DD	05006H
	DD	imagerel __GSHandlerCheck_EH4
	DD	imagerel $cppxdata$?AddToClientList@ServerInterface@@QEAAHVClient@@@Z
	DD	0152H
xdata	ENDS
;	COMDAT xdata
xdata	SEGMENT
$ip2state$?IsClientAlive@ServerInterface@@QEAAHJ@Z DB 0aH
	DB	'H'
	DB	00H
	DB	'<'
	DB	02H
	DB	','
	DB	04H
	DB	0d0H
	DB	02H
	DB	0cdH, 02H
	DB	00H
xdata	ENDS
;	COMDAT xdata
xdata	SEGMENT
$stateUnwindMap$?IsClientAlive@ServerInterface@@QEAAHJ@Z DB 04H
	DB	0aH
	DD	imagerel ??1?$tuple@VClient@@V?$basic_string@DU?$char_traits@D@std@@V?$allocator@D@2@@std@@V23@@std@@QEAA@XZ
	DB	0a0H
	DB	032H
	DD	imagerel ??1Client@@QEAA@XZ
	DB	081H
	DB	05H
xdata	ENDS
;	COMDAT xdata
xdata	SEGMENT
$cppxdata$?IsClientAlive@ServerInterface@@QEAAHJ@Z DB 028H
	DD	imagerel $stateUnwindMap$?IsClientAlive@ServerInterface@@QEAAHJ@Z
	DD	imagerel $ip2state$?IsClientAlive@ServerInterface@@QEAAHJ@Z
xdata	ENDS
;	COMDAT xdata
xdata	SEGMENT
$unwind$?IsClientAlive@ServerInterface@@QEAAHJ@Z DD 051f19H
	DD	04c340dH
	DD	048010dH
	DD	07006H
	DD	imagerel __GSHandlerCheck_EH4
	DD	imagerel $cppxdata$?IsClientAlive@ServerInterface@@QEAAHJ@Z
	DD	0232H
xdata	ENDS
;	COMDAT xdata
xdata	SEGMENT
$ip2state$?DecryptClientRequest@ServerInterface@@QEAA?AUClientRequest@@JV?$vector@EV?$allocator@E@std@@@std@@@Z DB 04H
	DB	'v'
	DB	02H
	DB	'.'
	DB	00H
xdata	ENDS
;	COMDAT xdata
xdata	SEGMENT
$stateUnwindMap$?DecryptClientRequest@ServerInterface@@QEAA?AUClientRequest@@JV?$vector@EV?$allocator@E@std@@@std@@@Z DB 02H
	DB	0cH
	DD	imagerel ??1?$vector@EV?$allocator@E@std@@@std@@QEAA@XZ
	DB	090H
xdata	ENDS
;	COMDAT xdata
xdata	SEGMENT
$cppxdata$?DecryptClientRequest@ServerInterface@@QEAA?AUClientRequest@@JV?$vector@EV?$allocator@E@std@@@std@@@Z DB 028H
	DD	imagerel $stateUnwindMap$?DecryptClientRequest@ServerInterface@@QEAA?AUClientRequest@@JV?$vector@EV?$allocator@E@std@@@std@@@Z
	DD	imagerel $ip2state$?DecryptClientRequest@ServerInterface@@QEAA?AUClientRequest@@JV?$vector@EV?$allocator@E@std@@@std@@@Z
xdata	ENDS
;	COMDAT xdata
xdata	SEGMENT
$unwind$?DecryptClientRequest@ServerInterface@@QEAA?AUClientRequest@@JV?$vector@EV?$allocator@E@std@@@std@@@Z DD 061a19H
	DD	0e007b20bH
	DD	060047005H
	DD	030025003H
	DD	imagerel __GSHandlerCheck_EH4
	DD	imagerel $cppxdata$?DecryptClientRequest@ServerInterface@@QEAA?AUClientRequest@@JV?$vector@EV?$allocator@E@std@@@std@@@Z
	DD	052H
xdata	ENDS
;	COMDAT xdata
xdata	SEGMENT
$ip2state$?DecryptClientResponse@ServerInterface@@QEAA?AUClientResponse@@JV?$vector@EV?$allocator@E@std@@@std@@@Z DB 04H
	DB	'v'
	DB	02H
	DB	'.'
	DB	00H
xdata	ENDS
;	COMDAT xdata
xdata	SEGMENT
$stateUnwindMap$?DecryptClientResponse@ServerInterface@@QEAA?AUClientResponse@@JV?$vector@EV?$allocator@E@std@@@std@@@Z DB 02H
	DB	0cH
	DD	imagerel ??1?$vector@EV?$allocator@E@std@@@std@@QEAA@XZ
	DB	090H
xdata	ENDS
;	COMDAT xdata
xdata	SEGMENT
$cppxdata$?DecryptClientResponse@ServerInterface@@QEAA?AUClientResponse@@JV?$vector@EV?$allocator@E@std@@@std@@@Z DB 028H
	DD	imagerel $stateUnwindMap$?DecryptClientResponse@ServerInterface@@QEAA?AUClientResponse@@JV?$vector@EV?$allocator@E@std@@@std@@@Z
	DD	imagerel $ip2state$?DecryptClientResponse@ServerInterface@@QEAA?AUClientResponse@@JV?$vector@EV?$allocator@E@std@@@std@@@Z
xdata	ENDS
;	COMDAT xdata
xdata	SEGMENT
$unwind$?DecryptClientResponse@ServerInterface@@QEAA?AUClientResponse@@JV?$vector@EV?$allocator@E@std@@@std@@@Z DD 061a19H
	DD	0e007b20bH
	DD	060047005H
	DD	030025003H
	DD	imagerel __GSHandlerCheck_EH4
	DD	imagerel $cppxdata$?DecryptClientResponse@ServerInterface@@QEAA?AUClientResponse@@JV?$vector@EV?$allocator@E@std@@@std@@@Z
	DD	052H
xdata	ENDS
;	COMDAT xdata
xdata	SEGMENT
$ip2state$?EncryptServerRequest@ServerInterface@@QEAA?AV?$vector@EV?$allocator@E@std@@@std@@UServerCommand@@@Z DB 010H
	DB	0a2H
	DB	02H
	DB	'v'
	DB	04H
	DB	01eH
	DB	06H
	DB	'$'
	DB	08H
	DB	'@'
	DB	02H
	DB	'D'
	DB	0aH
	DB	'"'
	DB	02H
	DB	'H'
	DB	00H
xdata	ENDS
;	COMDAT xdata
xdata	SEGMENT
$stateUnwindMap$?EncryptServerRequest@ServerInterface@@QEAA?AV?$vector@EV?$allocator@E@std@@@std@@UServerCommand@@@Z DB 0aH
	DB	0cH
	DD	imagerel ??1ServerCommand@@QEAA@XZ
	DB	061H
	DB	07H
	DB	03cH
	DD	imagerel ??1?$basic_string@DU?$char_traits@D@std@@V?$allocator@D@2@@std@@QEAA@XZ
	DB	060H
	DB	036H
	DD	imagerel ?dtor$6@?0??EncryptServerRequest@ServerInterface@@QEAA?AV?$vector@EV?$allocator@E@std@@@std@@UServerCommand@@@Z@4HA
	DB	02eH
	DD	imagerel ?dtor$7@?0??EncryptServerRequest@ServerInterface@@QEAA?AV?$vector@EV?$allocator@E@std@@@std@@UServerCommand@@@Z@4HA
	DB	0baH
	DD	imagerel ??1NET_BLOB@@QEAA@XZ
	DB	081H
	DB	07H
xdata	ENDS
;	COMDAT xdata
xdata	SEGMENT
$cppxdata$?EncryptServerRequest@ServerInterface@@QEAA?AV?$vector@EV?$allocator@E@std@@@std@@UServerCommand@@@Z DB 028H
	DD	imagerel $stateUnwindMap$?EncryptServerRequest@ServerInterface@@QEAA?AV?$vector@EV?$allocator@E@std@@@std@@UServerCommand@@@Z
	DD	imagerel $ip2state$?EncryptServerRequest@ServerInterface@@QEAA?AV?$vector@EV?$allocator@E@std@@@std@@UServerCommand@@@Z
xdata	ENDS
;	COMDAT xdata
xdata	SEGMENT
$unwind$?EncryptServerRequest@ServerInterface@@QEAA?AV?$vector@EV?$allocator@E@std@@@std@@UServerCommand@@@Z DD 072219H
	DD	0623410H
	DD	05e0110H
	DD	07007e009H
	DD	06006H
	DD	imagerel __GSHandlerCheck_EH4
	DD	imagerel $cppxdata$?EncryptServerRequest@ServerInterface@@QEAA?AV?$vector@EV?$allocator@E@std@@@std@@UServerCommand@@@Z
	DD	02e2H
xdata	ENDS
;	COMDAT voltbl
voltbl	SEGMENT
_volmd	DB	00H
voltbl	ENDS
;	COMDAT xdata
xdata	SEGMENT
$unwind$?catch$0@?0??IsCUIDInUse@ServerInterface@@QEAAHJ@Z@4HA DD 020a01H
	DD	05006320aH
xdata	ENDS
;	COMDAT xdata
xdata	SEGMENT
$ip2state$?IsCUIDInUse@ServerInterface@@QEAAHJ@Z DB 04H
	DB	01eH
	DB	02H
	DB	'J'
	DB	00H
xdata	ENDS
;	COMDAT xdata
xdata	SEGMENT
$handlerMap$?IsCUIDInUse@ServerInterface@@QEAAHJ@Z DB 02H
	DB	013H
	DB	012H
	DD	imagerel ??_R0?AVout_of_range@std@@@8
	DD	imagerel ?catch$0@?0??IsCUIDInUse@ServerInterface@@QEAAHJ@Z@4HA
	DB	088H
xdata	ENDS
;	COMDAT xdata
xdata	SEGMENT
$tryMap$?IsCUIDInUse@ServerInterface@@QEAAHJ@Z DB 02H
	DB	00H
	DB	00H
	DB	02H
	DD	imagerel $handlerMap$?IsCUIDInUse@ServerInterface@@QEAAHJ@Z
xdata	ENDS
;	COMDAT xdata
xdata	SEGMENT
$stateUnwindMap$?IsCUIDInUse@ServerInterface@@QEAAHJ@Z DB 04H
	DB	08H
	DB	010H
xdata	ENDS
;	COMDAT xdata
xdata	SEGMENT
$cppxdata$?IsCUIDInUse@ServerInterface@@QEAAHJ@Z DB 038H
	DD	imagerel $stateUnwindMap$?IsCUIDInUse@ServerInterface@@QEAAHJ@Z
	DD	imagerel $tryMap$?IsCUIDInUse@ServerInterface@@QEAAHJ@Z
	DD	imagerel $ip2state$?IsCUIDInUse@ServerInterface@@QEAAHJ@Z
xdata	ENDS
;	COMDAT xdata
xdata	SEGMENT
$unwind$?IsCUIDInUse@ServerInterface@@QEAAHJ@Z DD 040a19H
	DD	06340aH
	DD	07006320aH
	DD	imagerel __CxxFrameHandler4
	DD	imagerel $cppxdata$?IsCUIDInUse@ServerInterface@@QEAAHJ@Z
xdata	ENDS
;	COMDAT xdata
xdata	SEGMENT
$unwind$?at@?$unordered_map@JV?$tuple@VClient@@V?$basic_string@DU?$char_traits@D@std@@V?$allocator@D@2@@std@@V23@@std@@U?$hash@J@2@U?$equal_to@J@2@V?$allocator@U?$pair@$$CBJV?$tuple@VClient@@V?$basic_string@DU?$char_traits@D@std@@V?$allocator@D@2@@std@@V23@@std@@@std@@@2@@std@@QEAAAEAV?$tuple@VClient@@V?$basic_string@DU?$char_traits@D@std@@V?$allocator@D@2@@std@@V23@@2@AEBJ@Z DD 010401H
	DD	04204H
xdata	ENDS
;	COMDAT xdata
xdata	SEGMENT
$unwind$??A?$unordered_map@JV?$tuple@VClient@@V?$basic_string@DU?$char_traits@D@std@@V?$allocator@D@2@@std@@V23@@std@@U?$hash@J@2@U?$equal_to@J@2@V?$allocator@U?$pair@$$CBJV?$tuple@VClient@@V?$basic_string@DU?$char_traits@D@std@@V?$allocator@D@2@@std@@V23@@std@@@std@@@2@@std@@QEAAAEAV?$tuple@VClient@@V?$basic_string@DU?$char_traits@D@std@@V?$allocator@D@2@@std@@V23@@1@AEBJ@Z DD 010401H
	DD	06204H
xdata	ENDS
;	COMDAT xdata
xdata	SEGMENT
$chain$1$?erase@?$_Hash@V?$_Umap_traits@JV?$tuple@VClient@@V?$basic_string@DU?$char_traits@D@std@@V?$allocator@D@2@@std@@V23@@std@@V?$_Uhash_compare@JU?$hash@J@std@@U?$equal_to@J@2@@2@V?$allocator@U?$pair@$$CBJV?$tuple@VClient@@V?$basic_string@DU?$char_traits@D@std@@V?$allocator@D@2@@std@@V23@@std@@@std@@@2@$0A@@std@@@std@@QEAA_KAEBJ@Z DD 021H
	DD	imagerel $LN152
	DD	imagerel $LN152+145
	DD	imagerel $unwind$?erase@?$_Hash@V?$_Umap_traits@JV?$tuple@VClient@@V?$basic_string@DU?$char_traits@D@std@@V?$allocator@D@2@@std@@V23@@std@@V?$_Uhash_compare@JU?$hash@J@std@@U?$equal_to@J@2@@2@V?$allocator@U?$pair@$$CBJV?$tuple@VClient@@V?$basic_string@DU?$char_traits@D@std@@V?$allocator@D@2@@std@@V23@@std@@@std@@@2@$0A@@std@@@std@@QEAA_KAEBJ@Z
xdata	ENDS
;	COMDAT xdata
xdata	SEGMENT
$chain$0$?erase@?$_Hash@V?$_Umap_traits@JV?$tuple@VClient@@V?$basic_string@DU?$char_traits@D@std@@V?$allocator@D@2@@std@@V23@@std@@V?$_Uhash_compare@JU?$hash@J@std@@U?$equal_to@J@2@@2@V?$allocator@U?$pair@$$CBJV?$tuple@VClient@@V?$basic_string@DU?$char_traits@D@std@@V?$allocator@D@2@@std@@V23@@std@@@std@@@2@$0A@@std@@@std@@QEAA_KAEBJ@Z DD 020521H
	DD	087405H
	DD	imagerel $LN152
	DD	imagerel $LN152+145
	DD	imagerel $unwind$?erase@?$_Hash@V?$_Umap_traits@JV?$tuple@VClient@@V?$basic_string@DU?$char_traits@D@std@@V?$allocator@D@2@@std@@V23@@std@@V?$_Uhash_compare@JU?$hash@J@std@@U?$equal_to@J@2@@2@V?$allocator@U?$pair@$$CBJV?$tuple@VClient@@V?$basic_string@DU?$char_traits@D@std@@V?$allocator@D@2@@std@@V23@@std@@@std@@@2@$0A@@std@@@std@@QEAA_KAEBJ@Z
xdata	ENDS
;	COMDAT xdata
xdata	SEGMENT
$unwind$?erase@?$_Hash@V?$_Umap_traits@JV?$tuple@VClient@@V?$basic_string@DU?$char_traits@D@std@@V?$allocator@D@2@@std@@V23@@std@@V?$_Uhash_compare@JU?$hash@J@std@@U?$equal_to@J@2@@2@V?$allocator@U?$pair@$$CBJV?$tuple@VClient@@V?$basic_string@DU?$char_traits@D@std@@V?$allocator@D@2@@std@@V23@@std@@@std@@@2@$0A@@std@@@std@@QEAA_KAEBJ@Z DD 020601H
	DD	030023206H
xdata	ENDS
;	COMDAT xdata
xdata	SEGMENT
$unwind$??0?$lock_guard@Vmutex@std@@@std@@QEAA@AEAVmutex@1@@Z DD 040a01H
	DD	06340aH
	DD	07006320aH
xdata	ENDS
;	COMDAT xdata
xdata	SEGMENT
$unwind$??0?$vector@EV?$allocator@E@std@@@std@@QEAA@AEBV01@@Z DD 060d01H
	DD	0a340dH
	DD	0e009320dH
	DD	060067007H
xdata	ENDS
;	COMDAT xdata
xdata	SEGMENT
$chain$2$?_Assign_grow@?$_Hash_vec@V?$allocator@V?$_List_unchecked_iterator@V?$_List_val@U?$_List_simple_types@U?$pair@$$CBJV?$tuple@VClient@@V?$basic_string@DU?$char_traits@D@std@@V?$allocator@D@2@@std@@V23@@std@@@std@@@std@@@std@@@std@@@std@@@std@@QEAAX_KV?$_List_unchecked_iterator@V?$_List_val@U?$_List_simple_types@U?$pair@$$CBJV?$tuple@VClient@@V?$basic_string@DU?$char_traits@D@std@@V?$allocator@D@2@@std@@V23@@std@@@std@@@std@@@std@@@2@@Z DD 020021H
	DD	0a6400H
	DD	imagerel $LN103
	DD	imagerel $LN103+54
	DD	imagerel $unwind$?_Assign_grow@?$_Hash_vec@V?$allocator@V?$_List_unchecked_iterator@V?$_List_val@U?$_List_simple_types@U?$pair@$$CBJV?$tuple@VClient@@V?$basic_string@DU?$char_traits@D@std@@V?$allocator@D@2@@std@@V23@@std@@@std@@@std@@@std@@@std@@@std@@@std@@QEAAX_KV?$_List_unchecked_iterator@V?$_List_val@U?$_List_simple_types@U?$pair@$$CBJV?$tuple@VClient@@V?$basic_string@DU?$char_traits@D@std@@V?$allocator@D@2@@std@@V23@@std@@@std@@@std@@@std@@@2@@Z
xdata	ENDS
;	COMDAT xdata
xdata	SEGMENT
$chain$1$?_Assign_grow@?$_Hash_vec@V?$allocator@V?$_List_unchecked_iterator@V?$_List_val@U?$_List_simple_types@U?$pair@$$CBJV?$tuple@VClient@@V?$basic_string@DU?$char_traits@D@std@@V?$allocator@D@2@@std@@V23@@std@@@std@@@std@@@std@@@std@@@std@@@std@@QEAAX_KV?$_List_unchecked_iterator@V?$_List_val@U?$_List_simple_types@U?$pair@$$CBJV?$tuple@VClient@@V?$basic_string@DU?$char_traits@D@std@@V?$allocator@D@2@@std@@V23@@std@@@std@@@std@@@std@@@2@@Z DD 021H
	DD	imagerel $LN103
	DD	imagerel $LN103+54
	DD	imagerel $unwind$?_Assign_grow@?$_Hash_vec@V?$allocator@V?$_List_unchecked_iterator@V?$_List_val@U?$_List_simple_types@U?$pair@$$CBJV?$tuple@VClient@@V?$basic_string@DU?$char_traits@D@std@@V?$allocator@D@2@@std@@V23@@std@@@std@@@std@@@std@@@std@@@std@@@std@@QEAAX_KV?$_List_unchecked_iterator@V?$_List_val@U?$_List_simple_types@U?$pair@$$CBJV?$tuple@VClient@@V?$basic_string@DU?$char_traits@D@std@@V?$allocator@D@2@@std@@V23@@std@@@std@@@std@@@std@@@2@@Z
xdata	ENDS
;	COMDAT xdata
xdata	SEGMENT
$chain$0$?_Assign_grow@?$_Hash_vec@V?$allocator@V?$_List_unchecked_iterator@V?$_List_val@U?$_List_simple_types@U?$pair@$$CBJV?$tuple@VClient@@V?$basic_string@DU?$char_traits@D@std@@V?$allocator@D@2@@std@@V23@@std@@@std@@@std@@@std@@@std@@@std@@@std@@QEAAX_KV?$_List_unchecked_iterator@V?$_List_val@U?$_List_simple_types@U?$pair@$$CBJV?$tuple@VClient@@V?$basic_string@DU?$char_traits@D@std@@V?$allocator@D@2@@std@@V23@@std@@@std@@@std@@@std@@@2@@Z DD 020521H
	DD	0a6405H
	DD	imagerel $LN103
	DD	imagerel $LN103+54
	DD	imagerel $unwind$?_Assign_grow@?$_Hash_vec@V?$allocator@V?$_List_unchecked_iterator@V?$_List_val@U?$_List_simple_types@U?$pair@$$CBJV?$tuple@VClient@@V?$basic_string@DU?$char_traits@D@std@@V?$allocator@D@2@@std@@V23@@std@@@std@@@std@@@std@@@std@@@std@@@std@@QEAAX_KV?$_List_unchecked_iterator@V?$_List_val@U?$_List_simple_types@U?$pair@$$CBJV?$tuple@VClient@@V?$basic_string@DU?$char_traits@D@std@@V?$allocator@D@2@@std@@V23@@std@@@std@@@std@@@std@@@2@@Z
xdata	ENDS
;	COMDAT xdata
xdata	SEGMENT
$unwind$?_Assign_grow@?$_Hash_vec@V?$allocator@V?$_List_unchecked_iterator@V?$_List_val@U?$_List_simple_types@U?$pair@$$CBJV?$tuple@VClient@@V?$basic_string@DU?$char_traits@D@std@@V?$allocator@D@2@@std@@V23@@std@@@std@@@std@@@std@@@std@@@std@@@std@@QEAAX_KV?$_List_unchecked_iterator@V?$_List_val@U?$_List_simple_types@U?$pair@$$CBJV?$tuple@VClient@@V?$basic_string@DU?$char_traits@D@std@@V?$allocator@D@2@@std@@V23@@std@@@std@@@std@@@std@@@2@@Z DD 040901H
	DD	0e0053209H
	DD	030027003H
xdata	ENDS
;	COMDAT xdata
xdata	SEGMENT
$unwind$?deallocate@?$allocator@V?$_List_unchecked_iterator@V?$_List_val@U?$_List_simple_types@U?$pair@$$CBJV?$tuple@VClient@@V?$basic_string@DU?$char_traits@D@std@@V?$allocator@D@2@@std@@V23@@std@@@std@@@std@@@std@@@std@@@std@@QEAAXQEAV?$_List_unchecked_iterator@V?$_List_val@U?$_List_simple_types@U?$pair@$$CBJV?$tuple@VClient@@V?$basic_string@DU?$char_traits@D@std@@V?$allocator@D@2@@std@@V23@@std@@@std@@@std@@@std@@@2@_K@Z DD 010401H
	DD	04204H
xdata	ENDS
;	COMDAT xdata
xdata	SEGMENT
$unwind$?allocate@?$allocator@V?$_List_unchecked_iterator@V?$_List_val@U?$_List_simple_types@U?$pair@$$CBJV?$tuple@VClient@@V?$basic_string@DU?$char_traits@D@std@@V?$allocator@D@2@@std@@V23@@std@@@std@@@std@@@std@@@std@@@std@@QEAAPEAV?$_List_unchecked_iterator@V?$_List_val@U?$_List_simple_types@U?$pair@$$CBJV?$tuple@VClient@@V?$basic_string@DU?$char_traits@D@std@@V?$allocator@D@2@@std@@V23@@std@@@std@@@std@@@std@@@2@_K@Z DD 010401H
	DD	04204H
xdata	ENDS
;	COMDAT xdata
xdata	SEGMENT
$unwind$??$?RV?$mersenne_twister_engine@I$0CA@$0CHA@$0BIN@$0BP@$0JJAILANP@$0L@$0PPPPPPPP@$06$0JNCMFGIA@$0P@$0OPMGAAAA@$0BC@$0GMAHIJGF@@std@@@?$uniform_int_distribution@J@std@@QEAAJAEAV?$mersenne_twister_engine@I$0CA@$0CHA@$0BIN@$0BP@$0JJAILANP@$0L@$0PPPPPPPP@$06$0JNCMFGIA@$0P@$0OPMGAAAA@$0BC@$0GMAHIJGF@@1@@Z DD 084601H
	DD	077446H
	DD	066441H
	DD	08340aH
	DD	05006320aH
xdata	ENDS
;	COMDAT xdata
xdata	SEGMENT
$chain$1$??$_Erase@J@?$_Hash@V?$_Umap_traits@JV?$tuple@VClient@@V?$basic_string@DU?$char_traits@D@std@@V?$allocator@D@2@@std@@V23@@std@@V?$_Uhash_compare@JU?$hash@J@std@@U?$equal_to@J@2@@2@V?$allocator@U?$pair@$$CBJV?$tuple@VClient@@V?$basic_string@DU?$char_traits@D@std@@V?$allocator@D@2@@std@@V23@@std@@@std@@@2@$0A@@std@@@std@@AEAA_KAEBJ@Z DD 021H
	DD	imagerel $LN148
	DD	imagerel $LN148+145
	DD	imagerel $unwind$??$_Erase@J@?$_Hash@V?$_Umap_traits@JV?$tuple@VClient@@V?$basic_string@DU?$char_traits@D@std@@V?$allocator@D@2@@std@@V23@@std@@V?$_Uhash_compare@JU?$hash@J@std@@U?$equal_to@J@2@@2@V?$allocator@U?$pair@$$CBJV?$tuple@VClient@@V?$basic_string@DU?$char_traits@D@std@@V?$allocator@D@2@@std@@V23@@std@@@std@@@2@$0A@@std@@@std@@AEAA_KAEBJ@Z
xdata	ENDS
;	COMDAT xdata
xdata	SEGMENT
$chain$0$??$_Erase@J@?$_Hash@V?$_Umap_traits@JV?$tuple@VClient@@V?$basic_string@DU?$char_traits@D@std@@V?$allocator@D@2@@std@@V23@@std@@V?$_Uhash_compare@JU?$hash@J@std@@U?$equal_to@J@2@@2@V?$allocator@U?$pair@$$CBJV?$tuple@VClient@@V?$basic_string@DU?$char_traits@D@std@@V?$allocator@D@2@@std@@V23@@std@@@std@@@2@$0A@@std@@@std@@AEAA_KAEBJ@Z DD 020521H
	DD	087405H
	DD	imagerel $LN148
	DD	imagerel $LN148+145
	DD	imagerel $unwind$??$_Erase@J@?$_Hash@V?$_Umap_traits@JV?$tuple@VClient@@V?$basic_string@DU?$char_traits@D@std@@V?$allocator@D@2@@std@@V23@@std@@V?$_Uhash_compare@JU?$hash@J@std@@U?$equal_to@J@2@@2@V?$allocator@U?$pair@$$CBJV?$tuple@VClient@@V?$basic_string@DU?$char_traits@D@std@@V?$allocator@D@2@@std@@V23@@std@@@std@@@2@$0A@@std@@@std@@AEAA_KAEBJ@Z
xdata	ENDS
;	COMDAT xdata
xdata	SEGMENT
$unwind$??$_Erase@J@?$_Hash@V?$_Umap_traits@JV?$tuple@VClient@@V?$basic_string@DU?$char_traits@D@std@@V?$allocator@D@2@@std@@V23@@std@@V?$_Uhash_compare@JU?$hash@J@std@@U?$equal_to@J@2@@2@V?$allocator@U?$pair@$$CBJV?$tuple@VClient@@V?$basic_string@DU?$char_traits@D@std@@V?$allocator@D@2@@std@@V23@@std@@@std@@@2@$0A@@std@@@std@@AEAA_KAEBJ@Z DD 020601H
	DD	030023206H
xdata	ENDS
;	COMDAT xdata
xdata	SEGMENT
$unwind$??$?0VClient@@$0A@@?$tuple@VClient@@V?$basic_string@DU?$char_traits@D@std@@V?$allocator@D@2@@std@@V23@@std@@QEAA@XZ DD 040a01H
	DD	06340aH
	DD	07006320aH
xdata	ENDS
;	COMDAT xdata
xdata	SEGMENT
$ip2state$??$make_tuple@AEAVClient@@AEAV?$basic_string@DU?$char_traits@D@std@@V?$allocator@D@2@@std@@AEAV23@@std@@YA?AV?$tuple@VClient@@V?$basic_string@DU?$char_traits@D@std@@V?$allocator@D@2@@std@@V23@@0@AEAVClient@@AEAV?$basic_string@DU?$char_traits@D@std@@V?$allocator@D@2@@0@1@Z DB 06H
	DB	'@'
	DB	00H
	DB	01aH
	DB	02H
	DB	01aH
	DB	04H
xdata	ENDS
;	COMDAT xdata
xdata	SEGMENT
$stateUnwindMap$??$make_tuple@AEAVClient@@AEAV?$basic_string@DU?$char_traits@D@std@@V?$allocator@D@2@@std@@AEAV23@@std@@YA?AV?$tuple@VClient@@V?$basic_string@DU?$char_traits@D@std@@V?$allocator@D@2@@std@@V23@@0@AEAVClient@@AEAV?$basic_string@DU?$char_traits@D@std@@V?$allocator@D@2@@0@1@Z DB 04H
	DB	0cH
	DD	imagerel ??1?$tuple@V?$basic_string@DU?$char_traits@D@std@@V?$allocator@D@2@@std@@@std@@QEAA@XZ
	DB	080H
	DB	03cH
	DD	imagerel ??1?$tuple@V?$basic_string@DU?$char_traits@D@std@@V?$allocator@D@2@@std@@V12@@std@@QEAA@XZ
	DB	080H
xdata	ENDS
;	COMDAT xdata
xdata	SEGMENT
$cppxdata$??$make_tuple@AEAVClient@@AEAV?$basic_string@DU?$char_traits@D@std@@V?$allocator@D@2@@std@@AEAV23@@std@@YA?AV?$tuple@VClient@@V?$basic_string@DU?$char_traits@D@std@@V?$allocator@D@2@@std@@V23@@0@AEAVClient@@AEAV?$basic_string@DU?$char_traits@D@std@@V?$allocator@D@2@@0@1@Z DB 028H
	DD	imagerel $stateUnwindMap$??$make_tuple@AEAVClient@@AEAV?$basic_string@DU?$char_traits@D@std@@V?$allocator@D@2@@std@@AEAV23@@std@@YA?AV?$tuple@VClient@@V?$basic_string@DU?$char_traits@D@std@@V?$allocator@D@2@@std@@V23@@0@AEAVClient@@AEAV?$basic_string@DU?$char_traits@D@std@@V?$allocator@D@2@@0@1@Z
	DD	imagerel $ip2state$??$make_tuple@AEAVClient@@AEAV?$basic_string@DU?$char_traits@D@std@@V?$allocator@D@2@@std@@AEAV23@@std@@YA?AV?$tuple@VClient@@V?$basic_string@DU?$char_traits@D@std@@V?$allocator@D@2@@std@@V23@@0@AEAVClient@@AEAV?$basic_string@DU?$char_traits@D@std@@V?$allocator@D@2@@0@1@Z
xdata	ENDS
;	COMDAT xdata
xdata	SEGMENT
$unwind$??$make_tuple@AEAVClient@@AEAV?$basic_string@DU?$char_traits@D@std@@V?$allocator@D@2@@std@@AEAV23@@std@@YA?AV?$tuple@VClient@@V?$basic_string@DU?$char_traits@D@std@@V?$allocator@D@2@@std@@V23@@0@AEAVClient@@AEAV?$basic_string@DU?$char_traits@D@std@@V?$allocator@D@2@@0@1@Z DD 061411H
	DD	0a6414H
	DD	093414H
	DD	070105214H
	DD	imagerel __CxxFrameHandler4
	DD	imagerel $cppxdata$??$make_tuple@AEAVClient@@AEAV?$basic_string@DU?$char_traits@D@std@@V?$allocator@D@2@@std@@AEAV23@@std@@YA?AV?$tuple@VClient@@V?$basic_string@DU?$char_traits@D@std@@V?$allocator@D@2@@std@@V23@@0@AEAVClient@@AEAV?$basic_string@DU?$char_traits@D@std@@V?$allocator@D@2@@0@1@Z
xdata	ENDS
;	COMDAT xdata
xdata	SEGMENT
$unwind$??$?4V?$tuple@VClient@@V?$basic_string@DU?$char_traits@D@std@@V?$allocator@D@2@@std@@V23@@std@@VClient@@$0A@@?$tuple@VClient@@V?$basic_string@DU?$char_traits@D@std@@V?$allocator@D@2@@std@@V23@@std@@QEAAAEAV01@$$QEAV01@@Z DD 0a1801H
	DD	0a6418H
	DD	095418H
	DD	083418H
	DD	0f0143218H
	DD	07010e012H
xdata	ENDS
;	COMDAT xdata
xdata	SEGMENT
$unwind$??4Client@@QEAAAEAV0@$$QEAV0@@Z DD 081401H
	DD	086414H
	DD	075414H
	DD	063414H
	DD	070103214H
xdata	ENDS
;	COMDAT xdata
xdata	SEGMENT
$unwind$??4ClientResponse@@QEAAAEAU0@$$QEAU0@@Z DD 040a01H
	DD	06340aH
	DD	07006320aH
xdata	ENDS
;	COMDAT xdata
xdata	SEGMENT
$ip2state$??$DecryptClientData@UClientRequest@@@ServerInterface@@IEAA?AUClientRequest@@V?$vector@EV?$allocator@E@std@@@std@@J@Z DB 0eH
	DB	08aH
	DB	02H
	DB	'n'
	DB	04H
	DB	01cH
	DB	06H
	DB	'@'
	DB	08H
	DB	'*'
	DB	0cH
	DB	'v'
	DB	0aH
	DB	'Y', 07H
	DB	00H
xdata	ENDS
;	COMDAT xdata
xdata	SEGMENT
$stateUnwindMap$??$DecryptClientData@UClientRequest@@@ServerInterface@@IEAA?AUClientRequest@@V?$vector@EV?$allocator@E@std@@@std@@J@Z DB 0cH
	DB	0cH
	DD	imagerel ??1?$vector@EV?$allocator@E@std@@@std@@QEAA@XZ
	DB	0f0H
	DB	032H
	DD	imagerel ??1?$tuple@VClient@@V?$basic_string@DU?$char_traits@D@std@@V?$allocator@D@2@@std@@V23@@std@@QEAA@XZ
	DB	041H
	DB	03H
	DB	03aH
	DD	imagerel ??1?$basic_string@DU?$char_traits@D@std@@V?$allocator@D@2@@std@@QEAA@XZ
	DB	0c1H
	DB	02H
	DB	03cH
	DD	imagerel ??1?$basic_string@DU?$char_traits@D@std@@V?$allocator@D@2@@std@@QEAA@XZ
	DB	050H
	DB	06cH
	DD	imagerel ??1?$basic_string@DU?$char_traits@D@std@@V?$allocator@D@2@@std@@QEAA@XZ
	DB	070H
	DB	034H
	DD	imagerel ??1?$vector@EV?$allocator@E@std@@@std@@QEAA@XZ
	DB	060H
xdata	ENDS
;	COMDAT xdata
xdata	SEGMENT
$cppxdata$??$DecryptClientData@UClientRequest@@@ServerInterface@@IEAA?AUClientRequest@@V?$vector@EV?$allocator@E@std@@@std@@J@Z DB 028H
	DD	imagerel $stateUnwindMap$??$DecryptClientData@UClientRequest@@@ServerInterface@@IEAA?AUClientRequest@@V?$vector@EV?$allocator@E@std@@@std@@J@Z
	DD	imagerel $ip2state$??$DecryptClientData@UClientRequest@@@ServerInterface@@IEAA?AUClientRequest@@V?$vector@EV?$allocator@E@std@@@std@@J@Z
xdata	ENDS
;	COMDAT xdata
xdata	SEGMENT
$unwind$??$DecryptClientData@UClientRequest@@@ServerInterface@@IEAA?AUClientRequest@@V?$vector@EV?$allocator@E@std@@@std@@J@Z DD 082919H
	DD	03f0118H
	DD	0e007f009H
	DD	060047005H
	DD	050023003H
	DD	imagerel __GSHandlerCheck_EH4
	DD	imagerel $cppxdata$??$DecryptClientData@UClientRequest@@@ServerInterface@@IEAA?AUClientRequest@@V?$vector@EV?$allocator@E@std@@@std@@J@Z
	DD	01e2H
xdata	ENDS
;	COMDAT xdata
xdata	SEGMENT
$ip2state$??$DecryptClientData@UClientResponse@@@ServerInterface@@IEAA?AUClientResponse@@V?$vector@EV?$allocator@E@std@@@std@@J@Z DB 0eH
	DB	092H
	DB	02H
	DB	'|'
	DB	04H
	DB	01cH
	DB	06H
	DB	'@'
	DB	08H
	DB	'*'
	DB	0cH
	DB	'Z'
	DB	0aH
	DB	')', 07H
	DB	00H
xdata	ENDS
;	COMDAT xdata
xdata	SEGMENT
$stateUnwindMap$??$DecryptClientData@UClientResponse@@@ServerInterface@@IEAA?AUClientResponse@@V?$vector@EV?$allocator@E@std@@@std@@J@Z DB 0cH
	DB	0cH
	DD	imagerel ??1?$vector@EV?$allocator@E@std@@@std@@QEAA@XZ
	DB	0f0H
	DB	032H
	DD	imagerel ??1?$tuple@VClient@@V?$basic_string@DU?$char_traits@D@std@@V?$allocator@D@2@@std@@V23@@std@@QEAA@XZ
	DB	041H
	DB	03H
	DB	03aH
	DD	imagerel ??1?$basic_string@DU?$char_traits@D@std@@V?$allocator@D@2@@std@@QEAA@XZ
	DB	01H
	DB	02H
	DB	03cH
	DD	imagerel ??1?$basic_string@DU?$char_traits@D@std@@V?$allocator@D@2@@std@@QEAA@XZ
	DB	050H
	DB	06cH
	DD	imagerel ??1?$basic_string@DU?$char_traits@D@std@@V?$allocator@D@2@@std@@QEAA@XZ
	DB	070H
	DB	034H
	DD	imagerel ??1?$vector@EV?$allocator@E@std@@@std@@QEAA@XZ
	DB	060H
xdata	ENDS
;	COMDAT xdata
xdata	SEGMENT
$cppxdata$??$DecryptClientData@UClientResponse@@@ServerInterface@@IEAA?AUClientResponse@@V?$vector@EV?$allocator@E@std@@@std@@J@Z DB 028H
	DD	imagerel $stateUnwindMap$??$DecryptClientData@UClientResponse@@@ServerInterface@@IEAA?AUClientResponse@@V?$vector@EV?$allocator@E@std@@@std@@J@Z
	DD	imagerel $ip2state$??$DecryptClientData@UClientResponse@@@ServerInterface@@IEAA?AUClientResponse@@V?$vector@EV?$allocator@E@std@@@std@@J@Z
xdata	ENDS
;	COMDAT xdata
xdata	SEGMENT
$unwind$??$DecryptClientData@UClientResponse@@@ServerInterface@@IEAA?AUClientResponse@@V?$vector@EV?$allocator@E@std@@@std@@J@Z DD 0a2d19H
	DD	03f011cH
	DD	0e00bf00dH
	DD	0c007d009H
	DD	060047005H
	DD	050023003H
	DD	imagerel __GSHandlerCheck_EH4
	DD	imagerel $cppxdata$??$DecryptClientData@UClientResponse@@@ServerInterface@@IEAA?AUClientResponse@@V?$vector@EV?$allocator@E@std@@@std@@J@Z
	DD	01e2H
xdata	ENDS
;	COMDAT xdata
xdata	SEGMENT
$ip2state$??$_Try_emplace@AEBJ$$V@?$_Hash@V?$_Umap_traits@JV?$tuple@VClient@@V?$basic_string@DU?$char_traits@D@std@@V?$allocator@D@2@@std@@V23@@std@@V?$_Uhash_compare@JU?$hash@J@std@@U?$equal_to@J@2@@2@V?$allocator@U?$pair@$$CBJV?$tuple@VClient@@V?$basic_string@DU?$char_traits@D@std@@V?$allocator@D@2@@std@@V23@@std@@@std@@@2@$0A@@std@@@std@@IEAA?AU?$pair@PEAU?$_List_node@U?$pair@$$CBJV?$tuple@VClient@@V?$basic_string@DU?$char_traits@D@std@@V?$allocator@D@2@@std@@V23@@std@@@std@@PEAX@std@@_N@1@AEBJ@Z DB 06H
	DB	0c5H, 03H
	DB	02H
	DB	0adH, 03H
	DB	04H
	DB	'!', 03H
	DB	00H
xdata	ENDS
;	COMDAT xdata
xdata	SEGMENT
$stateUnwindMap$??$_Try_emplace@AEBJ$$V@?$_Hash@V?$_Umap_traits@JV?$tuple@VClient@@V?$basic_string@DU?$char_traits@D@std@@V?$allocator@D@2@@std@@V23@@std@@V?$_Uhash_compare@JU?$hash@J@std@@U?$equal_to@J@2@@2@V?$allocator@U?$pair@$$CBJV?$tuple@VClient@@V?$basic_string@DU?$char_traits@D@std@@V?$allocator@D@2@@std@@V23@@std@@@std@@@2@$0A@@std@@@std@@IEAA?AU?$pair@PEAU?$_List_node@U?$pair@$$CBJV?$tuple@VClient@@V?$basic_string@DU?$char_traits@D@std@@V?$allocator@D@2@@std@@V23@@std@@@std@@PEAX@std@@_N@1@AEBJ@Z DB 04H
	DB	0aH
	DD	imagerel ??1?$_Alloc_construct_ptr@V?$allocator@U?$_List_node@U?$pair@$$CBJV?$tuple@VClient@@V?$basic_string@DU?$char_traits@D@std@@V?$allocator@D@2@@std@@V23@@std@@@std@@PEAX@std@@@std@@@std@@QEAA@XZ
	DB	040H
	DB	03aH
	DD	imagerel ??1?$_List_node_emplace_op2@V?$allocator@U?$_List_node@U?$pair@$$CBJV?$tuple@VClient@@V?$basic_string@DU?$char_traits@D@std@@V?$allocator@D@2@@std@@V23@@std@@@std@@PEAX@std@@@std@@@std@@QEAA@XZ
	DB	040H
xdata	ENDS
;	COMDAT xdata
xdata	SEGMENT
$cppxdata$??$_Try_emplace@AEBJ$$V@?$_Hash@V?$_Umap_traits@JV?$tuple@VClient@@V?$basic_string@DU?$char_traits@D@std@@V?$allocator@D@2@@std@@V23@@std@@V?$_Uhash_compare@JU?$hash@J@std@@U?$equal_to@J@2@@2@V?$allocator@U?$pair@$$CBJV?$tuple@VClient@@V?$basic_string@DU?$char_traits@D@std@@V?$allocator@D@2@@std@@V23@@std@@@std@@@2@$0A@@std@@@std@@IEAA?AU?$pair@PEAU?$_List_node@U?$pair@$$CBJV?$tuple@VClient@@V?$basic_string@DU?$char_traits@D@std@@V?$allocator@D@2@@std@@V23@@std@@@std@@PEAX@std@@_N@1@AEBJ@Z DB 028H
	DD	imagerel $stateUnwindMap$??$_Try_emplace@AEBJ$$V@?$_Hash@V?$_Umap_traits@JV?$tuple@VClient@@V?$basic_string@DU?$char_traits@D@std@@V?$allocator@D@2@@std@@V23@@std@@V?$_Uhash_compare@JU?$hash@J@std@@U?$equal_to@J@2@@2@V?$allocator@U?$pair@$$CBJV?$tuple@VClient@@V?$basic_string@DU?$char_traits@D@std@@V?$allocator@D@2@@std@@V23@@std@@@std@@@2@$0A@@std@@@std@@IEAA?AU?$pair@PEAU?$_List_node@U?$pair@$$CBJV?$tuple@VClient@@V?$basic_string@DU?$char_traits@D@std@@V?$allocator@D@2@@std@@V23@@std@@@std@@PEAX@std@@_N@1@AEBJ@Z
	DD	imagerel $ip2state$??$_Try_emplace@AEBJ$$V@?$_Hash@V?$_Umap_traits@JV?$tuple@VClient@@V?$basic_string@DU?$char_traits@D@std@@V?$allocator@D@2@@std@@V23@@std@@V?$_Uhash_compare@JU?$hash@J@std@@U?$equal_to@J@2@@2@V?$allocator@U?$pair@$$CBJV?$tuple@VClient@@V?$basic_string@DU?$char_traits@D@std@@V?$allocator@D@2@@std@@V23@@std@@@std@@@2@$0A@@std@@@std@@IEAA?AU?$pair@PEAU?$_List_node@U?$pair@$$CBJV?$tuple@VClient@@V?$basic_string@DU?$char_traits@D@std@@V?$allocator@D@2@@std@@V23@@std@@@std@@PEAX@std@@_N@1@AEBJ@Z
xdata	ENDS
;	COMDAT xdata
xdata	SEGMENT
$unwind$??$_Try_emplace@AEBJ$$V@?$_Hash@V?$_Umap_traits@JV?$tuple@VClient@@V?$basic_string@DU?$char_traits@D@std@@V?$allocator@D@2@@std@@V23@@std@@V?$_Uhash_compare@JU?$hash@J@std@@U?$equal_to@J@2@@2@V?$allocator@U?$pair@$$CBJV?$tuple@VClient@@V?$basic_string@DU?$char_traits@D@std@@V?$allocator@D@2@@std@@V23@@std@@@std@@@2@$0A@@std@@@std@@IEAA?AU?$pair@PEAU?$_List_node@U?$pair@$$CBJV?$tuple@VClient@@V?$basic_string@DU?$char_traits@D@std@@V?$allocator@D@2@@std@@V23@@std@@@std@@PEAX@std@@_N@1@AEBJ@Z DD 0a1411H
	DD	0113414H
	DD	0f0105214H
	DD	0d00ce00eH
	DD	07008c00aH
	DD	050066007H
	DD	imagerel __CxxFrameHandler4
	DD	imagerel $cppxdata$??$_Try_emplace@AEBJ$$V@?$_Hash@V?$_Umap_traits@JV?$tuple@VClient@@V?$basic_string@DU?$char_traits@D@std@@V?$allocator@D@2@@std@@V23@@std@@V?$_Uhash_compare@JU?$hash@J@std@@U?$equal_to@J@2@@2@V?$allocator@U?$pair@$$CBJV?$tuple@VClient@@V?$basic_string@DU?$char_traits@D@std@@V?$allocator@D@2@@std@@V23@@std@@@std@@@2@$0A@@std@@@std@@IEAA?AU?$pair@PEAU?$_List_node@U?$pair@$$CBJV?$tuple@VClient@@V?$basic_string@DU?$char_traits@D@std@@V?$allocator@D@2@@std@@V23@@std@@@std@@PEAX@std@@_N@1@AEBJ@Z
xdata	ENDS
;	COMDAT xdata
xdata	SEGMENT
$chain$4$??$_Construct_n@AEBQEAEAEBQEAE@?$vector@EV?$allocator@E@std@@@std@@AEAAX_KAEBQEAE1@Z DD 020021H
	DD	047400H
	DD	imagerel $LN104
	DD	imagerel $LN104+46
	DD	imagerel $unwind$??$_Construct_n@AEBQEAEAEBQEAE@?$vector@EV?$allocator@E@std@@@std@@AEAAX_KAEBQEAE1@Z
xdata	ENDS
;	COMDAT xdata
xdata	SEGMENT
$chain$3$??$_Construct_n@AEBQEAEAEBQEAE@?$vector@EV?$allocator@E@std@@@std@@AEAAX_KAEBQEAE1@Z DD 021H
	DD	imagerel $LN104
	DD	imagerel $LN104+46
	DD	imagerel $unwind$??$_Construct_n@AEBQEAEAEBQEAE@?$vector@EV?$allocator@E@std@@@std@@AEAAX_KAEBQEAE1@Z
xdata	ENDS
;	COMDAT xdata
xdata	SEGMENT
$chain$2$??$_Construct_n@AEBQEAEAEBQEAE@?$vector@EV?$allocator@E@std@@@std@@AEAAX_KAEBQEAE1@Z DD 020021H
	DD	047400H
	DD	imagerel $LN104
	DD	imagerel $LN104+46
	DD	imagerel $unwind$??$_Construct_n@AEBQEAEAEBQEAE@?$vector@EV?$allocator@E@std@@@std@@AEAAX_KAEBQEAE1@Z
xdata	ENDS
;	COMDAT xdata
xdata	SEGMENT
$chain$1$??$_Construct_n@AEBQEAEAEBQEAE@?$vector@EV?$allocator@E@std@@@std@@AEAAX_KAEBQEAE1@Z DD 021H
	DD	imagerel $LN104
	DD	imagerel $LN104+46
	DD	imagerel $unwind$??$_Construct_n@AEBQEAEAEBQEAE@?$vector@EV?$allocator@E@std@@@std@@AEAAX_KAEBQEAE1@Z
xdata	ENDS
;	COMDAT xdata
xdata	SEGMENT
$chain$0$??$_Construct_n@AEBQEAEAEBQEAE@?$vector@EV?$allocator@E@std@@@std@@AEAAX_KAEBQEAE1@Z DD 020521H
	DD	047405H
	DD	imagerel $LN104
	DD	imagerel $LN104+46
	DD	imagerel $unwind$??$_Construct_n@AEBQEAEAEBQEAE@?$vector@EV?$allocator@E@std@@@std@@AEAAX_KAEBQEAE1@Z
xdata	ENDS
;	COMDAT xdata
xdata	SEGMENT
$unwind$??$_Construct_n@AEBQEAEAEBQEAE@?$vector@EV?$allocator@E@std@@@std@@AEAAX_KAEBQEAE1@Z DD 051301H
	DD	0f00f4213H
	DD	0600be00dH
	DD	0300aH
xdata	ENDS
;	COMDAT xdata
xdata	SEGMENT
$chain$2$??$_Free_non_head@V?$allocator@U?$_List_node@U?$pair@$$CBJV?$tuple@VClient@@V?$basic_string@DU?$char_traits@D@std@@V?$allocator@D@2@@std@@V23@@std@@@std@@PEAX@std@@@std@@@?$_List_node@U?$pair@$$CBJV?$tuple@VClient@@V?$basic_string@DU?$char_traits@D@std@@V?$allocator@D@2@@std@@V23@@std@@@std@@PEAX@std@@SAXAEAV?$allocator@U?$_List_node@U?$pair@$$CBJV?$tuple@VClient@@V?$basic_string@DU?$char_traits@D@std@@V?$allocator@D@2@@std@@V23@@std@@@std@@PEAX@std@@@1@PEAU01@@Z DD 021H
	DD	imagerel $LN88
	DD	imagerel $LN88+25
	DD	imagerel $unwind$??$_Free_non_head@V?$allocator@U?$_List_node@U?$pair@$$CBJV?$tuple@VClient@@V?$basic_string@DU?$char_traits@D@std@@V?$allocator@D@2@@std@@V23@@std@@@std@@PEAX@std@@@std@@@?$_List_node@U?$pair@$$CBJV?$tuple@VClient@@V?$basic_string@DU?$char_traits@D@std@@V?$allocator@D@2@@std@@V23@@std@@@std@@PEAX@std@@SAXAEAV?$allocator@U?$_List_node@U?$pair@$$CBJV?$tuple@VClient@@V?$basic_string@DU?$char_traits@D@std@@V?$allocator@D@2@@std@@V23@@std@@@std@@PEAX@std@@@1@PEAU01@@Z
xdata	ENDS
;	COMDAT xdata
xdata	SEGMENT
$chain$1$??$_Free_non_head@V?$allocator@U?$_List_node@U?$pair@$$CBJV?$tuple@VClient@@V?$basic_string@DU?$char_traits@D@std@@V?$allocator@D@2@@std@@V23@@std@@@std@@PEAX@std@@@std@@@?$_List_node@U?$pair@$$CBJV?$tuple@VClient@@V?$basic_string@DU?$char_traits@D@std@@V?$allocator@D@2@@std@@V23@@std@@@std@@PEAX@std@@SAXAEAV?$allocator@U?$_List_node@U?$pair@$$CBJV?$tuple@VClient@@V?$basic_string@DU?$char_traits@D@std@@V?$allocator@D@2@@std@@V23@@std@@@std@@PEAX@std@@@1@PEAU01@@Z DD 040a21H
	DD	08740aH
	DD	063405H
	DD	imagerel $LN88
	DD	imagerel $LN88+25
	DD	imagerel $unwind$??$_Free_non_head@V?$allocator@U?$_List_node@U?$pair@$$CBJV?$tuple@VClient@@V?$basic_string@DU?$char_traits@D@std@@V?$allocator@D@2@@std@@V23@@std@@@std@@PEAX@std@@@std@@@?$_List_node@U?$pair@$$CBJV?$tuple@VClient@@V?$basic_string@DU?$char_traits@D@std@@V?$allocator@D@2@@std@@V23@@std@@@std@@PEAX@std@@SAXAEAV?$allocator@U?$_List_node@U?$pair@$$CBJV?$tuple@VClient@@V?$basic_string@DU?$char_traits@D@std@@V?$allocator@D@2@@std@@V23@@std@@@std@@PEAX@std@@@1@PEAU01@@Z
xdata	ENDS
;	COMDAT xdata
xdata	SEGMENT
$unwind$??$_Free_non_head@V?$allocator@U?$_List_node@U?$pair@$$CBJV?$tuple@VClient@@V?$basic_string@DU?$char_traits@D@std@@V?$allocator@D@2@@std@@V23@@std@@@std@@PEAX@std@@@std@@@?$_List_node@U?$pair@$$CBJV?$tuple@VClient@@V?$basic_string@DU?$char_traits@D@std@@V?$allocator@D@2@@std@@V23@@std@@@std@@PEAX@std@@SAXAEAV?$allocator@U?$_List_node@U?$pair@$$CBJV?$tuple@VClient@@V?$basic_string@DU?$char_traits@D@std@@V?$allocator@D@2@@std@@V23@@std@@@std@@PEAX@std@@@1@PEAU01@@Z DD 020601H
	DD	060023206H
xdata	ENDS
;	COMDAT xdata
xdata	SEGMENT
$chain$1$??$fill@PEAV?$_List_unchecked_iterator@V?$_List_val@U?$_List_simple_types@U?$pair@$$CBJV?$tuple@VClient@@V?$basic_string@DU?$char_traits@D@std@@V?$allocator@D@2@@std@@V23@@std@@@std@@@std@@@std@@@std@@V12@@std@@YAXQEAV?$_List_unchecked_iterator@V?$_List_val@U?$_List_simple_types@U?$pair@$$CBJV?$tuple@VClient@@V?$basic_string@DU?$char_traits@D@std@@V?$allocator@D@2@@std@@V23@@std@@@std@@@std@@@std@@@0@0AEBV10@@Z DD 021H
	DD	imagerel $LN21
	DD	imagerel $LN21+62
	DD	imagerel $unwind$??$fill@PEAV?$_List_unchecked_iterator@V?$_List_val@U?$_List_simple_types@U?$pair@$$CBJV?$tuple@VClient@@V?$basic_string@DU?$char_traits@D@std@@V?$allocator@D@2@@std@@V23@@std@@@std@@@std@@@std@@@std@@V12@@std@@YAXQEAV?$_List_unchecked_iterator@V?$_List_val@U?$_List_simple_types@U?$pair@$$CBJV?$tuple@VClient@@V?$basic_string@DU?$char_traits@D@std@@V?$allocator@D@2@@std@@V23@@std@@@std@@@std@@@std@@@0@0AEBV10@@Z
xdata	ENDS
;	COMDAT xdata
xdata	SEGMENT
$chain$0$??$fill@PEAV?$_List_unchecked_iterator@V?$_List_val@U?$_List_simple_types@U?$pair@$$CBJV?$tuple@VClient@@V?$basic_string@DU?$char_traits@D@std@@V?$allocator@D@2@@std@@V23@@std@@@std@@@std@@@std@@@std@@V12@@std@@YAXQEAV?$_List_unchecked_iterator@V?$_List_val@U?$_List_simple_types@U?$pair@$$CBJV?$tuple@VClient@@V?$basic_string@DU?$char_traits@D@std@@V?$allocator@D@2@@std@@V23@@std@@@std@@@std@@@std@@@0@0AEBV10@@Z DD 020421H
	DD	07404H
	DD	imagerel $LN21
	DD	imagerel $LN21+62
	DD	imagerel $unwind$??$fill@PEAV?$_List_unchecked_iterator@V?$_List_val@U?$_List_simple_types@U?$pair@$$CBJV?$tuple@VClient@@V?$basic_string@DU?$char_traits@D@std@@V?$allocator@D@2@@std@@V23@@std@@@std@@@std@@@std@@@std@@V12@@std@@YAXQEAV?$_List_unchecked_iterator@V?$_List_val@U?$_List_simple_types@U?$pair@$$CBJV?$tuple@VClient@@V?$basic_string@DU?$char_traits@D@std@@V?$allocator@D@2@@std@@V23@@std@@@std@@@std@@@std@@@0@0AEBV10@@Z
xdata	ENDS
;	COMDAT xdata
xdata	SEGMENT
$unwind$??$fill@PEAV?$_List_unchecked_iterator@V?$_List_val@U?$_List_simple_types@U?$pair@$$CBJV?$tuple@VClient@@V?$basic_string@DU?$char_traits@D@std@@V?$allocator@D@2@@std@@V23@@std@@@std@@@std@@@std@@@std@@V12@@std@@YAXQEAV?$_List_unchecked_iterator@V?$_List_val@U?$_List_simple_types@U?$pair@$$CBJV?$tuple@VClient@@V?$basic_string@DU?$char_traits@D@std@@V?$allocator@D@2@@std@@V23@@std@@@std@@@std@@@std@@@0@0AEBV10@@Z DD 010401H
	DD	0204H
xdata	ENDS
;	COMDAT xdata
xdata	SEGMENT
$unwind$??1?$_Tidy_guard@V?$vector@EV?$allocator@E@std@@@std@@@std@@QEAA@XZ DD 020601H
	DD	030023206H
xdata	ENDS
;	COMDAT xdata
xdata	SEGMENT
$unwind$??1?$_List_node_emplace_op2@V?$allocator@U?$_List_node@U?$pair@$$CBJV?$tuple@VClient@@V?$basic_string@DU?$char_traits@D@std@@V?$allocator@D@2@@std@@V23@@std@@@std@@PEAX@std@@@std@@@std@@QEAA@XZ DD 040a01H
	DD	07340aH
	DD	07006320aH
xdata	ENDS
;	COMDAT xdata
xdata	SEGMENT
$unwind$?_Rehash_for_1@?$_Hash@V?$_Umap_traits@JV?$tuple@VClient@@V?$basic_string@DU?$char_traits@D@std@@V?$allocator@D@2@@std@@V23@@std@@V?$_Uhash_compare@JU?$hash@J@std@@U?$equal_to@J@2@@2@V?$allocator@U?$pair@$$CBJV?$tuple@VClient@@V?$basic_string@DU?$char_traits@D@std@@V?$allocator@D@2@@std@@V23@@std@@@std@@@2@$0A@@std@@@std@@IEAAXXZ DD 040a01H
	DD	06340aH
	DD	07006320aH
xdata	ENDS
;	COMDAT xdata
xdata	SEGMENT
$unwind$?_Check_max_size@?$_Hash@V?$_Umap_traits@JV?$tuple@VClient@@V?$basic_string@DU?$char_traits@D@std@@V?$allocator@D@2@@std@@V23@@std@@V?$_Uhash_compare@JU?$hash@J@std@@U?$equal_to@J@2@@2@V?$allocator@U?$pair@$$CBJV?$tuple@VClient@@V?$basic_string@DU?$char_traits@D@std@@V?$allocator@D@2@@std@@V23@@std@@@std@@@2@$0A@@std@@@std@@IEBAXXZ DD 010401H
	DD	04204H
xdata	ENDS
;	COMDAT xdata
xdata	SEGMENT
$unwind$?_Unchecked_erase@?$list@U?$pair@$$CBJV?$tuple@VClient@@V?$basic_string@DU?$char_traits@D@std@@V?$allocator@D@2@@std@@V23@@std@@@std@@V?$allocator@U?$pair@$$CBJV?$tuple@VClient@@V?$basic_string@DU?$char_traits@D@std@@V?$allocator@D@2@@std@@V23@@std@@@std@@@2@@std@@AEAAPEAU?$_List_node@U?$pair@$$CBJV?$tuple@VClient@@V?$basic_string@DU?$char_traits@D@std@@V?$allocator@D@2@@std@@V23@@std@@@std@@PEAX@2@QEAU32@@Z DD 060f01H
	DD	09640fH
	DD	08340fH
	DD	0700b320fH
xdata	ENDS
;	COMDAT xdata
xdata	SEGMENT
$unwind$?_Buy_nonzero@?$vector@EV?$allocator@E@std@@@std@@AEAAX_K@Z DD 040a01H
	DD	08340aH
	DD	07006320aH
xdata	ENDS
;	COMDAT xdata
xdata	SEGMENT
$unwind$??4?$basic_string@DU?$char_traits@D@std@@V?$allocator@D@2@@std@@QEAAAEAV01@$$QEAV01@@Z DD 040a01H
	DD	08340aH
	DD	07006320aH
xdata	ENDS
;	COMDAT xdata
xdata	SEGMENT
$chain$6$?_Forced_rehash@?$_Hash@V?$_Umap_traits@JV?$tuple@VClient@@V?$basic_string@DU?$char_traits@D@std@@V?$allocator@D@2@@std@@V23@@std@@V?$_Uhash_compare@JU?$hash@J@std@@U?$equal_to@J@2@@2@V?$allocator@U?$pair@$$CBJV?$tuple@VClient@@V?$basic_string@DU?$char_traits@D@std@@V?$allocator@D@2@@std@@V23@@std@@@std@@@2@$0A@@std@@@std@@IEAAX_K@Z DD 021H
	DD	imagerel $LN291
	DD	imagerel $LN291+47
	DD	imagerel $unwind$?_Forced_rehash@?$_Hash@V?$_Umap_traits@JV?$tuple@VClient@@V?$basic_string@DU?$char_traits@D@std@@V?$allocator@D@2@@std@@V23@@std@@V?$_Uhash_compare@JU?$hash@J@std@@U?$equal_to@J@2@@2@V?$allocator@U?$pair@$$CBJV?$tuple@VClient@@V?$basic_string@DU?$char_traits@D@std@@V?$allocator@D@2@@std@@V23@@std@@@std@@@2@$0A@@std@@@std@@IEAAX_K@Z
xdata	ENDS
;	COMDAT xdata
xdata	SEGMENT
$chain$5$?_Forced_rehash@?$_Hash@V?$_Umap_traits@JV?$tuple@VClient@@V?$basic_string@DU?$char_traits@D@std@@V?$allocator@D@2@@std@@V23@@std@@V?$_Uhash_compare@JU?$hash@J@std@@U?$equal_to@J@2@@2@V?$allocator@U?$pair@$$CBJV?$tuple@VClient@@V?$basic_string@DU?$char_traits@D@std@@V?$allocator@D@2@@std@@V23@@std@@@std@@@2@$0A@@std@@@std@@IEAAX_K@Z DD 060021H
	DD	04e400H
	DD	0b5400H
	DD	0a3400H
	DD	imagerel $LN291
	DD	imagerel $LN291+47
	DD	imagerel $unwind$?_Forced_rehash@?$_Hash@V?$_Umap_traits@JV?$tuple@VClient@@V?$basic_string@DU?$char_traits@D@std@@V?$allocator@D@2@@std@@V23@@std@@V?$_Uhash_compare@JU?$hash@J@std@@U?$equal_to@J@2@@2@V?$allocator@U?$pair@$$CBJV?$tuple@VClient@@V?$basic_string@DU?$char_traits@D@std@@V?$allocator@D@2@@std@@V23@@std@@@std@@@2@$0A@@std@@@std@@IEAAX_K@Z
xdata	ENDS
;	COMDAT xdata
xdata	SEGMENT
$chain$3$?_Forced_rehash@?$_Hash@V?$_Umap_traits@JV?$tuple@VClient@@V?$basic_string@DU?$char_traits@D@std@@V?$allocator@D@2@@std@@V23@@std@@V?$_Uhash_compare@JU?$hash@J@std@@U?$equal_to@J@2@@2@V?$allocator@U?$pair@$$CBJV?$tuple@VClient@@V?$basic_string@DU?$char_traits@D@std@@V?$allocator@D@2@@std@@V23@@std@@@std@@@2@$0A@@std@@@std@@IEAAX_K@Z DD 021H
	DD	imagerel $LN291+47
	DD	imagerel $LN291+120
	DD	imagerel $chain$1$?_Forced_rehash@?$_Hash@V?$_Umap_traits@JV?$tuple@VClient@@V?$basic_string@DU?$char_traits@D@std@@V?$allocator@D@2@@std@@V23@@std@@V?$_Uhash_compare@JU?$hash@J@std@@U?$equal_to@J@2@@2@V?$allocator@U?$pair@$$CBJV?$tuple@VClient@@V?$basic_string@DU?$char_traits@D@std@@V?$allocator@D@2@@std@@V23@@std@@@std@@@2@$0A@@std@@@std@@IEAAX_K@Z
xdata	ENDS
;	COMDAT xdata
xdata	SEGMENT
$chain$2$?_Forced_rehash@?$_Hash@V?$_Umap_traits@JV?$tuple@VClient@@V?$basic_string@DU?$char_traits@D@std@@V?$allocator@D@2@@std@@V23@@std@@V?$_Uhash_compare@JU?$hash@J@std@@U?$equal_to@J@2@@2@V?$allocator@U?$pair@$$CBJV?$tuple@VClient@@V?$basic_string@DU?$char_traits@D@std@@V?$allocator@D@2@@std@@V23@@std@@@std@@@2@$0A@@std@@@std@@IEAAX_K@Z DD 020521H
	DD	0b5405H
	DD	imagerel $LN291+47
	DD	imagerel $LN291+120
	DD	imagerel $chain$1$?_Forced_rehash@?$_Hash@V?$_Umap_traits@JV?$tuple@VClient@@V?$basic_string@DU?$char_traits@D@std@@V?$allocator@D@2@@std@@V23@@std@@V?$_Uhash_compare@JU?$hash@J@std@@U?$equal_to@J@2@@2@V?$allocator@U?$pair@$$CBJV?$tuple@VClient@@V?$basic_string@DU?$char_traits@D@std@@V?$allocator@D@2@@std@@V23@@std@@@std@@@2@$0A@@std@@@std@@IEAAX_K@Z
xdata	ENDS
;	COMDAT xdata
xdata	SEGMENT
$chain$1$?_Forced_rehash@?$_Hash@V?$_Umap_traits@JV?$tuple@VClient@@V?$basic_string@DU?$char_traits@D@std@@V?$allocator@D@2@@std@@V23@@std@@V?$_Uhash_compare@JU?$hash@J@std@@U?$equal_to@J@2@@2@V?$allocator@U?$pair@$$CBJV?$tuple@VClient@@V?$basic_string@DU?$char_traits@D@std@@V?$allocator@D@2@@std@@V23@@std@@@std@@@2@$0A@@std@@@std@@IEAAX_K@Z DD 041821H
	DD	04e418H
	DD	0a3405H
	DD	imagerel $LN291
	DD	imagerel $LN291+47
	DD	imagerel $unwind$?_Forced_rehash@?$_Hash@V?$_Umap_traits@JV?$tuple@VClient@@V?$basic_string@DU?$char_traits@D@std@@V?$allocator@D@2@@std@@V23@@std@@V?$_Uhash_compare@JU?$hash@J@std@@U?$equal_to@J@2@@2@V?$allocator@U?$pair@$$CBJV?$tuple@VClient@@V?$basic_string@DU?$char_traits@D@std@@V?$allocator@D@2@@std@@V23@@std@@@std@@@2@$0A@@std@@@std@@IEAAX_K@Z
xdata	ENDS
;	COMDAT xdata
xdata	SEGMENT
